TMS320C2000 Assembler PC v16.9.6 Tue Mar 06 18:34:40 2018

Tools Copyright (c) 1996-2017 Texas Instruments Incorporated
C:\Users\Admin\AppData\Local\Temp\{31C1AC2A-9DF2-49FD-82E3-4EC1724EAAB9} PAGE    1

       1              ;***************************************************************
       2              ;* TMS320C2000 C/C++ Codegen                    PC v16.9.6.LTS *
       3              ;* Date/Time created: Tue Mar 06 18:34:40 2018                 *
       4              ;***************************************************************
       5                      .compiler_opts --abi=coffabi --cla_support=cla0 --diag_wrap=off --float_support=softlib --hll_source=
       6                      .asg    XAR2, FP
       7              
       8              $C$DW$CU        .dwtag  DW_TAG_compile_unit
       9                      .dwattr $C$DW$CU, DW_AT_name("../source/DSP2803x_SysCtrl.c")
      10                      .dwattr $C$DW$CU, DW_AT_producer("TI TMS320C2000 C/C++ Codegen PC v16.9.6.LTS Copyright (c) 1996-2017
      11                      .dwattr $C$DW$CU, DW_AT_TI_version(0x01)
      12                      .dwattr $C$DW$CU, DW_AT_comp_dir("C:\Users\Admin\workspace_v7\KT1205_MGI_V7.2_REVC_MASTER_GPRS_180301
      13              
      14              $C$DW$1 .dwtag  DW_TAG_subprogram
      15                      .dwattr $C$DW$1, DW_AT_name("DSP28x_usDelay")
      16                      .dwattr $C$DW$1, DW_AT_TI_symbol_name("_DSP28x_usDelay")
      17                      .dwattr $C$DW$1, DW_AT_declaration
      18                      .dwattr $C$DW$1, DW_AT_external
      19              $C$DW$2 .dwtag  DW_TAG_formal_parameter
      20                      .dwattr $C$DW$2, DW_AT_type(*$C$DW$T$23)
      21              
      22                      .dwendtag $C$DW$1
      23              
      24              $C$DW$3 .dwtag  DW_TAG_variable
      25                      .dwattr $C$DW$3, DW_AT_name("CsmPwl")
      26                      .dwattr $C$DW$3, DW_AT_TI_symbol_name("_CsmPwl")
      27                      .dwattr $C$DW$3, DW_AT_type(*$C$DW$T$91)
      28                      .dwattr $C$DW$3, DW_AT_declaration
      29                      .dwattr $C$DW$3, DW_AT_external
      30              
      31              $C$DW$4 .dwtag  DW_TAG_variable
      32                      .dwattr $C$DW$4, DW_AT_name("FlashRegs")
      33                      .dwattr $C$DW$4, DW_AT_TI_symbol_name("_FlashRegs")
      34                      .dwattr $C$DW$4, DW_AT_type(*$C$DW$T$98)
      35                      .dwattr $C$DW$4, DW_AT_declaration
      36                      .dwattr $C$DW$4, DW_AT_external
      37              
      38              $C$DW$5 .dwtag  DW_TAG_variable
      39                      .dwattr $C$DW$5, DW_AT_name("CsmRegs")
      40                      .dwattr $C$DW$5, DW_AT_TI_symbol_name("_CsmRegs")
      41                      .dwattr $C$DW$5, DW_AT_type(*$C$DW$T$92)
      42                      .dwattr $C$DW$5, DW_AT_declaration
      43                      .dwattr $C$DW$5, DW_AT_external
      44              
      45              $C$DW$6 .dwtag  DW_TAG_variable
      46                      .dwattr $C$DW$6, DW_AT_name("SysCtrlRegs")
      47                      .dwattr $C$DW$6, DW_AT_TI_symbol_name("_SysCtrlRegs")
      48                      .dwattr $C$DW$6, DW_AT_type(*$C$DW$T$119)
      49                      .dwattr $C$DW$6, DW_AT_declaration
      50                      .dwattr $C$DW$6, DW_AT_external
      51              
      52              $C$DW$7 .dwtag  DW_TAG_variable
      53                      .dwattr $C$DW$7, DW_AT_name("GpioCtrlRegs")
      54                      .dwattr $C$DW$7, DW_AT_TI_symbol_name("_GpioCtrlRegs")
      55                      .dwattr $C$DW$7, DW_AT_type(*$C$DW$T$106)
TMS320C2000 Assembler PC v16.9.6 Tue Mar 06 18:34:40 2018

Tools Copyright (c) 1996-2017 Texas Instruments Incorporated
C:\Users\Admin\AppData\Local\Temp\{31C1AC2A-9DF2-49FD-82E3-4EC1724EAAB9} PAGE    2

      56                      .dwattr $C$DW$7, DW_AT_declaration
      57                      .dwattr $C$DW$7, DW_AT_external
      58              
      59              ;       C:\ti\ccsv7\tools\compiler\ti-cgt-c2000_16.9.6.LTS\bin\opt2000.exe C:\\Users\\Admin\\AppData\\Local\\
      60              ;       C:\ti\ccsv7\tools\compiler\ti-cgt-c2000_16.9.6.LTS\bin\ac2000.exe -@C:\\Users\\Admin\\AppData\\Local\
      61 00000000               .sect   ".text"
      62                      .clink
      63                      .global _XtalOscSel
      64              
      65              $C$DW$8 .dwtag  DW_TAG_subprogram
      66                      .dwattr $C$DW$8, DW_AT_name("XtalOscSel")
      67                      .dwattr $C$DW$8, DW_AT_low_pc(_XtalOscSel)
      68                      .dwattr $C$DW$8, DW_AT_high_pc(0x00)
      69                      .dwattr $C$DW$8, DW_AT_TI_symbol_name("_XtalOscSel")
      70                      .dwattr $C$DW$8, DW_AT_external
      71                      .dwattr $C$DW$8, DW_AT_TI_begin_file("../source/DSP2803x_SysCtrl.c")
      72                      .dwattr $C$DW$8, DW_AT_TI_begin_line(0x17d)
      73                      .dwattr $C$DW$8, DW_AT_TI_begin_column(0x06)
      74                      .dwattr $C$DW$8, DW_AT_TI_max_frame_size(-2)
      75                      .dwpsn  file "../source/DSP2803x_SysCtrl.c",line 381,column 25,is_stmt,address _XtalOscSel,isa 0
      76              
      77                      .dwfde $C$DW$CIE, _XtalOscSel
      78              
      79              ;***************************************************************
      80              ;* FNAME: _XtalOscSel                   FR SIZE:   0           *
      81              ;*                                                             *
      82              ;* FUNCTION ENVIRONMENT                                        *
      83              ;*                                                             *
      84              ;* FUNCTION PROPERTIES                                         *
      85              ;*                            0 Parameter,  0 Auto,  0 SOE     *
      86              ;***************************************************************
      87              
      88 00000000       _XtalOscSel:
      89                      .dwcfi  cfa_offset, -2
      90                      .dwcfi  save_reg_to_mem, 26, 0
      91 00000000 7622   EALLOW
      92 00000001 761F!         MOVW      DP,#_SysCtrlRegs+2    ; [CPU_U] 
         00000002 0000 
      93                      .dwpsn  file "../source/DSP2803x_SysCtrl.c",line 383,column 6,is_stmt,isa 0
      94 00000003 1802!         AND       @_SysCtrlRegs+2,#0xbfff ; [CPU_] |383| 
         00000004 BFFF 
      95                      .dwpsn  file "../source/DSP2803x_SysCtrl.c",line 384,column 6,is_stmt,isa 0
      96 00000005 1A02!         OR        @_SysCtrlRegs+2,#0x2000 ; [CPU_] |384| 
         00000006 2000 
      97                      .dwpsn  file "../source/DSP2803x_SysCtrl.c",line 385,column 6,is_stmt,isa 0
      98 00000007 1802!         AND       @_SysCtrlRegs+2,#0xfffd ; [CPU_] |385| 
         00000008 FFFD 
      99                      .dwpsn  file "../source/DSP2803x_SysCtrl.c",line 386,column 6,is_stmt,isa 0
     100 00000009 1A02!         OR        @_SysCtrlRegs+2,#0x0001 ; [CPU_] |386| 
         0000000a 0001 
     101                      .dwpsn  file "../source/DSP2803x_SysCtrl.c",line 387,column 6,is_stmt,isa 0
     102 0000000b 1A02!         OR        @_SysCtrlRegs+2,#0x0004 ; [CPU_] |387| 
         0000000c 0004 
     103                      .dwpsn  file "../source/DSP2803x_SysCtrl.c",line 388,column 6,is_stmt,isa 0
     104 0000000d 1A02!         OR        @_SysCtrlRegs+2,#0x0400 ; [CPU_] |388| 
TMS320C2000 Assembler PC v16.9.6 Tue Mar 06 18:34:40 2018

Tools Copyright (c) 1996-2017 Texas Instruments Incorporated
C:\Users\Admin\AppData\Local\Temp\{31C1AC2A-9DF2-49FD-82E3-4EC1724EAAB9} PAGE    3

         0000000e 0400 
     105                      .dwpsn  file "../source/DSP2803x_SysCtrl.c",line 389,column 6,is_stmt,isa 0
     106 0000000f 1A02!         OR        @_SysCtrlRegs+2,#0x0100 ; [CPU_] |389| 
         00000010 0100 
     107 00000011 761A   EDIS
     108 00000012 FF69          SPM       #0                    ; [CPU_] 
     109              $C$DW$9 .dwtag  DW_TAG_TI_branch
     110                      .dwattr $C$DW$9, DW_AT_low_pc(0x00)
     111                      .dwattr $C$DW$9, DW_AT_TI_return
     112              
     113 00000013 0006          LRETR     ; [CPU_] 
     114                      ; return occurs ; [] 
     115                      .dwattr $C$DW$8, DW_AT_TI_end_file("../source/DSP2803x_SysCtrl.c")
     116                      .dwattr $C$DW$8, DW_AT_TI_end_line(0x187)
     117                      .dwattr $C$DW$8, DW_AT_TI_end_column(0x01)
     118                      .dwendentry
     119                      .dwendtag $C$DW$8
     120              
     121 00000014               .sect   ".text"
     122                      .clink
     123                      .global _ServiceDog
     124              
     125              $C$DW$10        .dwtag  DW_TAG_subprogram
     126                      .dwattr $C$DW$10, DW_AT_name("ServiceDog")
     127                      .dwattr $C$DW$10, DW_AT_low_pc(_ServiceDog)
     128                      .dwattr $C$DW$10, DW_AT_high_pc(0x00)
     129                      .dwattr $C$DW$10, DW_AT_TI_symbol_name("_ServiceDog")
     130                      .dwattr $C$DW$10, DW_AT_external
     131                      .dwattr $C$DW$10, DW_AT_TI_begin_file("../source/DSP2803x_SysCtrl.c")
     132                      .dwattr $C$DW$10, DW_AT_TI_begin_line(0x75)
     133                      .dwattr $C$DW$10, DW_AT_TI_begin_column(0x06)
     134                      .dwattr $C$DW$10, DW_AT_TI_max_frame_size(-2)
     135                      .dwpsn  file "../source/DSP2803x_SysCtrl.c",line 118,column 1,is_stmt,address _ServiceDog,isa 0
     136              
     137                      .dwfde $C$DW$CIE, _ServiceDog
     138              
     139              ;***************************************************************
     140              ;* FNAME: _ServiceDog                   FR SIZE:   0           *
     141              ;*                                                             *
     142              ;* FUNCTION ENVIRONMENT                                        *
     143              ;*                                                             *
     144              ;* FUNCTION PROPERTIES                                         *
     145              ;*                            0 Parameter,  0 Auto,  0 SOE     *
     146              ;***************************************************************
     147              
     148 00000014       _ServiceDog:
     149                      .dwcfi  cfa_offset, -2
     150                      .dwcfi  save_reg_to_mem, 26, 0
     151 00000014 7622   EALLOW
     152 00000015 761F!         MOVW      DP,#_SysCtrlRegs+21   ; [CPU_U] 
         00000016 0000 
     153                      .dwpsn  file "../source/DSP2803x_SysCtrl.c",line 120,column 5,is_stmt,isa 0
     154 00000017 56BF!         MOVB      @_SysCtrlRegs+21,#85,UNC ; [CPU_] |120| 
         00000018 5515 
     155                      .dwpsn  file "../source/DSP2803x_SysCtrl.c",line 121,column 5,is_stmt,isa 0
TMS320C2000 Assembler PC v16.9.6 Tue Mar 06 18:34:40 2018

Tools Copyright (c) 1996-2017 Texas Instruments Incorporated
C:\Users\Admin\AppData\Local\Temp\{31C1AC2A-9DF2-49FD-82E3-4EC1724EAAB9} PAGE    4

     156 00000019 56BF!         MOVB      @_SysCtrlRegs+21,#170,UNC ; [CPU_] |121| 
         0000001a AA15 
     157 0000001b 761A   EDIS
     158 0000001c FF69          SPM       #0                    ; [CPU_] 
     159              $C$DW$11        .dwtag  DW_TAG_TI_branch
     160                      .dwattr $C$DW$11, DW_AT_low_pc(0x00)
     161                      .dwattr $C$DW$11, DW_AT_TI_return
     162              
     163 0000001d 0006          LRETR     ; [CPU_] 
     164                      ; return occurs ; [] 
     165                      .dwattr $C$DW$10, DW_AT_TI_end_file("../source/DSP2803x_SysCtrl.c")
     166                      .dwattr $C$DW$10, DW_AT_TI_end_line(0x7b)
     167                      .dwattr $C$DW$10, DW_AT_TI_end_column(0x01)
     168                      .dwendentry
     169                      .dwendtag $C$DW$10
     170              
     171 0000001e               .sect   ".text"
     172                      .clink
     173                      .global _IntOsc2Sel
     174              
     175              $C$DW$12        .dwtag  DW_TAG_subprogram
     176                      .dwattr $C$DW$12, DW_AT_name("IntOsc2Sel")
     177                      .dwattr $C$DW$12, DW_AT_low_pc(_IntOsc2Sel)
     178                      .dwattr $C$DW$12, DW_AT_high_pc(0x00)
     179                      .dwattr $C$DW$12, DW_AT_TI_symbol_name("_IntOsc2Sel")
     180                      .dwattr $C$DW$12, DW_AT_external
     181                      .dwattr $C$DW$12, DW_AT_TI_begin_file("../source/DSP2803x_SysCtrl.c")
     182                      .dwattr $C$DW$12, DW_AT_TI_begin_line(0x16a)
     183                      .dwattr $C$DW$12, DW_AT_TI_begin_column(0x06)
     184                      .dwattr $C$DW$12, DW_AT_TI_max_frame_size(-2)
     185                      .dwpsn  file "../source/DSP2803x_SysCtrl.c",line 362,column 24,is_stmt,address _IntOsc2Sel,isa 0
     186              
     187                      .dwfde $C$DW$CIE, _IntOsc2Sel
     188              
     189              ;***************************************************************
     190              ;* FNAME: _IntOsc2Sel                   FR SIZE:   0           *
     191              ;*                                                             *
     192              ;* FUNCTION ENVIRONMENT                                        *
     193              ;*                                                             *
     194              ;* FUNCTION PROPERTIES                                         *
     195              ;*                            0 Parameter,  0 Auto,  0 SOE     *
     196              ;***************************************************************
     197              
     198 0000001e       _IntOsc2Sel:
     199                      .dwcfi  cfa_offset, -2
     200                      .dwcfi  save_reg_to_mem, 26, 0
     201 0000001e 7622   EALLOW
     202 0000001f 761F!         MOVW      DP,#_SysCtrlRegs+2    ; [CPU_U] 
         00000020 0000 
     203                      .dwpsn  file "../source/DSP2803x_SysCtrl.c",line 364,column 5,is_stmt,isa 0
     204 00000021 1802!         AND       @_SysCtrlRegs+2,#0xfbff ; [CPU_] |364| 
         00000022 FBFF 
     205                      .dwpsn  file "../source/DSP2803x_SysCtrl.c",line 365,column 5,is_stmt,isa 0
     206 00000023 1A02!         OR        @_SysCtrlRegs+2,#0x0002 ; [CPU_] |365| 
         00000024 0002 
TMS320C2000 Assembler PC v16.9.6 Tue Mar 06 18:34:40 2018

Tools Copyright (c) 1996-2017 Texas Instruments Incorporated
C:\Users\Admin\AppData\Local\Temp\{31C1AC2A-9DF2-49FD-82E3-4EC1724EAAB9} PAGE    5

     207                      .dwpsn  file "../source/DSP2803x_SysCtrl.c",line 366,column 5,is_stmt,isa 0
     208 00000025 1A02!         OR        @_SysCtrlRegs+2,#0x2000 ; [CPU_] |366| 
         00000026 2000 
     209                      .dwpsn  file "../source/DSP2803x_SysCtrl.c",line 367,column 5,is_stmt,isa 0
     210 00000027 1A02!         OR        @_SysCtrlRegs+2,#0x4000 ; [CPU_] |367| 
         00000028 4000 
     211                      .dwpsn  file "../source/DSP2803x_SysCtrl.c",line 368,column 5,is_stmt,isa 0
     212 00000029 1A02!         OR        @_SysCtrlRegs+2,#0x0001 ; [CPU_] |368| 
         0000002a 0001 
     213                      .dwpsn  file "../source/DSP2803x_SysCtrl.c",line 369,column 5,is_stmt,isa 0
     214 0000002b 1A02!         OR        @_SysCtrlRegs+2,#0x0004 ; [CPU_] |369| 
         0000002c 0004 
     215                      .dwpsn  file "../source/DSP2803x_SysCtrl.c",line 370,column 5,is_stmt,isa 0
     216 0000002d 1A02!         OR        @_SysCtrlRegs+2,#0x0100 ; [CPU_] |370| 
         0000002e 0100 
     217 0000002f 761A   EDIS
     218 00000030 FF69          SPM       #0                    ; [CPU_] 
     219              $C$DW$13        .dwtag  DW_TAG_TI_branch
     220                      .dwattr $C$DW$13, DW_AT_low_pc(0x00)
     221                      .dwattr $C$DW$13, DW_AT_TI_return
     222              
     223 00000031 0006          LRETR     ; [CPU_] 
     224                      ; return occurs ; [] 
     225                      .dwattr $C$DW$12, DW_AT_TI_end_file("../source/DSP2803x_SysCtrl.c")
     226                      .dwattr $C$DW$12, DW_AT_TI_end_line(0x174)
     227                      .dwattr $C$DW$12, DW_AT_TI_end_column(0x01)
     228                      .dwendentry
     229                      .dwendtag $C$DW$12
     230              
     231 00000032               .sect   ".text"
     232                      .clink
     233                      .global _IntOsc1Sel
     234              
     235              $C$DW$14        .dwtag  DW_TAG_subprogram
     236                      .dwattr $C$DW$14, DW_AT_name("IntOsc1Sel")
     237                      .dwattr $C$DW$14, DW_AT_low_pc(_IntOsc1Sel)
     238                      .dwattr $C$DW$14, DW_AT_high_pc(0x00)
     239                      .dwattr $C$DW$14, DW_AT_TI_symbol_name("_IntOsc1Sel")
     240                      .dwattr $C$DW$14, DW_AT_external
     241                      .dwattr $C$DW$14, DW_AT_TI_begin_file("../source/DSP2803x_SysCtrl.c")
     242                      .dwattr $C$DW$14, DW_AT_TI_begin_line(0x157)
     243                      .dwattr $C$DW$14, DW_AT_TI_begin_column(0x06)
     244                      .dwattr $C$DW$14, DW_AT_TI_max_frame_size(-2)
     245                      .dwpsn  file "../source/DSP2803x_SysCtrl.c",line 343,column 24,is_stmt,address _IntOsc1Sel,isa 0
     246              
     247                      .dwfde $C$DW$CIE, _IntOsc1Sel
     248              
     249              ;***************************************************************
     250              ;* FNAME: _IntOsc1Sel                   FR SIZE:   0           *
     251              ;*                                                             *
     252              ;* FUNCTION ENVIRONMENT                                        *
     253              ;*                                                             *
     254              ;* FUNCTION PROPERTIES                                         *
     255              ;*                            0 Parameter,  0 Auto,  0 SOE     *
     256              ;***************************************************************
TMS320C2000 Assembler PC v16.9.6 Tue Mar 06 18:34:40 2018

Tools Copyright (c) 1996-2017 Texas Instruments Incorporated
C:\Users\Admin\AppData\Local\Temp\{31C1AC2A-9DF2-49FD-82E3-4EC1724EAAB9} PAGE    6

     257              
     258 00000032       _IntOsc1Sel:
     259                      .dwcfi  cfa_offset, -2
     260                      .dwcfi  save_reg_to_mem, 26, 0
     261 00000032 7622   EALLOW
     262 00000033 761F!         MOVW      DP,#_SysCtrlRegs+2    ; [CPU_U] 
         00000034 0000 
     263                      .dwpsn  file "../source/DSP2803x_SysCtrl.c",line 345,column 5,is_stmt,isa 0
     264 00000035 1802!         AND       @_SysCtrlRegs+2,#0xfeff ; [CPU_] |345| 
         00000036 FEFF 
     265                      .dwpsn  file "../source/DSP2803x_SysCtrl.c",line 346,column 5,is_stmt,isa 0
     266 00000037 1802!         AND       @_SysCtrlRegs+2,#0xfffe ; [CPU_] |346| 
         00000038 FFFE 
     267                      .dwpsn  file "../source/DSP2803x_SysCtrl.c",line 347,column 5,is_stmt,isa 0
     268 00000039 1A02!         OR        @_SysCtrlRegs+2,#0x2000 ; [CPU_] |347| 
         0000003a 2000 
     269                      .dwpsn  file "../source/DSP2803x_SysCtrl.c",line 348,column 5,is_stmt,isa 0
     270 0000003b 1A02!         OR        @_SysCtrlRegs+2,#0x4000 ; [CPU_] |348| 
         0000003c 4000 
     271                      .dwpsn  file "../source/DSP2803x_SysCtrl.c",line 349,column 5,is_stmt,isa 0
     272 0000003d 1A02!         OR        @_SysCtrlRegs+2,#0x0400 ; [CPU_] |349| 
         0000003e 0400 
     273 0000003f 761A   EDIS
     274 00000040 FF69          SPM       #0                    ; [CPU_] 
     275              $C$DW$15        .dwtag  DW_TAG_TI_branch
     276                      .dwattr $C$DW$15, DW_AT_low_pc(0x00)
     277                      .dwattr $C$DW$15, DW_AT_TI_return
     278              
     279 00000041 0006          LRETR     ; [CPU_] 
     280                      ; return occurs ; [] 
     281                      .dwattr $C$DW$14, DW_AT_TI_end_file("../source/DSP2803x_SysCtrl.c")
     282                      .dwattr $C$DW$14, DW_AT_TI_end_line(0x15f)
     283                      .dwattr $C$DW$14, DW_AT_TI_end_column(0x01)
     284                      .dwendentry
     285                      .dwendtag $C$DW$14
     286              
     287 00000042               .sect   ".text"
     288                      .clink
     289                      .global _DisableDog
     290              
     291              $C$DW$16        .dwtag  DW_TAG_subprogram
     292                      .dwattr $C$DW$16, DW_AT_name("DisableDog")
     293                      .dwattr $C$DW$16, DW_AT_low_pc(_DisableDog)
     294                      .dwattr $C$DW$16, DW_AT_high_pc(0x00)
     295                      .dwattr $C$DW$16, DW_AT_TI_symbol_name("_DisableDog")
     296                      .dwattr $C$DW$16, DW_AT_external
     297                      .dwattr $C$DW$16, DW_AT_TI_begin_file("../source/DSP2803x_SysCtrl.c")
     298                      .dwattr $C$DW$16, DW_AT_TI_begin_line(0x82)
     299                      .dwattr $C$DW$16, DW_AT_TI_begin_column(0x06)
     300                      .dwattr $C$DW$16, DW_AT_TI_max_frame_size(-2)
     301                      .dwpsn  file "../source/DSP2803x_SysCtrl.c",line 131,column 1,is_stmt,address _DisableDog,isa 0
     302              
     303                      .dwfde $C$DW$CIE, _DisableDog
     304              
     305              ;***************************************************************
TMS320C2000 Assembler PC v16.9.6 Tue Mar 06 18:34:40 2018

Tools Copyright (c) 1996-2017 Texas Instruments Incorporated
C:\Users\Admin\AppData\Local\Temp\{31C1AC2A-9DF2-49FD-82E3-4EC1724EAAB9} PAGE    7

     306              ;* FNAME: _DisableDog                   FR SIZE:   0           *
     307              ;*                                                             *
     308              ;* FUNCTION ENVIRONMENT                                        *
     309              ;*                                                             *
     310              ;* FUNCTION PROPERTIES                                         *
     311              ;*                            0 Parameter,  0 Auto,  0 SOE     *
     312              ;***************************************************************
     313              
     314 00000042       _DisableDog:
     315                      .dwcfi  cfa_offset, -2
     316                      .dwcfi  save_reg_to_mem, 26, 0
     317 00000042 7622   EALLOW
     318 00000043 761F!         MOVW      DP,#_SysCtrlRegs+25   ; [CPU_U] 
         00000044 0000 
     319                      .dwpsn  file "../source/DSP2803x_SysCtrl.c",line 133,column 5,is_stmt,isa 0
     320 00000045 56BF!         MOVB      @_SysCtrlRegs+25,#104,UNC ; [CPU_] |133| 
         00000046 6819 
     321 00000047 761A   EDIS
     322 00000048 FF69          SPM       #0                    ; [CPU_] 
     323              $C$DW$17        .dwtag  DW_TAG_TI_branch
     324                      .dwattr $C$DW$17, DW_AT_low_pc(0x00)
     325                      .dwattr $C$DW$17, DW_AT_TI_return
     326              
     327 00000049 0006          LRETR     ; [CPU_] 
     328                      ; return occurs ; [] 
     329                      .dwattr $C$DW$16, DW_AT_TI_end_file("../source/DSP2803x_SysCtrl.c")
     330                      .dwattr $C$DW$16, DW_AT_TI_end_line(0x87)
     331                      .dwattr $C$DW$16, DW_AT_TI_end_column(0x01)
     332                      .dwendentry
     333                      .dwendtag $C$DW$16
     334              
     335 0000004a               .sect   ".text"
     336                      .clink
     337                      .global _InitPll
     338              
     339              $C$DW$18        .dwtag  DW_TAG_subprogram
     340                      .dwattr $C$DW$18, DW_AT_name("InitPll")
     341                      .dwattr $C$DW$18, DW_AT_low_pc(_InitPll)
     342                      .dwattr $C$DW$18, DW_AT_high_pc(0x00)
     343                      .dwattr $C$DW$18, DW_AT_TI_symbol_name("_InitPll")
     344                      .dwattr $C$DW$18, DW_AT_external
     345                      .dwattr $C$DW$18, DW_AT_TI_begin_file("../source/DSP2803x_SysCtrl.c")
     346                      .dwattr $C$DW$18, DW_AT_TI_begin_line(0x8e)
     347                      .dwattr $C$DW$18, DW_AT_TI_begin_column(0x06)
     348                      .dwattr $C$DW$18, DW_AT_TI_max_frame_size(-2)
     349                      .dwpsn  file "../source/DSP2803x_SysCtrl.c",line 143,column 1,is_stmt,address _InitPll,isa 0
     350              
     351                      .dwfde $C$DW$CIE, _InitPll
     352              $C$DW$19        .dwtag  DW_TAG_formal_parameter
     353                      .dwattr $C$DW$19, DW_AT_name("val")
     354                      .dwattr $C$DW$19, DW_AT_TI_symbol_name("_val")
     355                      .dwattr $C$DW$19, DW_AT_type(*$C$DW$T$19)
     356                      .dwattr $C$DW$19, DW_AT_location[DW_OP_reg0]
     357              
     358              $C$DW$20        .dwtag  DW_TAG_formal_parameter
TMS320C2000 Assembler PC v16.9.6 Tue Mar 06 18:34:40 2018

Tools Copyright (c) 1996-2017 Texas Instruments Incorporated
C:\Users\Admin\AppData\Local\Temp\{31C1AC2A-9DF2-49FD-82E3-4EC1724EAAB9} PAGE    8

     359                      .dwattr $C$DW$20, DW_AT_name("divsel")
     360                      .dwattr $C$DW$20, DW_AT_TI_symbol_name("_divsel")
     361                      .dwattr $C$DW$20, DW_AT_type(*$C$DW$T$19)
     362                      .dwattr $C$DW$20, DW_AT_location[DW_OP_reg1]
     363              
     364              
     365              ;***************************************************************
     366              ;* FNAME: _InitPll                      FR SIZE:   0           *
     367              ;*                                                             *
     368              ;* FUNCTION ENVIRONMENT                                        *
     369              ;*                                                             *
     370              ;* FUNCTION PROPERTIES                                         *
     371              ;*                            0 Parameter,  0 Auto,  0 SOE     *
     372              ;***************************************************************
     373              
     374              _InitPll:
     375              ;* AR4   assigned to $O$C1
     376              ;* AR7   assigned to _val
     377              $C$DW$21        .dwtag  DW_TAG_variable
     378                      .dwattr $C$DW$21, DW_AT_name("val")
     379                      .dwattr $C$DW$21, DW_AT_TI_symbol_name("_val")
     380                      .dwattr $C$DW$21, DW_AT_type(*$C$DW$T$128)
     381                      .dwattr $C$DW$21, DW_AT_location[DW_OP_reg18]
     382              
     383              ;* AR6   assigned to _divsel
     384              $C$DW$22        .dwtag  DW_TAG_variable
     385                      .dwattr $C$DW$22, DW_AT_name("divsel")
     386                      .dwattr $C$DW$22, DW_AT_TI_symbol_name("_divsel")
     387                      .dwattr $C$DW$22, DW_AT_type(*$C$DW$T$128)
     388                      .dwattr $C$DW$22, DW_AT_location[DW_OP_reg16]
     389              
     390                      .dwcfi  cfa_offset, -2
     391                      .dwcfi  save_reg_to_mem, 26, 0
     392 0000004a 761F!         MOVW      DP,#_SysCtrlRegs+1    ; [CPU_U] 
         0000004b 0000 
     393 0000004c 88A8          MOVZ      AR6,AH                ; [CPU_] |143| 
     394 0000004d 80A9          MOVZ      AR7,AL                ; [CPU_] |143| 
     395                      .dwpsn  file "../source/DSP2803x_SysCtrl.c",line 147,column 4,is_stmt,isa 0
     396 0000004e 4301!         TBIT      @_SysCtrlRegs+1,#3    ; [CPU_] |147| 
     397 0000004f 6C06          B         $C$L1,NTC             ; [CPU_] |147| 
     398                      ; branchcc occurs ; [] |147| 
     399 00000050 7622   EALLOW
     400                      .dwpsn  file "../source/DSP2803x_SysCtrl.c",line 152,column 7,is_stmt,isa 0
     401 00000051 1A01!         OR        @_SysCtrlRegs+1,#0x0010 ; [CPU_] |152| 
         00000052 0010 
     402 00000053 761A   EDIS
     403 00000054 7625          ESTOP0
     404 00000055       $C$L1:    
     405                      .dwpsn  file "../source/DSP2803x_SysCtrl.c",line 162,column 4,is_stmt,isa 0
     406 00000055 CC01!         AND       AL,@_SysCtrlRegs+1,#0x0180 ; [CPU_] |162| 
         00000056 0180 
     407 00000057 6105          B         $C$L2,EQ              ; [CPU_] |162| 
     408                      ; branchcc occurs ; [] |162| 
     409 00000058 7622   EALLOW
     410                      .dwpsn  file "../source/DSP2803x_SysCtrl.c",line 165,column 8,is_stmt,isa 0
TMS320C2000 Assembler PC v16.9.6 Tue Mar 06 18:34:40 2018

Tools Copyright (c) 1996-2017 Texas Instruments Incorporated
C:\Users\Admin\AppData\Local\Temp\{31C1AC2A-9DF2-49FD-82E3-4EC1724EAAB9} PAGE    9

     411 00000059 1801!         AND       @_SysCtrlRegs+1,#0xfe7f ; [CPU_] |165| 
         0000005a FE7F 
     412 0000005b 761A   EDIS
     413 0000005c       $C$L2:    
     414                      .dwpsn  file "../source/DSP2803x_SysCtrl.c",line 170,column 4,is_stmt,isa 0
     415 0000005c 8F00!         MOVL      XAR4,#_SysCtrlRegs    ; [CPU_U] |170| 
         0000005d 0000 
     416 0000005e D011          MOVB      XAR0,#17              ; [CPU_] |170| 
     417 0000005f 2BAA          MOV       PH,#0                 ; [CPU_] |170| 
     418 00000060 9294          MOV       AL,*+XAR4[AR0]        ; [CPU_] |170| 
     419 00000061 900F          ANDB      AL,#0x0f              ; [CPU_] |170| 
     420 00000062 27A9          MOV       PL,AL                 ; [CPU_] |170| 
     421 00000063 0EA7          MOVU      ACC,AR7               ; [CPU_] |170| 
     422 00000064 0FAB          CMPL      ACC,P                 ; [CPU_] |170| 
     423 00000065 6114          B         $C$L4,EQ              ; [CPU_] |170| 
     424                      ; branchcc occurs ; [] |170| 
     425 00000066 7622   EALLOW
     426                      .dwpsn  file "../source/DSP2803x_SysCtrl.c",line 175,column 7,is_stmt,isa 0
     427 00000067 1ACC          OR        *+XAR4[1],#0x0040     ; [CPU_] |175| 
         00000068 0040 
     428                      .dwpsn  file "../source/DSP2803x_SysCtrl.c",line 176,column 7,is_stmt,isa 0
     429 00000069 CCA7          AND       AL,AR7,#0x000f        ; [CPU_] |176| 
         0000006a 000F 
     430 0000006b CD11!         AND       AH,@_SysCtrlRegs+17,#0xfff0 ; [CPU_] |176| 
         0000006c FFF0 
     431 0000006d CAA8          OR        AL,AH                 ; [CPU_] |176| 
     432 0000006e 9611!         MOV       @_SysCtrlRegs+17,AL   ; [CPU_] |176| 
     433 0000006f 761A   EDIS
     434 00000070 FF69          SPM       #0                    ; [CPU_] 
     435                      .dwpsn  file "../source/DSP2803x_SysCtrl.c",line 197,column 7,is_stmt,isa 0
     436              $C$DW$23        .dwtag  DW_TAG_TI_branch
     437                      .dwattr $C$DW$23, DW_AT_low_pc(0x00)
     438                      .dwattr $C$DW$23, DW_AT_name("_DisableDog")
     439                      .dwattr $C$DW$23, DW_AT_TI_call
     440              
     441 00000071 7640'         LCR       #_DisableDog          ; [CPU_] |197| 
         00000072 0042 
     442                      ; call occurs [#_DisableDog] ; [] |197| 
     443 00000073       $C$L3:    
     444                      .dwpsn  file "../source/DSP2803x_SysCtrl.c",line 199,column 13,is_stmt,isa 0
     445 00000073 4001!         TBIT      @_SysCtrlRegs+1,#0    ; [CPU_] |199| 
     446 00000074 6CFF          B         $C$L3,NTC             ; [CPU_] |199| 
     447                      ; branchcc occurs ; [] |199| 
     448 00000075 7622   EALLOW
     449                      .dwpsn  file "../source/DSP2803x_SysCtrl.c",line 206,column 7,is_stmt,isa 0
     450 00000076 1801!         AND       @_SysCtrlRegs+1,#0xffbf ; [CPU_] |206| 
         00000077 FFBF 
     451 00000078 761A   EDIS
     452 00000079       $C$L4:    
     453 00000079 92A6          MOV       AL,AR6                ; [CPU_] 
     454                      .dwpsn  file "../source/DSP2803x_SysCtrl.c",line 211,column 5,is_stmt,isa 0
     455 0000007a 5201          CMPB      AL,#1                 ; [CPU_] |211| 
     456 0000007b 6103          B         $C$L5,EQ              ; [CPU_] |211| 
     457                      ; branchcc occurs ; [] |211| 
     458 0000007c 5202          CMPB      AL,#2                 ; [CPU_] |211| 
TMS320C2000 Assembler PC v16.9.6 Tue Mar 06 18:34:40 2018

Tools Copyright (c) 1996-2017 Texas Instruments Incorporated
C:\Users\Admin\AppData\Local\Temp\{31C1AC2A-9DF2-49FD-82E3-4EC1724EAAB9} PAGE   10

     459 0000007d 6009          B         $C$L6,NEQ             ; [CPU_] |211| 
     460                      ; branchcc occurs ; [] |211| 
     461 0000007e       $C$L5:    
     462 0000007e 7622   EALLOW
     463                      .dwpsn  file "../source/DSP2803x_SysCtrl.c",line 214,column 9,is_stmt,isa 0
     464 0000007f 9003          ANDB      AL,#3                 ; [CPU_] |214| 
     465 00000080 CD01!         AND       AH,@_SysCtrlRegs+1,#0xfe7f ; [CPU_] |214| 
         00000081 FE7F 
     466 00000082 FF86          LSL       AL,7                  ; [CPU_] |214| 
     467 00000083 CAA8          OR        AL,AH                 ; [CPU_] |214| 
     468 00000084 9601!         MOV       @_SysCtrlRegs+1,AL    ; [CPU_] |214| 
     469 00000085 761A   EDIS
     470 00000086       $C$L6:    
     471 00000086 92A6          MOV       AL,AR6                ; [CPU_] 
     472                      .dwpsn  file "../source/DSP2803x_SysCtrl.c",line 222,column 5,is_stmt,isa 0
     473 00000087 5203          CMPB      AL,#3                 ; [CPU_] |222| 
     474 00000088 6012          B         $C$L7,NEQ             ; [CPU_] |222| 
     475                      ; branchcc occurs ; [] |222| 
     476 00000089 7622   EALLOW
     477                      .dwpsn  file "../source/DSP2803x_SysCtrl.c",line 225,column 9,is_stmt,isa 0
     478 0000008a CC01!         AND       AL,@_SysCtrlRegs+1,#0xff7f ; [CPU_] |225| 
         0000008b FF7F 
     479                      .dwpsn  file "../source/DSP2803x_SysCtrl.c",line 226,column 9,is_stmt,isa 0
     480 0000008c 8F00          MOVL      XAR4,#598             ; [CPU_U] |226| 
         0000008d 0256 
     481 0000008e FF69          SPM       #0                    ; [CPU_] 
     482                      .dwpsn  file "../source/DSP2803x_SysCtrl.c",line 225,column 9,is_stmt,isa 0
     483 0000008f 1AA9          OR        AL,#0x0100            ; [CPU_] |225| 
         00000090 0100 
     484 00000091 9601!         MOV       @_SysCtrlRegs+1,AL    ; [CPU_] |225| 
     485                      .dwpsn  file "../source/DSP2803x_SysCtrl.c",line 226,column 9,is_stmt,isa 0
     486 00000092 A8A9          MOVL      ACC,XAR4              ; [CPU_] |226| 
     487              $C$DW$24        .dwtag  DW_TAG_TI_branch
     488                      .dwattr $C$DW$24, DW_AT_low_pc(0x00)
     489                      .dwattr $C$DW$24, DW_AT_name("_DSP28x_usDelay")
     490                      .dwattr $C$DW$24, DW_AT_TI_call
     491              
     492 00000093 7640!         LCR       #_DSP28x_usDelay      ; [CPU_] |226| 
         00000094 0000 
     493                      ; call occurs [#_DSP28x_usDelay] ; [] |226| 
     494 00000095 761F!         MOVW      DP,#_SysCtrlRegs+1    ; [CPU_U] 
         00000096 0000 
     495                      .dwpsn  file "../source/DSP2803x_SysCtrl.c",line 227,column 9,is_stmt,isa 0
     496 00000097 1A01!         OR        @_SysCtrlRegs+1,#0x0180 ; [CPU_] |227| 
         00000098 0180 
     497 00000099 761A   EDIS
     498 0000009a       $C$L7:    
     499 0000009a FF69          SPM       #0                    ; [CPU_] 
     500              $C$DW$25        .dwtag  DW_TAG_TI_branch
     501                      .dwattr $C$DW$25, DW_AT_low_pc(0x00)
     502                      .dwattr $C$DW$25, DW_AT_TI_return
     503              
     504 0000009b 0006          LRETR     ; [CPU_] 
     505                      ; return occurs ; [] 
     506                      .dwattr $C$DW$18, DW_AT_TI_end_file("../source/DSP2803x_SysCtrl.c")
TMS320C2000 Assembler PC v16.9.6 Tue Mar 06 18:34:40 2018

Tools Copyright (c) 1996-2017 Texas Instruments Incorporated
C:\Users\Admin\AppData\Local\Temp\{31C1AC2A-9DF2-49FD-82E3-4EC1724EAAB9} PAGE   11

     507                      .dwattr $C$DW$18, DW_AT_TI_end_line(0xe6)
     508                      .dwattr $C$DW$18, DW_AT_TI_end_column(0x01)
     509                      .dwendentry
     510                      .dwendtag $C$DW$18
     511              
     512 0000009c               .sect   ".text"
     513                      .clink
     514                      .global _InitPeripheralClocks
     515              
     516              $C$DW$26        .dwtag  DW_TAG_subprogram
     517                      .dwattr $C$DW$26, DW_AT_name("InitPeripheralClocks")
     518                      .dwattr $C$DW$26, DW_AT_low_pc(_InitPeripheralClocks)
     519                      .dwattr $C$DW$26, DW_AT_high_pc(0x00)
     520                      .dwattr $C$DW$26, DW_AT_TI_symbol_name("_InitPeripheralClocks")
     521                      .dwattr $C$DW$26, DW_AT_external
     522                      .dwattr $C$DW$26, DW_AT_TI_begin_file("../source/DSP2803x_SysCtrl.c")
     523                      .dwattr $C$DW$26, DW_AT_TI_begin_line(0xf3)
     524                      .dwattr $C$DW$26, DW_AT_TI_begin_column(0x06)
     525                      .dwattr $C$DW$26, DW_AT_TI_max_frame_size(-2)
     526                      .dwpsn  file "../source/DSP2803x_SysCtrl.c",line 244,column 1,is_stmt,address _InitPeripheralClocks,i
     527              
     528                      .dwfde $C$DW$CIE, _InitPeripheralClocks
     529              
     530              ;***************************************************************
     531              ;* FNAME: _InitPeripheralClocks         FR SIZE:   0           *
     532              ;*                                                             *
     533              ;* FUNCTION ENVIRONMENT                                        *
     534              ;*                                                             *
     535              ;* FUNCTION PROPERTIES                                         *
     536              ;*                            0 Parameter,  0 Auto,  0 SOE     *
     537              ;***************************************************************
     538              
     539 0000009c       _InitPeripheralClocks:
     540              ;* AR4   assigned to $O$C1
     541                      .dwcfi  cfa_offset, -2
     542                      .dwcfi  save_reg_to_mem, 26, 0
     543 0000009c 7622   EALLOW
     544 0000009d 761F!         MOVW      DP,#_GpioCtrlRegs+8   ; [CPU_U] 
         0000009e 0000 
     545                      .dwpsn  file "../source/DSP2803x_SysCtrl.c",line 253,column 4,is_stmt,isa 0
     546 0000009f 8F00!         MOVL      XAR4,#_SysCtrlRegs    ; [CPU_U] |253| 
         000000a0 0000 
     547                      .dwpsn  file "../source/DSP2803x_SysCtrl.c",line 249,column 4,is_stmt,isa 0
     548 000000a1 1A08!         OR        @_GpioCtrlRegs+8,#0x0030 ; [CPU_] |249| 
         000000a2 0030 
     549                      .dwpsn  file "../source/DSP2803x_SysCtrl.c",line 264,column 4,is_stmt,isa 0
     550 000000a3 83A4          MOVL      XAR5,XAR4             ; [CPU_] |264| 
     551 000000a4 761F!         MOVW      DP,#_SysCtrlRegs+11   ; [CPU_U] 
         000000a5 0000 
     552                      .dwpsn  file "../source/DSP2803x_SysCtrl.c",line 250,column 4,is_stmt,isa 0
     553 000000a6 56BF!         MOVB      @_SysCtrlRegs+11,#2,UNC ; [CPU_] |250| 
         000000a7 020B 
     554                      .dwpsn  file "../source/DSP2803x_SysCtrl.c",line 253,column 4,is_stmt,isa 0
     555 000000a8 CCC4          AND       AL,*+XAR4[0],#0xfffe  ; [CPU_] |253| 
         000000a9 FFFE 
TMS320C2000 Assembler PC v16.9.6 Tue Mar 06 18:34:40 2018

Tools Copyright (c) 1996-2017 Texas Instruments Incorporated
C:\Users\Admin\AppData\Local\Temp\{31C1AC2A-9DF2-49FD-82E3-4EC1724EAAB9} PAGE   12

     556                      .dwpsn  file "../source/DSP2803x_SysCtrl.c",line 264,column 4,is_stmt,isa 0
     557 000000aa DD0C          ADDB      XAR5,#12              ; [CPU_] |264| 
     558                      .dwpsn  file "../source/DSP2803x_SysCtrl.c",line 253,column 4,is_stmt,isa 0
     559 000000ab 5002          ORB       AL,#0x02              ; [CPU_] |253| 
     560 000000ac 96C4          MOV       *+XAR4[0],AL          ; [CPU_] |253| 
     561                      .dwpsn  file "../source/DSP2803x_SysCtrl.c",line 264,column 4,is_stmt,isa 0
     562 000000ad 1AC5          OR        *+XAR5[0],#0x0008     ; [CPU_] |264| 
         000000ae 0008 
     563                      .dwpsn  file "../source/DSP2803x_SysCtrl.c",line 265,column 4,is_stmt,isa 0
     564 000000af 83A4          MOVL      XAR5,XAR4             ; [CPU_] |265| 
     565                      .dwpsn  file "../source/DSP2803x_SysCtrl.c",line 268,column 4,is_stmt,isa 0
     566 000000b0 DC0D          ADDB      XAR4,#13              ; [CPU_] |268| 
     567                      .dwpsn  file "../source/DSP2803x_SysCtrl.c",line 265,column 4,is_stmt,isa 0
     568 000000b1 DD10          ADDB      XAR5,#16              ; [CPU_] |265| 
     569 000000b2 1AC5          OR        *+XAR5[0],#0x0001     ; [CPU_] |265| 
         000000b3 0001 
     570                      .dwpsn  file "../source/DSP2803x_SysCtrl.c",line 266,column 4,is_stmt,isa 0
     571 000000b4 1A10!         OR        @_SysCtrlRegs+16,#0x0002 ; [CPU_] |266| 
         000000b5 0002 
     572                      .dwpsn  file "../source/DSP2803x_SysCtrl.c",line 267,column 4,is_stmt,isa 0
     573 000000b6 1A10!         OR        @_SysCtrlRegs+16,#0x0004 ; [CPU_] |267| 
         000000b7 0004 
     574                      .dwpsn  file "../source/DSP2803x_SysCtrl.c",line 268,column 4,is_stmt,isa 0
     575 000000b8 1AC4          OR        *+XAR4[0],#0x0100     ; [CPU_] |268| 
         000000b9 0100 
     576                      .dwpsn  file "../source/DSP2803x_SysCtrl.c",line 269,column 4,is_stmt,isa 0
     577 000000ba 1A0C!         OR        @_SysCtrlRegs+12,#0x4000 ; [CPU_] |269| 
         000000bb 4000 
     578                      .dwpsn  file "../source/DSP2803x_SysCtrl.c",line 270,column 4,is_stmt,isa 0
     579 000000bc 1A0D!         OR        @_SysCtrlRegs+13,#0x4000 ; [CPU_] |270| 
         000000bd 4000 
     580                      .dwpsn  file "../source/DSP2803x_SysCtrl.c",line 271,column 4,is_stmt,isa 0
     581 000000be 1A0D!         OR        @_SysCtrlRegs+13,#0x0001 ; [CPU_] |271| 
         000000bf 0001 
     582                      .dwpsn  file "../source/DSP2803x_SysCtrl.c",line 272,column 4,is_stmt,isa 0
     583 000000c0 1A0D!         OR        @_SysCtrlRegs+13,#0x0002 ; [CPU_] |272| 
         000000c1 0002 
     584                      .dwpsn  file "../source/DSP2803x_SysCtrl.c",line 273,column 4,is_stmt,isa 0
     585 000000c2 1A0D!         OR        @_SysCtrlRegs+13,#0x0004 ; [CPU_] |273| 
         000000c3 0004 
     586                      .dwpsn  file "../source/DSP2803x_SysCtrl.c",line 274,column 4,is_stmt,isa 0
     587 000000c4 1A0D!         OR        @_SysCtrlRegs+13,#0x0008 ; [CPU_] |274| 
         000000c5 0008 
     588                      .dwpsn  file "../source/DSP2803x_SysCtrl.c",line 275,column 4,is_stmt,isa 0
     589 000000c6 1A0D!         OR        @_SysCtrlRegs+13,#0x0010 ; [CPU_] |275| 
         000000c7 0010 
     590                      .dwpsn  file "../source/DSP2803x_SysCtrl.c",line 276,column 4,is_stmt,isa 0
     591 000000c8 1A0D!         OR        @_SysCtrlRegs+13,#0x0020 ; [CPU_] |276| 
         000000c9 0020 
     592                      .dwpsn  file "../source/DSP2803x_SysCtrl.c",line 277,column 4,is_stmt,isa 0
     593 000000ca 1A0D!         OR        @_SysCtrlRegs+13,#0x0040 ; [CPU_] |277| 
         000000cb 0040 
     594                      .dwpsn  file "../source/DSP2803x_SysCtrl.c",line 278,column 4,is_stmt,isa 0
     595 000000cc 1A0C!         OR        @_SysCtrlRegs+12,#0x0001 ; [CPU_] |278| 
         000000cd 0001 
TMS320C2000 Assembler PC v16.9.6 Tue Mar 06 18:34:40 2018

Tools Copyright (c) 1996-2017 Texas Instruments Incorporated
C:\Users\Admin\AppData\Local\Temp\{31C1AC2A-9DF2-49FD-82E3-4EC1724EAAB9} PAGE   13

     596                      .dwpsn  file "../source/DSP2803x_SysCtrl.c",line 279,column 4,is_stmt,isa 0
     597 000000ce 1A0C!         OR        @_SysCtrlRegs+12,#0x0010 ; [CPU_] |279| 
         000000cf 0010 
     598                      .dwpsn  file "../source/DSP2803x_SysCtrl.c",line 280,column 4,is_stmt,isa 0
     599 000000d0 1A0C!         OR        @_SysCtrlRegs+12,#0x0002 ; [CPU_] |280| 
         000000d1 0002 
     600                      .dwpsn  file "../source/DSP2803x_SysCtrl.c",line 281,column 4,is_stmt,isa 0
     601 000000d2 1A10!         OR        @_SysCtrlRegs+16,#0x4000 ; [CPU_] |281| 
         000000d3 4000 
     602                      .dwpsn  file "../source/DSP2803x_SysCtrl.c",line 282,column 4,is_stmt,isa 0
     603 000000d4 1A0C!         OR        @_SysCtrlRegs+12,#0x0400 ; [CPU_] |282| 
         000000d5 0400 
     604                      .dwpsn  file "../source/DSP2803x_SysCtrl.c",line 283,column 4,is_stmt,isa 0
     605 000000d6 1A0C!         OR        @_SysCtrlRegs+12,#0x0100 ; [CPU_] |283| 
         000000d7 0100 
     606                      .dwpsn  file "../source/DSP2803x_SysCtrl.c",line 284,column 4,is_stmt,isa 0
     607 000000d8 1A0C!         OR        @_SysCtrlRegs+12,#0x0200 ; [CPU_] |284| 
         000000d9 0200 
     608                      .dwpsn  file "../source/DSP2803x_SysCtrl.c",line 286,column 4,is_stmt,isa 0
     609 000000da 1A0C!         OR        @_SysCtrlRegs+12,#0x0004 ; [CPU_] |286| 
         000000db 0004 
     610 000000dc 761A   EDIS
     611 000000dd FF69          SPM       #0                    ; [CPU_] 
     612              $C$DW$27        .dwtag  DW_TAG_TI_branch
     613                      .dwattr $C$DW$27, DW_AT_low_pc(0x00)
     614                      .dwattr $C$DW$27, DW_AT_TI_return
     615              
     616 000000de 0006          LRETR     ; [CPU_] 
     617                      ; return occurs ; [] 
     618                      .dwattr $C$DW$26, DW_AT_TI_end_file("../source/DSP2803x_SysCtrl.c")
     619                      .dwattr $C$DW$26, DW_AT_TI_end_line(0x121)
     620                      .dwattr $C$DW$26, DW_AT_TI_end_column(0x01)
     621                      .dwendentry
     622                      .dwendtag $C$DW$26
     623              
     624 000000df               .sect   ".text"
     625                      .clink
     626                      .global _InitSysCtrl
     627              
     628              $C$DW$28        .dwtag  DW_TAG_subprogram
     629                      .dwattr $C$DW$28, DW_AT_name("InitSysCtrl")
     630                      .dwattr $C$DW$28, DW_AT_low_pc(_InitSysCtrl)
     631                      .dwattr $C$DW$28, DW_AT_high_pc(0x00)
     632                      .dwattr $C$DW$28, DW_AT_TI_symbol_name("_InitSysCtrl")
     633                      .dwattr $C$DW$28, DW_AT_external
     634                      .dwattr $C$DW$28, DW_AT_TI_begin_file("../source/DSP2803x_SysCtrl.c")
     635                      .dwattr $C$DW$28, DW_AT_TI_begin_line(0x24)
     636                      .dwattr $C$DW$28, DW_AT_TI_begin_column(0x06)
     637                      .dwattr $C$DW$28, DW_AT_TI_max_frame_size(-2)
     638                      .dwpsn  file "../source/DSP2803x_SysCtrl.c",line 37,column 1,is_stmt,address _InitSysCtrl,isa 0
     639              
     640                      .dwfde $C$DW$CIE, _InitSysCtrl
     641              
     642              ;***************************************************************
     643              ;* FNAME: _InitSysCtrl                  FR SIZE:   0           *
TMS320C2000 Assembler PC v16.9.6 Tue Mar 06 18:34:40 2018

Tools Copyright (c) 1996-2017 Texas Instruments Incorporated
C:\Users\Admin\AppData\Local\Temp\{31C1AC2A-9DF2-49FD-82E3-4EC1724EAAB9} PAGE   14

     644              ;*                                                             *
     645              ;* FUNCTION ENVIRONMENT                                        *
     646              ;*                                                             *
     647              ;* FUNCTION PROPERTIES                                         *
     648              ;*                            0 Parameter,  0 Auto,  0 SOE     *
     649              ;***************************************************************
     650              
     651 000000df       _InitSysCtrl:
     652                      .dwcfi  cfa_offset, -2
     653                      .dwcfi  save_reg_to_mem, 26, 0
     654                      .dwpsn  file "../source/DSP2803x_SysCtrl.c",line 40,column 4,is_stmt,isa 0
     655              $C$DW$29        .dwtag  DW_TAG_TI_branch
     656                      .dwattr $C$DW$29, DW_AT_low_pc(0x00)
     657                      .dwattr $C$DW$29, DW_AT_name("_DisableDog")
     658                      .dwattr $C$DW$29, DW_AT_TI_call
     659              
     660 000000df 7640'         LCR       #_DisableDog          ; [CPU_] |40| 
         000000e0 0042 
     661                      ; call occurs [#_DisableDog] ; [] |40| 
     662 000000e1 7622   EALLOW
     663                      .dwpsn  file "../source/DSP2803x_SysCtrl.c",line 54,column 9,is_stmt,isa 0
     664 000000e2 76FD          MOVL      XAR7,#4029568         ; [CPU_U] |54| 
         000000e3 7C80 
     665 000000e4 FF69          SPM       #0                    ; [CPU_] 
     666                      .dwpsn  file "../source/DSP2803x_SysCtrl.c",line 53,column 9,is_stmt,isa 0
     667 000000e5 1A0C!         OR        @_SysCtrlRegs+12,#0x0008 ; [CPU_] |53| 
         000000e6 0008 
     668                      .dwpsn  file "../source/DSP2803x_SysCtrl.c",line 54,column 9,is_stmt,isa 0
     669              $C$DW$30        .dwtag  DW_TAG_TI_branch
     670                      .dwattr $C$DW$30, DW_AT_low_pc(0x00)
     671                      .dwattr $C$DW$30, DW_AT_TI_call
     672                      .dwattr $C$DW$30, DW_AT_TI_indirect
     673              
     674 000000e7 3E67          LCR       *XAR7                 ; [CPU_] |54| 
     675                      ; call occurs [XAR7] ; [] |54| 
     676 000000e8 761F!         MOVW      DP,#_SysCtrlRegs+12   ; [CPU_U] 
         000000e9 0000 
     677                      .dwpsn  file "../source/DSP2803x_SysCtrl.c",line 55,column 9,is_stmt,isa 0
     678 000000ea 180C!         AND       @_SysCtrlRegs+12,#0xfff7 ; [CPU_] |55| 
         000000eb FFF7 
     679 000000ec 761A   EDIS
     680 000000ed FF69          SPM       #0                    ; [CPU_] 
     681                      .dwpsn  file "../source/DSP2803x_SysCtrl.c",line 60,column 5,is_stmt,isa 0
     682              $C$DW$31        .dwtag  DW_TAG_TI_branch
     683                      .dwattr $C$DW$31, DW_AT_low_pc(0x00)
     684                      .dwattr $C$DW$31, DW_AT_name("_IntOsc1Sel")
     685                      .dwattr $C$DW$31, DW_AT_TI_call
     686              
     687 000000ee 7640'         LCR       #_IntOsc1Sel          ; [CPU_] |60| 
         000000ef 0032 
     688                      ; call occurs [#_IntOsc1Sel] ; [] |60| 
     689                      .dwpsn  file "../source/DSP2803x_SysCtrl.c",line 63,column 4,is_stmt,isa 0
     690 000000f0 9A0C          MOVB      AL,#12                ; [CPU_] |63| 
     691 000000f1 9B02          MOVB      AH,#2                 ; [CPU_] |63| 
     692              $C$DW$32        .dwtag  DW_TAG_TI_branch
TMS320C2000 Assembler PC v16.9.6 Tue Mar 06 18:34:40 2018

Tools Copyright (c) 1996-2017 Texas Instruments Incorporated
C:\Users\Admin\AppData\Local\Temp\{31C1AC2A-9DF2-49FD-82E3-4EC1724EAAB9} PAGE   15

     693                      .dwattr $C$DW$32, DW_AT_low_pc(0x00)
     694                      .dwattr $C$DW$32, DW_AT_name("_InitPll")
     695                      .dwattr $C$DW$32, DW_AT_TI_call
     696              
     697 000000f2 7640'         LCR       #_InitPll             ; [CPU_] |63| 
         000000f3 004A 
     698                      ; call occurs [#_InitPll] ; [] |63| 
     699                      .dwpsn  file "../source/DSP2803x_SysCtrl.c",line 65,column 4,is_stmt,isa 0
     700              $C$DW$33        .dwtag  DW_TAG_TI_branch
     701                      .dwattr $C$DW$33, DW_AT_low_pc(0x00)
     702                      .dwattr $C$DW$33, DW_AT_name("_InitPeripheralClocks")
     703                      .dwattr $C$DW$33, DW_AT_TI_call
     704              
     705 000000f4 7640'         LCR       #_InitPeripheralClocks ; [CPU_] |65| 
         000000f5 009C 
     706                      ; call occurs [#_InitPeripheralClocks] ; [] |65| 
     707              $C$DW$34        .dwtag  DW_TAG_TI_branch
     708                      .dwattr $C$DW$34, DW_AT_low_pc(0x00)
     709                      .dwattr $C$DW$34, DW_AT_TI_return
     710              
     711 000000f6 0006          LRETR     ; [CPU_] 
     712                      ; return occurs ; [] 
     713                      .dwattr $C$DW$28, DW_AT_TI_end_file("../source/DSP2803x_SysCtrl.c")
     714                      .dwattr $C$DW$28, DW_AT_TI_end_line(0x43)
     715                      .dwattr $C$DW$28, DW_AT_TI_end_column(0x01)
     716                      .dwendentry
     717                      .dwendtag $C$DW$28
     718              
     719 00000000               .sect   "ramfuncs"
     720                      .clink
     721                      .global _InitFlash
     722              
     723              $C$DW$35        .dwtag  DW_TAG_subprogram
     724                      .dwattr $C$DW$35, DW_AT_name("InitFlash")
     725                      .dwattr $C$DW$35, DW_AT_low_pc(_InitFlash)
     726                      .dwattr $C$DW$35, DW_AT_high_pc(0x00)
     727                      .dwattr $C$DW$35, DW_AT_TI_symbol_name("_InitFlash")
     728                      .dwattr $C$DW$35, DW_AT_external
     729                      .dwattr $C$DW$35, DW_AT_TI_begin_file("../source/DSP2803x_SysCtrl.c")
     730                      .dwattr $C$DW$35, DW_AT_TI_begin_line(0x4e)
     731                      .dwattr $C$DW$35, DW_AT_TI_begin_column(0x06)
     732                      .dwattr $C$DW$35, DW_AT_TI_max_frame_size(-2)
     733                      .dwpsn  file "../source/DSP2803x_SysCtrl.c",line 79,column 1,is_stmt,address _InitFlash,isa 0
     734              
     735                      .dwfde $C$DW$CIE, _InitFlash
     736              
     737              ;***************************************************************
     738              ;* FNAME: _InitFlash                    FR SIZE:   0           *
     739              ;*                                                             *
     740              ;* FUNCTION ENVIRONMENT                                        *
     741              ;*                                                             *
     742              ;* FUNCTION PROPERTIES                                         *
     743              ;*                            0 Parameter,  0 Auto,  0 SOE     *
     744              ;***************************************************************
     745              
TMS320C2000 Assembler PC v16.9.6 Tue Mar 06 18:34:40 2018

Tools Copyright (c) 1996-2017 Texas Instruments Incorporated
C:\Users\Admin\AppData\Local\Temp\{31C1AC2A-9DF2-49FD-82E3-4EC1724EAAB9} PAGE   16

     746 00000000       _InitFlash:
     747              ;* AR4   assigned to $O$C1
     748                      .dwcfi  cfa_offset, -2
     749                      .dwcfi  save_reg_to_mem, 26, 0
     750 00000000 7622   EALLOW
     751                      .dwpsn  file "../source/DSP2803x_SysCtrl.c",line 83,column 4,is_stmt,isa 0
     752 00000001 8F00!         MOVL      XAR4,#_FlashRegs      ; [CPU_U] |83| 
         00000002 0000 
     753 00000003 761F!         MOVW      DP,#_FlashRegs+6      ; [CPU_U] 
         00000004 0000 
     754 00000005 1AC4          OR        *+XAR4[0],#0x0001     ; [CPU_] |83| 
         00000006 0001 
     755                      .dwpsn  file "../source/DSP2803x_SysCtrl.c",line 91,column 4,is_stmt,isa 0
     756 00000007 CCF4          AND       AL,*+XAR4[6],#0xf0ff  ; [CPU_] |91| 
         00000008 F0FF 
     757 00000009 1AA9          OR        AL,#0x0200            ; [CPU_] |91| 
         0000000a 0200 
     758 0000000b 9606!         MOV       @_FlashRegs+6,AL      ; [CPU_] |91| 
     759                      .dwpsn  file "../source/DSP2803x_SysCtrl.c",line 94,column 4,is_stmt,isa 0
     760 0000000c CC06!         AND       AL,@_FlashRegs+6,#0xfff0 ; [CPU_] |94| 
         0000000d FFF0 
     761 0000000e 5002          ORB       AL,#0x02              ; [CPU_] |94| 
     762 0000000f 9606!         MOV       @_FlashRegs+6,AL      ; [CPU_] |94| 
     763                      .dwpsn  file "../source/DSP2803x_SysCtrl.c",line 97,column 4,is_stmt,isa 0
     764 00000010 CCFC          AND       AL,*+XAR4[7],#0xffe0  ; [CPU_] |97| 
         00000011 FFE0 
     765 00000012 5003          ORB       AL,#0x03              ; [CPU_] |97| 
     766 00000013 9607!         MOV       @_FlashRegs+7,AL      ; [CPU_] |97| 
     767                      .dwpsn  file "../source/DSP2803x_SysCtrl.c",line 101,column 4,is_stmt,isa 0
     768 00000014 1AE4          OR        *+XAR4[4],#0x01ff     ; [CPU_] |101| 
         00000015 01FF 
     769                      .dwpsn  file "../source/DSP2803x_SysCtrl.c",line 102,column 4,is_stmt,isa 0
     770 00000016 1AEC          OR        *+XAR4[5],#0x01ff     ; [CPU_] |102| 
         00000017 01FF 
     771 00000018 761A   EDIS
     772 00000019 F607   RPT #7 || NOP
         0000001a 7700 
     773 0000001b FF69          SPM       #0                    ; [CPU_] 
     774              $C$DW$36        .dwtag  DW_TAG_TI_branch
     775                      .dwattr $C$DW$36, DW_AT_low_pc(0x00)
     776                      .dwattr $C$DW$36, DW_AT_TI_return
     777              
     778 0000001c 0006          LRETR     ; [CPU_] 
     779                      ; return occurs ; [] 
     780                      .dwattr $C$DW$35, DW_AT_TI_end_file("../source/DSP2803x_SysCtrl.c")
     781                      .dwattr $C$DW$35, DW_AT_TI_end_line(0x6d)
     782                      .dwattr $C$DW$35, DW_AT_TI_end_column(0x01)
     783                      .dwendentry
     784                      .dwendtag $C$DW$35
     785              
     786 000000f7               .sect   ".text"
     787                      .clink
     788                      .global _ExtOscSel
     789              
     790              $C$DW$37        .dwtag  DW_TAG_subprogram
TMS320C2000 Assembler PC v16.9.6 Tue Mar 06 18:34:40 2018

Tools Copyright (c) 1996-2017 Texas Instruments Incorporated
C:\Users\Admin\AppData\Local\Temp\{31C1AC2A-9DF2-49FD-82E3-4EC1724EAAB9} PAGE   17

     791                      .dwattr $C$DW$37, DW_AT_name("ExtOscSel")
     792                      .dwattr $C$DW$37, DW_AT_low_pc(_ExtOscSel)
     793                      .dwattr $C$DW$37, DW_AT_high_pc(0x00)
     794                      .dwattr $C$DW$37, DW_AT_TI_symbol_name("_ExtOscSel")
     795                      .dwattr $C$DW$37, DW_AT_external
     796                      .dwattr $C$DW$37, DW_AT_TI_begin_file("../source/DSP2803x_SysCtrl.c")
     797                      .dwattr $C$DW$37, DW_AT_TI_begin_line(0x190)
     798                      .dwattr $C$DW$37, DW_AT_TI_begin_column(0x06)
     799                      .dwattr $C$DW$37, DW_AT_TI_max_frame_size(-2)
     800                      .dwpsn  file "../source/DSP2803x_SysCtrl.c",line 400,column 24,is_stmt,address _ExtOscSel,isa 0
     801              
     802                      .dwfde $C$DW$CIE, _ExtOscSel
     803              
     804              ;***************************************************************
     805              ;* FNAME: _ExtOscSel                    FR SIZE:   0           *
     806              ;*                                                             *
     807              ;* FUNCTION ENVIRONMENT                                        *
     808              ;*                                                             *
     809              ;* FUNCTION PROPERTIES                                         *
     810              ;*                            0 Parameter,  0 Auto,  0 SOE     *
     811              ;***************************************************************
     812              
     813 000000f7       _ExtOscSel:
     814              ;* AR4   assigned to $O$C1
     815                      .dwcfi  cfa_offset, -2
     816                      .dwcfi  save_reg_to_mem, 26, 0
     817 000000f7 7622   EALLOW
     818                      .dwpsn  file "../source/DSP2803x_SysCtrl.c",line 402,column 6,is_stmt,isa 0
     819 000000f8 8F00!         MOVL      XAR4,#_SysCtrlRegs    ; [CPU_U] |402| 
         000000f9 0000 
     820 000000fa 761F!         MOVW      DP,#_SysCtrlRegs+2    ; [CPU_U] 
         000000fb 0000 
     821 000000fc 1AC4          OR        *+XAR4[0],#0x0040     ; [CPU_] |402| 
         000000fd 0040 
     822                      .dwpsn  file "../source/DSP2803x_SysCtrl.c",line 403,column 6,is_stmt,isa 0
     823 000000fe 1AD4          OR        *+XAR4[2],#0x4000     ; [CPU_] |403| 
         000000ff 4000 
     824                      .dwpsn  file "../source/DSP2803x_SysCtrl.c",line 404,column 6,is_stmt,isa 0
     825 00000100 1802!         AND       @_SysCtrlRegs+2,#0xdfff ; [CPU_] |404| 
         00000101 DFFF 
     826                      .dwpsn  file "../source/DSP2803x_SysCtrl.c",line 405,column 6,is_stmt,isa 0
     827 00000102 1802!         AND       @_SysCtrlRegs+2,#0xfffd ; [CPU_] |405| 
         00000103 FFFD 
     828                      .dwpsn  file "../source/DSP2803x_SysCtrl.c",line 406,column 6,is_stmt,isa 0
     829 00000104 1A02!         OR        @_SysCtrlRegs+2,#0x0001 ; [CPU_] |406| 
         00000105 0001 
     830                      .dwpsn  file "../source/DSP2803x_SysCtrl.c",line 407,column 6,is_stmt,isa 0
     831 00000106 1A02!         OR        @_SysCtrlRegs+2,#0x0004 ; [CPU_] |407| 
         00000107 0004 
     832                      .dwpsn  file "../source/DSP2803x_SysCtrl.c",line 408,column 6,is_stmt,isa 0
     833 00000108 1A02!         OR        @_SysCtrlRegs+2,#0x0400 ; [CPU_] |408| 
         00000109 0400 
     834                      .dwpsn  file "../source/DSP2803x_SysCtrl.c",line 409,column 6,is_stmt,isa 0
     835 0000010a 1A02!         OR        @_SysCtrlRegs+2,#0x0100 ; [CPU_] |409| 
         0000010b 0100 
TMS320C2000 Assembler PC v16.9.6 Tue Mar 06 18:34:40 2018

Tools Copyright (c) 1996-2017 Texas Instruments Incorporated
C:\Users\Admin\AppData\Local\Temp\{31C1AC2A-9DF2-49FD-82E3-4EC1724EAAB9} PAGE   18

     836 0000010c 761A   EDIS
     837 0000010d FF69          SPM       #0                    ; [CPU_] 
     838              $C$DW$38        .dwtag  DW_TAG_TI_branch
     839                      .dwattr $C$DW$38, DW_AT_low_pc(0x00)
     840                      .dwattr $C$DW$38, DW_AT_TI_return
     841              
     842 0000010e 0006          LRETR     ; [CPU_] 
     843                      ; return occurs ; [] 
     844                      .dwattr $C$DW$37, DW_AT_TI_end_file("../source/DSP2803x_SysCtrl.c")
     845                      .dwattr $C$DW$37, DW_AT_TI_end_line(0x19b)
     846                      .dwattr $C$DW$37, DW_AT_TI_end_column(0x01)
     847                      .dwendentry
     848                      .dwendtag $C$DW$37
     849              
     850 0000010f               .sect   ".text"
     851                      .clink
     852                      .global _CsmUnlock
     853              
     854              $C$DW$39        .dwtag  DW_TAG_subprogram
     855                      .dwattr $C$DW$39, DW_AT_name("CsmUnlock")
     856                      .dwattr $C$DW$39, DW_AT_low_pc(_CsmUnlock)
     857                      .dwattr $C$DW$39, DW_AT_high_pc(0x00)
     858                      .dwattr $C$DW$39, DW_AT_TI_symbol_name("_CsmUnlock")
     859                      .dwattr $C$DW$39, DW_AT_external
     860                      .dwattr $C$DW$39, DW_AT_type(*$C$DW$T$19)
     861                      .dwattr $C$DW$39, DW_AT_TI_begin_file("../source/DSP2803x_SysCtrl.c")
     862                      .dwattr $C$DW$39, DW_AT_TI_begin_line(0x12c)
     863                      .dwattr $C$DW$39, DW_AT_TI_begin_column(0x08)
     864                      .dwattr $C$DW$39, DW_AT_TI_max_frame_size(-4)
     865                      .dwpsn  file "../source/DSP2803x_SysCtrl.c",line 301,column 1,is_stmt,address _CsmUnlock,isa 0
     866              
     867                      .dwfde $C$DW$CIE, _CsmUnlock
     868              
     869              ;***************************************************************
     870              ;* FNAME: _CsmUnlock                    FR SIZE:   2           *
     871              ;*                                                             *
     872              ;* FUNCTION ENVIRONMENT                                        *
     873              ;*                                                             *
     874              ;* FUNCTION PROPERTIES                                         *
     875              ;*                            0 Parameter,  1 Auto,  0 SOE     *
     876              ;***************************************************************
     877              
     878              _CsmUnlock:
     879              $C$DW$40        .dwtag  DW_TAG_variable
     880                      .dwattr $C$DW$40, DW_AT_name("temp")
     881                      .dwattr $C$DW$40, DW_AT_TI_symbol_name("_temp")
     882                      .dwattr $C$DW$40, DW_AT_type(*$C$DW$T$127)
     883                      .dwattr $C$DW$40, DW_AT_location[DW_OP_breg20 -1]
     884              
     885              ;* AR4   assigned to $O$C1
     886                      .dwcfi  cfa_offset, -2
     887                      .dwcfi  save_reg_to_mem, 26, 0
     888 0000010f FE02          ADDB      SP,#2                 ; [CPU_U] 
     889                      .dwcfi  cfa_offset, -4
     890 00000110 7622   EALLOW
TMS320C2000 Assembler PC v16.9.6 Tue Mar 06 18:34:40 2018

Tools Copyright (c) 1996-2017 Texas Instruments Incorporated
C:\Users\Admin\AppData\Local\Temp\{31C1AC2A-9DF2-49FD-82E3-4EC1724EAAB9} PAGE   19

     891                      .dwpsn  file "../source/DSP2803x_SysCtrl.c",line 308,column 5,is_stmt,isa 0
     892 00000111 8F00!         MOVL      XAR4,#_CsmRegs        ; [CPU_U] |308| 
         00000112 0000 
     893 00000113 28C4          MOV       *+XAR4[0],#65535      ; [CPU_] |308| 
         00000114 FFFF 
     894                      .dwpsn  file "../source/DSP2803x_SysCtrl.c",line 309,column 5,is_stmt,isa 0
     895 00000115 28CC          MOV       *+XAR4[1],#65535      ; [CPU_] |309| 
         00000116 FFFF 
     896                      .dwpsn  file "../source/DSP2803x_SysCtrl.c",line 310,column 5,is_stmt,isa 0
     897 00000117 28D4          MOV       *+XAR4[2],#65535      ; [CPU_] |310| 
         00000118 FFFF 
     898                      .dwpsn  file "../source/DSP2803x_SysCtrl.c",line 311,column 5,is_stmt,isa 0
     899 00000119 28DC          MOV       *+XAR4[3],#65535      ; [CPU_] |311| 
         0000011a FFFF 
     900                      .dwpsn  file "../source/DSP2803x_SysCtrl.c",line 312,column 5,is_stmt,isa 0
     901 0000011b 28E4          MOV       *+XAR4[4],#65535      ; [CPU_] |312| 
         0000011c FFFF 
     902                      .dwpsn  file "../source/DSP2803x_SysCtrl.c",line 313,column 5,is_stmt,isa 0
     903 0000011d 28EC          MOV       *+XAR4[5],#65535      ; [CPU_] |313| 
         0000011e FFFF 
     904                      .dwpsn  file "../source/DSP2803x_SysCtrl.c",line 314,column 5,is_stmt,isa 0
     905 0000011f 28F4          MOV       *+XAR4[6],#65535      ; [CPU_] |314| 
         00000120 FFFF 
     906                      .dwpsn  file "../source/DSP2803x_SysCtrl.c",line 315,column 5,is_stmt,isa 0
     907 00000121 28FC          MOV       *+XAR4[7],#65535      ; [CPU_] |315| 
         00000122 FFFF 
     908 00000123 761A   EDIS
     909 00000124 761F!         MOVW      DP,#_CsmPwl           ; [CPU_U] 
         00000125 0000 
     910                      .dwpsn  file "../source/DSP2803x_SysCtrl.c",line 333,column 10,is_stmt,isa 0
     911 00000126 D00F          MOVB      XAR0,#15              ; [CPU_] |333| 
     912 00000127 FF69          SPM       #0                    ; [CPU_] 
     913                      .dwpsn  file "../source/DSP2803x_SysCtrl.c",line 321,column 5,is_stmt,isa 0
     914 00000128 9200!         MOV       AL,@_CsmPwl           ; [CPU_] |321| 
     915 00000129 9641          MOV       *-SP[1],AL            ; [CPU_] |321| 
     916                      .dwpsn  file "../source/DSP2803x_SysCtrl.c",line 322,column 5,is_stmt,isa 0
     917 0000012a 9201!         MOV       AL,@_CsmPwl+1         ; [CPU_] |322| 
     918 0000012b 9641          MOV       *-SP[1],AL            ; [CPU_] |322| 
     919                      .dwpsn  file "../source/DSP2803x_SysCtrl.c",line 323,column 5,is_stmt,isa 0
     920 0000012c 9202!         MOV       AL,@_CsmPwl+2         ; [CPU_] |323| 
     921 0000012d 9641          MOV       *-SP[1],AL            ; [CPU_] |323| 
     922                      .dwpsn  file "../source/DSP2803x_SysCtrl.c",line 324,column 5,is_stmt,isa 0
     923 0000012e 9203!         MOV       AL,@_CsmPwl+3         ; [CPU_] |324| 
     924 0000012f 9641          MOV       *-SP[1],AL            ; [CPU_] |324| 
     925                      .dwpsn  file "../source/DSP2803x_SysCtrl.c",line 325,column 5,is_stmt,isa 0
     926 00000130 9204!         MOV       AL,@_CsmPwl+4         ; [CPU_] |325| 
     927 00000131 9641          MOV       *-SP[1],AL            ; [CPU_] |325| 
     928                      .dwpsn  file "../source/DSP2803x_SysCtrl.c",line 326,column 5,is_stmt,isa 0
     929 00000132 9205!         MOV       AL,@_CsmPwl+5         ; [CPU_] |326| 
     930 00000133 9641          MOV       *-SP[1],AL            ; [CPU_] |326| 
     931                      .dwpsn  file "../source/DSP2803x_SysCtrl.c",line 327,column 5,is_stmt,isa 0
     932 00000134 9206!         MOV       AL,@_CsmPwl+6         ; [CPU_] |327| 
     933 00000135 9641          MOV       *-SP[1],AL            ; [CPU_] |327| 
     934                      .dwpsn  file "../source/DSP2803x_SysCtrl.c",line 328,column 5,is_stmt,isa 0
     935 00000136 9207!         MOV       AL,@_CsmPwl+7         ; [CPU_] |328| 
TMS320C2000 Assembler PC v16.9.6 Tue Mar 06 18:34:40 2018

Tools Copyright (c) 1996-2017 Texas Instruments Incorporated
C:\Users\Admin\AppData\Local\Temp\{31C1AC2A-9DF2-49FD-82E3-4EC1724EAAB9} PAGE   20

     936 00000137 9641          MOV       *-SP[1],AL            ; [CPU_] |328| 
     937                      .dwpsn  file "../source/DSP2803x_SysCtrl.c",line 333,column 10,is_stmt,isa 0
     938 00000138 9294          MOV       AL,*+XAR4[AR0]        ; [CPU_] |333| 
     939 00000139 F001          XORB      AL,#0x01              ; [CPU_] |333| 
     940 0000013a 9001          ANDB      AL,#0x01              ; [CPU_] |333| 
     941 0000013b FE82          SUBB      SP,#2                 ; [CPU_U] 
     942                      .dwcfi  cfa_offset, -2
     943              $C$DW$41        .dwtag  DW_TAG_TI_branch
     944                      .dwattr $C$DW$41, DW_AT_low_pc(0x00)
     945                      .dwattr $C$DW$41, DW_AT_TI_return
     946              
     947 0000013c 0006          LRETR     ; [CPU_] 
     948                      ; return occurs ; [] 
     949                      .dwattr $C$DW$39, DW_AT_TI_end_file("../source/DSP2803x_SysCtrl.c")
     950                      .dwattr $C$DW$39, DW_AT_TI_end_line(0x14f)
     951                      .dwattr $C$DW$39, DW_AT_TI_end_column(0x01)
     952                      .dwendentry
     953                      .dwendtag $C$DW$39
     954              
     955              ;**************************************************************
     956              ;* UNDEFINED EXTERNAL REFERENCES                              *
     957              ;**************************************************************
     958                      .global _DSP28x_usDelay
     959                      .global _CsmPwl
     960                      .global _FlashRegs
     961                      .global _CsmRegs
     962                      .global _SysCtrlRegs
     963                      .global _GpioCtrlRegs
     964              
     965              ;***************************************************************
     966              ;* TYPE INFORMATION                                            *
     967              ;***************************************************************
     968              
     969              $C$DW$T$20      .dwtag  DW_TAG_structure_type
     970                      .dwattr $C$DW$T$20, DW_AT_name("AIODAT_BITS")
     971                      .dwattr $C$DW$T$20, DW_AT_byte_size(0x01)
     972              $C$DW$42        .dwtag  DW_TAG_member
     973                      .dwattr $C$DW$42, DW_AT_type(*$C$DW$T$19)
     974                      .dwattr $C$DW$42, DW_AT_name("rsvd1")
     975                      .dwattr $C$DW$42, DW_AT_TI_symbol_name("_rsvd1")
     976                      .dwattr $C$DW$42, DW_AT_bit_offset(0x0f)
     977                      .dwattr $C$DW$42, DW_AT_bit_size(0x01)
     978                      .dwattr $C$DW$42, DW_AT_data_member_location[DW_OP_plus_uconst 0x0]
     979                      .dwattr $C$DW$42, DW_AT_accessibility(DW_ACCESS_public)
     980              
     981              $C$DW$43        .dwtag  DW_TAG_member
     982                      .dwattr $C$DW$43, DW_AT_type(*$C$DW$T$19)
     983                      .dwattr $C$DW$43, DW_AT_name("rsvd2")
     984                      .dwattr $C$DW$43, DW_AT_TI_symbol_name("_rsvd2")
     985                      .dwattr $C$DW$43, DW_AT_bit_offset(0x0e)
     986                      .dwattr $C$DW$43, DW_AT_bit_size(0x01)
     987                      .dwattr $C$DW$43, DW_AT_data_member_location[DW_OP_plus_uconst 0x0]
     988                      .dwattr $C$DW$43, DW_AT_accessibility(DW_ACCESS_public)
     989              
     990              $C$DW$44        .dwtag  DW_TAG_member
TMS320C2000 Assembler PC v16.9.6 Tue Mar 06 18:34:40 2018

Tools Copyright (c) 1996-2017 Texas Instruments Incorporated
C:\Users\Admin\AppData\Local\Temp\{31C1AC2A-9DF2-49FD-82E3-4EC1724EAAB9} PAGE   21

     991                      .dwattr $C$DW$44, DW_AT_type(*$C$DW$T$19)
     992                      .dwattr $C$DW$44, DW_AT_name("AIO2")
     993                      .dwattr $C$DW$44, DW_AT_TI_symbol_name("_AIO2")
     994                      .dwattr $C$DW$44, DW_AT_bit_offset(0x0d)
     995                      .dwattr $C$DW$44, DW_AT_bit_size(0x01)
     996                      .dwattr $C$DW$44, DW_AT_data_member_location[DW_OP_plus_uconst 0x0]
     997                      .dwattr $C$DW$44, DW_AT_accessibility(DW_ACCESS_public)
     998              
     999              $C$DW$45        .dwtag  DW_TAG_member
    1000                      .dwattr $C$DW$45, DW_AT_type(*$C$DW$T$19)
    1001                      .dwattr $C$DW$45, DW_AT_name("rsvd3")
    1002                      .dwattr $C$DW$45, DW_AT_TI_symbol_name("_rsvd3")
    1003                      .dwattr $C$DW$45, DW_AT_bit_offset(0x0c)
    1004                      .dwattr $C$DW$45, DW_AT_bit_size(0x01)
    1005                      .dwattr $C$DW$45, DW_AT_data_member_location[DW_OP_plus_uconst 0x0]
    1006                      .dwattr $C$DW$45, DW_AT_accessibility(DW_ACCESS_public)
    1007              
    1008              $C$DW$46        .dwtag  DW_TAG_member
    1009                      .dwattr $C$DW$46, DW_AT_type(*$C$DW$T$19)
    1010                      .dwattr $C$DW$46, DW_AT_name("AIO4")
    1011                      .dwattr $C$DW$46, DW_AT_TI_symbol_name("_AIO4")
    1012                      .dwattr $C$DW$46, DW_AT_bit_offset(0x0b)
    1013                      .dwattr $C$DW$46, DW_AT_bit_size(0x01)
    1014                      .dwattr $C$DW$46, DW_AT_data_member_location[DW_OP_plus_uconst 0x0]
    1015                      .dwattr $C$DW$46, DW_AT_accessibility(DW_ACCESS_public)
    1016              
    1017              $C$DW$47        .dwtag  DW_TAG_member
    1018                      .dwattr $C$DW$47, DW_AT_type(*$C$DW$T$19)
    1019                      .dwattr $C$DW$47, DW_AT_name("rsvd4")
    1020                      .dwattr $C$DW$47, DW_AT_TI_symbol_name("_rsvd4")
    1021                      .dwattr $C$DW$47, DW_AT_bit_offset(0x0a)
    1022                      .dwattr $C$DW$47, DW_AT_bit_size(0x01)
    1023                      .dwattr $C$DW$47, DW_AT_data_member_location[DW_OP_plus_uconst 0x0]
    1024                      .dwattr $C$DW$47, DW_AT_accessibility(DW_ACCESS_public)
    1025              
    1026              $C$DW$48        .dwtag  DW_TAG_member
    1027                      .dwattr $C$DW$48, DW_AT_type(*$C$DW$T$19)
    1028                      .dwattr $C$DW$48, DW_AT_name("AIO6")
    1029                      .dwattr $C$DW$48, DW_AT_TI_symbol_name("_AIO6")
    1030                      .dwattr $C$DW$48, DW_AT_bit_offset(0x09)
    1031                      .dwattr $C$DW$48, DW_AT_bit_size(0x01)
    1032                      .dwattr $C$DW$48, DW_AT_data_member_location[DW_OP_plus_uconst 0x0]
    1033                      .dwattr $C$DW$48, DW_AT_accessibility(DW_ACCESS_public)
    1034              
    1035              $C$DW$49        .dwtag  DW_TAG_member
    1036                      .dwattr $C$DW$49, DW_AT_type(*$C$DW$T$19)
    1037                      .dwattr $C$DW$49, DW_AT_name("rsvd5")
    1038                      .dwattr $C$DW$49, DW_AT_TI_symbol_name("_rsvd5")
    1039                      .dwattr $C$DW$49, DW_AT_bit_offset(0x08)
    1040                      .dwattr $C$DW$49, DW_AT_bit_size(0x01)
    1041                      .dwattr $C$DW$49, DW_AT_data_member_location[DW_OP_plus_uconst 0x0]
    1042                      .dwattr $C$DW$49, DW_AT_accessibility(DW_ACCESS_public)
    1043              
    1044              $C$DW$50        .dwtag  DW_TAG_member
    1045                      .dwattr $C$DW$50, DW_AT_type(*$C$DW$T$19)
TMS320C2000 Assembler PC v16.9.6 Tue Mar 06 18:34:40 2018

Tools Copyright (c) 1996-2017 Texas Instruments Incorporated
C:\Users\Admin\AppData\Local\Temp\{31C1AC2A-9DF2-49FD-82E3-4EC1724EAAB9} PAGE   22

    1046                      .dwattr $C$DW$50, DW_AT_name("rsvd6")
    1047                      .dwattr $C$DW$50, DW_AT_TI_symbol_name("_rsvd6")
    1048                      .dwattr $C$DW$50, DW_AT_bit_offset(0x07)
    1049                      .dwattr $C$DW$50, DW_AT_bit_size(0x01)
    1050                      .dwattr $C$DW$50, DW_AT_data_member_location[DW_OP_plus_uconst 0x0]
    1051                      .dwattr $C$DW$50, DW_AT_accessibility(DW_ACCESS_public)
    1052              
    1053              $C$DW$51        .dwtag  DW_TAG_member
    1054                      .dwattr $C$DW$51, DW_AT_type(*$C$DW$T$19)
    1055                      .dwattr $C$DW$51, DW_AT_name("rsvd7")
    1056                      .dwattr $C$DW$51, DW_AT_TI_symbol_name("_rsvd7")
    1057                      .dwattr $C$DW$51, DW_AT_bit_offset(0x06)
    1058                      .dwattr $C$DW$51, DW_AT_bit_size(0x01)
    1059                      .dwattr $C$DW$51, DW_AT_data_member_location[DW_OP_plus_uconst 0x0]
    1060                      .dwattr $C$DW$51, DW_AT_accessibility(DW_ACCESS_public)
    1061              
    1062              $C$DW$52        .dwtag  DW_TAG_member
    1063                      .dwattr $C$DW$52, DW_AT_type(*$C$DW$T$19)
    1064                      .dwattr $C$DW$52, DW_AT_name("AIO10")
    1065                      .dwattr $C$DW$52, DW_AT_TI_symbol_name("_AIO10")
    1066                      .dwattr $C$DW$52, DW_AT_bit_offset(0x05)
    1067                      .dwattr $C$DW$52, DW_AT_bit_size(0x01)
    1068                      .dwattr $C$DW$52, DW_AT_data_member_location[DW_OP_plus_uconst 0x0]
    1069                      .dwattr $C$DW$52, DW_AT_accessibility(DW_ACCESS_public)
    1070              
    1071              $C$DW$53        .dwtag  DW_TAG_member
    1072                      .dwattr $C$DW$53, DW_AT_type(*$C$DW$T$19)
    1073                      .dwattr $C$DW$53, DW_AT_name("rsvd8")
    1074                      .dwattr $C$DW$53, DW_AT_TI_symbol_name("_rsvd8")
    1075                      .dwattr $C$DW$53, DW_AT_bit_offset(0x04)
    1076                      .dwattr $C$DW$53, DW_AT_bit_size(0x01)
    1077                      .dwattr $C$DW$53, DW_AT_data_member_location[DW_OP_plus_uconst 0x0]
    1078                      .dwattr $C$DW$53, DW_AT_accessibility(DW_ACCESS_public)
    1079              
    1080              $C$DW$54        .dwtag  DW_TAG_member
    1081                      .dwattr $C$DW$54, DW_AT_type(*$C$DW$T$19)
    1082                      .dwattr $C$DW$54, DW_AT_name("AIO12")
    1083                      .dwattr $C$DW$54, DW_AT_TI_symbol_name("_AIO12")
    1084                      .dwattr $C$DW$54, DW_AT_bit_offset(0x03)
    1085                      .dwattr $C$DW$54, DW_AT_bit_size(0x01)
    1086                      .dwattr $C$DW$54, DW_AT_data_member_location[DW_OP_plus_uconst 0x0]
    1087                      .dwattr $C$DW$54, DW_AT_accessibility(DW_ACCESS_public)
    1088              
    1089              $C$DW$55        .dwtag  DW_TAG_member
    1090                      .dwattr $C$DW$55, DW_AT_type(*$C$DW$T$19)
    1091                      .dwattr $C$DW$55, DW_AT_name("rsvd9")
    1092                      .dwattr $C$DW$55, DW_AT_TI_symbol_name("_rsvd9")
    1093                      .dwattr $C$DW$55, DW_AT_bit_offset(0x02)
    1094                      .dwattr $C$DW$55, DW_AT_bit_size(0x01)
    1095                      .dwattr $C$DW$55, DW_AT_data_member_location[DW_OP_plus_uconst 0x0]
    1096                      .dwattr $C$DW$55, DW_AT_accessibility(DW_ACCESS_public)
    1097              
    1098              $C$DW$56        .dwtag  DW_TAG_member
    1099                      .dwattr $C$DW$56, DW_AT_type(*$C$DW$T$19)
    1100                      .dwattr $C$DW$56, DW_AT_name("AIO14")
TMS320C2000 Assembler PC v16.9.6 Tue Mar 06 18:34:40 2018

Tools Copyright (c) 1996-2017 Texas Instruments Incorporated
C:\Users\Admin\AppData\Local\Temp\{31C1AC2A-9DF2-49FD-82E3-4EC1724EAAB9} PAGE   23

    1101                      .dwattr $C$DW$56, DW_AT_TI_symbol_name("_AIO14")
    1102                      .dwattr $C$DW$56, DW_AT_bit_offset(0x01)
    1103                      .dwattr $C$DW$56, DW_AT_bit_size(0x01)
    1104                      .dwattr $C$DW$56, DW_AT_data_member_location[DW_OP_plus_uconst 0x0]
    1105                      .dwattr $C$DW$56, DW_AT_accessibility(DW_ACCESS_public)
    1106              
    1107              $C$DW$57        .dwtag  DW_TAG_member
    1108                      .dwattr $C$DW$57, DW_AT_type(*$C$DW$T$19)
    1109                      .dwattr $C$DW$57, DW_AT_name("rsvd10")
    1110                      .dwattr $C$DW$57, DW_AT_TI_symbol_name("_rsvd10")
    1111                      .dwattr $C$DW$57, DW_AT_bit_offset(0x00)
    1112                      .dwattr $C$DW$57, DW_AT_bit_size(0x01)
    1113                      .dwattr $C$DW$57, DW_AT_data_member_location[DW_OP_plus_uconst 0x0]
    1114                      .dwattr $C$DW$57, DW_AT_accessibility(DW_ACCESS_public)
    1115              
    1116                      .dwendtag $C$DW$T$20
    1117              
    1118              
    1119              $C$DW$T$21      .dwtag  DW_TAG_union_type
    1120                      .dwattr $C$DW$T$21, DW_AT_name("AIODAT_REG")
    1121                      .dwattr $C$DW$T$21, DW_AT_byte_size(0x01)
    1122              $C$DW$58        .dwtag  DW_TAG_member
    1123                      .dwattr $C$DW$58, DW_AT_type(*$C$DW$T$19)
    1124                      .dwattr $C$DW$58, DW_AT_name("all")
    1125                      .dwattr $C$DW$58, DW_AT_TI_symbol_name("_all")
    1126                      .dwattr $C$DW$58, DW_AT_data_member_location[DW_OP_plus_uconst 0x0]
    1127                      .dwattr $C$DW$58, DW_AT_accessibility(DW_ACCESS_public)
    1128              
    1129              $C$DW$59        .dwtag  DW_TAG_member
    1130                      .dwattr $C$DW$59, DW_AT_type(*$C$DW$T$20)
    1131                      .dwattr $C$DW$59, DW_AT_name("bit")
    1132                      .dwattr $C$DW$59, DW_AT_TI_symbol_name("_bit")
    1133                      .dwattr $C$DW$59, DW_AT_data_member_location[DW_OP_plus_uconst 0x0]
    1134                      .dwattr $C$DW$59, DW_AT_accessibility(DW_ACCESS_public)
    1135              
    1136                      .dwendtag $C$DW$T$21
    1137              
    1138              
    1139              $C$DW$T$22      .dwtag  DW_TAG_structure_type
    1140                      .dwattr $C$DW$T$22, DW_AT_name("AIO_BITS")
    1141                      .dwattr $C$DW$T$22, DW_AT_byte_size(0x02)
    1142              $C$DW$60        .dwtag  DW_TAG_member
    1143                      .dwattr $C$DW$60, DW_AT_type(*$C$DW$T$19)
    1144                      .dwattr $C$DW$60, DW_AT_name("rsvd1")
    1145                      .dwattr $C$DW$60, DW_AT_TI_symbol_name("_rsvd1")
    1146                      .dwattr $C$DW$60, DW_AT_bit_offset(0x0e)
    1147                      .dwattr $C$DW$60, DW_AT_bit_size(0x02)
    1148                      .dwattr $C$DW$60, DW_AT_data_member_location[DW_OP_plus_uconst 0x0]
    1149                      .dwattr $C$DW$60, DW_AT_accessibility(DW_ACCESS_public)
    1150              
    1151              $C$DW$61        .dwtag  DW_TAG_member
    1152                      .dwattr $C$DW$61, DW_AT_type(*$C$DW$T$19)
    1153                      .dwattr $C$DW$61, DW_AT_name("rsvd2")
    1154                      .dwattr $C$DW$61, DW_AT_TI_symbol_name("_rsvd2")
    1155                      .dwattr $C$DW$61, DW_AT_bit_offset(0x0c)
TMS320C2000 Assembler PC v16.9.6 Tue Mar 06 18:34:40 2018

Tools Copyright (c) 1996-2017 Texas Instruments Incorporated
C:\Users\Admin\AppData\Local\Temp\{31C1AC2A-9DF2-49FD-82E3-4EC1724EAAB9} PAGE   24

    1156                      .dwattr $C$DW$61, DW_AT_bit_size(0x02)
    1157                      .dwattr $C$DW$61, DW_AT_data_member_location[DW_OP_plus_uconst 0x0]
    1158                      .dwattr $C$DW$61, DW_AT_accessibility(DW_ACCESS_public)
    1159              
    1160              $C$DW$62        .dwtag  DW_TAG_member
    1161                      .dwattr $C$DW$62, DW_AT_type(*$C$DW$T$19)
    1162                      .dwattr $C$DW$62, DW_AT_name("AIO2")
    1163                      .dwattr $C$DW$62, DW_AT_TI_symbol_name("_AIO2")
    1164                      .dwattr $C$DW$62, DW_AT_bit_offset(0x0a)
    1165                      .dwattr $C$DW$62, DW_AT_bit_size(0x02)
    1166                      .dwattr $C$DW$62, DW_AT_data_member_location[DW_OP_plus_uconst 0x0]
    1167                      .dwattr $C$DW$62, DW_AT_accessibility(DW_ACCESS_public)
    1168              
    1169              $C$DW$63        .dwtag  DW_TAG_member
    1170                      .dwattr $C$DW$63, DW_AT_type(*$C$DW$T$19)
    1171                      .dwattr $C$DW$63, DW_AT_name("rsvd3")
    1172                      .dwattr $C$DW$63, DW_AT_TI_symbol_name("_rsvd3")
    1173                      .dwattr $C$DW$63, DW_AT_bit_offset(0x08)
    1174                      .dwattr $C$DW$63, DW_AT_bit_size(0x02)
    1175                      .dwattr $C$DW$63, DW_AT_data_member_location[DW_OP_plus_uconst 0x0]
    1176                      .dwattr $C$DW$63, DW_AT_accessibility(DW_ACCESS_public)
    1177              
    1178              $C$DW$64        .dwtag  DW_TAG_member
    1179                      .dwattr $C$DW$64, DW_AT_type(*$C$DW$T$19)
    1180                      .dwattr $C$DW$64, DW_AT_name("AIO4")
    1181                      .dwattr $C$DW$64, DW_AT_TI_symbol_name("_AIO4")
    1182                      .dwattr $C$DW$64, DW_AT_bit_offset(0x06)
    1183                      .dwattr $C$DW$64, DW_AT_bit_size(0x02)
    1184                      .dwattr $C$DW$64, DW_AT_data_member_location[DW_OP_plus_uconst 0x0]
    1185                      .dwattr $C$DW$64, DW_AT_accessibility(DW_ACCESS_public)
    1186              
    1187              $C$DW$65        .dwtag  DW_TAG_member
    1188                      .dwattr $C$DW$65, DW_AT_type(*$C$DW$T$19)
    1189                      .dwattr $C$DW$65, DW_AT_name("rsvd4")
    1190                      .dwattr $C$DW$65, DW_AT_TI_symbol_name("_rsvd4")
    1191                      .dwattr $C$DW$65, DW_AT_bit_offset(0x04)
    1192                      .dwattr $C$DW$65, DW_AT_bit_size(0x02)
    1193                      .dwattr $C$DW$65, DW_AT_data_member_location[DW_OP_plus_uconst 0x0]
    1194                      .dwattr $C$DW$65, DW_AT_accessibility(DW_ACCESS_public)
    1195              
    1196              $C$DW$66        .dwtag  DW_TAG_member
    1197                      .dwattr $C$DW$66, DW_AT_type(*$C$DW$T$19)
    1198                      .dwattr $C$DW$66, DW_AT_name("AIO6")
    1199                      .dwattr $C$DW$66, DW_AT_TI_symbol_name("_AIO6")
    1200                      .dwattr $C$DW$66, DW_AT_bit_offset(0x02)
    1201                      .dwattr $C$DW$66, DW_AT_bit_size(0x02)
    1202                      .dwattr $C$DW$66, DW_AT_data_member_location[DW_OP_plus_uconst 0x0]
    1203                      .dwattr $C$DW$66, DW_AT_accessibility(DW_ACCESS_public)
    1204              
    1205              $C$DW$67        .dwtag  DW_TAG_member
    1206                      .dwattr $C$DW$67, DW_AT_type(*$C$DW$T$19)
    1207                      .dwattr $C$DW$67, DW_AT_name("rsvd5")
    1208                      .dwattr $C$DW$67, DW_AT_TI_symbol_name("_rsvd5")
    1209                      .dwattr $C$DW$67, DW_AT_bit_offset(0x00)
    1210                      .dwattr $C$DW$67, DW_AT_bit_size(0x02)
TMS320C2000 Assembler PC v16.9.6 Tue Mar 06 18:34:40 2018

Tools Copyright (c) 1996-2017 Texas Instruments Incorporated
C:\Users\Admin\AppData\Local\Temp\{31C1AC2A-9DF2-49FD-82E3-4EC1724EAAB9} PAGE   25

    1211                      .dwattr $C$DW$67, DW_AT_data_member_location[DW_OP_plus_uconst 0x0]
    1212                      .dwattr $C$DW$67, DW_AT_accessibility(DW_ACCESS_public)
    1213              
    1214              $C$DW$68        .dwtag  DW_TAG_member
    1215                      .dwattr $C$DW$68, DW_AT_type(*$C$DW$T$19)
    1216                      .dwattr $C$DW$68, DW_AT_name("rsvd6")
    1217                      .dwattr $C$DW$68, DW_AT_TI_symbol_name("_rsvd6")
    1218                      .dwattr $C$DW$68, DW_AT_bit_offset(0x0e)
    1219                      .dwattr $C$DW$68, DW_AT_bit_size(0x02)
    1220                      .dwattr $C$DW$68, DW_AT_data_member_location[DW_OP_plus_uconst 0x1]
    1221                      .dwattr $C$DW$68, DW_AT_accessibility(DW_ACCESS_public)
    1222              
    1223              $C$DW$69        .dwtag  DW_TAG_member
    1224                      .dwattr $C$DW$69, DW_AT_type(*$C$DW$T$19)
    1225                      .dwattr $C$DW$69, DW_AT_name("rsvd7")
    1226                      .dwattr $C$DW$69, DW_AT_TI_symbol_name("_rsvd7")
    1227                      .dwattr $C$DW$69, DW_AT_bit_offset(0x0c)
    1228                      .dwattr $C$DW$69, DW_AT_bit_size(0x02)
    1229                      .dwattr $C$DW$69, DW_AT_data_member_location[DW_OP_plus_uconst 0x1]
    1230                      .dwattr $C$DW$69, DW_AT_accessibility(DW_ACCESS_public)
    1231              
    1232              $C$DW$70        .dwtag  DW_TAG_member
    1233                      .dwattr $C$DW$70, DW_AT_type(*$C$DW$T$19)
    1234                      .dwattr $C$DW$70, DW_AT_name("AIO10")
    1235                      .dwattr $C$DW$70, DW_AT_TI_symbol_name("_AIO10")
    1236                      .dwattr $C$DW$70, DW_AT_bit_offset(0x0a)
    1237                      .dwattr $C$DW$70, DW_AT_bit_size(0x02)
    1238                      .dwattr $C$DW$70, DW_AT_data_member_location[DW_OP_plus_uconst 0x1]
    1239                      .dwattr $C$DW$70, DW_AT_accessibility(DW_ACCESS_public)
    1240              
    1241              $C$DW$71        .dwtag  DW_TAG_member
    1242                      .dwattr $C$DW$71, DW_AT_type(*$C$DW$T$19)
    1243                      .dwattr $C$DW$71, DW_AT_name("rsvd8")
    1244                      .dwattr $C$DW$71, DW_AT_TI_symbol_name("_rsvd8")
    1245                      .dwattr $C$DW$71, DW_AT_bit_offset(0x08)
    1246                      .dwattr $C$DW$71, DW_AT_bit_size(0x02)
    1247                      .dwattr $C$DW$71, DW_AT_data_member_location[DW_OP_plus_uconst 0x1]
    1248                      .dwattr $C$DW$71, DW_AT_accessibility(DW_ACCESS_public)
    1249              
    1250              $C$DW$72        .dwtag  DW_TAG_member
    1251                      .dwattr $C$DW$72, DW_AT_type(*$C$DW$T$19)
    1252                      .dwattr $C$DW$72, DW_AT_name("AIO12")
    1253                      .dwattr $C$DW$72, DW_AT_TI_symbol_name("_AIO12")
    1254                      .dwattr $C$DW$72, DW_AT_bit_offset(0x06)
    1255                      .dwattr $C$DW$72, DW_AT_bit_size(0x02)
    1256                      .dwattr $C$DW$72, DW_AT_data_member_location[DW_OP_plus_uconst 0x1]
    1257                      .dwattr $C$DW$72, DW_AT_accessibility(DW_ACCESS_public)
    1258              
    1259              $C$DW$73        .dwtag  DW_TAG_member
    1260                      .dwattr $C$DW$73, DW_AT_type(*$C$DW$T$19)
    1261                      .dwattr $C$DW$73, DW_AT_name("rsvd9")
    1262                      .dwattr $C$DW$73, DW_AT_TI_symbol_name("_rsvd9")
    1263                      .dwattr $C$DW$73, DW_AT_bit_offset(0x04)
    1264                      .dwattr $C$DW$73, DW_AT_bit_size(0x02)
    1265                      .dwattr $C$DW$73, DW_AT_data_member_location[DW_OP_plus_uconst 0x1]
TMS320C2000 Assembler PC v16.9.6 Tue Mar 06 18:34:40 2018

Tools Copyright (c) 1996-2017 Texas Instruments Incorporated
C:\Users\Admin\AppData\Local\Temp\{31C1AC2A-9DF2-49FD-82E3-4EC1724EAAB9} PAGE   26

    1266                      .dwattr $C$DW$73, DW_AT_accessibility(DW_ACCESS_public)
    1267              
    1268              $C$DW$74        .dwtag  DW_TAG_member
    1269                      .dwattr $C$DW$74, DW_AT_type(*$C$DW$T$19)
    1270                      .dwattr $C$DW$74, DW_AT_name("AIO14")
    1271                      .dwattr $C$DW$74, DW_AT_TI_symbol_name("_AIO14")
    1272                      .dwattr $C$DW$74, DW_AT_bit_offset(0x02)
    1273                      .dwattr $C$DW$74, DW_AT_bit_size(0x02)
    1274                      .dwattr $C$DW$74, DW_AT_data_member_location[DW_OP_plus_uconst 0x1]
    1275                      .dwattr $C$DW$74, DW_AT_accessibility(DW_ACCESS_public)
    1276              
    1277              $C$DW$75        .dwtag  DW_TAG_member
    1278                      .dwattr $C$DW$75, DW_AT_type(*$C$DW$T$19)
    1279                      .dwattr $C$DW$75, DW_AT_name("rsvd10")
    1280                      .dwattr $C$DW$75, DW_AT_TI_symbol_name("_rsvd10")
    1281                      .dwattr $C$DW$75, DW_AT_bit_offset(0x00)
    1282                      .dwattr $C$DW$75, DW_AT_bit_size(0x02)
    1283                      .dwattr $C$DW$75, DW_AT_data_member_location[DW_OP_plus_uconst 0x1]
    1284                      .dwattr $C$DW$75, DW_AT_accessibility(DW_ACCESS_public)
    1285              
    1286                      .dwendtag $C$DW$T$22
    1287              
    1288              
    1289              $C$DW$T$24      .dwtag  DW_TAG_union_type
    1290                      .dwattr $C$DW$T$24, DW_AT_name("AIO_REG")
    1291                      .dwattr $C$DW$T$24, DW_AT_byte_size(0x02)
    1292              $C$DW$76        .dwtag  DW_TAG_member
    1293                      .dwattr $C$DW$76, DW_AT_type(*$C$DW$T$23)
    1294                      .dwattr $C$DW$76, DW_AT_name("all")
    1295                      .dwattr $C$DW$76, DW_AT_TI_symbol_name("_all")
    1296                      .dwattr $C$DW$76, DW_AT_data_member_location[DW_OP_plus_uconst 0x0]
    1297                      .dwattr $C$DW$76, DW_AT_accessibility(DW_ACCESS_public)
    1298              
    1299              $C$DW$77        .dwtag  DW_TAG_member
    1300                      .dwattr $C$DW$77, DW_AT_type(*$C$DW$T$22)
    1301                      .dwattr $C$DW$77, DW_AT_name("bit")
    1302                      .dwattr $C$DW$77, DW_AT_TI_symbol_name("_bit")
    1303                      .dwattr $C$DW$77, DW_AT_data_member_location[DW_OP_plus_uconst 0x0]
    1304                      .dwattr $C$DW$77, DW_AT_accessibility(DW_ACCESS_public)
    1305              
    1306                      .dwendtag $C$DW$T$24
    1307              
    1308              
    1309              $C$DW$T$25      .dwtag  DW_TAG_structure_type
    1310                      .dwattr $C$DW$T$25, DW_AT_name("CLKCTL_BITS")
    1311                      .dwattr $C$DW$T$25, DW_AT_byte_size(0x01)
    1312              $C$DW$78        .dwtag  DW_TAG_member
    1313                      .dwattr $C$DW$78, DW_AT_type(*$C$DW$T$19)
    1314                      .dwattr $C$DW$78, DW_AT_name("OSCCLKSRCSEL")
    1315                      .dwattr $C$DW$78, DW_AT_TI_symbol_name("_OSCCLKSRCSEL")
    1316                      .dwattr $C$DW$78, DW_AT_bit_offset(0x0f)
    1317                      .dwattr $C$DW$78, DW_AT_bit_size(0x01)
    1318                      .dwattr $C$DW$78, DW_AT_data_member_location[DW_OP_plus_uconst 0x0]
    1319                      .dwattr $C$DW$78, DW_AT_accessibility(DW_ACCESS_public)
    1320              
TMS320C2000 Assembler PC v16.9.6 Tue Mar 06 18:34:40 2018

Tools Copyright (c) 1996-2017 Texas Instruments Incorporated
C:\Users\Admin\AppData\Local\Temp\{31C1AC2A-9DF2-49FD-82E3-4EC1724EAAB9} PAGE   27

    1321              $C$DW$79        .dwtag  DW_TAG_member
    1322                      .dwattr $C$DW$79, DW_AT_type(*$C$DW$T$19)
    1323                      .dwattr $C$DW$79, DW_AT_name("OSCCLKSRC2SEL")
    1324                      .dwattr $C$DW$79, DW_AT_TI_symbol_name("_OSCCLKSRC2SEL")
    1325                      .dwattr $C$DW$79, DW_AT_bit_offset(0x0e)
    1326                      .dwattr $C$DW$79, DW_AT_bit_size(0x01)
    1327                      .dwattr $C$DW$79, DW_AT_data_member_location[DW_OP_plus_uconst 0x0]
    1328                      .dwattr $C$DW$79, DW_AT_accessibility(DW_ACCESS_public)
    1329              
    1330              $C$DW$80        .dwtag  DW_TAG_member
    1331                      .dwattr $C$DW$80, DW_AT_type(*$C$DW$T$19)
    1332                      .dwattr $C$DW$80, DW_AT_name("WDCLKSRCSEL")
    1333                      .dwattr $C$DW$80, DW_AT_TI_symbol_name("_WDCLKSRCSEL")
    1334                      .dwattr $C$DW$80, DW_AT_bit_offset(0x0d)
    1335                      .dwattr $C$DW$80, DW_AT_bit_size(0x01)
    1336                      .dwattr $C$DW$80, DW_AT_data_member_location[DW_OP_plus_uconst 0x0]
    1337                      .dwattr $C$DW$80, DW_AT_accessibility(DW_ACCESS_public)
    1338              
    1339              $C$DW$81        .dwtag  DW_TAG_member
    1340                      .dwattr $C$DW$81, DW_AT_type(*$C$DW$T$19)
    1341                      .dwattr $C$DW$81, DW_AT_name("TMR2CLKSRCSEL")
    1342                      .dwattr $C$DW$81, DW_AT_TI_symbol_name("_TMR2CLKSRCSEL")
    1343                      .dwattr $C$DW$81, DW_AT_bit_offset(0x0b)
    1344                      .dwattr $C$DW$81, DW_AT_bit_size(0x02)
    1345                      .dwattr $C$DW$81, DW_AT_data_member_location[DW_OP_plus_uconst 0x0]
    1346                      .dwattr $C$DW$81, DW_AT_accessibility(DW_ACCESS_public)
    1347              
    1348              $C$DW$82        .dwtag  DW_TAG_member
    1349                      .dwattr $C$DW$82, DW_AT_type(*$C$DW$T$19)
    1350                      .dwattr $C$DW$82, DW_AT_name("TMR2CLKPRESCALE")
    1351                      .dwattr $C$DW$82, DW_AT_TI_symbol_name("_TMR2CLKPRESCALE")
    1352                      .dwattr $C$DW$82, DW_AT_bit_offset(0x08)
    1353                      .dwattr $C$DW$82, DW_AT_bit_size(0x03)
    1354                      .dwattr $C$DW$82, DW_AT_data_member_location[DW_OP_plus_uconst 0x0]
    1355                      .dwattr $C$DW$82, DW_AT_accessibility(DW_ACCESS_public)
    1356              
    1357              $C$DW$83        .dwtag  DW_TAG_member
    1358                      .dwattr $C$DW$83, DW_AT_type(*$C$DW$T$19)
    1359                      .dwattr $C$DW$83, DW_AT_name("INTOSC1OFF")
    1360                      .dwattr $C$DW$83, DW_AT_TI_symbol_name("_INTOSC1OFF")
    1361                      .dwattr $C$DW$83, DW_AT_bit_offset(0x07)
    1362                      .dwattr $C$DW$83, DW_AT_bit_size(0x01)
    1363                      .dwattr $C$DW$83, DW_AT_data_member_location[DW_OP_plus_uconst 0x0]
    1364                      .dwattr $C$DW$83, DW_AT_accessibility(DW_ACCESS_public)
    1365              
    1366              $C$DW$84        .dwtag  DW_TAG_member
    1367                      .dwattr $C$DW$84, DW_AT_type(*$C$DW$T$19)
    1368                      .dwattr $C$DW$84, DW_AT_name("INTOSC1HALTI")
    1369                      .dwattr $C$DW$84, DW_AT_TI_symbol_name("_INTOSC1HALTI")
    1370                      .dwattr $C$DW$84, DW_AT_bit_offset(0x06)
    1371                      .dwattr $C$DW$84, DW_AT_bit_size(0x01)
    1372                      .dwattr $C$DW$84, DW_AT_data_member_location[DW_OP_plus_uconst 0x0]
    1373                      .dwattr $C$DW$84, DW_AT_accessibility(DW_ACCESS_public)
    1374              
    1375              $C$DW$85        .dwtag  DW_TAG_member
TMS320C2000 Assembler PC v16.9.6 Tue Mar 06 18:34:40 2018

Tools Copyright (c) 1996-2017 Texas Instruments Incorporated
C:\Users\Admin\AppData\Local\Temp\{31C1AC2A-9DF2-49FD-82E3-4EC1724EAAB9} PAGE   28

    1376                      .dwattr $C$DW$85, DW_AT_type(*$C$DW$T$19)
    1377                      .dwattr $C$DW$85, DW_AT_name("INTOSC2OFF")
    1378                      .dwattr $C$DW$85, DW_AT_TI_symbol_name("_INTOSC2OFF")
    1379                      .dwattr $C$DW$85, DW_AT_bit_offset(0x05)
    1380                      .dwattr $C$DW$85, DW_AT_bit_size(0x01)
    1381                      .dwattr $C$DW$85, DW_AT_data_member_location[DW_OP_plus_uconst 0x0]
    1382                      .dwattr $C$DW$85, DW_AT_accessibility(DW_ACCESS_public)
    1383              
    1384              $C$DW$86        .dwtag  DW_TAG_member
    1385                      .dwattr $C$DW$86, DW_AT_type(*$C$DW$T$19)
    1386                      .dwattr $C$DW$86, DW_AT_name("INTOSC2HALTI")
    1387                      .dwattr $C$DW$86, DW_AT_TI_symbol_name("_INTOSC2HALTI")
    1388                      .dwattr $C$DW$86, DW_AT_bit_offset(0x04)
    1389                      .dwattr $C$DW$86, DW_AT_bit_size(0x01)
    1390                      .dwattr $C$DW$86, DW_AT_data_member_location[DW_OP_plus_uconst 0x0]
    1391                      .dwattr $C$DW$86, DW_AT_accessibility(DW_ACCESS_public)
    1392              
    1393              $C$DW$87        .dwtag  DW_TAG_member
    1394                      .dwattr $C$DW$87, DW_AT_type(*$C$DW$T$19)
    1395                      .dwattr $C$DW$87, DW_AT_name("WDHALTI")
    1396                      .dwattr $C$DW$87, DW_AT_TI_symbol_name("_WDHALTI")
    1397                      .dwattr $C$DW$87, DW_AT_bit_offset(0x03)
    1398                      .dwattr $C$DW$87, DW_AT_bit_size(0x01)
    1399                      .dwattr $C$DW$87, DW_AT_data_member_location[DW_OP_plus_uconst 0x0]
    1400                      .dwattr $C$DW$87, DW_AT_accessibility(DW_ACCESS_public)
    1401              
    1402              $C$DW$88        .dwtag  DW_TAG_member
    1403                      .dwattr $C$DW$88, DW_AT_type(*$C$DW$T$19)
    1404                      .dwattr $C$DW$88, DW_AT_name("XCLKINOFF")
    1405                      .dwattr $C$DW$88, DW_AT_TI_symbol_name("_XCLKINOFF")
    1406                      .dwattr $C$DW$88, DW_AT_bit_offset(0x02)
    1407                      .dwattr $C$DW$88, DW_AT_bit_size(0x01)
    1408                      .dwattr $C$DW$88, DW_AT_data_member_location[DW_OP_plus_uconst 0x0]
    1409                      .dwattr $C$DW$88, DW_AT_accessibility(DW_ACCESS_public)
    1410              
    1411              $C$DW$89        .dwtag  DW_TAG_member
    1412                      .dwattr $C$DW$89, DW_AT_type(*$C$DW$T$19)
    1413                      .dwattr $C$DW$89, DW_AT_name("XTALOSCOFF")
    1414                      .dwattr $C$DW$89, DW_AT_TI_symbol_name("_XTALOSCOFF")
    1415                      .dwattr $C$DW$89, DW_AT_bit_offset(0x01)
    1416                      .dwattr $C$DW$89, DW_AT_bit_size(0x01)
    1417                      .dwattr $C$DW$89, DW_AT_data_member_location[DW_OP_plus_uconst 0x0]
    1418                      .dwattr $C$DW$89, DW_AT_accessibility(DW_ACCESS_public)
    1419              
    1420              $C$DW$90        .dwtag  DW_TAG_member
    1421                      .dwattr $C$DW$90, DW_AT_type(*$C$DW$T$19)
    1422                      .dwattr $C$DW$90, DW_AT_name("NMIRESETSEL")
    1423                      .dwattr $C$DW$90, DW_AT_TI_symbol_name("_NMIRESETSEL")
    1424                      .dwattr $C$DW$90, DW_AT_bit_offset(0x00)
    1425                      .dwattr $C$DW$90, DW_AT_bit_size(0x01)
    1426                      .dwattr $C$DW$90, DW_AT_data_member_location[DW_OP_plus_uconst 0x0]
    1427                      .dwattr $C$DW$90, DW_AT_accessibility(DW_ACCESS_public)
    1428              
    1429                      .dwendtag $C$DW$T$25
    1430              
TMS320C2000 Assembler PC v16.9.6 Tue Mar 06 18:34:40 2018

Tools Copyright (c) 1996-2017 Texas Instruments Incorporated
C:\Users\Admin\AppData\Local\Temp\{31C1AC2A-9DF2-49FD-82E3-4EC1724EAAB9} PAGE   29

    1431              
    1432              $C$DW$T$26      .dwtag  DW_TAG_union_type
    1433                      .dwattr $C$DW$T$26, DW_AT_name("CLKCTL_REG")
    1434                      .dwattr $C$DW$T$26, DW_AT_byte_size(0x01)
    1435              $C$DW$91        .dwtag  DW_TAG_member
    1436                      .dwattr $C$DW$91, DW_AT_type(*$C$DW$T$19)
    1437                      .dwattr $C$DW$91, DW_AT_name("all")
    1438                      .dwattr $C$DW$91, DW_AT_TI_symbol_name("_all")
    1439                      .dwattr $C$DW$91, DW_AT_data_member_location[DW_OP_plus_uconst 0x0]
    1440                      .dwattr $C$DW$91, DW_AT_accessibility(DW_ACCESS_public)
    1441              
    1442              $C$DW$92        .dwtag  DW_TAG_member
    1443                      .dwattr $C$DW$92, DW_AT_type(*$C$DW$T$25)
    1444                      .dwattr $C$DW$92, DW_AT_name("bit")
    1445                      .dwattr $C$DW$92, DW_AT_TI_symbol_name("_bit")
    1446                      .dwattr $C$DW$92, DW_AT_data_member_location[DW_OP_plus_uconst 0x0]
    1447                      .dwattr $C$DW$92, DW_AT_accessibility(DW_ACCESS_public)
    1448              
    1449                      .dwendtag $C$DW$T$26
    1450              
    1451              
    1452              $C$DW$T$27      .dwtag  DW_TAG_structure_type
    1453                      .dwattr $C$DW$T$27, DW_AT_name("CSMSCR_BITS")
    1454                      .dwattr $C$DW$T$27, DW_AT_byte_size(0x01)
    1455              $C$DW$93        .dwtag  DW_TAG_member
    1456                      .dwattr $C$DW$93, DW_AT_type(*$C$DW$T$19)
    1457                      .dwattr $C$DW$93, DW_AT_name("SECURE")
    1458                      .dwattr $C$DW$93, DW_AT_TI_symbol_name("_SECURE")
    1459                      .dwattr $C$DW$93, DW_AT_bit_offset(0x0f)
    1460                      .dwattr $C$DW$93, DW_AT_bit_size(0x01)
    1461                      .dwattr $C$DW$93, DW_AT_data_member_location[DW_OP_plus_uconst 0x0]
    1462                      .dwattr $C$DW$93, DW_AT_accessibility(DW_ACCESS_public)
    1463              
    1464              $C$DW$94        .dwtag  DW_TAG_member
    1465                      .dwattr $C$DW$94, DW_AT_type(*$C$DW$T$19)
    1466                      .dwattr $C$DW$94, DW_AT_name("rsvd1")
    1467                      .dwattr $C$DW$94, DW_AT_TI_symbol_name("_rsvd1")
    1468                      .dwattr $C$DW$94, DW_AT_bit_offset(0x01)
    1469                      .dwattr $C$DW$94, DW_AT_bit_size(0x0e)
    1470                      .dwattr $C$DW$94, DW_AT_data_member_location[DW_OP_plus_uconst 0x0]
    1471                      .dwattr $C$DW$94, DW_AT_accessibility(DW_ACCESS_public)
    1472              
    1473              $C$DW$95        .dwtag  DW_TAG_member
    1474                      .dwattr $C$DW$95, DW_AT_type(*$C$DW$T$19)
    1475                      .dwattr $C$DW$95, DW_AT_name("FORCESEC")
    1476                      .dwattr $C$DW$95, DW_AT_TI_symbol_name("_FORCESEC")
    1477                      .dwattr $C$DW$95, DW_AT_bit_offset(0x00)
    1478                      .dwattr $C$DW$95, DW_AT_bit_size(0x01)
    1479                      .dwattr $C$DW$95, DW_AT_data_member_location[DW_OP_plus_uconst 0x0]
    1480                      .dwattr $C$DW$95, DW_AT_accessibility(DW_ACCESS_public)
    1481              
    1482                      .dwendtag $C$DW$T$27
    1483              
    1484              
    1485              $C$DW$T$28      .dwtag  DW_TAG_union_type
TMS320C2000 Assembler PC v16.9.6 Tue Mar 06 18:34:40 2018

Tools Copyright (c) 1996-2017 Texas Instruments Incorporated
C:\Users\Admin\AppData\Local\Temp\{31C1AC2A-9DF2-49FD-82E3-4EC1724EAAB9} PAGE   30

    1486                      .dwattr $C$DW$T$28, DW_AT_name("CSMSCR_REG")
    1487                      .dwattr $C$DW$T$28, DW_AT_byte_size(0x01)
    1488              $C$DW$96        .dwtag  DW_TAG_member
    1489                      .dwattr $C$DW$96, DW_AT_type(*$C$DW$T$19)
    1490                      .dwattr $C$DW$96, DW_AT_name("all")
    1491                      .dwattr $C$DW$96, DW_AT_TI_symbol_name("_all")
    1492                      .dwattr $C$DW$96, DW_AT_data_member_location[DW_OP_plus_uconst 0x0]
    1493                      .dwattr $C$DW$96, DW_AT_accessibility(DW_ACCESS_public)
    1494              
    1495              $C$DW$97        .dwtag  DW_TAG_member
    1496                      .dwattr $C$DW$97, DW_AT_type(*$C$DW$T$27)
    1497                      .dwattr $C$DW$97, DW_AT_name("bit")
    1498                      .dwattr $C$DW$97, DW_AT_TI_symbol_name("_bit")
    1499                      .dwattr $C$DW$97, DW_AT_data_member_location[DW_OP_plus_uconst 0x0]
    1500                      .dwattr $C$DW$97, DW_AT_accessibility(DW_ACCESS_public)
    1501              
    1502                      .dwendtag $C$DW$T$28
    1503              
    1504              
    1505              $C$DW$T$29      .dwtag  DW_TAG_structure_type
    1506                      .dwattr $C$DW$T$29, DW_AT_name("CSM_PWL")
    1507                      .dwattr $C$DW$T$29, DW_AT_byte_size(0x08)
    1508              $C$DW$98        .dwtag  DW_TAG_member
    1509                      .dwattr $C$DW$98, DW_AT_type(*$C$DW$T$19)
    1510                      .dwattr $C$DW$98, DW_AT_name("PSWD0")
    1511                      .dwattr $C$DW$98, DW_AT_TI_symbol_name("_PSWD0")
    1512                      .dwattr $C$DW$98, DW_AT_data_member_location[DW_OP_plus_uconst 0x0]
    1513                      .dwattr $C$DW$98, DW_AT_accessibility(DW_ACCESS_public)
    1514              
    1515              $C$DW$99        .dwtag  DW_TAG_member
    1516                      .dwattr $C$DW$99, DW_AT_type(*$C$DW$T$19)
    1517                      .dwattr $C$DW$99, DW_AT_name("PSWD1")
    1518                      .dwattr $C$DW$99, DW_AT_TI_symbol_name("_PSWD1")
    1519                      .dwattr $C$DW$99, DW_AT_data_member_location[DW_OP_plus_uconst 0x1]
    1520                      .dwattr $C$DW$99, DW_AT_accessibility(DW_ACCESS_public)
    1521              
    1522              $C$DW$100       .dwtag  DW_TAG_member
    1523                      .dwattr $C$DW$100, DW_AT_type(*$C$DW$T$19)
    1524                      .dwattr $C$DW$100, DW_AT_name("PSWD2")
    1525                      .dwattr $C$DW$100, DW_AT_TI_symbol_name("_PSWD2")
    1526                      .dwattr $C$DW$100, DW_AT_data_member_location[DW_OP_plus_uconst 0x2]
    1527                      .dwattr $C$DW$100, DW_AT_accessibility(DW_ACCESS_public)
    1528              
    1529              $C$DW$101       .dwtag  DW_TAG_member
    1530                      .dwattr $C$DW$101, DW_AT_type(*$C$DW$T$19)
    1531                      .dwattr $C$DW$101, DW_AT_name("PSWD3")
    1532                      .dwattr $C$DW$101, DW_AT_TI_symbol_name("_PSWD3")
    1533                      .dwattr $C$DW$101, DW_AT_data_member_location[DW_OP_plus_uconst 0x3]
    1534                      .dwattr $C$DW$101, DW_AT_accessibility(DW_ACCESS_public)
    1535              
    1536              $C$DW$102       .dwtag  DW_TAG_member
    1537                      .dwattr $C$DW$102, DW_AT_type(*$C$DW$T$19)
    1538                      .dwattr $C$DW$102, DW_AT_name("PSWD4")
    1539                      .dwattr $C$DW$102, DW_AT_TI_symbol_name("_PSWD4")
    1540                      .dwattr $C$DW$102, DW_AT_data_member_location[DW_OP_plus_uconst 0x4]
TMS320C2000 Assembler PC v16.9.6 Tue Mar 06 18:34:40 2018

Tools Copyright (c) 1996-2017 Texas Instruments Incorporated
C:\Users\Admin\AppData\Local\Temp\{31C1AC2A-9DF2-49FD-82E3-4EC1724EAAB9} PAGE   31

    1541                      .dwattr $C$DW$102, DW_AT_accessibility(DW_ACCESS_public)
    1542              
    1543              $C$DW$103       .dwtag  DW_TAG_member
    1544                      .dwattr $C$DW$103, DW_AT_type(*$C$DW$T$19)
    1545                      .dwattr $C$DW$103, DW_AT_name("PSWD5")
    1546                      .dwattr $C$DW$103, DW_AT_TI_symbol_name("_PSWD5")
    1547                      .dwattr $C$DW$103, DW_AT_data_member_location[DW_OP_plus_uconst 0x5]
    1548                      .dwattr $C$DW$103, DW_AT_accessibility(DW_ACCESS_public)
    1549              
    1550              $C$DW$104       .dwtag  DW_TAG_member
    1551                      .dwattr $C$DW$104, DW_AT_type(*$C$DW$T$19)
    1552                      .dwattr $C$DW$104, DW_AT_name("PSWD6")
    1553                      .dwattr $C$DW$104, DW_AT_TI_symbol_name("_PSWD6")
    1554                      .dwattr $C$DW$104, DW_AT_data_member_location[DW_OP_plus_uconst 0x6]
    1555                      .dwattr $C$DW$104, DW_AT_accessibility(DW_ACCESS_public)
    1556              
    1557              $C$DW$105       .dwtag  DW_TAG_member
    1558                      .dwattr $C$DW$105, DW_AT_type(*$C$DW$T$19)
    1559                      .dwattr $C$DW$105, DW_AT_name("PSWD7")
    1560                      .dwattr $C$DW$105, DW_AT_TI_symbol_name("_PSWD7")
    1561                      .dwattr $C$DW$105, DW_AT_data_member_location[DW_OP_plus_uconst 0x7]
    1562                      .dwattr $C$DW$105, DW_AT_accessibility(DW_ACCESS_public)
    1563              
    1564                      .dwendtag $C$DW$T$29
    1565              
    1566              $C$DW$106       .dwtag  DW_TAG_TI_far_type
    1567                      .dwattr $C$DW$106, DW_AT_type(*$C$DW$T$29)
    1568              
    1569              $C$DW$T$91      .dwtag  DW_TAG_volatile_type
    1570                      .dwattr $C$DW$T$91, DW_AT_type(*$C$DW$106)
    1571              
    1572              
    1573              $C$DW$T$30      .dwtag  DW_TAG_structure_type
    1574                      .dwattr $C$DW$T$30, DW_AT_name("CSM_REGS")
    1575                      .dwattr $C$DW$T$30, DW_AT_byte_size(0x10)
    1576              $C$DW$107       .dwtag  DW_TAG_member
    1577                      .dwattr $C$DW$107, DW_AT_type(*$C$DW$T$19)
    1578                      .dwattr $C$DW$107, DW_AT_name("KEY0")
    1579                      .dwattr $C$DW$107, DW_AT_TI_symbol_name("_KEY0")
    1580                      .dwattr $C$DW$107, DW_AT_data_member_location[DW_OP_plus_uconst 0x0]
    1581                      .dwattr $C$DW$107, DW_AT_accessibility(DW_ACCESS_public)
    1582              
    1583              $C$DW$108       .dwtag  DW_TAG_member
    1584                      .dwattr $C$DW$108, DW_AT_type(*$C$DW$T$19)
    1585                      .dwattr $C$DW$108, DW_AT_name("KEY1")
    1586                      .dwattr $C$DW$108, DW_AT_TI_symbol_name("_KEY1")
    1587                      .dwattr $C$DW$108, DW_AT_data_member_location[DW_OP_plus_uconst 0x1]
    1588                      .dwattr $C$DW$108, DW_AT_accessibility(DW_ACCESS_public)
    1589              
    1590              $C$DW$109       .dwtag  DW_TAG_member
    1591                      .dwattr $C$DW$109, DW_AT_type(*$C$DW$T$19)
    1592                      .dwattr $C$DW$109, DW_AT_name("KEY2")
    1593                      .dwattr $C$DW$109, DW_AT_TI_symbol_name("_KEY2")
    1594                      .dwattr $C$DW$109, DW_AT_data_member_location[DW_OP_plus_uconst 0x2]
    1595                      .dwattr $C$DW$109, DW_AT_accessibility(DW_ACCESS_public)
TMS320C2000 Assembler PC v16.9.6 Tue Mar 06 18:34:40 2018

Tools Copyright (c) 1996-2017 Texas Instruments Incorporated
C:\Users\Admin\AppData\Local\Temp\{31C1AC2A-9DF2-49FD-82E3-4EC1724EAAB9} PAGE   32

    1596              
    1597              $C$DW$110       .dwtag  DW_TAG_member
    1598                      .dwattr $C$DW$110, DW_AT_type(*$C$DW$T$19)
    1599                      .dwattr $C$DW$110, DW_AT_name("KEY3")
    1600                      .dwattr $C$DW$110, DW_AT_TI_symbol_name("_KEY3")
    1601                      .dwattr $C$DW$110, DW_AT_data_member_location[DW_OP_plus_uconst 0x3]
    1602                      .dwattr $C$DW$110, DW_AT_accessibility(DW_ACCESS_public)
    1603              
    1604              $C$DW$111       .dwtag  DW_TAG_member
    1605                      .dwattr $C$DW$111, DW_AT_type(*$C$DW$T$19)
    1606                      .dwattr $C$DW$111, DW_AT_name("KEY4")
    1607                      .dwattr $C$DW$111, DW_AT_TI_symbol_name("_KEY4")
    1608                      .dwattr $C$DW$111, DW_AT_data_member_location[DW_OP_plus_uconst 0x4]
    1609                      .dwattr $C$DW$111, DW_AT_accessibility(DW_ACCESS_public)
    1610              
    1611              $C$DW$112       .dwtag  DW_TAG_member
    1612                      .dwattr $C$DW$112, DW_AT_type(*$C$DW$T$19)
    1613                      .dwattr $C$DW$112, DW_AT_name("KEY5")
    1614                      .dwattr $C$DW$112, DW_AT_TI_symbol_name("_KEY5")
    1615                      .dwattr $C$DW$112, DW_AT_data_member_location[DW_OP_plus_uconst 0x5]
    1616                      .dwattr $C$DW$112, DW_AT_accessibility(DW_ACCESS_public)
    1617              
    1618              $C$DW$113       .dwtag  DW_TAG_member
    1619                      .dwattr $C$DW$113, DW_AT_type(*$C$DW$T$19)
    1620                      .dwattr $C$DW$113, DW_AT_name("KEY6")
    1621                      .dwattr $C$DW$113, DW_AT_TI_symbol_name("_KEY6")
    1622                      .dwattr $C$DW$113, DW_AT_data_member_location[DW_OP_plus_uconst 0x6]
    1623                      .dwattr $C$DW$113, DW_AT_accessibility(DW_ACCESS_public)
    1624              
    1625              $C$DW$114       .dwtag  DW_TAG_member
    1626                      .dwattr $C$DW$114, DW_AT_type(*$C$DW$T$19)
    1627                      .dwattr $C$DW$114, DW_AT_name("KEY7")
    1628                      .dwattr $C$DW$114, DW_AT_TI_symbol_name("_KEY7")
    1629                      .dwattr $C$DW$114, DW_AT_data_member_location[DW_OP_plus_uconst 0x7]
    1630                      .dwattr $C$DW$114, DW_AT_accessibility(DW_ACCESS_public)
    1631              
    1632              $C$DW$115       .dwtag  DW_TAG_member
    1633                      .dwattr $C$DW$115, DW_AT_type(*$C$DW$T$19)
    1634                      .dwattr $C$DW$115, DW_AT_name("rsvd1")
    1635                      .dwattr $C$DW$115, DW_AT_TI_symbol_name("_rsvd1")
    1636                      .dwattr $C$DW$115, DW_AT_data_member_location[DW_OP_plus_uconst 0x8]
    1637                      .dwattr $C$DW$115, DW_AT_accessibility(DW_ACCESS_public)
    1638              
    1639              $C$DW$116       .dwtag  DW_TAG_member
    1640                      .dwattr $C$DW$116, DW_AT_type(*$C$DW$T$19)
    1641                      .dwattr $C$DW$116, DW_AT_name("rsvd2")
    1642                      .dwattr $C$DW$116, DW_AT_TI_symbol_name("_rsvd2")
    1643                      .dwattr $C$DW$116, DW_AT_data_member_location[DW_OP_plus_uconst 0x9]
    1644                      .dwattr $C$DW$116, DW_AT_accessibility(DW_ACCESS_public)
    1645              
    1646              $C$DW$117       .dwtag  DW_TAG_member
    1647                      .dwattr $C$DW$117, DW_AT_type(*$C$DW$T$19)
    1648                      .dwattr $C$DW$117, DW_AT_name("rsvd3")
    1649                      .dwattr $C$DW$117, DW_AT_TI_symbol_name("_rsvd3")
    1650                      .dwattr $C$DW$117, DW_AT_data_member_location[DW_OP_plus_uconst 0xa]
TMS320C2000 Assembler PC v16.9.6 Tue Mar 06 18:34:40 2018

Tools Copyright (c) 1996-2017 Texas Instruments Incorporated
C:\Users\Admin\AppData\Local\Temp\{31C1AC2A-9DF2-49FD-82E3-4EC1724EAAB9} PAGE   33

    1651                      .dwattr $C$DW$117, DW_AT_accessibility(DW_ACCESS_public)
    1652              
    1653              $C$DW$118       .dwtag  DW_TAG_member
    1654                      .dwattr $C$DW$118, DW_AT_type(*$C$DW$T$19)
    1655                      .dwattr $C$DW$118, DW_AT_name("rsvd4")
    1656                      .dwattr $C$DW$118, DW_AT_TI_symbol_name("_rsvd4")
    1657                      .dwattr $C$DW$118, DW_AT_data_member_location[DW_OP_plus_uconst 0xb]
    1658                      .dwattr $C$DW$118, DW_AT_accessibility(DW_ACCESS_public)
    1659              
    1660              $C$DW$119       .dwtag  DW_TAG_member
    1661                      .dwattr $C$DW$119, DW_AT_type(*$C$DW$T$19)
    1662                      .dwattr $C$DW$119, DW_AT_name("rsvd5")
    1663                      .dwattr $C$DW$119, DW_AT_TI_symbol_name("_rsvd5")
    1664                      .dwattr $C$DW$119, DW_AT_data_member_location[DW_OP_plus_uconst 0xc]
    1665                      .dwattr $C$DW$119, DW_AT_accessibility(DW_ACCESS_public)
    1666              
    1667              $C$DW$120       .dwtag  DW_TAG_member
    1668                      .dwattr $C$DW$120, DW_AT_type(*$C$DW$T$19)
    1669                      .dwattr $C$DW$120, DW_AT_name("rsvd6")
    1670                      .dwattr $C$DW$120, DW_AT_TI_symbol_name("_rsvd6")
    1671                      .dwattr $C$DW$120, DW_AT_data_member_location[DW_OP_plus_uconst 0xd]
    1672                      .dwattr $C$DW$120, DW_AT_accessibility(DW_ACCESS_public)
    1673              
    1674              $C$DW$121       .dwtag  DW_TAG_member
    1675                      .dwattr $C$DW$121, DW_AT_type(*$C$DW$T$19)
    1676                      .dwattr $C$DW$121, DW_AT_name("rsvd7")
    1677                      .dwattr $C$DW$121, DW_AT_TI_symbol_name("_rsvd7")
    1678                      .dwattr $C$DW$121, DW_AT_data_member_location[DW_OP_plus_uconst 0xe]
    1679                      .dwattr $C$DW$121, DW_AT_accessibility(DW_ACCESS_public)
    1680              
    1681              $C$DW$122       .dwtag  DW_TAG_member
    1682                      .dwattr $C$DW$122, DW_AT_type(*$C$DW$T$28)
    1683                      .dwattr $C$DW$122, DW_AT_name("CSMSCR")
    1684                      .dwattr $C$DW$122, DW_AT_TI_symbol_name("_CSMSCR")
    1685                      .dwattr $C$DW$122, DW_AT_data_member_location[DW_OP_plus_uconst 0xf]
    1686                      .dwattr $C$DW$122, DW_AT_accessibility(DW_ACCESS_public)
    1687              
    1688                      .dwendtag $C$DW$T$30
    1689              
    1690              $C$DW$123       .dwtag  DW_TAG_TI_far_type
    1691                      .dwattr $C$DW$123, DW_AT_type(*$C$DW$T$30)
    1692              
    1693              $C$DW$T$92      .dwtag  DW_TAG_volatile_type
    1694                      .dwattr $C$DW$T$92, DW_AT_type(*$C$DW$123)
    1695              
    1696              
    1697              $C$DW$T$31      .dwtag  DW_TAG_structure_type
    1698                      .dwattr $C$DW$T$31, DW_AT_name("FACTIVEWAIT_BITS")
    1699                      .dwattr $C$DW$T$31, DW_AT_byte_size(0x01)
    1700              $C$DW$124       .dwtag  DW_TAG_member
    1701                      .dwattr $C$DW$124, DW_AT_type(*$C$DW$T$19)
    1702                      .dwattr $C$DW$124, DW_AT_name("ACTIVEWAIT")
    1703                      .dwattr $C$DW$124, DW_AT_TI_symbol_name("_ACTIVEWAIT")
    1704                      .dwattr $C$DW$124, DW_AT_bit_offset(0x07)
    1705                      .dwattr $C$DW$124, DW_AT_bit_size(0x09)
TMS320C2000 Assembler PC v16.9.6 Tue Mar 06 18:34:40 2018

Tools Copyright (c) 1996-2017 Texas Instruments Incorporated
C:\Users\Admin\AppData\Local\Temp\{31C1AC2A-9DF2-49FD-82E3-4EC1724EAAB9} PAGE   34

    1706                      .dwattr $C$DW$124, DW_AT_data_member_location[DW_OP_plus_uconst 0x0]
    1707                      .dwattr $C$DW$124, DW_AT_accessibility(DW_ACCESS_public)
    1708              
    1709              $C$DW$125       .dwtag  DW_TAG_member
    1710                      .dwattr $C$DW$125, DW_AT_type(*$C$DW$T$19)
    1711                      .dwattr $C$DW$125, DW_AT_name("rsvd")
    1712                      .dwattr $C$DW$125, DW_AT_TI_symbol_name("_rsvd")
    1713                      .dwattr $C$DW$125, DW_AT_bit_offset(0x00)
    1714                      .dwattr $C$DW$125, DW_AT_bit_size(0x07)
    1715                      .dwattr $C$DW$125, DW_AT_data_member_location[DW_OP_plus_uconst 0x0]
    1716                      .dwattr $C$DW$125, DW_AT_accessibility(DW_ACCESS_public)
    1717              
    1718                      .dwendtag $C$DW$T$31
    1719              
    1720              
    1721              $C$DW$T$32      .dwtag  DW_TAG_union_type
    1722                      .dwattr $C$DW$T$32, DW_AT_name("FACTIVEWAIT_REG")
    1723                      .dwattr $C$DW$T$32, DW_AT_byte_size(0x01)
    1724              $C$DW$126       .dwtag  DW_TAG_member
    1725                      .dwattr $C$DW$126, DW_AT_type(*$C$DW$T$19)
    1726                      .dwattr $C$DW$126, DW_AT_name("all")
    1727                      .dwattr $C$DW$126, DW_AT_TI_symbol_name("_all")
    1728                      .dwattr $C$DW$126, DW_AT_data_member_location[DW_OP_plus_uconst 0x0]
    1729                      .dwattr $C$DW$126, DW_AT_accessibility(DW_ACCESS_public)
    1730              
    1731              $C$DW$127       .dwtag  DW_TAG_member
    1732                      .dwattr $C$DW$127, DW_AT_type(*$C$DW$T$31)
    1733                      .dwattr $C$DW$127, DW_AT_name("bit")
    1734                      .dwattr $C$DW$127, DW_AT_TI_symbol_name("_bit")
    1735                      .dwattr $C$DW$127, DW_AT_data_member_location[DW_OP_plus_uconst 0x0]
    1736                      .dwattr $C$DW$127, DW_AT_accessibility(DW_ACCESS_public)
    1737              
    1738                      .dwendtag $C$DW$T$32
    1739              
    1740              
    1741              $C$DW$T$33      .dwtag  DW_TAG_structure_type
    1742                      .dwattr $C$DW$T$33, DW_AT_name("FBANKWAIT_BITS")
    1743                      .dwattr $C$DW$T$33, DW_AT_byte_size(0x01)
    1744              $C$DW$128       .dwtag  DW_TAG_member
    1745                      .dwattr $C$DW$128, DW_AT_type(*$C$DW$T$19)
    1746                      .dwattr $C$DW$128, DW_AT_name("RANDWAIT")
    1747                      .dwattr $C$DW$128, DW_AT_TI_symbol_name("_RANDWAIT")
    1748                      .dwattr $C$DW$128, DW_AT_bit_offset(0x0c)
    1749                      .dwattr $C$DW$128, DW_AT_bit_size(0x04)
    1750                      .dwattr $C$DW$128, DW_AT_data_member_location[DW_OP_plus_uconst 0x0]
    1751                      .dwattr $C$DW$128, DW_AT_accessibility(DW_ACCESS_public)
    1752              
    1753              $C$DW$129       .dwtag  DW_TAG_member
    1754                      .dwattr $C$DW$129, DW_AT_type(*$C$DW$T$19)
    1755                      .dwattr $C$DW$129, DW_AT_name("rsvd1")
    1756                      .dwattr $C$DW$129, DW_AT_TI_symbol_name("_rsvd1")
    1757                      .dwattr $C$DW$129, DW_AT_bit_offset(0x08)
    1758                      .dwattr $C$DW$129, DW_AT_bit_size(0x04)
    1759                      .dwattr $C$DW$129, DW_AT_data_member_location[DW_OP_plus_uconst 0x0]
    1760                      .dwattr $C$DW$129, DW_AT_accessibility(DW_ACCESS_public)
TMS320C2000 Assembler PC v16.9.6 Tue Mar 06 18:34:40 2018

Tools Copyright (c) 1996-2017 Texas Instruments Incorporated
C:\Users\Admin\AppData\Local\Temp\{31C1AC2A-9DF2-49FD-82E3-4EC1724EAAB9} PAGE   35

    1761              
    1762              $C$DW$130       .dwtag  DW_TAG_member
    1763                      .dwattr $C$DW$130, DW_AT_type(*$C$DW$T$19)
    1764                      .dwattr $C$DW$130, DW_AT_name("PAGEWAIT")
    1765                      .dwattr $C$DW$130, DW_AT_TI_symbol_name("_PAGEWAIT")
    1766                      .dwattr $C$DW$130, DW_AT_bit_offset(0x04)
    1767                      .dwattr $C$DW$130, DW_AT_bit_size(0x04)
    1768                      .dwattr $C$DW$130, DW_AT_data_member_location[DW_OP_plus_uconst 0x0]
    1769                      .dwattr $C$DW$130, DW_AT_accessibility(DW_ACCESS_public)
    1770              
    1771              $C$DW$131       .dwtag  DW_TAG_member
    1772                      .dwattr $C$DW$131, DW_AT_type(*$C$DW$T$19)
    1773                      .dwattr $C$DW$131, DW_AT_name("rsvd2")
    1774                      .dwattr $C$DW$131, DW_AT_TI_symbol_name("_rsvd2")
    1775                      .dwattr $C$DW$131, DW_AT_bit_offset(0x00)
    1776                      .dwattr $C$DW$131, DW_AT_bit_size(0x04)
    1777                      .dwattr $C$DW$131, DW_AT_data_member_location[DW_OP_plus_uconst 0x0]
    1778                      .dwattr $C$DW$131, DW_AT_accessibility(DW_ACCESS_public)
    1779              
    1780                      .dwendtag $C$DW$T$33
    1781              
    1782              
    1783              $C$DW$T$34      .dwtag  DW_TAG_union_type
    1784                      .dwattr $C$DW$T$34, DW_AT_name("FBANKWAIT_REG")
    1785                      .dwattr $C$DW$T$34, DW_AT_byte_size(0x01)
    1786              $C$DW$132       .dwtag  DW_TAG_member
    1787                      .dwattr $C$DW$132, DW_AT_type(*$C$DW$T$19)
    1788                      .dwattr $C$DW$132, DW_AT_name("all")
    1789                      .dwattr $C$DW$132, DW_AT_TI_symbol_name("_all")
    1790                      .dwattr $C$DW$132, DW_AT_data_member_location[DW_OP_plus_uconst 0x0]
    1791                      .dwattr $C$DW$132, DW_AT_accessibility(DW_ACCESS_public)
    1792              
    1793              $C$DW$133       .dwtag  DW_TAG_member
    1794                      .dwattr $C$DW$133, DW_AT_type(*$C$DW$T$33)
    1795                      .dwattr $C$DW$133, DW_AT_name("bit")
    1796                      .dwattr $C$DW$133, DW_AT_TI_symbol_name("_bit")
    1797                      .dwattr $C$DW$133, DW_AT_data_member_location[DW_OP_plus_uconst 0x0]
    1798                      .dwattr $C$DW$133, DW_AT_accessibility(DW_ACCESS_public)
    1799              
    1800                      .dwendtag $C$DW$T$34
    1801              
    1802              
    1803              $C$DW$T$35      .dwtag  DW_TAG_structure_type
    1804                      .dwattr $C$DW$T$35, DW_AT_name("FLASH_REGS")
    1805                      .dwattr $C$DW$T$35, DW_AT_byte_size(0x08)
    1806              $C$DW$134       .dwtag  DW_TAG_member
    1807                      .dwattr $C$DW$134, DW_AT_type(*$C$DW$T$37)
    1808                      .dwattr $C$DW$134, DW_AT_name("FOPT")
    1809                      .dwattr $C$DW$134, DW_AT_TI_symbol_name("_FOPT")
    1810                      .dwattr $C$DW$134, DW_AT_data_member_location[DW_OP_plus_uconst 0x0]
    1811                      .dwattr $C$DW$134, DW_AT_accessibility(DW_ACCESS_public)
    1812              
    1813              $C$DW$135       .dwtag  DW_TAG_member
    1814                      .dwattr $C$DW$135, DW_AT_type(*$C$DW$T$19)
    1815                      .dwattr $C$DW$135, DW_AT_name("rsvd1")
TMS320C2000 Assembler PC v16.9.6 Tue Mar 06 18:34:40 2018

Tools Copyright (c) 1996-2017 Texas Instruments Incorporated
C:\Users\Admin\AppData\Local\Temp\{31C1AC2A-9DF2-49FD-82E3-4EC1724EAAB9} PAGE   36

    1816                      .dwattr $C$DW$135, DW_AT_TI_symbol_name("_rsvd1")
    1817                      .dwattr $C$DW$135, DW_AT_data_member_location[DW_OP_plus_uconst 0x1]
    1818                      .dwattr $C$DW$135, DW_AT_accessibility(DW_ACCESS_public)
    1819              
    1820              $C$DW$136       .dwtag  DW_TAG_member
    1821                      .dwattr $C$DW$136, DW_AT_type(*$C$DW$T$41)
    1822                      .dwattr $C$DW$136, DW_AT_name("FPWR")
    1823                      .dwattr $C$DW$136, DW_AT_TI_symbol_name("_FPWR")
    1824                      .dwattr $C$DW$136, DW_AT_data_member_location[DW_OP_plus_uconst 0x2]
    1825                      .dwattr $C$DW$136, DW_AT_accessibility(DW_ACCESS_public)
    1826              
    1827              $C$DW$137       .dwtag  DW_TAG_member
    1828                      .dwattr $C$DW$137, DW_AT_type(*$C$DW$T$43)
    1829                      .dwattr $C$DW$137, DW_AT_name("FSTATUS")
    1830                      .dwattr $C$DW$137, DW_AT_TI_symbol_name("_FSTATUS")
    1831                      .dwattr $C$DW$137, DW_AT_data_member_location[DW_OP_plus_uconst 0x3]
    1832                      .dwattr $C$DW$137, DW_AT_accessibility(DW_ACCESS_public)
    1833              
    1834              $C$DW$138       .dwtag  DW_TAG_member
    1835                      .dwattr $C$DW$138, DW_AT_type(*$C$DW$T$45)
    1836                      .dwattr $C$DW$138, DW_AT_name("FSTDBYWAIT")
    1837                      .dwattr $C$DW$138, DW_AT_TI_symbol_name("_FSTDBYWAIT")
    1838                      .dwattr $C$DW$138, DW_AT_data_member_location[DW_OP_plus_uconst 0x4]
    1839                      .dwattr $C$DW$138, DW_AT_accessibility(DW_ACCESS_public)
    1840              
    1841              $C$DW$139       .dwtag  DW_TAG_member
    1842                      .dwattr $C$DW$139, DW_AT_type(*$C$DW$T$32)
    1843                      .dwattr $C$DW$139, DW_AT_name("FACTIVEWAIT")
    1844                      .dwattr $C$DW$139, DW_AT_TI_symbol_name("_FACTIVEWAIT")
    1845                      .dwattr $C$DW$139, DW_AT_data_member_location[DW_OP_plus_uconst 0x5]
    1846                      .dwattr $C$DW$139, DW_AT_accessibility(DW_ACCESS_public)
    1847              
    1848              $C$DW$140       .dwtag  DW_TAG_member
    1849                      .dwattr $C$DW$140, DW_AT_type(*$C$DW$T$34)
    1850                      .dwattr $C$DW$140, DW_AT_name("FBANKWAIT")
    1851                      .dwattr $C$DW$140, DW_AT_TI_symbol_name("_FBANKWAIT")
    1852                      .dwattr $C$DW$140, DW_AT_data_member_location[DW_OP_plus_uconst 0x6]
    1853                      .dwattr $C$DW$140, DW_AT_accessibility(DW_ACCESS_public)
    1854              
    1855              $C$DW$141       .dwtag  DW_TAG_member
    1856                      .dwattr $C$DW$141, DW_AT_type(*$C$DW$T$39)
    1857                      .dwattr $C$DW$141, DW_AT_name("FOTPWAIT")
    1858                      .dwattr $C$DW$141, DW_AT_TI_symbol_name("_FOTPWAIT")
    1859                      .dwattr $C$DW$141, DW_AT_data_member_location[DW_OP_plus_uconst 0x7]
    1860                      .dwattr $C$DW$141, DW_AT_accessibility(DW_ACCESS_public)
    1861              
    1862                      .dwendtag $C$DW$T$35
    1863              
    1864              $C$DW$142       .dwtag  DW_TAG_TI_far_type
    1865                      .dwattr $C$DW$142, DW_AT_type(*$C$DW$T$35)
    1866              
    1867              $C$DW$T$98      .dwtag  DW_TAG_volatile_type
    1868                      .dwattr $C$DW$T$98, DW_AT_type(*$C$DW$142)
    1869              
    1870              
TMS320C2000 Assembler PC v16.9.6 Tue Mar 06 18:34:40 2018

Tools Copyright (c) 1996-2017 Texas Instruments Incorporated
C:\Users\Admin\AppData\Local\Temp\{31C1AC2A-9DF2-49FD-82E3-4EC1724EAAB9} PAGE   37

    1871              $C$DW$T$36      .dwtag  DW_TAG_structure_type
    1872                      .dwattr $C$DW$T$36, DW_AT_name("FOPT_BITS")
    1873                      .dwattr $C$DW$T$36, DW_AT_byte_size(0x01)
    1874              $C$DW$143       .dwtag  DW_TAG_member
    1875                      .dwattr $C$DW$143, DW_AT_type(*$C$DW$T$19)
    1876                      .dwattr $C$DW$143, DW_AT_name("ENPIPE")
    1877                      .dwattr $C$DW$143, DW_AT_TI_symbol_name("_ENPIPE")
    1878                      .dwattr $C$DW$143, DW_AT_bit_offset(0x0f)
    1879                      .dwattr $C$DW$143, DW_AT_bit_size(0x01)
    1880                      .dwattr $C$DW$143, DW_AT_data_member_location[DW_OP_plus_uconst 0x0]
    1881                      .dwattr $C$DW$143, DW_AT_accessibility(DW_ACCESS_public)
    1882              
    1883              $C$DW$144       .dwtag  DW_TAG_member
    1884                      .dwattr $C$DW$144, DW_AT_type(*$C$DW$T$19)
    1885                      .dwattr $C$DW$144, DW_AT_name("rsvd")
    1886                      .dwattr $C$DW$144, DW_AT_TI_symbol_name("_rsvd")
    1887                      .dwattr $C$DW$144, DW_AT_bit_offset(0x00)
    1888                      .dwattr $C$DW$144, DW_AT_bit_size(0x0f)
    1889                      .dwattr $C$DW$144, DW_AT_data_member_location[DW_OP_plus_uconst 0x0]
    1890                      .dwattr $C$DW$144, DW_AT_accessibility(DW_ACCESS_public)
    1891              
    1892                      .dwendtag $C$DW$T$36
    1893              
    1894              
    1895              $C$DW$T$37      .dwtag  DW_TAG_union_type
    1896                      .dwattr $C$DW$T$37, DW_AT_name("FOPT_REG")
    1897                      .dwattr $C$DW$T$37, DW_AT_byte_size(0x01)
    1898              $C$DW$145       .dwtag  DW_TAG_member
    1899                      .dwattr $C$DW$145, DW_AT_type(*$C$DW$T$19)
    1900                      .dwattr $C$DW$145, DW_AT_name("all")
    1901                      .dwattr $C$DW$145, DW_AT_TI_symbol_name("_all")
    1902                      .dwattr $C$DW$145, DW_AT_data_member_location[DW_OP_plus_uconst 0x0]
    1903                      .dwattr $C$DW$145, DW_AT_accessibility(DW_ACCESS_public)
    1904              
    1905              $C$DW$146       .dwtag  DW_TAG_member
    1906                      .dwattr $C$DW$146, DW_AT_type(*$C$DW$T$36)
    1907                      .dwattr $C$DW$146, DW_AT_name("bit")
    1908                      .dwattr $C$DW$146, DW_AT_TI_symbol_name("_bit")
    1909                      .dwattr $C$DW$146, DW_AT_data_member_location[DW_OP_plus_uconst 0x0]
    1910                      .dwattr $C$DW$146, DW_AT_accessibility(DW_ACCESS_public)
    1911              
    1912                      .dwendtag $C$DW$T$37
    1913              
    1914              
    1915              $C$DW$T$38      .dwtag  DW_TAG_structure_type
    1916                      .dwattr $C$DW$T$38, DW_AT_name("FOTPWAIT_BITS")
    1917                      .dwattr $C$DW$T$38, DW_AT_byte_size(0x01)
    1918              $C$DW$147       .dwtag  DW_TAG_member
    1919                      .dwattr $C$DW$147, DW_AT_type(*$C$DW$T$19)
    1920                      .dwattr $C$DW$147, DW_AT_name("OTPWAIT")
    1921                      .dwattr $C$DW$147, DW_AT_TI_symbol_name("_OTPWAIT")
    1922                      .dwattr $C$DW$147, DW_AT_bit_offset(0x0b)
    1923                      .dwattr $C$DW$147, DW_AT_bit_size(0x05)
    1924                      .dwattr $C$DW$147, DW_AT_data_member_location[DW_OP_plus_uconst 0x0]
    1925                      .dwattr $C$DW$147, DW_AT_accessibility(DW_ACCESS_public)
TMS320C2000 Assembler PC v16.9.6 Tue Mar 06 18:34:40 2018

Tools Copyright (c) 1996-2017 Texas Instruments Incorporated
C:\Users\Admin\AppData\Local\Temp\{31C1AC2A-9DF2-49FD-82E3-4EC1724EAAB9} PAGE   38

    1926              
    1927              $C$DW$148       .dwtag  DW_TAG_member
    1928                      .dwattr $C$DW$148, DW_AT_type(*$C$DW$T$19)
    1929                      .dwattr $C$DW$148, DW_AT_name("rsvd")
    1930                      .dwattr $C$DW$148, DW_AT_TI_symbol_name("_rsvd")
    1931                      .dwattr $C$DW$148, DW_AT_bit_offset(0x00)
    1932                      .dwattr $C$DW$148, DW_AT_bit_size(0x0b)
    1933                      .dwattr $C$DW$148, DW_AT_data_member_location[DW_OP_plus_uconst 0x0]
    1934                      .dwattr $C$DW$148, DW_AT_accessibility(DW_ACCESS_public)
    1935              
    1936                      .dwendtag $C$DW$T$38
    1937              
    1938              
    1939              $C$DW$T$39      .dwtag  DW_TAG_union_type
    1940                      .dwattr $C$DW$T$39, DW_AT_name("FOTPWAIT_REG")
    1941                      .dwattr $C$DW$T$39, DW_AT_byte_size(0x01)
    1942              $C$DW$149       .dwtag  DW_TAG_member
    1943                      .dwattr $C$DW$149, DW_AT_type(*$C$DW$T$19)
    1944                      .dwattr $C$DW$149, DW_AT_name("all")
    1945                      .dwattr $C$DW$149, DW_AT_TI_symbol_name("_all")
    1946                      .dwattr $C$DW$149, DW_AT_data_member_location[DW_OP_plus_uconst 0x0]
    1947                      .dwattr $C$DW$149, DW_AT_accessibility(DW_ACCESS_public)
    1948              
    1949              $C$DW$150       .dwtag  DW_TAG_member
    1950                      .dwattr $C$DW$150, DW_AT_type(*$C$DW$T$38)
    1951                      .dwattr $C$DW$150, DW_AT_name("bit")
    1952                      .dwattr $C$DW$150, DW_AT_TI_symbol_name("_bit")
    1953                      .dwattr $C$DW$150, DW_AT_data_member_location[DW_OP_plus_uconst 0x0]
    1954                      .dwattr $C$DW$150, DW_AT_accessibility(DW_ACCESS_public)
    1955              
    1956                      .dwendtag $C$DW$T$39
    1957              
    1958              
    1959              $C$DW$T$40      .dwtag  DW_TAG_structure_type
    1960                      .dwattr $C$DW$T$40, DW_AT_name("FPWR_BITS")
    1961                      .dwattr $C$DW$T$40, DW_AT_byte_size(0x01)
    1962              $C$DW$151       .dwtag  DW_TAG_member
    1963                      .dwattr $C$DW$151, DW_AT_type(*$C$DW$T$19)
    1964                      .dwattr $C$DW$151, DW_AT_name("PWR")
    1965                      .dwattr $C$DW$151, DW_AT_TI_symbol_name("_PWR")
    1966                      .dwattr $C$DW$151, DW_AT_bit_offset(0x0e)
    1967                      .dwattr $C$DW$151, DW_AT_bit_size(0x02)
    1968                      .dwattr $C$DW$151, DW_AT_data_member_location[DW_OP_plus_uconst 0x0]
    1969                      .dwattr $C$DW$151, DW_AT_accessibility(DW_ACCESS_public)
    1970              
    1971              $C$DW$152       .dwtag  DW_TAG_member
    1972                      .dwattr $C$DW$152, DW_AT_type(*$C$DW$T$19)
    1973                      .dwattr $C$DW$152, DW_AT_name("rsvd")
    1974                      .dwattr $C$DW$152, DW_AT_TI_symbol_name("_rsvd")
    1975                      .dwattr $C$DW$152, DW_AT_bit_offset(0x00)
    1976                      .dwattr $C$DW$152, DW_AT_bit_size(0x0e)
    1977                      .dwattr $C$DW$152, DW_AT_data_member_location[DW_OP_plus_uconst 0x0]
    1978                      .dwattr $C$DW$152, DW_AT_accessibility(DW_ACCESS_public)
    1979              
    1980                      .dwendtag $C$DW$T$40
TMS320C2000 Assembler PC v16.9.6 Tue Mar 06 18:34:40 2018

Tools Copyright (c) 1996-2017 Texas Instruments Incorporated
C:\Users\Admin\AppData\Local\Temp\{31C1AC2A-9DF2-49FD-82E3-4EC1724EAAB9} PAGE   39

    1981              
    1982              
    1983              $C$DW$T$41      .dwtag  DW_TAG_union_type
    1984                      .dwattr $C$DW$T$41, DW_AT_name("FPWR_REG")
    1985                      .dwattr $C$DW$T$41, DW_AT_byte_size(0x01)
    1986              $C$DW$153       .dwtag  DW_TAG_member
    1987                      .dwattr $C$DW$153, DW_AT_type(*$C$DW$T$19)
    1988                      .dwattr $C$DW$153, DW_AT_name("all")
    1989                      .dwattr $C$DW$153, DW_AT_TI_symbol_name("_all")
    1990                      .dwattr $C$DW$153, DW_AT_data_member_location[DW_OP_plus_uconst 0x0]
    1991                      .dwattr $C$DW$153, DW_AT_accessibility(DW_ACCESS_public)
    1992              
    1993              $C$DW$154       .dwtag  DW_TAG_member
    1994                      .dwattr $C$DW$154, DW_AT_type(*$C$DW$T$40)
    1995                      .dwattr $C$DW$154, DW_AT_name("bit")
    1996                      .dwattr $C$DW$154, DW_AT_TI_symbol_name("_bit")
    1997                      .dwattr $C$DW$154, DW_AT_data_member_location[DW_OP_plus_uconst 0x0]
    1998                      .dwattr $C$DW$154, DW_AT_accessibility(DW_ACCESS_public)
    1999              
    2000                      .dwendtag $C$DW$T$41
    2001              
    2002              
    2003              $C$DW$T$42      .dwtag  DW_TAG_structure_type
    2004                      .dwattr $C$DW$T$42, DW_AT_name("FSTATUS_BITS")
    2005                      .dwattr $C$DW$T$42, DW_AT_byte_size(0x01)
    2006              $C$DW$155       .dwtag  DW_TAG_member
    2007                      .dwattr $C$DW$155, DW_AT_type(*$C$DW$T$19)
    2008                      .dwattr $C$DW$155, DW_AT_name("PWRS")
    2009                      .dwattr $C$DW$155, DW_AT_TI_symbol_name("_PWRS")
    2010                      .dwattr $C$DW$155, DW_AT_bit_offset(0x0e)
    2011                      .dwattr $C$DW$155, DW_AT_bit_size(0x02)
    2012                      .dwattr $C$DW$155, DW_AT_data_member_location[DW_OP_plus_uconst 0x0]
    2013                      .dwattr $C$DW$155, DW_AT_accessibility(DW_ACCESS_public)
    2014              
    2015              $C$DW$156       .dwtag  DW_TAG_member
    2016                      .dwattr $C$DW$156, DW_AT_type(*$C$DW$T$19)
    2017                      .dwattr $C$DW$156, DW_AT_name("STDBYWAITS")
    2018                      .dwattr $C$DW$156, DW_AT_TI_symbol_name("_STDBYWAITS")
    2019                      .dwattr $C$DW$156, DW_AT_bit_offset(0x0d)
    2020                      .dwattr $C$DW$156, DW_AT_bit_size(0x01)
    2021                      .dwattr $C$DW$156, DW_AT_data_member_location[DW_OP_plus_uconst 0x0]
    2022                      .dwattr $C$DW$156, DW_AT_accessibility(DW_ACCESS_public)
    2023              
    2024              $C$DW$157       .dwtag  DW_TAG_member
    2025                      .dwattr $C$DW$157, DW_AT_type(*$C$DW$T$19)
    2026                      .dwattr $C$DW$157, DW_AT_name("ACTIVEWAITS")
    2027                      .dwattr $C$DW$157, DW_AT_TI_symbol_name("_ACTIVEWAITS")
    2028                      .dwattr $C$DW$157, DW_AT_bit_offset(0x0c)
    2029                      .dwattr $C$DW$157, DW_AT_bit_size(0x01)
    2030                      .dwattr $C$DW$157, DW_AT_data_member_location[DW_OP_plus_uconst 0x0]
    2031                      .dwattr $C$DW$157, DW_AT_accessibility(DW_ACCESS_public)
    2032              
    2033              $C$DW$158       .dwtag  DW_TAG_member
    2034                      .dwattr $C$DW$158, DW_AT_type(*$C$DW$T$19)
    2035                      .dwattr $C$DW$158, DW_AT_name("rsvd1")
TMS320C2000 Assembler PC v16.9.6 Tue Mar 06 18:34:40 2018

Tools Copyright (c) 1996-2017 Texas Instruments Incorporated
C:\Users\Admin\AppData\Local\Temp\{31C1AC2A-9DF2-49FD-82E3-4EC1724EAAB9} PAGE   40

    2036                      .dwattr $C$DW$158, DW_AT_TI_symbol_name("_rsvd1")
    2037                      .dwattr $C$DW$158, DW_AT_bit_offset(0x08)
    2038                      .dwattr $C$DW$158, DW_AT_bit_size(0x04)
    2039                      .dwattr $C$DW$158, DW_AT_data_member_location[DW_OP_plus_uconst 0x0]
    2040                      .dwattr $C$DW$158, DW_AT_accessibility(DW_ACCESS_public)
    2041              
    2042              $C$DW$159       .dwtag  DW_TAG_member
    2043                      .dwattr $C$DW$159, DW_AT_type(*$C$DW$T$19)
    2044                      .dwattr $C$DW$159, DW_AT_name("V3STAT")
    2045                      .dwattr $C$DW$159, DW_AT_TI_symbol_name("_V3STAT")
    2046                      .dwattr $C$DW$159, DW_AT_bit_offset(0x07)
    2047                      .dwattr $C$DW$159, DW_AT_bit_size(0x01)
    2048                      .dwattr $C$DW$159, DW_AT_data_member_location[DW_OP_plus_uconst 0x0]
    2049                      .dwattr $C$DW$159, DW_AT_accessibility(DW_ACCESS_public)
    2050              
    2051              $C$DW$160       .dwtag  DW_TAG_member
    2052                      .dwattr $C$DW$160, DW_AT_type(*$C$DW$T$19)
    2053                      .dwattr $C$DW$160, DW_AT_name("rsvd2")
    2054                      .dwattr $C$DW$160, DW_AT_TI_symbol_name("_rsvd2")
    2055                      .dwattr $C$DW$160, DW_AT_bit_offset(0x00)
    2056                      .dwattr $C$DW$160, DW_AT_bit_size(0x07)
    2057                      .dwattr $C$DW$160, DW_AT_data_member_location[DW_OP_plus_uconst 0x0]
    2058                      .dwattr $C$DW$160, DW_AT_accessibility(DW_ACCESS_public)
    2059              
    2060                      .dwendtag $C$DW$T$42
    2061              
    2062              
    2063              $C$DW$T$43      .dwtag  DW_TAG_union_type
    2064                      .dwattr $C$DW$T$43, DW_AT_name("FSTATUS_REG")
    2065                      .dwattr $C$DW$T$43, DW_AT_byte_size(0x01)
    2066              $C$DW$161       .dwtag  DW_TAG_member
    2067                      .dwattr $C$DW$161, DW_AT_type(*$C$DW$T$19)
    2068                      .dwattr $C$DW$161, DW_AT_name("all")
    2069                      .dwattr $C$DW$161, DW_AT_TI_symbol_name("_all")
    2070                      .dwattr $C$DW$161, DW_AT_data_member_location[DW_OP_plus_uconst 0x0]
    2071                      .dwattr $C$DW$161, DW_AT_accessibility(DW_ACCESS_public)
    2072              
    2073              $C$DW$162       .dwtag  DW_TAG_member
    2074                      .dwattr $C$DW$162, DW_AT_type(*$C$DW$T$42)
    2075                      .dwattr $C$DW$162, DW_AT_name("bit")
    2076                      .dwattr $C$DW$162, DW_AT_TI_symbol_name("_bit")
    2077                      .dwattr $C$DW$162, DW_AT_data_member_location[DW_OP_plus_uconst 0x0]
    2078                      .dwattr $C$DW$162, DW_AT_accessibility(DW_ACCESS_public)
    2079              
    2080                      .dwendtag $C$DW$T$43
    2081              
    2082              
    2083              $C$DW$T$44      .dwtag  DW_TAG_structure_type
    2084                      .dwattr $C$DW$T$44, DW_AT_name("FSTDBYWAIT_BITS")
    2085                      .dwattr $C$DW$T$44, DW_AT_byte_size(0x01)
    2086              $C$DW$163       .dwtag  DW_TAG_member
    2087                      .dwattr $C$DW$163, DW_AT_type(*$C$DW$T$19)
    2088                      .dwattr $C$DW$163, DW_AT_name("STDBYWAIT")
    2089                      .dwattr $C$DW$163, DW_AT_TI_symbol_name("_STDBYWAIT")
    2090                      .dwattr $C$DW$163, DW_AT_bit_offset(0x07)
TMS320C2000 Assembler PC v16.9.6 Tue Mar 06 18:34:40 2018

Tools Copyright (c) 1996-2017 Texas Instruments Incorporated
C:\Users\Admin\AppData\Local\Temp\{31C1AC2A-9DF2-49FD-82E3-4EC1724EAAB9} PAGE   41

    2091                      .dwattr $C$DW$163, DW_AT_bit_size(0x09)
    2092                      .dwattr $C$DW$163, DW_AT_data_member_location[DW_OP_plus_uconst 0x0]
    2093                      .dwattr $C$DW$163, DW_AT_accessibility(DW_ACCESS_public)
    2094              
    2095              $C$DW$164       .dwtag  DW_TAG_member
    2096                      .dwattr $C$DW$164, DW_AT_type(*$C$DW$T$19)
    2097                      .dwattr $C$DW$164, DW_AT_name("rsvd")
    2098                      .dwattr $C$DW$164, DW_AT_TI_symbol_name("_rsvd")
    2099                      .dwattr $C$DW$164, DW_AT_bit_offset(0x00)
    2100                      .dwattr $C$DW$164, DW_AT_bit_size(0x07)
    2101                      .dwattr $C$DW$164, DW_AT_data_member_location[DW_OP_plus_uconst 0x0]
    2102                      .dwattr $C$DW$164, DW_AT_accessibility(DW_ACCESS_public)
    2103              
    2104                      .dwendtag $C$DW$T$44
    2105              
    2106              
    2107              $C$DW$T$45      .dwtag  DW_TAG_union_type
    2108                      .dwattr $C$DW$T$45, DW_AT_name("FSTDBYWAIT_REG")
    2109                      .dwattr $C$DW$T$45, DW_AT_byte_size(0x01)
    2110              $C$DW$165       .dwtag  DW_TAG_member
    2111                      .dwattr $C$DW$165, DW_AT_type(*$C$DW$T$19)
    2112                      .dwattr $C$DW$165, DW_AT_name("all")
    2113                      .dwattr $C$DW$165, DW_AT_TI_symbol_name("_all")
    2114                      .dwattr $C$DW$165, DW_AT_data_member_location[DW_OP_plus_uconst 0x0]
    2115                      .dwattr $C$DW$165, DW_AT_accessibility(DW_ACCESS_public)
    2116              
    2117              $C$DW$166       .dwtag  DW_TAG_member
    2118                      .dwattr $C$DW$166, DW_AT_type(*$C$DW$T$44)
    2119                      .dwattr $C$DW$166, DW_AT_name("bit")
    2120                      .dwattr $C$DW$166, DW_AT_TI_symbol_name("_bit")
    2121                      .dwattr $C$DW$166, DW_AT_data_member_location[DW_OP_plus_uconst 0x0]
    2122                      .dwattr $C$DW$166, DW_AT_accessibility(DW_ACCESS_public)
    2123              
    2124                      .dwendtag $C$DW$T$45
    2125              
    2126              
    2127              $C$DW$T$46      .dwtag  DW_TAG_structure_type
    2128                      .dwattr $C$DW$T$46, DW_AT_name("GPA1_BITS")
    2129                      .dwattr $C$DW$T$46, DW_AT_byte_size(0x02)
    2130              $C$DW$167       .dwtag  DW_TAG_member
    2131                      .dwattr $C$DW$167, DW_AT_type(*$C$DW$T$19)
    2132                      .dwattr $C$DW$167, DW_AT_name("GPIO0")
    2133                      .dwattr $C$DW$167, DW_AT_TI_symbol_name("_GPIO0")
    2134                      .dwattr $C$DW$167, DW_AT_bit_offset(0x0e)
    2135                      .dwattr $C$DW$167, DW_AT_bit_size(0x02)
    2136                      .dwattr $C$DW$167, DW_AT_data_member_location[DW_OP_plus_uconst 0x0]
    2137                      .dwattr $C$DW$167, DW_AT_accessibility(DW_ACCESS_public)
    2138              
    2139              $C$DW$168       .dwtag  DW_TAG_member
    2140                      .dwattr $C$DW$168, DW_AT_type(*$C$DW$T$19)
    2141                      .dwattr $C$DW$168, DW_AT_name("GPIO1")
    2142                      .dwattr $C$DW$168, DW_AT_TI_symbol_name("_GPIO1")
    2143                      .dwattr $C$DW$168, DW_AT_bit_offset(0x0c)
    2144                      .dwattr $C$DW$168, DW_AT_bit_size(0x02)
    2145                      .dwattr $C$DW$168, DW_AT_data_member_location[DW_OP_plus_uconst 0x0]
TMS320C2000 Assembler PC v16.9.6 Tue Mar 06 18:34:40 2018

Tools Copyright (c) 1996-2017 Texas Instruments Incorporated
C:\Users\Admin\AppData\Local\Temp\{31C1AC2A-9DF2-49FD-82E3-4EC1724EAAB9} PAGE   42

    2146                      .dwattr $C$DW$168, DW_AT_accessibility(DW_ACCESS_public)
    2147              
    2148              $C$DW$169       .dwtag  DW_TAG_member
    2149                      .dwattr $C$DW$169, DW_AT_type(*$C$DW$T$19)
    2150                      .dwattr $C$DW$169, DW_AT_name("GPIO2")
    2151                      .dwattr $C$DW$169, DW_AT_TI_symbol_name("_GPIO2")
    2152                      .dwattr $C$DW$169, DW_AT_bit_offset(0x0a)
    2153                      .dwattr $C$DW$169, DW_AT_bit_size(0x02)
    2154                      .dwattr $C$DW$169, DW_AT_data_member_location[DW_OP_plus_uconst 0x0]
    2155                      .dwattr $C$DW$169, DW_AT_accessibility(DW_ACCESS_public)
    2156              
    2157              $C$DW$170       .dwtag  DW_TAG_member
    2158                      .dwattr $C$DW$170, DW_AT_type(*$C$DW$T$19)
    2159                      .dwattr $C$DW$170, DW_AT_name("GPIO3")
    2160                      .dwattr $C$DW$170, DW_AT_TI_symbol_name("_GPIO3")
    2161                      .dwattr $C$DW$170, DW_AT_bit_offset(0x08)
    2162                      .dwattr $C$DW$170, DW_AT_bit_size(0x02)
    2163                      .dwattr $C$DW$170, DW_AT_data_member_location[DW_OP_plus_uconst 0x0]
    2164                      .dwattr $C$DW$170, DW_AT_accessibility(DW_ACCESS_public)
    2165              
    2166              $C$DW$171       .dwtag  DW_TAG_member
    2167                      .dwattr $C$DW$171, DW_AT_type(*$C$DW$T$19)
    2168                      .dwattr $C$DW$171, DW_AT_name("GPIO4")
    2169                      .dwattr $C$DW$171, DW_AT_TI_symbol_name("_GPIO4")
    2170                      .dwattr $C$DW$171, DW_AT_bit_offset(0x06)
    2171                      .dwattr $C$DW$171, DW_AT_bit_size(0x02)
    2172                      .dwattr $C$DW$171, DW_AT_data_member_location[DW_OP_plus_uconst 0x0]
    2173                      .dwattr $C$DW$171, DW_AT_accessibility(DW_ACCESS_public)
    2174              
    2175              $C$DW$172       .dwtag  DW_TAG_member
    2176                      .dwattr $C$DW$172, DW_AT_type(*$C$DW$T$19)
    2177                      .dwattr $C$DW$172, DW_AT_name("GPIO5")
    2178                      .dwattr $C$DW$172, DW_AT_TI_symbol_name("_GPIO5")
    2179                      .dwattr $C$DW$172, DW_AT_bit_offset(0x04)
    2180                      .dwattr $C$DW$172, DW_AT_bit_size(0x02)
    2181                      .dwattr $C$DW$172, DW_AT_data_member_location[DW_OP_plus_uconst 0x0]
    2182                      .dwattr $C$DW$172, DW_AT_accessibility(DW_ACCESS_public)
    2183              
    2184              $C$DW$173       .dwtag  DW_TAG_member
    2185                      .dwattr $C$DW$173, DW_AT_type(*$C$DW$T$19)
    2186                      .dwattr $C$DW$173, DW_AT_name("GPIO6")
    2187                      .dwattr $C$DW$173, DW_AT_TI_symbol_name("_GPIO6")
    2188                      .dwattr $C$DW$173, DW_AT_bit_offset(0x02)
    2189                      .dwattr $C$DW$173, DW_AT_bit_size(0x02)
    2190                      .dwattr $C$DW$173, DW_AT_data_member_location[DW_OP_plus_uconst 0x0]
    2191                      .dwattr $C$DW$173, DW_AT_accessibility(DW_ACCESS_public)
    2192              
    2193              $C$DW$174       .dwtag  DW_TAG_member
    2194                      .dwattr $C$DW$174, DW_AT_type(*$C$DW$T$19)
    2195                      .dwattr $C$DW$174, DW_AT_name("GPIO7")
    2196                      .dwattr $C$DW$174, DW_AT_TI_symbol_name("_GPIO7")
    2197                      .dwattr $C$DW$174, DW_AT_bit_offset(0x00)
    2198                      .dwattr $C$DW$174, DW_AT_bit_size(0x02)
    2199                      .dwattr $C$DW$174, DW_AT_data_member_location[DW_OP_plus_uconst 0x0]
    2200                      .dwattr $C$DW$174, DW_AT_accessibility(DW_ACCESS_public)
TMS320C2000 Assembler PC v16.9.6 Tue Mar 06 18:34:40 2018

Tools Copyright (c) 1996-2017 Texas Instruments Incorporated
C:\Users\Admin\AppData\Local\Temp\{31C1AC2A-9DF2-49FD-82E3-4EC1724EAAB9} PAGE   43

    2201              
    2202              $C$DW$175       .dwtag  DW_TAG_member
    2203                      .dwattr $C$DW$175, DW_AT_type(*$C$DW$T$19)
    2204                      .dwattr $C$DW$175, DW_AT_name("GPIO8")
    2205                      .dwattr $C$DW$175, DW_AT_TI_symbol_name("_GPIO8")
    2206                      .dwattr $C$DW$175, DW_AT_bit_offset(0x0e)
    2207                      .dwattr $C$DW$175, DW_AT_bit_size(0x02)
    2208                      .dwattr $C$DW$175, DW_AT_data_member_location[DW_OP_plus_uconst 0x1]
    2209                      .dwattr $C$DW$175, DW_AT_accessibility(DW_ACCESS_public)
    2210              
    2211              $C$DW$176       .dwtag  DW_TAG_member
    2212                      .dwattr $C$DW$176, DW_AT_type(*$C$DW$T$19)
    2213                      .dwattr $C$DW$176, DW_AT_name("GPIO9")
    2214                      .dwattr $C$DW$176, DW_AT_TI_symbol_name("_GPIO9")
    2215                      .dwattr $C$DW$176, DW_AT_bit_offset(0x0c)
    2216                      .dwattr $C$DW$176, DW_AT_bit_size(0x02)
    2217                      .dwattr $C$DW$176, DW_AT_data_member_location[DW_OP_plus_uconst 0x1]
    2218                      .dwattr $C$DW$176, DW_AT_accessibility(DW_ACCESS_public)
    2219              
    2220              $C$DW$177       .dwtag  DW_TAG_member
    2221                      .dwattr $C$DW$177, DW_AT_type(*$C$DW$T$19)
    2222                      .dwattr $C$DW$177, DW_AT_name("GPIO10")
    2223                      .dwattr $C$DW$177, DW_AT_TI_symbol_name("_GPIO10")
    2224                      .dwattr $C$DW$177, DW_AT_bit_offset(0x0a)
    2225                      .dwattr $C$DW$177, DW_AT_bit_size(0x02)
    2226                      .dwattr $C$DW$177, DW_AT_data_member_location[DW_OP_plus_uconst 0x1]
    2227                      .dwattr $C$DW$177, DW_AT_accessibility(DW_ACCESS_public)
    2228              
    2229              $C$DW$178       .dwtag  DW_TAG_member
    2230                      .dwattr $C$DW$178, DW_AT_type(*$C$DW$T$19)
    2231                      .dwattr $C$DW$178, DW_AT_name("GPIO11")
    2232                      .dwattr $C$DW$178, DW_AT_TI_symbol_name("_GPIO11")
    2233                      .dwattr $C$DW$178, DW_AT_bit_offset(0x08)
    2234                      .dwattr $C$DW$178, DW_AT_bit_size(0x02)
    2235                      .dwattr $C$DW$178, DW_AT_data_member_location[DW_OP_plus_uconst 0x1]
    2236                      .dwattr $C$DW$178, DW_AT_accessibility(DW_ACCESS_public)
    2237              
    2238              $C$DW$179       .dwtag  DW_TAG_member
    2239                      .dwattr $C$DW$179, DW_AT_type(*$C$DW$T$19)
    2240                      .dwattr $C$DW$179, DW_AT_name("GPIO12")
    2241                      .dwattr $C$DW$179, DW_AT_TI_symbol_name("_GPIO12")
    2242                      .dwattr $C$DW$179, DW_AT_bit_offset(0x06)
    2243                      .dwattr $C$DW$179, DW_AT_bit_size(0x02)
    2244                      .dwattr $C$DW$179, DW_AT_data_member_location[DW_OP_plus_uconst 0x1]
    2245                      .dwattr $C$DW$179, DW_AT_accessibility(DW_ACCESS_public)
    2246              
    2247              $C$DW$180       .dwtag  DW_TAG_member
    2248                      .dwattr $C$DW$180, DW_AT_type(*$C$DW$T$19)
    2249                      .dwattr $C$DW$180, DW_AT_name("GPIO13")
    2250                      .dwattr $C$DW$180, DW_AT_TI_symbol_name("_GPIO13")
    2251                      .dwattr $C$DW$180, DW_AT_bit_offset(0x04)
    2252                      .dwattr $C$DW$180, DW_AT_bit_size(0x02)
    2253                      .dwattr $C$DW$180, DW_AT_data_member_location[DW_OP_plus_uconst 0x1]
    2254                      .dwattr $C$DW$180, DW_AT_accessibility(DW_ACCESS_public)
    2255              
TMS320C2000 Assembler PC v16.9.6 Tue Mar 06 18:34:40 2018

Tools Copyright (c) 1996-2017 Texas Instruments Incorporated
C:\Users\Admin\AppData\Local\Temp\{31C1AC2A-9DF2-49FD-82E3-4EC1724EAAB9} PAGE   44

    2256              $C$DW$181       .dwtag  DW_TAG_member
    2257                      .dwattr $C$DW$181, DW_AT_type(*$C$DW$T$19)
    2258                      .dwattr $C$DW$181, DW_AT_name("GPIO14")
    2259                      .dwattr $C$DW$181, DW_AT_TI_symbol_name("_GPIO14")
    2260                      .dwattr $C$DW$181, DW_AT_bit_offset(0x02)
    2261                      .dwattr $C$DW$181, DW_AT_bit_size(0x02)
    2262                      .dwattr $C$DW$181, DW_AT_data_member_location[DW_OP_plus_uconst 0x1]
    2263                      .dwattr $C$DW$181, DW_AT_accessibility(DW_ACCESS_public)
    2264              
    2265              $C$DW$182       .dwtag  DW_TAG_member
    2266                      .dwattr $C$DW$182, DW_AT_type(*$C$DW$T$19)
    2267                      .dwattr $C$DW$182, DW_AT_name("GPIO15")
    2268                      .dwattr $C$DW$182, DW_AT_TI_symbol_name("_GPIO15")
    2269                      .dwattr $C$DW$182, DW_AT_bit_offset(0x00)
    2270                      .dwattr $C$DW$182, DW_AT_bit_size(0x02)
    2271                      .dwattr $C$DW$182, DW_AT_data_member_location[DW_OP_plus_uconst 0x1]
    2272                      .dwattr $C$DW$182, DW_AT_accessibility(DW_ACCESS_public)
    2273              
    2274                      .dwendtag $C$DW$T$46
    2275              
    2276              
    2277              $C$DW$T$47      .dwtag  DW_TAG_union_type
    2278                      .dwattr $C$DW$T$47, DW_AT_name("GPA1_REG")
    2279                      .dwattr $C$DW$T$47, DW_AT_byte_size(0x02)
    2280              $C$DW$183       .dwtag  DW_TAG_member
    2281                      .dwattr $C$DW$183, DW_AT_type(*$C$DW$T$23)
    2282                      .dwattr $C$DW$183, DW_AT_name("all")
    2283                      .dwattr $C$DW$183, DW_AT_TI_symbol_name("_all")
    2284                      .dwattr $C$DW$183, DW_AT_data_member_location[DW_OP_plus_uconst 0x0]
    2285                      .dwattr $C$DW$183, DW_AT_accessibility(DW_ACCESS_public)
    2286              
    2287              $C$DW$184       .dwtag  DW_TAG_member
    2288                      .dwattr $C$DW$184, DW_AT_type(*$C$DW$T$46)
    2289                      .dwattr $C$DW$184, DW_AT_name("bit")
    2290                      .dwattr $C$DW$184, DW_AT_TI_symbol_name("_bit")
    2291                      .dwattr $C$DW$184, DW_AT_data_member_location[DW_OP_plus_uconst 0x0]
    2292                      .dwattr $C$DW$184, DW_AT_accessibility(DW_ACCESS_public)
    2293              
    2294                      .dwendtag $C$DW$T$47
    2295              
    2296              
    2297              $C$DW$T$48      .dwtag  DW_TAG_structure_type
    2298                      .dwattr $C$DW$T$48, DW_AT_name("GPA2_BITS")
    2299                      .dwattr $C$DW$T$48, DW_AT_byte_size(0x02)
    2300              $C$DW$185       .dwtag  DW_TAG_member
    2301                      .dwattr $C$DW$185, DW_AT_type(*$C$DW$T$19)
    2302                      .dwattr $C$DW$185, DW_AT_name("GPIO16")
    2303                      .dwattr $C$DW$185, DW_AT_TI_symbol_name("_GPIO16")
    2304                      .dwattr $C$DW$185, DW_AT_bit_offset(0x0e)
    2305                      .dwattr $C$DW$185, DW_AT_bit_size(0x02)
    2306                      .dwattr $C$DW$185, DW_AT_data_member_location[DW_OP_plus_uconst 0x0]
    2307                      .dwattr $C$DW$185, DW_AT_accessibility(DW_ACCESS_public)
    2308              
    2309              $C$DW$186       .dwtag  DW_TAG_member
    2310                      .dwattr $C$DW$186, DW_AT_type(*$C$DW$T$19)
TMS320C2000 Assembler PC v16.9.6 Tue Mar 06 18:34:40 2018

Tools Copyright (c) 1996-2017 Texas Instruments Incorporated
C:\Users\Admin\AppData\Local\Temp\{31C1AC2A-9DF2-49FD-82E3-4EC1724EAAB9} PAGE   45

    2311                      .dwattr $C$DW$186, DW_AT_name("GPIO17")
    2312                      .dwattr $C$DW$186, DW_AT_TI_symbol_name("_GPIO17")
    2313                      .dwattr $C$DW$186, DW_AT_bit_offset(0x0c)
    2314                      .dwattr $C$DW$186, DW_AT_bit_size(0x02)
    2315                      .dwattr $C$DW$186, DW_AT_data_member_location[DW_OP_plus_uconst 0x0]
    2316                      .dwattr $C$DW$186, DW_AT_accessibility(DW_ACCESS_public)
    2317              
    2318              $C$DW$187       .dwtag  DW_TAG_member
    2319                      .dwattr $C$DW$187, DW_AT_type(*$C$DW$T$19)
    2320                      .dwattr $C$DW$187, DW_AT_name("GPIO18")
    2321                      .dwattr $C$DW$187, DW_AT_TI_symbol_name("_GPIO18")
    2322                      .dwattr $C$DW$187, DW_AT_bit_offset(0x0a)
    2323                      .dwattr $C$DW$187, DW_AT_bit_size(0x02)
    2324                      .dwattr $C$DW$187, DW_AT_data_member_location[DW_OP_plus_uconst 0x0]
    2325                      .dwattr $C$DW$187, DW_AT_accessibility(DW_ACCESS_public)
    2326              
    2327              $C$DW$188       .dwtag  DW_TAG_member
    2328                      .dwattr $C$DW$188, DW_AT_type(*$C$DW$T$19)
    2329                      .dwattr $C$DW$188, DW_AT_name("GPIO19")
    2330                      .dwattr $C$DW$188, DW_AT_TI_symbol_name("_GPIO19")
    2331                      .dwattr $C$DW$188, DW_AT_bit_offset(0x08)
    2332                      .dwattr $C$DW$188, DW_AT_bit_size(0x02)
    2333                      .dwattr $C$DW$188, DW_AT_data_member_location[DW_OP_plus_uconst 0x0]
    2334                      .dwattr $C$DW$188, DW_AT_accessibility(DW_ACCESS_public)
    2335              
    2336              $C$DW$189       .dwtag  DW_TAG_member
    2337                      .dwattr $C$DW$189, DW_AT_type(*$C$DW$T$19)
    2338                      .dwattr $C$DW$189, DW_AT_name("GPIO20")
    2339                      .dwattr $C$DW$189, DW_AT_TI_symbol_name("_GPIO20")
    2340                      .dwattr $C$DW$189, DW_AT_bit_offset(0x06)
    2341                      .dwattr $C$DW$189, DW_AT_bit_size(0x02)
    2342                      .dwattr $C$DW$189, DW_AT_data_member_location[DW_OP_plus_uconst 0x0]
    2343                      .dwattr $C$DW$189, DW_AT_accessibility(DW_ACCESS_public)
    2344              
    2345              $C$DW$190       .dwtag  DW_TAG_member
    2346                      .dwattr $C$DW$190, DW_AT_type(*$C$DW$T$19)
    2347                      .dwattr $C$DW$190, DW_AT_name("GPIO21")
    2348                      .dwattr $C$DW$190, DW_AT_TI_symbol_name("_GPIO21")
    2349                      .dwattr $C$DW$190, DW_AT_bit_offset(0x04)
    2350                      .dwattr $C$DW$190, DW_AT_bit_size(0x02)
    2351                      .dwattr $C$DW$190, DW_AT_data_member_location[DW_OP_plus_uconst 0x0]
    2352                      .dwattr $C$DW$190, DW_AT_accessibility(DW_ACCESS_public)
    2353              
    2354              $C$DW$191       .dwtag  DW_TAG_member
    2355                      .dwattr $C$DW$191, DW_AT_type(*$C$DW$T$19)
    2356                      .dwattr $C$DW$191, DW_AT_name("GPIO22")
    2357                      .dwattr $C$DW$191, DW_AT_TI_symbol_name("_GPIO22")
    2358                      .dwattr $C$DW$191, DW_AT_bit_offset(0x02)
    2359                      .dwattr $C$DW$191, DW_AT_bit_size(0x02)
    2360                      .dwattr $C$DW$191, DW_AT_data_member_location[DW_OP_plus_uconst 0x0]
    2361                      .dwattr $C$DW$191, DW_AT_accessibility(DW_ACCESS_public)
    2362              
    2363              $C$DW$192       .dwtag  DW_TAG_member
    2364                      .dwattr $C$DW$192, DW_AT_type(*$C$DW$T$19)
    2365                      .dwattr $C$DW$192, DW_AT_name("GPIO23")
TMS320C2000 Assembler PC v16.9.6 Tue Mar 06 18:34:40 2018

Tools Copyright (c) 1996-2017 Texas Instruments Incorporated
C:\Users\Admin\AppData\Local\Temp\{31C1AC2A-9DF2-49FD-82E3-4EC1724EAAB9} PAGE   46

    2366                      .dwattr $C$DW$192, DW_AT_TI_symbol_name("_GPIO23")
    2367                      .dwattr $C$DW$192, DW_AT_bit_offset(0x00)
    2368                      .dwattr $C$DW$192, DW_AT_bit_size(0x02)
    2369                      .dwattr $C$DW$192, DW_AT_data_member_location[DW_OP_plus_uconst 0x0]
    2370                      .dwattr $C$DW$192, DW_AT_accessibility(DW_ACCESS_public)
    2371              
    2372              $C$DW$193       .dwtag  DW_TAG_member
    2373                      .dwattr $C$DW$193, DW_AT_type(*$C$DW$T$19)
    2374                      .dwattr $C$DW$193, DW_AT_name("GPIO24")
    2375                      .dwattr $C$DW$193, DW_AT_TI_symbol_name("_GPIO24")
    2376                      .dwattr $C$DW$193, DW_AT_bit_offset(0x0e)
    2377                      .dwattr $C$DW$193, DW_AT_bit_size(0x02)
    2378                      .dwattr $C$DW$193, DW_AT_data_member_location[DW_OP_plus_uconst 0x1]
    2379                      .dwattr $C$DW$193, DW_AT_accessibility(DW_ACCESS_public)
    2380              
    2381              $C$DW$194       .dwtag  DW_TAG_member
    2382                      .dwattr $C$DW$194, DW_AT_type(*$C$DW$T$19)
    2383                      .dwattr $C$DW$194, DW_AT_name("GPIO25")
    2384                      .dwattr $C$DW$194, DW_AT_TI_symbol_name("_GPIO25")
    2385                      .dwattr $C$DW$194, DW_AT_bit_offset(0x0c)
    2386                      .dwattr $C$DW$194, DW_AT_bit_size(0x02)
    2387                      .dwattr $C$DW$194, DW_AT_data_member_location[DW_OP_plus_uconst 0x1]
    2388                      .dwattr $C$DW$194, DW_AT_accessibility(DW_ACCESS_public)
    2389              
    2390              $C$DW$195       .dwtag  DW_TAG_member
    2391                      .dwattr $C$DW$195, DW_AT_type(*$C$DW$T$19)
    2392                      .dwattr $C$DW$195, DW_AT_name("GPIO26")
    2393                      .dwattr $C$DW$195, DW_AT_TI_symbol_name("_GPIO26")
    2394                      .dwattr $C$DW$195, DW_AT_bit_offset(0x0a)
    2395                      .dwattr $C$DW$195, DW_AT_bit_size(0x02)
    2396                      .dwattr $C$DW$195, DW_AT_data_member_location[DW_OP_plus_uconst 0x1]
    2397                      .dwattr $C$DW$195, DW_AT_accessibility(DW_ACCESS_public)
    2398              
    2399              $C$DW$196       .dwtag  DW_TAG_member
    2400                      .dwattr $C$DW$196, DW_AT_type(*$C$DW$T$19)
    2401                      .dwattr $C$DW$196, DW_AT_name("GPIO27")
    2402                      .dwattr $C$DW$196, DW_AT_TI_symbol_name("_GPIO27")
    2403                      .dwattr $C$DW$196, DW_AT_bit_offset(0x08)
    2404                      .dwattr $C$DW$196, DW_AT_bit_size(0x02)
    2405                      .dwattr $C$DW$196, DW_AT_data_member_location[DW_OP_plus_uconst 0x1]
    2406                      .dwattr $C$DW$196, DW_AT_accessibility(DW_ACCESS_public)
    2407              
    2408              $C$DW$197       .dwtag  DW_TAG_member
    2409                      .dwattr $C$DW$197, DW_AT_type(*$C$DW$T$19)
    2410                      .dwattr $C$DW$197, DW_AT_name("GPIO28")
    2411                      .dwattr $C$DW$197, DW_AT_TI_symbol_name("_GPIO28")
    2412                      .dwattr $C$DW$197, DW_AT_bit_offset(0x06)
    2413                      .dwattr $C$DW$197, DW_AT_bit_size(0x02)
    2414                      .dwattr $C$DW$197, DW_AT_data_member_location[DW_OP_plus_uconst 0x1]
    2415                      .dwattr $C$DW$197, DW_AT_accessibility(DW_ACCESS_public)
    2416              
    2417              $C$DW$198       .dwtag  DW_TAG_member
    2418                      .dwattr $C$DW$198, DW_AT_type(*$C$DW$T$19)
    2419                      .dwattr $C$DW$198, DW_AT_name("GPIO29")
    2420                      .dwattr $C$DW$198, DW_AT_TI_symbol_name("_GPIO29")
TMS320C2000 Assembler PC v16.9.6 Tue Mar 06 18:34:40 2018

Tools Copyright (c) 1996-2017 Texas Instruments Incorporated
C:\Users\Admin\AppData\Local\Temp\{31C1AC2A-9DF2-49FD-82E3-4EC1724EAAB9} PAGE   47

    2421                      .dwattr $C$DW$198, DW_AT_bit_offset(0x04)
    2422                      .dwattr $C$DW$198, DW_AT_bit_size(0x02)
    2423                      .dwattr $C$DW$198, DW_AT_data_member_location[DW_OP_plus_uconst 0x1]
    2424                      .dwattr $C$DW$198, DW_AT_accessibility(DW_ACCESS_public)
    2425              
    2426              $C$DW$199       .dwtag  DW_TAG_member
    2427                      .dwattr $C$DW$199, DW_AT_type(*$C$DW$T$19)
    2428                      .dwattr $C$DW$199, DW_AT_name("GPIO30")
    2429                      .dwattr $C$DW$199, DW_AT_TI_symbol_name("_GPIO30")
    2430                      .dwattr $C$DW$199, DW_AT_bit_offset(0x02)
    2431                      .dwattr $C$DW$199, DW_AT_bit_size(0x02)
    2432                      .dwattr $C$DW$199, DW_AT_data_member_location[DW_OP_plus_uconst 0x1]
    2433                      .dwattr $C$DW$199, DW_AT_accessibility(DW_ACCESS_public)
    2434              
    2435              $C$DW$200       .dwtag  DW_TAG_member
    2436                      .dwattr $C$DW$200, DW_AT_type(*$C$DW$T$19)
    2437                      .dwattr $C$DW$200, DW_AT_name("GPIO31")
    2438                      .dwattr $C$DW$200, DW_AT_TI_symbol_name("_GPIO31")
    2439                      .dwattr $C$DW$200, DW_AT_bit_offset(0x00)
    2440                      .dwattr $C$DW$200, DW_AT_bit_size(0x02)
    2441                      .dwattr $C$DW$200, DW_AT_data_member_location[DW_OP_plus_uconst 0x1]
    2442                      .dwattr $C$DW$200, DW_AT_accessibility(DW_ACCESS_public)
    2443              
    2444                      .dwendtag $C$DW$T$48
    2445              
    2446              
    2447              $C$DW$T$49      .dwtag  DW_TAG_union_type
    2448                      .dwattr $C$DW$T$49, DW_AT_name("GPA2_REG")
    2449                      .dwattr $C$DW$T$49, DW_AT_byte_size(0x02)
    2450              $C$DW$201       .dwtag  DW_TAG_member
    2451                      .dwattr $C$DW$201, DW_AT_type(*$C$DW$T$23)
    2452                      .dwattr $C$DW$201, DW_AT_name("all")
    2453                      .dwattr $C$DW$201, DW_AT_TI_symbol_name("_all")
    2454                      .dwattr $C$DW$201, DW_AT_data_member_location[DW_OP_plus_uconst 0x0]
    2455                      .dwattr $C$DW$201, DW_AT_accessibility(DW_ACCESS_public)
    2456              
    2457              $C$DW$202       .dwtag  DW_TAG_member
    2458                      .dwattr $C$DW$202, DW_AT_type(*$C$DW$T$48)
    2459                      .dwattr $C$DW$202, DW_AT_name("bit")
    2460                      .dwattr $C$DW$202, DW_AT_TI_symbol_name("_bit")
    2461                      .dwattr $C$DW$202, DW_AT_data_member_location[DW_OP_plus_uconst 0x0]
    2462                      .dwattr $C$DW$202, DW_AT_accessibility(DW_ACCESS_public)
    2463              
    2464                      .dwendtag $C$DW$T$49
    2465              
    2466              
    2467              $C$DW$T$50      .dwtag  DW_TAG_structure_type
    2468                      .dwattr $C$DW$T$50, DW_AT_name("GPACTRL_BITS")
    2469                      .dwattr $C$DW$T$50, DW_AT_byte_size(0x02)
    2470              $C$DW$203       .dwtag  DW_TAG_member
    2471                      .dwattr $C$DW$203, DW_AT_type(*$C$DW$T$19)
    2472                      .dwattr $C$DW$203, DW_AT_name("QUALPRD0")
    2473                      .dwattr $C$DW$203, DW_AT_TI_symbol_name("_QUALPRD0")
    2474                      .dwattr $C$DW$203, DW_AT_bit_offset(0x08)
    2475                      .dwattr $C$DW$203, DW_AT_bit_size(0x08)
TMS320C2000 Assembler PC v16.9.6 Tue Mar 06 18:34:40 2018

Tools Copyright (c) 1996-2017 Texas Instruments Incorporated
C:\Users\Admin\AppData\Local\Temp\{31C1AC2A-9DF2-49FD-82E3-4EC1724EAAB9} PAGE   48

    2476                      .dwattr $C$DW$203, DW_AT_data_member_location[DW_OP_plus_uconst 0x0]
    2477                      .dwattr $C$DW$203, DW_AT_accessibility(DW_ACCESS_public)
    2478              
    2479              $C$DW$204       .dwtag  DW_TAG_member
    2480                      .dwattr $C$DW$204, DW_AT_type(*$C$DW$T$19)
    2481                      .dwattr $C$DW$204, DW_AT_name("QUALPRD1")
    2482                      .dwattr $C$DW$204, DW_AT_TI_symbol_name("_QUALPRD1")
    2483                      .dwattr $C$DW$204, DW_AT_bit_offset(0x00)
    2484                      .dwattr $C$DW$204, DW_AT_bit_size(0x08)
    2485                      .dwattr $C$DW$204, DW_AT_data_member_location[DW_OP_plus_uconst 0x0]
    2486                      .dwattr $C$DW$204, DW_AT_accessibility(DW_ACCESS_public)
    2487              
    2488              $C$DW$205       .dwtag  DW_TAG_member
    2489                      .dwattr $C$DW$205, DW_AT_type(*$C$DW$T$19)
    2490                      .dwattr $C$DW$205, DW_AT_name("QUALPRD2")
    2491                      .dwattr $C$DW$205, DW_AT_TI_symbol_name("_QUALPRD2")
    2492                      .dwattr $C$DW$205, DW_AT_bit_offset(0x08)
    2493                      .dwattr $C$DW$205, DW_AT_bit_size(0x08)
    2494                      .dwattr $C$DW$205, DW_AT_data_member_location[DW_OP_plus_uconst 0x1]
    2495                      .dwattr $C$DW$205, DW_AT_accessibility(DW_ACCESS_public)
    2496              
    2497              $C$DW$206       .dwtag  DW_TAG_member
    2498                      .dwattr $C$DW$206, DW_AT_type(*$C$DW$T$19)
    2499                      .dwattr $C$DW$206, DW_AT_name("QUALPRD3")
    2500                      .dwattr $C$DW$206, DW_AT_TI_symbol_name("_QUALPRD3")
    2501                      .dwattr $C$DW$206, DW_AT_bit_offset(0x00)
    2502                      .dwattr $C$DW$206, DW_AT_bit_size(0x08)
    2503                      .dwattr $C$DW$206, DW_AT_data_member_location[DW_OP_plus_uconst 0x1]
    2504                      .dwattr $C$DW$206, DW_AT_accessibility(DW_ACCESS_public)
    2505              
    2506                      .dwendtag $C$DW$T$50
    2507              
    2508              
    2509              $C$DW$T$51      .dwtag  DW_TAG_union_type
    2510                      .dwattr $C$DW$T$51, DW_AT_name("GPACTRL_REG")
    2511                      .dwattr $C$DW$T$51, DW_AT_byte_size(0x02)
    2512              $C$DW$207       .dwtag  DW_TAG_member
    2513                      .dwattr $C$DW$207, DW_AT_type(*$C$DW$T$23)
    2514                      .dwattr $C$DW$207, DW_AT_name("all")
    2515                      .dwattr $C$DW$207, DW_AT_TI_symbol_name("_all")
    2516                      .dwattr $C$DW$207, DW_AT_data_member_location[DW_OP_plus_uconst 0x0]
    2517                      .dwattr $C$DW$207, DW_AT_accessibility(DW_ACCESS_public)
    2518              
    2519              $C$DW$208       .dwtag  DW_TAG_member
    2520                      .dwattr $C$DW$208, DW_AT_type(*$C$DW$T$50)
    2521                      .dwattr $C$DW$208, DW_AT_name("bit")
    2522                      .dwattr $C$DW$208, DW_AT_TI_symbol_name("_bit")
    2523                      .dwattr $C$DW$208, DW_AT_data_member_location[DW_OP_plus_uconst 0x0]
    2524                      .dwattr $C$DW$208, DW_AT_accessibility(DW_ACCESS_public)
    2525              
    2526                      .dwendtag $C$DW$T$51
    2527              
    2528              
    2529              $C$DW$T$52      .dwtag  DW_TAG_structure_type
    2530                      .dwattr $C$DW$T$52, DW_AT_name("GPADAT_BITS")
TMS320C2000 Assembler PC v16.9.6 Tue Mar 06 18:34:40 2018

Tools Copyright (c) 1996-2017 Texas Instruments Incorporated
C:\Users\Admin\AppData\Local\Temp\{31C1AC2A-9DF2-49FD-82E3-4EC1724EAAB9} PAGE   49

    2531                      .dwattr $C$DW$T$52, DW_AT_byte_size(0x02)
    2532              $C$DW$209       .dwtag  DW_TAG_member
    2533                      .dwattr $C$DW$209, DW_AT_type(*$C$DW$T$19)
    2534                      .dwattr $C$DW$209, DW_AT_name("GPIO0")
    2535                      .dwattr $C$DW$209, DW_AT_TI_symbol_name("_GPIO0")
    2536                      .dwattr $C$DW$209, DW_AT_bit_offset(0x0f)
    2537                      .dwattr $C$DW$209, DW_AT_bit_size(0x01)
    2538                      .dwattr $C$DW$209, DW_AT_data_member_location[DW_OP_plus_uconst 0x0]
    2539                      .dwattr $C$DW$209, DW_AT_accessibility(DW_ACCESS_public)
    2540              
    2541              $C$DW$210       .dwtag  DW_TAG_member
    2542                      .dwattr $C$DW$210, DW_AT_type(*$C$DW$T$19)
    2543                      .dwattr $C$DW$210, DW_AT_name("GPIO1")
    2544                      .dwattr $C$DW$210, DW_AT_TI_symbol_name("_GPIO1")
    2545                      .dwattr $C$DW$210, DW_AT_bit_offset(0x0e)
    2546                      .dwattr $C$DW$210, DW_AT_bit_size(0x01)
    2547                      .dwattr $C$DW$210, DW_AT_data_member_location[DW_OP_plus_uconst 0x0]
    2548                      .dwattr $C$DW$210, DW_AT_accessibility(DW_ACCESS_public)
    2549              
    2550              $C$DW$211       .dwtag  DW_TAG_member
    2551                      .dwattr $C$DW$211, DW_AT_type(*$C$DW$T$19)
    2552                      .dwattr $C$DW$211, DW_AT_name("GPIO2")
    2553                      .dwattr $C$DW$211, DW_AT_TI_symbol_name("_GPIO2")
    2554                      .dwattr $C$DW$211, DW_AT_bit_offset(0x0d)
    2555                      .dwattr $C$DW$211, DW_AT_bit_size(0x01)
    2556                      .dwattr $C$DW$211, DW_AT_data_member_location[DW_OP_plus_uconst 0x0]
    2557                      .dwattr $C$DW$211, DW_AT_accessibility(DW_ACCESS_public)
    2558              
    2559              $C$DW$212       .dwtag  DW_TAG_member
    2560                      .dwattr $C$DW$212, DW_AT_type(*$C$DW$T$19)
    2561                      .dwattr $C$DW$212, DW_AT_name("GPIO3")
    2562                      .dwattr $C$DW$212, DW_AT_TI_symbol_name("_GPIO3")
    2563                      .dwattr $C$DW$212, DW_AT_bit_offset(0x0c)
    2564                      .dwattr $C$DW$212, DW_AT_bit_size(0x01)
    2565                      .dwattr $C$DW$212, DW_AT_data_member_location[DW_OP_plus_uconst 0x0]
    2566                      .dwattr $C$DW$212, DW_AT_accessibility(DW_ACCESS_public)
    2567              
    2568              $C$DW$213       .dwtag  DW_TAG_member
    2569                      .dwattr $C$DW$213, DW_AT_type(*$C$DW$T$19)
    2570                      .dwattr $C$DW$213, DW_AT_name("GPIO4")
    2571                      .dwattr $C$DW$213, DW_AT_TI_symbol_name("_GPIO4")
    2572                      .dwattr $C$DW$213, DW_AT_bit_offset(0x0b)
    2573                      .dwattr $C$DW$213, DW_AT_bit_size(0x01)
    2574                      .dwattr $C$DW$213, DW_AT_data_member_location[DW_OP_plus_uconst 0x0]
    2575                      .dwattr $C$DW$213, DW_AT_accessibility(DW_ACCESS_public)
    2576              
    2577              $C$DW$214       .dwtag  DW_TAG_member
    2578                      .dwattr $C$DW$214, DW_AT_type(*$C$DW$T$19)
    2579                      .dwattr $C$DW$214, DW_AT_name("GPIO5")
    2580                      .dwattr $C$DW$214, DW_AT_TI_symbol_name("_GPIO5")
    2581                      .dwattr $C$DW$214, DW_AT_bit_offset(0x0a)
    2582                      .dwattr $C$DW$214, DW_AT_bit_size(0x01)
    2583                      .dwattr $C$DW$214, DW_AT_data_member_location[DW_OP_plus_uconst 0x0]
    2584                      .dwattr $C$DW$214, DW_AT_accessibility(DW_ACCESS_public)
    2585              
TMS320C2000 Assembler PC v16.9.6 Tue Mar 06 18:34:40 2018

Tools Copyright (c) 1996-2017 Texas Instruments Incorporated
C:\Users\Admin\AppData\Local\Temp\{31C1AC2A-9DF2-49FD-82E3-4EC1724EAAB9} PAGE   50

    2586              $C$DW$215       .dwtag  DW_TAG_member
    2587                      .dwattr $C$DW$215, DW_AT_type(*$C$DW$T$19)
    2588                      .dwattr $C$DW$215, DW_AT_name("GPIO6")
    2589                      .dwattr $C$DW$215, DW_AT_TI_symbol_name("_GPIO6")
    2590                      .dwattr $C$DW$215, DW_AT_bit_offset(0x09)
    2591                      .dwattr $C$DW$215, DW_AT_bit_size(0x01)
    2592                      .dwattr $C$DW$215, DW_AT_data_member_location[DW_OP_plus_uconst 0x0]
    2593                      .dwattr $C$DW$215, DW_AT_accessibility(DW_ACCESS_public)
    2594              
    2595              $C$DW$216       .dwtag  DW_TAG_member
    2596                      .dwattr $C$DW$216, DW_AT_type(*$C$DW$T$19)
    2597                      .dwattr $C$DW$216, DW_AT_name("GPIO7")
    2598                      .dwattr $C$DW$216, DW_AT_TI_symbol_name("_GPIO7")
    2599                      .dwattr $C$DW$216, DW_AT_bit_offset(0x08)
    2600                      .dwattr $C$DW$216, DW_AT_bit_size(0x01)
    2601                      .dwattr $C$DW$216, DW_AT_data_member_location[DW_OP_plus_uconst 0x0]
    2602                      .dwattr $C$DW$216, DW_AT_accessibility(DW_ACCESS_public)
    2603              
    2604              $C$DW$217       .dwtag  DW_TAG_member
    2605                      .dwattr $C$DW$217, DW_AT_type(*$C$DW$T$19)
    2606                      .dwattr $C$DW$217, DW_AT_name("GPIO8")
    2607                      .dwattr $C$DW$217, DW_AT_TI_symbol_name("_GPIO8")
    2608                      .dwattr $C$DW$217, DW_AT_bit_offset(0x07)
    2609                      .dwattr $C$DW$217, DW_AT_bit_size(0x01)
    2610                      .dwattr $C$DW$217, DW_AT_data_member_location[DW_OP_plus_uconst 0x0]
    2611                      .dwattr $C$DW$217, DW_AT_accessibility(DW_ACCESS_public)
    2612              
    2613              $C$DW$218       .dwtag  DW_TAG_member
    2614                      .dwattr $C$DW$218, DW_AT_type(*$C$DW$T$19)
    2615                      .dwattr $C$DW$218, DW_AT_name("GPIO9")
    2616                      .dwattr $C$DW$218, DW_AT_TI_symbol_name("_GPIO9")
    2617                      .dwattr $C$DW$218, DW_AT_bit_offset(0x06)
    2618                      .dwattr $C$DW$218, DW_AT_bit_size(0x01)
    2619                      .dwattr $C$DW$218, DW_AT_data_member_location[DW_OP_plus_uconst 0x0]
    2620                      .dwattr $C$DW$218, DW_AT_accessibility(DW_ACCESS_public)
    2621              
    2622              $C$DW$219       .dwtag  DW_TAG_member
    2623                      .dwattr $C$DW$219, DW_AT_type(*$C$DW$T$19)
    2624                      .dwattr $C$DW$219, DW_AT_name("GPIO10")
    2625                      .dwattr $C$DW$219, DW_AT_TI_symbol_name("_GPIO10")
    2626                      .dwattr $C$DW$219, DW_AT_bit_offset(0x05)
    2627                      .dwattr $C$DW$219, DW_AT_bit_size(0x01)
    2628                      .dwattr $C$DW$219, DW_AT_data_member_location[DW_OP_plus_uconst 0x0]
    2629                      .dwattr $C$DW$219, DW_AT_accessibility(DW_ACCESS_public)
    2630              
    2631              $C$DW$220       .dwtag  DW_TAG_member
    2632                      .dwattr $C$DW$220, DW_AT_type(*$C$DW$T$19)
    2633                      .dwattr $C$DW$220, DW_AT_name("GPIO11")
    2634                      .dwattr $C$DW$220, DW_AT_TI_symbol_name("_GPIO11")
    2635                      .dwattr $C$DW$220, DW_AT_bit_offset(0x04)
    2636                      .dwattr $C$DW$220, DW_AT_bit_size(0x01)
    2637                      .dwattr $C$DW$220, DW_AT_data_member_location[DW_OP_plus_uconst 0x0]
    2638                      .dwattr $C$DW$220, DW_AT_accessibility(DW_ACCESS_public)
    2639              
    2640              $C$DW$221       .dwtag  DW_TAG_member
TMS320C2000 Assembler PC v16.9.6 Tue Mar 06 18:34:40 2018

Tools Copyright (c) 1996-2017 Texas Instruments Incorporated
C:\Users\Admin\AppData\Local\Temp\{31C1AC2A-9DF2-49FD-82E3-4EC1724EAAB9} PAGE   51

    2641                      .dwattr $C$DW$221, DW_AT_type(*$C$DW$T$19)
    2642                      .dwattr $C$DW$221, DW_AT_name("GPIO12")
    2643                      .dwattr $C$DW$221, DW_AT_TI_symbol_name("_GPIO12")
    2644                      .dwattr $C$DW$221, DW_AT_bit_offset(0x03)
    2645                      .dwattr $C$DW$221, DW_AT_bit_size(0x01)
    2646                      .dwattr $C$DW$221, DW_AT_data_member_location[DW_OP_plus_uconst 0x0]
    2647                      .dwattr $C$DW$221, DW_AT_accessibility(DW_ACCESS_public)
    2648              
    2649              $C$DW$222       .dwtag  DW_TAG_member
    2650                      .dwattr $C$DW$222, DW_AT_type(*$C$DW$T$19)
    2651                      .dwattr $C$DW$222, DW_AT_name("GPIO13")
    2652                      .dwattr $C$DW$222, DW_AT_TI_symbol_name("_GPIO13")
    2653                      .dwattr $C$DW$222, DW_AT_bit_offset(0x02)
    2654                      .dwattr $C$DW$222, DW_AT_bit_size(0x01)
    2655                      .dwattr $C$DW$222, DW_AT_data_member_location[DW_OP_plus_uconst 0x0]
    2656                      .dwattr $C$DW$222, DW_AT_accessibility(DW_ACCESS_public)
    2657              
    2658              $C$DW$223       .dwtag  DW_TAG_member
    2659                      .dwattr $C$DW$223, DW_AT_type(*$C$DW$T$19)
    2660                      .dwattr $C$DW$223, DW_AT_name("GPIO14")
    2661                      .dwattr $C$DW$223, DW_AT_TI_symbol_name("_GPIO14")
    2662                      .dwattr $C$DW$223, DW_AT_bit_offset(0x01)
    2663                      .dwattr $C$DW$223, DW_AT_bit_size(0x01)
    2664                      .dwattr $C$DW$223, DW_AT_data_member_location[DW_OP_plus_uconst 0x0]
    2665                      .dwattr $C$DW$223, DW_AT_accessibility(DW_ACCESS_public)
    2666              
    2667              $C$DW$224       .dwtag  DW_TAG_member
    2668                      .dwattr $C$DW$224, DW_AT_type(*$C$DW$T$19)
    2669                      .dwattr $C$DW$224, DW_AT_name("GPIO15")
    2670                      .dwattr $C$DW$224, DW_AT_TI_symbol_name("_GPIO15")
    2671                      .dwattr $C$DW$224, DW_AT_bit_offset(0x00)
    2672                      .dwattr $C$DW$224, DW_AT_bit_size(0x01)
    2673                      .dwattr $C$DW$224, DW_AT_data_member_location[DW_OP_plus_uconst 0x0]
    2674                      .dwattr $C$DW$224, DW_AT_accessibility(DW_ACCESS_public)
    2675              
    2676              $C$DW$225       .dwtag  DW_TAG_member
    2677                      .dwattr $C$DW$225, DW_AT_type(*$C$DW$T$19)
    2678                      .dwattr $C$DW$225, DW_AT_name("GPIO16")
    2679                      .dwattr $C$DW$225, DW_AT_TI_symbol_name("_GPIO16")
    2680                      .dwattr $C$DW$225, DW_AT_bit_offset(0x0f)
    2681                      .dwattr $C$DW$225, DW_AT_bit_size(0x01)
    2682                      .dwattr $C$DW$225, DW_AT_data_member_location[DW_OP_plus_uconst 0x1]
    2683                      .dwattr $C$DW$225, DW_AT_accessibility(DW_ACCESS_public)
    2684              
    2685              $C$DW$226       .dwtag  DW_TAG_member
    2686                      .dwattr $C$DW$226, DW_AT_type(*$C$DW$T$19)
    2687                      .dwattr $C$DW$226, DW_AT_name("GPIO17")
    2688                      .dwattr $C$DW$226, DW_AT_TI_symbol_name("_GPIO17")
    2689                      .dwattr $C$DW$226, DW_AT_bit_offset(0x0e)
    2690                      .dwattr $C$DW$226, DW_AT_bit_size(0x01)
    2691                      .dwattr $C$DW$226, DW_AT_data_member_location[DW_OP_plus_uconst 0x1]
    2692                      .dwattr $C$DW$226, DW_AT_accessibility(DW_ACCESS_public)
    2693              
    2694              $C$DW$227       .dwtag  DW_TAG_member
    2695                      .dwattr $C$DW$227, DW_AT_type(*$C$DW$T$19)
TMS320C2000 Assembler PC v16.9.6 Tue Mar 06 18:34:40 2018

Tools Copyright (c) 1996-2017 Texas Instruments Incorporated
C:\Users\Admin\AppData\Local\Temp\{31C1AC2A-9DF2-49FD-82E3-4EC1724EAAB9} PAGE   52

    2696                      .dwattr $C$DW$227, DW_AT_name("GPIO18")
    2697                      .dwattr $C$DW$227, DW_AT_TI_symbol_name("_GPIO18")
    2698                      .dwattr $C$DW$227, DW_AT_bit_offset(0x0d)
    2699                      .dwattr $C$DW$227, DW_AT_bit_size(0x01)
    2700                      .dwattr $C$DW$227, DW_AT_data_member_location[DW_OP_plus_uconst 0x1]
    2701                      .dwattr $C$DW$227, DW_AT_accessibility(DW_ACCESS_public)
    2702              
    2703              $C$DW$228       .dwtag  DW_TAG_member
    2704                      .dwattr $C$DW$228, DW_AT_type(*$C$DW$T$19)
    2705                      .dwattr $C$DW$228, DW_AT_name("GPIO19")
    2706                      .dwattr $C$DW$228, DW_AT_TI_symbol_name("_GPIO19")
    2707                      .dwattr $C$DW$228, DW_AT_bit_offset(0x0c)
    2708                      .dwattr $C$DW$228, DW_AT_bit_size(0x01)
    2709                      .dwattr $C$DW$228, DW_AT_data_member_location[DW_OP_plus_uconst 0x1]
    2710                      .dwattr $C$DW$228, DW_AT_accessibility(DW_ACCESS_public)
    2711              
    2712              $C$DW$229       .dwtag  DW_TAG_member
    2713                      .dwattr $C$DW$229, DW_AT_type(*$C$DW$T$19)
    2714                      .dwattr $C$DW$229, DW_AT_name("GPIO20")
    2715                      .dwattr $C$DW$229, DW_AT_TI_symbol_name("_GPIO20")
    2716                      .dwattr $C$DW$229, DW_AT_bit_offset(0x0b)
    2717                      .dwattr $C$DW$229, DW_AT_bit_size(0x01)
    2718                      .dwattr $C$DW$229, DW_AT_data_member_location[DW_OP_plus_uconst 0x1]
    2719                      .dwattr $C$DW$229, DW_AT_accessibility(DW_ACCESS_public)
    2720              
    2721              $C$DW$230       .dwtag  DW_TAG_member
    2722                      .dwattr $C$DW$230, DW_AT_type(*$C$DW$T$19)
    2723                      .dwattr $C$DW$230, DW_AT_name("GPIO21")
    2724                      .dwattr $C$DW$230, DW_AT_TI_symbol_name("_GPIO21")
    2725                      .dwattr $C$DW$230, DW_AT_bit_offset(0x0a)
    2726                      .dwattr $C$DW$230, DW_AT_bit_size(0x01)
    2727                      .dwattr $C$DW$230, DW_AT_data_member_location[DW_OP_plus_uconst 0x1]
    2728                      .dwattr $C$DW$230, DW_AT_accessibility(DW_ACCESS_public)
    2729              
    2730              $C$DW$231       .dwtag  DW_TAG_member
    2731                      .dwattr $C$DW$231, DW_AT_type(*$C$DW$T$19)
    2732                      .dwattr $C$DW$231, DW_AT_name("GPIO22")
    2733                      .dwattr $C$DW$231, DW_AT_TI_symbol_name("_GPIO22")
    2734                      .dwattr $C$DW$231, DW_AT_bit_offset(0x09)
    2735                      .dwattr $C$DW$231, DW_AT_bit_size(0x01)
    2736                      .dwattr $C$DW$231, DW_AT_data_member_location[DW_OP_plus_uconst 0x1]
    2737                      .dwattr $C$DW$231, DW_AT_accessibility(DW_ACCESS_public)
    2738              
    2739              $C$DW$232       .dwtag  DW_TAG_member
    2740                      .dwattr $C$DW$232, DW_AT_type(*$C$DW$T$19)
    2741                      .dwattr $C$DW$232, DW_AT_name("GPIO23")
    2742                      .dwattr $C$DW$232, DW_AT_TI_symbol_name("_GPIO23")
    2743                      .dwattr $C$DW$232, DW_AT_bit_offset(0x08)
    2744                      .dwattr $C$DW$232, DW_AT_bit_size(0x01)
    2745                      .dwattr $C$DW$232, DW_AT_data_member_location[DW_OP_plus_uconst 0x1]
    2746                      .dwattr $C$DW$232, DW_AT_accessibility(DW_ACCESS_public)
    2747              
    2748              $C$DW$233       .dwtag  DW_TAG_member
    2749                      .dwattr $C$DW$233, DW_AT_type(*$C$DW$T$19)
    2750                      .dwattr $C$DW$233, DW_AT_name("GPIO24")
TMS320C2000 Assembler PC v16.9.6 Tue Mar 06 18:34:40 2018

Tools Copyright (c) 1996-2017 Texas Instruments Incorporated
C:\Users\Admin\AppData\Local\Temp\{31C1AC2A-9DF2-49FD-82E3-4EC1724EAAB9} PAGE   53

    2751                      .dwattr $C$DW$233, DW_AT_TI_symbol_name("_GPIO24")
    2752                      .dwattr $C$DW$233, DW_AT_bit_offset(0x07)
    2753                      .dwattr $C$DW$233, DW_AT_bit_size(0x01)
    2754                      .dwattr $C$DW$233, DW_AT_data_member_location[DW_OP_plus_uconst 0x1]
    2755                      .dwattr $C$DW$233, DW_AT_accessibility(DW_ACCESS_public)
    2756              
    2757              $C$DW$234       .dwtag  DW_TAG_member
    2758                      .dwattr $C$DW$234, DW_AT_type(*$C$DW$T$19)
    2759                      .dwattr $C$DW$234, DW_AT_name("GPIO25")
    2760                      .dwattr $C$DW$234, DW_AT_TI_symbol_name("_GPIO25")
    2761                      .dwattr $C$DW$234, DW_AT_bit_offset(0x06)
    2762                      .dwattr $C$DW$234, DW_AT_bit_size(0x01)
    2763                      .dwattr $C$DW$234, DW_AT_data_member_location[DW_OP_plus_uconst 0x1]
    2764                      .dwattr $C$DW$234, DW_AT_accessibility(DW_ACCESS_public)
    2765              
    2766              $C$DW$235       .dwtag  DW_TAG_member
    2767                      .dwattr $C$DW$235, DW_AT_type(*$C$DW$T$19)
    2768                      .dwattr $C$DW$235, DW_AT_name("GPIO26")
    2769                      .dwattr $C$DW$235, DW_AT_TI_symbol_name("_GPIO26")
    2770                      .dwattr $C$DW$235, DW_AT_bit_offset(0x05)
    2771                      .dwattr $C$DW$235, DW_AT_bit_size(0x01)
    2772                      .dwattr $C$DW$235, DW_AT_data_member_location[DW_OP_plus_uconst 0x1]
    2773                      .dwattr $C$DW$235, DW_AT_accessibility(DW_ACCESS_public)
    2774              
    2775              $C$DW$236       .dwtag  DW_TAG_member
    2776                      .dwattr $C$DW$236, DW_AT_type(*$C$DW$T$19)
    2777                      .dwattr $C$DW$236, DW_AT_name("GPIO27")
    2778                      .dwattr $C$DW$236, DW_AT_TI_symbol_name("_GPIO27")
    2779                      .dwattr $C$DW$236, DW_AT_bit_offset(0x04)
    2780                      .dwattr $C$DW$236, DW_AT_bit_size(0x01)
    2781                      .dwattr $C$DW$236, DW_AT_data_member_location[DW_OP_plus_uconst 0x1]
    2782                      .dwattr $C$DW$236, DW_AT_accessibility(DW_ACCESS_public)
    2783              
    2784              $C$DW$237       .dwtag  DW_TAG_member
    2785                      .dwattr $C$DW$237, DW_AT_type(*$C$DW$T$19)
    2786                      .dwattr $C$DW$237, DW_AT_name("GPIO28")
    2787                      .dwattr $C$DW$237, DW_AT_TI_symbol_name("_GPIO28")
    2788                      .dwattr $C$DW$237, DW_AT_bit_offset(0x03)
    2789                      .dwattr $C$DW$237, DW_AT_bit_size(0x01)
    2790                      .dwattr $C$DW$237, DW_AT_data_member_location[DW_OP_plus_uconst 0x1]
    2791                      .dwattr $C$DW$237, DW_AT_accessibility(DW_ACCESS_public)
    2792              
    2793              $C$DW$238       .dwtag  DW_TAG_member
    2794                      .dwattr $C$DW$238, DW_AT_type(*$C$DW$T$19)
    2795                      .dwattr $C$DW$238, DW_AT_name("GPIO29")
    2796                      .dwattr $C$DW$238, DW_AT_TI_symbol_name("_GPIO29")
    2797                      .dwattr $C$DW$238, DW_AT_bit_offset(0x02)
    2798                      .dwattr $C$DW$238, DW_AT_bit_size(0x01)
    2799                      .dwattr $C$DW$238, DW_AT_data_member_location[DW_OP_plus_uconst 0x1]
    2800                      .dwattr $C$DW$238, DW_AT_accessibility(DW_ACCESS_public)
    2801              
    2802              $C$DW$239       .dwtag  DW_TAG_member
    2803                      .dwattr $C$DW$239, DW_AT_type(*$C$DW$T$19)
    2804                      .dwattr $C$DW$239, DW_AT_name("GPIO30")
    2805                      .dwattr $C$DW$239, DW_AT_TI_symbol_name("_GPIO30")
TMS320C2000 Assembler PC v16.9.6 Tue Mar 06 18:34:40 2018

Tools Copyright (c) 1996-2017 Texas Instruments Incorporated
C:\Users\Admin\AppData\Local\Temp\{31C1AC2A-9DF2-49FD-82E3-4EC1724EAAB9} PAGE   54

    2806                      .dwattr $C$DW$239, DW_AT_bit_offset(0x01)
    2807                      .dwattr $C$DW$239, DW_AT_bit_size(0x01)
    2808                      .dwattr $C$DW$239, DW_AT_data_member_location[DW_OP_plus_uconst 0x1]
    2809                      .dwattr $C$DW$239, DW_AT_accessibility(DW_ACCESS_public)
    2810              
    2811              $C$DW$240       .dwtag  DW_TAG_member
    2812                      .dwattr $C$DW$240, DW_AT_type(*$C$DW$T$19)
    2813                      .dwattr $C$DW$240, DW_AT_name("GPIO31")
    2814                      .dwattr $C$DW$240, DW_AT_TI_symbol_name("_GPIO31")
    2815                      .dwattr $C$DW$240, DW_AT_bit_offset(0x00)
    2816                      .dwattr $C$DW$240, DW_AT_bit_size(0x01)
    2817                      .dwattr $C$DW$240, DW_AT_data_member_location[DW_OP_plus_uconst 0x1]
    2818                      .dwattr $C$DW$240, DW_AT_accessibility(DW_ACCESS_public)
    2819              
    2820                      .dwendtag $C$DW$T$52
    2821              
    2822              
    2823              $C$DW$T$53      .dwtag  DW_TAG_union_type
    2824                      .dwattr $C$DW$T$53, DW_AT_name("GPADAT_REG")
    2825                      .dwattr $C$DW$T$53, DW_AT_byte_size(0x02)
    2826              $C$DW$241       .dwtag  DW_TAG_member
    2827                      .dwattr $C$DW$241, DW_AT_type(*$C$DW$T$23)
    2828                      .dwattr $C$DW$241, DW_AT_name("all")
    2829                      .dwattr $C$DW$241, DW_AT_TI_symbol_name("_all")
    2830                      .dwattr $C$DW$241, DW_AT_data_member_location[DW_OP_plus_uconst 0x0]
    2831                      .dwattr $C$DW$241, DW_AT_accessibility(DW_ACCESS_public)
    2832              
    2833              $C$DW$242       .dwtag  DW_TAG_member
    2834                      .dwattr $C$DW$242, DW_AT_type(*$C$DW$T$52)
    2835                      .dwattr $C$DW$242, DW_AT_name("bit")
    2836                      .dwattr $C$DW$242, DW_AT_TI_symbol_name("_bit")
    2837                      .dwattr $C$DW$242, DW_AT_data_member_location[DW_OP_plus_uconst 0x0]
    2838                      .dwattr $C$DW$242, DW_AT_accessibility(DW_ACCESS_public)
    2839              
    2840                      .dwendtag $C$DW$T$53
    2841              
    2842              
    2843              $C$DW$T$54      .dwtag  DW_TAG_structure_type
    2844                      .dwattr $C$DW$T$54, DW_AT_name("GPB1_BITS")
    2845                      .dwattr $C$DW$T$54, DW_AT_byte_size(0x02)
    2846              $C$DW$243       .dwtag  DW_TAG_member
    2847                      .dwattr $C$DW$243, DW_AT_type(*$C$DW$T$19)
    2848                      .dwattr $C$DW$243, DW_AT_name("GPIO32")
    2849                      .dwattr $C$DW$243, DW_AT_TI_symbol_name("_GPIO32")
    2850                      .dwattr $C$DW$243, DW_AT_bit_offset(0x0e)
    2851                      .dwattr $C$DW$243, DW_AT_bit_size(0x02)
    2852                      .dwattr $C$DW$243, DW_AT_data_member_location[DW_OP_plus_uconst 0x0]
    2853                      .dwattr $C$DW$243, DW_AT_accessibility(DW_ACCESS_public)
    2854              
    2855              $C$DW$244       .dwtag  DW_TAG_member
    2856                      .dwattr $C$DW$244, DW_AT_type(*$C$DW$T$19)
    2857                      .dwattr $C$DW$244, DW_AT_name("GPIO33")
    2858                      .dwattr $C$DW$244, DW_AT_TI_symbol_name("_GPIO33")
    2859                      .dwattr $C$DW$244, DW_AT_bit_offset(0x0c)
    2860                      .dwattr $C$DW$244, DW_AT_bit_size(0x02)
TMS320C2000 Assembler PC v16.9.6 Tue Mar 06 18:34:40 2018

Tools Copyright (c) 1996-2017 Texas Instruments Incorporated
C:\Users\Admin\AppData\Local\Temp\{31C1AC2A-9DF2-49FD-82E3-4EC1724EAAB9} PAGE   55

    2861                      .dwattr $C$DW$244, DW_AT_data_member_location[DW_OP_plus_uconst 0x0]
    2862                      .dwattr $C$DW$244, DW_AT_accessibility(DW_ACCESS_public)
    2863              
    2864              $C$DW$245       .dwtag  DW_TAG_member
    2865                      .dwattr $C$DW$245, DW_AT_type(*$C$DW$T$19)
    2866                      .dwattr $C$DW$245, DW_AT_name("GPIO34")
    2867                      .dwattr $C$DW$245, DW_AT_TI_symbol_name("_GPIO34")
    2868                      .dwattr $C$DW$245, DW_AT_bit_offset(0x0a)
    2869                      .dwattr $C$DW$245, DW_AT_bit_size(0x02)
    2870                      .dwattr $C$DW$245, DW_AT_data_member_location[DW_OP_plus_uconst 0x0]
    2871                      .dwattr $C$DW$245, DW_AT_accessibility(DW_ACCESS_public)
    2872              
    2873              $C$DW$246       .dwtag  DW_TAG_member
    2874                      .dwattr $C$DW$246, DW_AT_type(*$C$DW$T$19)
    2875                      .dwattr $C$DW$246, DW_AT_name("GPIO35")
    2876                      .dwattr $C$DW$246, DW_AT_TI_symbol_name("_GPIO35")
    2877                      .dwattr $C$DW$246, DW_AT_bit_offset(0x08)
    2878                      .dwattr $C$DW$246, DW_AT_bit_size(0x02)
    2879                      .dwattr $C$DW$246, DW_AT_data_member_location[DW_OP_plus_uconst 0x0]
    2880                      .dwattr $C$DW$246, DW_AT_accessibility(DW_ACCESS_public)
    2881              
    2882              $C$DW$247       .dwtag  DW_TAG_member
    2883                      .dwattr $C$DW$247, DW_AT_type(*$C$DW$T$19)
    2884                      .dwattr $C$DW$247, DW_AT_name("GPIO36")
    2885                      .dwattr $C$DW$247, DW_AT_TI_symbol_name("_GPIO36")
    2886                      .dwattr $C$DW$247, DW_AT_bit_offset(0x06)
    2887                      .dwattr $C$DW$247, DW_AT_bit_size(0x02)
    2888                      .dwattr $C$DW$247, DW_AT_data_member_location[DW_OP_plus_uconst 0x0]
    2889                      .dwattr $C$DW$247, DW_AT_accessibility(DW_ACCESS_public)
    2890              
    2891              $C$DW$248       .dwtag  DW_TAG_member
    2892                      .dwattr $C$DW$248, DW_AT_type(*$C$DW$T$19)
    2893                      .dwattr $C$DW$248, DW_AT_name("GPIO37")
    2894                      .dwattr $C$DW$248, DW_AT_TI_symbol_name("_GPIO37")
    2895                      .dwattr $C$DW$248, DW_AT_bit_offset(0x04)
    2896                      .dwattr $C$DW$248, DW_AT_bit_size(0x02)
    2897                      .dwattr $C$DW$248, DW_AT_data_member_location[DW_OP_plus_uconst 0x0]
    2898                      .dwattr $C$DW$248, DW_AT_accessibility(DW_ACCESS_public)
    2899              
    2900              $C$DW$249       .dwtag  DW_TAG_member
    2901                      .dwattr $C$DW$249, DW_AT_type(*$C$DW$T$19)
    2902                      .dwattr $C$DW$249, DW_AT_name("GPIO38")
    2903                      .dwattr $C$DW$249, DW_AT_TI_symbol_name("_GPIO38")
    2904                      .dwattr $C$DW$249, DW_AT_bit_offset(0x02)
    2905                      .dwattr $C$DW$249, DW_AT_bit_size(0x02)
    2906                      .dwattr $C$DW$249, DW_AT_data_member_location[DW_OP_plus_uconst 0x0]
    2907                      .dwattr $C$DW$249, DW_AT_accessibility(DW_ACCESS_public)
    2908              
    2909              $C$DW$250       .dwtag  DW_TAG_member
    2910                      .dwattr $C$DW$250, DW_AT_type(*$C$DW$T$19)
    2911                      .dwattr $C$DW$250, DW_AT_name("GPIO39")
    2912                      .dwattr $C$DW$250, DW_AT_TI_symbol_name("_GPIO39")
    2913                      .dwattr $C$DW$250, DW_AT_bit_offset(0x00)
    2914                      .dwattr $C$DW$250, DW_AT_bit_size(0x02)
    2915                      .dwattr $C$DW$250, DW_AT_data_member_location[DW_OP_plus_uconst 0x0]
TMS320C2000 Assembler PC v16.9.6 Tue Mar 06 18:34:40 2018

Tools Copyright (c) 1996-2017 Texas Instruments Incorporated
C:\Users\Admin\AppData\Local\Temp\{31C1AC2A-9DF2-49FD-82E3-4EC1724EAAB9} PAGE   56

    2916                      .dwattr $C$DW$250, DW_AT_accessibility(DW_ACCESS_public)
    2917              
    2918              $C$DW$251       .dwtag  DW_TAG_member
    2919                      .dwattr $C$DW$251, DW_AT_type(*$C$DW$T$19)
    2920                      .dwattr $C$DW$251, DW_AT_name("GPIO40")
    2921                      .dwattr $C$DW$251, DW_AT_TI_symbol_name("_GPIO40")
    2922                      .dwattr $C$DW$251, DW_AT_bit_offset(0x0e)
    2923                      .dwattr $C$DW$251, DW_AT_bit_size(0x02)
    2924                      .dwattr $C$DW$251, DW_AT_data_member_location[DW_OP_plus_uconst 0x1]
    2925                      .dwattr $C$DW$251, DW_AT_accessibility(DW_ACCESS_public)
    2926              
    2927              $C$DW$252       .dwtag  DW_TAG_member
    2928                      .dwattr $C$DW$252, DW_AT_type(*$C$DW$T$19)
    2929                      .dwattr $C$DW$252, DW_AT_name("GPIO41")
    2930                      .dwattr $C$DW$252, DW_AT_TI_symbol_name("_GPIO41")
    2931                      .dwattr $C$DW$252, DW_AT_bit_offset(0x0c)
    2932                      .dwattr $C$DW$252, DW_AT_bit_size(0x02)
    2933                      .dwattr $C$DW$252, DW_AT_data_member_location[DW_OP_plus_uconst 0x1]
    2934                      .dwattr $C$DW$252, DW_AT_accessibility(DW_ACCESS_public)
    2935              
    2936              $C$DW$253       .dwtag  DW_TAG_member
    2937                      .dwattr $C$DW$253, DW_AT_type(*$C$DW$T$19)
    2938                      .dwattr $C$DW$253, DW_AT_name("GPIO42")
    2939                      .dwattr $C$DW$253, DW_AT_TI_symbol_name("_GPIO42")
    2940                      .dwattr $C$DW$253, DW_AT_bit_offset(0x0a)
    2941                      .dwattr $C$DW$253, DW_AT_bit_size(0x02)
    2942                      .dwattr $C$DW$253, DW_AT_data_member_location[DW_OP_plus_uconst 0x1]
    2943                      .dwattr $C$DW$253, DW_AT_accessibility(DW_ACCESS_public)
    2944              
    2945              $C$DW$254       .dwtag  DW_TAG_member
    2946                      .dwattr $C$DW$254, DW_AT_type(*$C$DW$T$19)
    2947                      .dwattr $C$DW$254, DW_AT_name("GPIO43")
    2948                      .dwattr $C$DW$254, DW_AT_TI_symbol_name("_GPIO43")
    2949                      .dwattr $C$DW$254, DW_AT_bit_offset(0x08)
    2950                      .dwattr $C$DW$254, DW_AT_bit_size(0x02)
    2951                      .dwattr $C$DW$254, DW_AT_data_member_location[DW_OP_plus_uconst 0x1]
    2952                      .dwattr $C$DW$254, DW_AT_accessibility(DW_ACCESS_public)
    2953              
    2954              $C$DW$255       .dwtag  DW_TAG_member
    2955                      .dwattr $C$DW$255, DW_AT_type(*$C$DW$T$19)
    2956                      .dwattr $C$DW$255, DW_AT_name("GPIO44")
    2957                      .dwattr $C$DW$255, DW_AT_TI_symbol_name("_GPIO44")
    2958                      .dwattr $C$DW$255, DW_AT_bit_offset(0x06)
    2959                      .dwattr $C$DW$255, DW_AT_bit_size(0x02)
    2960                      .dwattr $C$DW$255, DW_AT_data_member_location[DW_OP_plus_uconst 0x1]
    2961                      .dwattr $C$DW$255, DW_AT_accessibility(DW_ACCESS_public)
    2962              
    2963              $C$DW$256       .dwtag  DW_TAG_member
    2964                      .dwattr $C$DW$256, DW_AT_type(*$C$DW$T$19)
    2965                      .dwattr $C$DW$256, DW_AT_name("rsvd1")
    2966                      .dwattr $C$DW$256, DW_AT_TI_symbol_name("_rsvd1")
    2967                      .dwattr $C$DW$256, DW_AT_bit_offset(0x00)
    2968                      .dwattr $C$DW$256, DW_AT_bit_size(0x06)
    2969                      .dwattr $C$DW$256, DW_AT_data_member_location[DW_OP_plus_uconst 0x1]
    2970                      .dwattr $C$DW$256, DW_AT_accessibility(DW_ACCESS_public)
TMS320C2000 Assembler PC v16.9.6 Tue Mar 06 18:34:40 2018

Tools Copyright (c) 1996-2017 Texas Instruments Incorporated
C:\Users\Admin\AppData\Local\Temp\{31C1AC2A-9DF2-49FD-82E3-4EC1724EAAB9} PAGE   57

    2971              
    2972                      .dwendtag $C$DW$T$54
    2973              
    2974              
    2975              $C$DW$T$55      .dwtag  DW_TAG_union_type
    2976                      .dwattr $C$DW$T$55, DW_AT_name("GPB1_REG")
    2977                      .dwattr $C$DW$T$55, DW_AT_byte_size(0x02)
    2978              $C$DW$257       .dwtag  DW_TAG_member
    2979                      .dwattr $C$DW$257, DW_AT_type(*$C$DW$T$23)
    2980                      .dwattr $C$DW$257, DW_AT_name("all")
    2981                      .dwattr $C$DW$257, DW_AT_TI_symbol_name("_all")
    2982                      .dwattr $C$DW$257, DW_AT_data_member_location[DW_OP_plus_uconst 0x0]
    2983                      .dwattr $C$DW$257, DW_AT_accessibility(DW_ACCESS_public)
    2984              
    2985              $C$DW$258       .dwtag  DW_TAG_member
    2986                      .dwattr $C$DW$258, DW_AT_type(*$C$DW$T$54)
    2987                      .dwattr $C$DW$258, DW_AT_name("bit")
    2988                      .dwattr $C$DW$258, DW_AT_TI_symbol_name("_bit")
    2989                      .dwattr $C$DW$258, DW_AT_data_member_location[DW_OP_plus_uconst 0x0]
    2990                      .dwattr $C$DW$258, DW_AT_accessibility(DW_ACCESS_public)
    2991              
    2992                      .dwendtag $C$DW$T$55
    2993              
    2994              
    2995              $C$DW$T$56      .dwtag  DW_TAG_structure_type
    2996                      .dwattr $C$DW$T$56, DW_AT_name("GPBCTRL_BITS")
    2997                      .dwattr $C$DW$T$56, DW_AT_byte_size(0x02)
    2998              $C$DW$259       .dwtag  DW_TAG_member
    2999                      .dwattr $C$DW$259, DW_AT_type(*$C$DW$T$19)
    3000                      .dwattr $C$DW$259, DW_AT_name("QUALPRD0")
    3001                      .dwattr $C$DW$259, DW_AT_TI_symbol_name("_QUALPRD0")
    3002                      .dwattr $C$DW$259, DW_AT_bit_offset(0x08)
    3003                      .dwattr $C$DW$259, DW_AT_bit_size(0x08)
    3004                      .dwattr $C$DW$259, DW_AT_data_member_location[DW_OP_plus_uconst 0x0]
    3005                      .dwattr $C$DW$259, DW_AT_accessibility(DW_ACCESS_public)
    3006              
    3007              $C$DW$260       .dwtag  DW_TAG_member
    3008                      .dwattr $C$DW$260, DW_AT_type(*$C$DW$T$19)
    3009                      .dwattr $C$DW$260, DW_AT_name("rsvd1")
    3010                      .dwattr $C$DW$260, DW_AT_TI_symbol_name("_rsvd1")
    3011                      .dwattr $C$DW$260, DW_AT_bit_offset(0x00)
    3012                      .dwattr $C$DW$260, DW_AT_bit_size(0x08)
    3013                      .dwattr $C$DW$260, DW_AT_data_member_location[DW_OP_plus_uconst 0x0]
    3014                      .dwattr $C$DW$260, DW_AT_accessibility(DW_ACCESS_public)
    3015              
    3016              $C$DW$261       .dwtag  DW_TAG_member
    3017                      .dwattr $C$DW$261, DW_AT_type(*$C$DW$T$19)
    3018                      .dwattr $C$DW$261, DW_AT_name("rsvd2")
    3019                      .dwattr $C$DW$261, DW_AT_TI_symbol_name("_rsvd2")
    3020                      .dwattr $C$DW$261, DW_AT_bit_offset(0x00)
    3021                      .dwattr $C$DW$261, DW_AT_bit_size(0x10)
    3022                      .dwattr $C$DW$261, DW_AT_data_member_location[DW_OP_plus_uconst 0x1]
    3023                      .dwattr $C$DW$261, DW_AT_accessibility(DW_ACCESS_public)
    3024              
    3025                      .dwendtag $C$DW$T$56
TMS320C2000 Assembler PC v16.9.6 Tue Mar 06 18:34:40 2018

Tools Copyright (c) 1996-2017 Texas Instruments Incorporated
C:\Users\Admin\AppData\Local\Temp\{31C1AC2A-9DF2-49FD-82E3-4EC1724EAAB9} PAGE   58

    3026              
    3027              
    3028              $C$DW$T$57      .dwtag  DW_TAG_union_type
    3029                      .dwattr $C$DW$T$57, DW_AT_name("GPBCTRL_REG")
    3030                      .dwattr $C$DW$T$57, DW_AT_byte_size(0x02)
    3031              $C$DW$262       .dwtag  DW_TAG_member
    3032                      .dwattr $C$DW$262, DW_AT_type(*$C$DW$T$23)
    3033                      .dwattr $C$DW$262, DW_AT_name("all")
    3034                      .dwattr $C$DW$262, DW_AT_TI_symbol_name("_all")
    3035                      .dwattr $C$DW$262, DW_AT_data_member_location[DW_OP_plus_uconst 0x0]
    3036                      .dwattr $C$DW$262, DW_AT_accessibility(DW_ACCESS_public)
    3037              
    3038              $C$DW$263       .dwtag  DW_TAG_member
    3039                      .dwattr $C$DW$263, DW_AT_type(*$C$DW$T$56)
    3040                      .dwattr $C$DW$263, DW_AT_name("bit")
    3041                      .dwattr $C$DW$263, DW_AT_TI_symbol_name("_bit")
    3042                      .dwattr $C$DW$263, DW_AT_data_member_location[DW_OP_plus_uconst 0x0]
    3043                      .dwattr $C$DW$263, DW_AT_accessibility(DW_ACCESS_public)
    3044              
    3045                      .dwendtag $C$DW$T$57
    3046              
    3047              
    3048              $C$DW$T$58      .dwtag  DW_TAG_structure_type
    3049                      .dwattr $C$DW$T$58, DW_AT_name("GPBDAT_BITS")
    3050                      .dwattr $C$DW$T$58, DW_AT_byte_size(0x02)
    3051              $C$DW$264       .dwtag  DW_TAG_member
    3052                      .dwattr $C$DW$264, DW_AT_type(*$C$DW$T$19)
    3053                      .dwattr $C$DW$264, DW_AT_name("GPIO32")
    3054                      .dwattr $C$DW$264, DW_AT_TI_symbol_name("_GPIO32")
    3055                      .dwattr $C$DW$264, DW_AT_bit_offset(0x0f)
    3056                      .dwattr $C$DW$264, DW_AT_bit_size(0x01)
    3057                      .dwattr $C$DW$264, DW_AT_data_member_location[DW_OP_plus_uconst 0x0]
    3058                      .dwattr $C$DW$264, DW_AT_accessibility(DW_ACCESS_public)
    3059              
    3060              $C$DW$265       .dwtag  DW_TAG_member
    3061                      .dwattr $C$DW$265, DW_AT_type(*$C$DW$T$19)
    3062                      .dwattr $C$DW$265, DW_AT_name("GPIO33")
    3063                      .dwattr $C$DW$265, DW_AT_TI_symbol_name("_GPIO33")
    3064                      .dwattr $C$DW$265, DW_AT_bit_offset(0x0e)
    3065                      .dwattr $C$DW$265, DW_AT_bit_size(0x01)
    3066                      .dwattr $C$DW$265, DW_AT_data_member_location[DW_OP_plus_uconst 0x0]
    3067                      .dwattr $C$DW$265, DW_AT_accessibility(DW_ACCESS_public)
    3068              
    3069              $C$DW$266       .dwtag  DW_TAG_member
    3070                      .dwattr $C$DW$266, DW_AT_type(*$C$DW$T$19)
    3071                      .dwattr $C$DW$266, DW_AT_name("GPIO34")
    3072                      .dwattr $C$DW$266, DW_AT_TI_symbol_name("_GPIO34")
    3073                      .dwattr $C$DW$266, DW_AT_bit_offset(0x0d)
    3074                      .dwattr $C$DW$266, DW_AT_bit_size(0x01)
    3075                      .dwattr $C$DW$266, DW_AT_data_member_location[DW_OP_plus_uconst 0x0]
    3076                      .dwattr $C$DW$266, DW_AT_accessibility(DW_ACCESS_public)
    3077              
    3078              $C$DW$267       .dwtag  DW_TAG_member
    3079                      .dwattr $C$DW$267, DW_AT_type(*$C$DW$T$19)
    3080                      .dwattr $C$DW$267, DW_AT_name("GPIO35")
TMS320C2000 Assembler PC v16.9.6 Tue Mar 06 18:34:40 2018

Tools Copyright (c) 1996-2017 Texas Instruments Incorporated
C:\Users\Admin\AppData\Local\Temp\{31C1AC2A-9DF2-49FD-82E3-4EC1724EAAB9} PAGE   59

    3081                      .dwattr $C$DW$267, DW_AT_TI_symbol_name("_GPIO35")
    3082                      .dwattr $C$DW$267, DW_AT_bit_offset(0x0c)
    3083                      .dwattr $C$DW$267, DW_AT_bit_size(0x01)
    3084                      .dwattr $C$DW$267, DW_AT_data_member_location[DW_OP_plus_uconst 0x0]
    3085                      .dwattr $C$DW$267, DW_AT_accessibility(DW_ACCESS_public)
    3086              
    3087              $C$DW$268       .dwtag  DW_TAG_member
    3088                      .dwattr $C$DW$268, DW_AT_type(*$C$DW$T$19)
    3089                      .dwattr $C$DW$268, DW_AT_name("GPIO36")
    3090                      .dwattr $C$DW$268, DW_AT_TI_symbol_name("_GPIO36")
    3091                      .dwattr $C$DW$268, DW_AT_bit_offset(0x0b)
    3092                      .dwattr $C$DW$268, DW_AT_bit_size(0x01)
    3093                      .dwattr $C$DW$268, DW_AT_data_member_location[DW_OP_plus_uconst 0x0]
    3094                      .dwattr $C$DW$268, DW_AT_accessibility(DW_ACCESS_public)
    3095              
    3096              $C$DW$269       .dwtag  DW_TAG_member
    3097                      .dwattr $C$DW$269, DW_AT_type(*$C$DW$T$19)
    3098                      .dwattr $C$DW$269, DW_AT_name("GPIO37")
    3099                      .dwattr $C$DW$269, DW_AT_TI_symbol_name("_GPIO37")
    3100                      .dwattr $C$DW$269, DW_AT_bit_offset(0x0a)
    3101                      .dwattr $C$DW$269, DW_AT_bit_size(0x01)
    3102                      .dwattr $C$DW$269, DW_AT_data_member_location[DW_OP_plus_uconst 0x0]
    3103                      .dwattr $C$DW$269, DW_AT_accessibility(DW_ACCESS_public)
    3104              
    3105              $C$DW$270       .dwtag  DW_TAG_member
    3106                      .dwattr $C$DW$270, DW_AT_type(*$C$DW$T$19)
    3107                      .dwattr $C$DW$270, DW_AT_name("GPIO38")
    3108                      .dwattr $C$DW$270, DW_AT_TI_symbol_name("_GPIO38")
    3109                      .dwattr $C$DW$270, DW_AT_bit_offset(0x09)
    3110                      .dwattr $C$DW$270, DW_AT_bit_size(0x01)
    3111                      .dwattr $C$DW$270, DW_AT_data_member_location[DW_OP_plus_uconst 0x0]
    3112                      .dwattr $C$DW$270, DW_AT_accessibility(DW_ACCESS_public)
    3113              
    3114              $C$DW$271       .dwtag  DW_TAG_member
    3115                      .dwattr $C$DW$271, DW_AT_type(*$C$DW$T$19)
    3116                      .dwattr $C$DW$271, DW_AT_name("GPIO39")
    3117                      .dwattr $C$DW$271, DW_AT_TI_symbol_name("_GPIO39")
    3118                      .dwattr $C$DW$271, DW_AT_bit_offset(0x08)
    3119                      .dwattr $C$DW$271, DW_AT_bit_size(0x01)
    3120                      .dwattr $C$DW$271, DW_AT_data_member_location[DW_OP_plus_uconst 0x0]
    3121                      .dwattr $C$DW$271, DW_AT_accessibility(DW_ACCESS_public)
    3122              
    3123              $C$DW$272       .dwtag  DW_TAG_member
    3124                      .dwattr $C$DW$272, DW_AT_type(*$C$DW$T$19)
    3125                      .dwattr $C$DW$272, DW_AT_name("GPIO40")
    3126                      .dwattr $C$DW$272, DW_AT_TI_symbol_name("_GPIO40")
    3127                      .dwattr $C$DW$272, DW_AT_bit_offset(0x07)
    3128                      .dwattr $C$DW$272, DW_AT_bit_size(0x01)
    3129                      .dwattr $C$DW$272, DW_AT_data_member_location[DW_OP_plus_uconst 0x0]
    3130                      .dwattr $C$DW$272, DW_AT_accessibility(DW_ACCESS_public)
    3131              
    3132              $C$DW$273       .dwtag  DW_TAG_member
    3133                      .dwattr $C$DW$273, DW_AT_type(*$C$DW$T$19)
    3134                      .dwattr $C$DW$273, DW_AT_name("GPIO41")
    3135                      .dwattr $C$DW$273, DW_AT_TI_symbol_name("_GPIO41")
TMS320C2000 Assembler PC v16.9.6 Tue Mar 06 18:34:40 2018

Tools Copyright (c) 1996-2017 Texas Instruments Incorporated
C:\Users\Admin\AppData\Local\Temp\{31C1AC2A-9DF2-49FD-82E3-4EC1724EAAB9} PAGE   60

    3136                      .dwattr $C$DW$273, DW_AT_bit_offset(0x06)
    3137                      .dwattr $C$DW$273, DW_AT_bit_size(0x01)
    3138                      .dwattr $C$DW$273, DW_AT_data_member_location[DW_OP_plus_uconst 0x0]
    3139                      .dwattr $C$DW$273, DW_AT_accessibility(DW_ACCESS_public)
    3140              
    3141              $C$DW$274       .dwtag  DW_TAG_member
    3142                      .dwattr $C$DW$274, DW_AT_type(*$C$DW$T$19)
    3143                      .dwattr $C$DW$274, DW_AT_name("GPIO42")
    3144                      .dwattr $C$DW$274, DW_AT_TI_symbol_name("_GPIO42")
    3145                      .dwattr $C$DW$274, DW_AT_bit_offset(0x05)
    3146                      .dwattr $C$DW$274, DW_AT_bit_size(0x01)
    3147                      .dwattr $C$DW$274, DW_AT_data_member_location[DW_OP_plus_uconst 0x0]
    3148                      .dwattr $C$DW$274, DW_AT_accessibility(DW_ACCESS_public)
    3149              
    3150              $C$DW$275       .dwtag  DW_TAG_member
    3151                      .dwattr $C$DW$275, DW_AT_type(*$C$DW$T$19)
    3152                      .dwattr $C$DW$275, DW_AT_name("GPIO43")
    3153                      .dwattr $C$DW$275, DW_AT_TI_symbol_name("_GPIO43")
    3154                      .dwattr $C$DW$275, DW_AT_bit_offset(0x04)
    3155                      .dwattr $C$DW$275, DW_AT_bit_size(0x01)
    3156                      .dwattr $C$DW$275, DW_AT_data_member_location[DW_OP_plus_uconst 0x0]
    3157                      .dwattr $C$DW$275, DW_AT_accessibility(DW_ACCESS_public)
    3158              
    3159              $C$DW$276       .dwtag  DW_TAG_member
    3160                      .dwattr $C$DW$276, DW_AT_type(*$C$DW$T$19)
    3161                      .dwattr $C$DW$276, DW_AT_name("GPIO44")
    3162                      .dwattr $C$DW$276, DW_AT_TI_symbol_name("_GPIO44")
    3163                      .dwattr $C$DW$276, DW_AT_bit_offset(0x03)
    3164                      .dwattr $C$DW$276, DW_AT_bit_size(0x01)
    3165                      .dwattr $C$DW$276, DW_AT_data_member_location[DW_OP_plus_uconst 0x0]
    3166                      .dwattr $C$DW$276, DW_AT_accessibility(DW_ACCESS_public)
    3167              
    3168              $C$DW$277       .dwtag  DW_TAG_member
    3169                      .dwattr $C$DW$277, DW_AT_type(*$C$DW$T$19)
    3170                      .dwattr $C$DW$277, DW_AT_name("rsvd1")
    3171                      .dwattr $C$DW$277, DW_AT_TI_symbol_name("_rsvd1")
    3172                      .dwattr $C$DW$277, DW_AT_bit_offset(0x00)
    3173                      .dwattr $C$DW$277, DW_AT_bit_size(0x03)
    3174                      .dwattr $C$DW$277, DW_AT_data_member_location[DW_OP_plus_uconst 0x0]
    3175                      .dwattr $C$DW$277, DW_AT_accessibility(DW_ACCESS_public)
    3176              
    3177              $C$DW$278       .dwtag  DW_TAG_member
    3178                      .dwattr $C$DW$278, DW_AT_type(*$C$DW$T$19)
    3179                      .dwattr $C$DW$278, DW_AT_name("rsvd2")
    3180                      .dwattr $C$DW$278, DW_AT_TI_symbol_name("_rsvd2")
    3181                      .dwattr $C$DW$278, DW_AT_bit_offset(0x00)
    3182                      .dwattr $C$DW$278, DW_AT_bit_size(0x10)
    3183                      .dwattr $C$DW$278, DW_AT_data_member_location[DW_OP_plus_uconst 0x1]
    3184                      .dwattr $C$DW$278, DW_AT_accessibility(DW_ACCESS_public)
    3185              
    3186                      .dwendtag $C$DW$T$58
    3187              
    3188              
    3189              $C$DW$T$59      .dwtag  DW_TAG_union_type
    3190                      .dwattr $C$DW$T$59, DW_AT_name("GPBDAT_REG")
TMS320C2000 Assembler PC v16.9.6 Tue Mar 06 18:34:40 2018

Tools Copyright (c) 1996-2017 Texas Instruments Incorporated
C:\Users\Admin\AppData\Local\Temp\{31C1AC2A-9DF2-49FD-82E3-4EC1724EAAB9} PAGE   61

    3191                      .dwattr $C$DW$T$59, DW_AT_byte_size(0x02)
    3192              $C$DW$279       .dwtag  DW_TAG_member
    3193                      .dwattr $C$DW$279, DW_AT_type(*$C$DW$T$23)
    3194                      .dwattr $C$DW$279, DW_AT_name("all")
    3195                      .dwattr $C$DW$279, DW_AT_TI_symbol_name("_all")
    3196                      .dwattr $C$DW$279, DW_AT_data_member_location[DW_OP_plus_uconst 0x0]
    3197                      .dwattr $C$DW$279, DW_AT_accessibility(DW_ACCESS_public)
    3198              
    3199              $C$DW$280       .dwtag  DW_TAG_member
    3200                      .dwattr $C$DW$280, DW_AT_type(*$C$DW$T$58)
    3201                      .dwattr $C$DW$280, DW_AT_name("bit")
    3202                      .dwattr $C$DW$280, DW_AT_TI_symbol_name("_bit")
    3203                      .dwattr $C$DW$280, DW_AT_data_member_location[DW_OP_plus_uconst 0x0]
    3204                      .dwattr $C$DW$280, DW_AT_accessibility(DW_ACCESS_public)
    3205              
    3206                      .dwendtag $C$DW$T$59
    3207              
    3208              
    3209              $C$DW$T$62      .dwtag  DW_TAG_structure_type
    3210                      .dwattr $C$DW$T$62, DW_AT_name("GPIO_CTRL_REGS")
    3211                      .dwattr $C$DW$T$62, DW_AT_byte_size(0x40)
    3212              $C$DW$281       .dwtag  DW_TAG_member
    3213                      .dwattr $C$DW$281, DW_AT_type(*$C$DW$T$51)
    3214                      .dwattr $C$DW$281, DW_AT_name("GPACTRL")
    3215                      .dwattr $C$DW$281, DW_AT_TI_symbol_name("_GPACTRL")
    3216                      .dwattr $C$DW$281, DW_AT_data_member_location[DW_OP_plus_uconst 0x0]
    3217                      .dwattr $C$DW$281, DW_AT_accessibility(DW_ACCESS_public)
    3218              
    3219              $C$DW$282       .dwtag  DW_TAG_member
    3220                      .dwattr $C$DW$282, DW_AT_type(*$C$DW$T$47)
    3221                      .dwattr $C$DW$282, DW_AT_name("GPAQSEL1")
    3222                      .dwattr $C$DW$282, DW_AT_TI_symbol_name("_GPAQSEL1")
    3223                      .dwattr $C$DW$282, DW_AT_data_member_location[DW_OP_plus_uconst 0x2]
    3224                      .dwattr $C$DW$282, DW_AT_accessibility(DW_ACCESS_public)
    3225              
    3226              $C$DW$283       .dwtag  DW_TAG_member
    3227                      .dwattr $C$DW$283, DW_AT_type(*$C$DW$T$49)
    3228                      .dwattr $C$DW$283, DW_AT_name("GPAQSEL2")
    3229                      .dwattr $C$DW$283, DW_AT_TI_symbol_name("_GPAQSEL2")
    3230                      .dwattr $C$DW$283, DW_AT_data_member_location[DW_OP_plus_uconst 0x4]
    3231                      .dwattr $C$DW$283, DW_AT_accessibility(DW_ACCESS_public)
    3232              
    3233              $C$DW$284       .dwtag  DW_TAG_member
    3234                      .dwattr $C$DW$284, DW_AT_type(*$C$DW$T$47)
    3235                      .dwattr $C$DW$284, DW_AT_name("GPAMUX1")
    3236                      .dwattr $C$DW$284, DW_AT_TI_symbol_name("_GPAMUX1")
    3237                      .dwattr $C$DW$284, DW_AT_data_member_location[DW_OP_plus_uconst 0x6]
    3238                      .dwattr $C$DW$284, DW_AT_accessibility(DW_ACCESS_public)
    3239              
    3240              $C$DW$285       .dwtag  DW_TAG_member
    3241                      .dwattr $C$DW$285, DW_AT_type(*$C$DW$T$49)
    3242                      .dwattr $C$DW$285, DW_AT_name("GPAMUX2")
    3243                      .dwattr $C$DW$285, DW_AT_TI_symbol_name("_GPAMUX2")
    3244                      .dwattr $C$DW$285, DW_AT_data_member_location[DW_OP_plus_uconst 0x8]
    3245                      .dwattr $C$DW$285, DW_AT_accessibility(DW_ACCESS_public)
TMS320C2000 Assembler PC v16.9.6 Tue Mar 06 18:34:40 2018

Tools Copyright (c) 1996-2017 Texas Instruments Incorporated
C:\Users\Admin\AppData\Local\Temp\{31C1AC2A-9DF2-49FD-82E3-4EC1724EAAB9} PAGE   62

    3246              
    3247              $C$DW$286       .dwtag  DW_TAG_member
    3248                      .dwattr $C$DW$286, DW_AT_type(*$C$DW$T$53)
    3249                      .dwattr $C$DW$286, DW_AT_name("GPADIR")
    3250                      .dwattr $C$DW$286, DW_AT_TI_symbol_name("_GPADIR")
    3251                      .dwattr $C$DW$286, DW_AT_data_member_location[DW_OP_plus_uconst 0xa]
    3252                      .dwattr $C$DW$286, DW_AT_accessibility(DW_ACCESS_public)
    3253              
    3254              $C$DW$287       .dwtag  DW_TAG_member
    3255                      .dwattr $C$DW$287, DW_AT_type(*$C$DW$T$53)
    3256                      .dwattr $C$DW$287, DW_AT_name("GPAPUD")
    3257                      .dwattr $C$DW$287, DW_AT_TI_symbol_name("_GPAPUD")
    3258                      .dwattr $C$DW$287, DW_AT_data_member_location[DW_OP_plus_uconst 0xc]
    3259                      .dwattr $C$DW$287, DW_AT_accessibility(DW_ACCESS_public)
    3260              
    3261              $C$DW$288       .dwtag  DW_TAG_member
    3262                      .dwattr $C$DW$288, DW_AT_type(*$C$DW$T$23)
    3263                      .dwattr $C$DW$288, DW_AT_name("rsvd1")
    3264                      .dwattr $C$DW$288, DW_AT_TI_symbol_name("_rsvd1")
    3265                      .dwattr $C$DW$288, DW_AT_data_member_location[DW_OP_plus_uconst 0xe]
    3266                      .dwattr $C$DW$288, DW_AT_accessibility(DW_ACCESS_public)
    3267              
    3268              $C$DW$289       .dwtag  DW_TAG_member
    3269                      .dwattr $C$DW$289, DW_AT_type(*$C$DW$T$57)
    3270                      .dwattr $C$DW$289, DW_AT_name("GPBCTRL")
    3271                      .dwattr $C$DW$289, DW_AT_TI_symbol_name("_GPBCTRL")
    3272                      .dwattr $C$DW$289, DW_AT_data_member_location[DW_OP_plus_uconst 0x10]
    3273                      .dwattr $C$DW$289, DW_AT_accessibility(DW_ACCESS_public)
    3274              
    3275              $C$DW$290       .dwtag  DW_TAG_member
    3276                      .dwattr $C$DW$290, DW_AT_type(*$C$DW$T$55)
    3277                      .dwattr $C$DW$290, DW_AT_name("GPBQSEL1")
    3278                      .dwattr $C$DW$290, DW_AT_TI_symbol_name("_GPBQSEL1")
    3279                      .dwattr $C$DW$290, DW_AT_data_member_location[DW_OP_plus_uconst 0x12]
    3280                      .dwattr $C$DW$290, DW_AT_accessibility(DW_ACCESS_public)
    3281              
    3282              $C$DW$291       .dwtag  DW_TAG_member
    3283                      .dwattr $C$DW$291, DW_AT_type(*$C$DW$T$23)
    3284                      .dwattr $C$DW$291, DW_AT_name("rsvd2")
    3285                      .dwattr $C$DW$291, DW_AT_TI_symbol_name("_rsvd2")
    3286                      .dwattr $C$DW$291, DW_AT_data_member_location[DW_OP_plus_uconst 0x14]
    3287                      .dwattr $C$DW$291, DW_AT_accessibility(DW_ACCESS_public)
    3288              
    3289              $C$DW$292       .dwtag  DW_TAG_member
    3290                      .dwattr $C$DW$292, DW_AT_type(*$C$DW$T$55)
    3291                      .dwattr $C$DW$292, DW_AT_name("GPBMUX1")
    3292                      .dwattr $C$DW$292, DW_AT_TI_symbol_name("_GPBMUX1")
    3293                      .dwattr $C$DW$292, DW_AT_data_member_location[DW_OP_plus_uconst 0x16]
    3294                      .dwattr $C$DW$292, DW_AT_accessibility(DW_ACCESS_public)
    3295              
    3296              $C$DW$293       .dwtag  DW_TAG_member
    3297                      .dwattr $C$DW$293, DW_AT_type(*$C$DW$T$23)
    3298                      .dwattr $C$DW$293, DW_AT_name("rsvd3")
    3299                      .dwattr $C$DW$293, DW_AT_TI_symbol_name("_rsvd3")
    3300                      .dwattr $C$DW$293, DW_AT_data_member_location[DW_OP_plus_uconst 0x18]
TMS320C2000 Assembler PC v16.9.6 Tue Mar 06 18:34:40 2018

Tools Copyright (c) 1996-2017 Texas Instruments Incorporated
C:\Users\Admin\AppData\Local\Temp\{31C1AC2A-9DF2-49FD-82E3-4EC1724EAAB9} PAGE   63

    3301                      .dwattr $C$DW$293, DW_AT_accessibility(DW_ACCESS_public)
    3302              
    3303              $C$DW$294       .dwtag  DW_TAG_member
    3304                      .dwattr $C$DW$294, DW_AT_type(*$C$DW$T$59)
    3305                      .dwattr $C$DW$294, DW_AT_name("GPBDIR")
    3306                      .dwattr $C$DW$294, DW_AT_TI_symbol_name("_GPBDIR")
    3307                      .dwattr $C$DW$294, DW_AT_data_member_location[DW_OP_plus_uconst 0x1a]
    3308                      .dwattr $C$DW$294, DW_AT_accessibility(DW_ACCESS_public)
    3309              
    3310              $C$DW$295       .dwtag  DW_TAG_member
    3311                      .dwattr $C$DW$295, DW_AT_type(*$C$DW$T$59)
    3312                      .dwattr $C$DW$295, DW_AT_name("GPBPUD")
    3313                      .dwattr $C$DW$295, DW_AT_TI_symbol_name("_GPBPUD")
    3314                      .dwattr $C$DW$295, DW_AT_data_member_location[DW_OP_plus_uconst 0x1c]
    3315                      .dwattr $C$DW$295, DW_AT_accessibility(DW_ACCESS_public)
    3316              
    3317              $C$DW$296       .dwtag  DW_TAG_member
    3318                      .dwattr $C$DW$296, DW_AT_type(*$C$DW$T$60)
    3319                      .dwattr $C$DW$296, DW_AT_name("rsvd4")
    3320                      .dwattr $C$DW$296, DW_AT_TI_symbol_name("_rsvd4")
    3321                      .dwattr $C$DW$296, DW_AT_data_member_location[DW_OP_plus_uconst 0x1e]
    3322                      .dwattr $C$DW$296, DW_AT_accessibility(DW_ACCESS_public)
    3323              
    3324              $C$DW$297       .dwtag  DW_TAG_member
    3325                      .dwattr $C$DW$297, DW_AT_type(*$C$DW$T$24)
    3326                      .dwattr $C$DW$297, DW_AT_name("AIOMUX1")
    3327                      .dwattr $C$DW$297, DW_AT_TI_symbol_name("_AIOMUX1")
    3328                      .dwattr $C$DW$297, DW_AT_data_member_location[DW_OP_plus_uconst 0x36]
    3329                      .dwattr $C$DW$297, DW_AT_accessibility(DW_ACCESS_public)
    3330              
    3331              $C$DW$298       .dwtag  DW_TAG_member
    3332                      .dwattr $C$DW$298, DW_AT_type(*$C$DW$T$23)
    3333                      .dwattr $C$DW$298, DW_AT_name("rsvd5")
    3334                      .dwattr $C$DW$298, DW_AT_TI_symbol_name("_rsvd5")
    3335                      .dwattr $C$DW$298, DW_AT_data_member_location[DW_OP_plus_uconst 0x38]
    3336                      .dwattr $C$DW$298, DW_AT_accessibility(DW_ACCESS_public)
    3337              
    3338              $C$DW$299       .dwtag  DW_TAG_member
    3339                      .dwattr $C$DW$299, DW_AT_type(*$C$DW$T$21)
    3340                      .dwattr $C$DW$299, DW_AT_name("AIODIR")
    3341                      .dwattr $C$DW$299, DW_AT_TI_symbol_name("_AIODIR")
    3342                      .dwattr $C$DW$299, DW_AT_data_member_location[DW_OP_plus_uconst 0x3a]
    3343                      .dwattr $C$DW$299, DW_AT_accessibility(DW_ACCESS_public)
    3344              
    3345              $C$DW$300       .dwtag  DW_TAG_member
    3346                      .dwattr $C$DW$300, DW_AT_type(*$C$DW$T$61)
    3347                      .dwattr $C$DW$300, DW_AT_name("rsvd6")
    3348                      .dwattr $C$DW$300, DW_AT_TI_symbol_name("_rsvd6")
    3349                      .dwattr $C$DW$300, DW_AT_data_member_location[DW_OP_plus_uconst 0x3b]
    3350                      .dwattr $C$DW$300, DW_AT_accessibility(DW_ACCESS_public)
    3351              
    3352                      .dwendtag $C$DW$T$62
    3353              
    3354              $C$DW$301       .dwtag  DW_TAG_TI_far_type
    3355                      .dwattr $C$DW$301, DW_AT_type(*$C$DW$T$62)
TMS320C2000 Assembler PC v16.9.6 Tue Mar 06 18:34:40 2018

Tools Copyright (c) 1996-2017 Texas Instruments Incorporated
C:\Users\Admin\AppData\Local\Temp\{31C1AC2A-9DF2-49FD-82E3-4EC1724EAAB9} PAGE   64

    3356              
    3357              $C$DW$T$106     .dwtag  DW_TAG_volatile_type
    3358                      .dwattr $C$DW$T$106, DW_AT_type(*$C$DW$301)
    3359              
    3360              
    3361              $C$DW$T$63      .dwtag  DW_TAG_structure_type
    3362                      .dwattr $C$DW$T$63, DW_AT_name("INTOSC1TRIM_BITS")
    3363                      .dwattr $C$DW$T$63, DW_AT_byte_size(0x01)
    3364              $C$DW$302       .dwtag  DW_TAG_member
    3365                      .dwattr $C$DW$302, DW_AT_type(*$C$DW$T$19)
    3366                      .dwattr $C$DW$302, DW_AT_name("COARSETRIM")
    3367                      .dwattr $C$DW$302, DW_AT_TI_symbol_name("_COARSETRIM")
    3368                      .dwattr $C$DW$302, DW_AT_bit_offset(0x08)
    3369                      .dwattr $C$DW$302, DW_AT_bit_size(0x08)
    3370                      .dwattr $C$DW$302, DW_AT_data_member_location[DW_OP_plus_uconst 0x0]
    3371                      .dwattr $C$DW$302, DW_AT_accessibility(DW_ACCESS_public)
    3372              
    3373              $C$DW$303       .dwtag  DW_TAG_member
    3374                      .dwattr $C$DW$303, DW_AT_type(*$C$DW$T$19)
    3375                      .dwattr $C$DW$303, DW_AT_name("rsvd1")
    3376                      .dwattr $C$DW$303, DW_AT_TI_symbol_name("_rsvd1")
    3377                      .dwattr $C$DW$303, DW_AT_bit_offset(0x07)
    3378                      .dwattr $C$DW$303, DW_AT_bit_size(0x01)
    3379                      .dwattr $C$DW$303, DW_AT_data_member_location[DW_OP_plus_uconst 0x0]
    3380                      .dwattr $C$DW$303, DW_AT_accessibility(DW_ACCESS_public)
    3381              
    3382              $C$DW$304       .dwtag  DW_TAG_member
    3383                      .dwattr $C$DW$304, DW_AT_type(*$C$DW$T$19)
    3384                      .dwattr $C$DW$304, DW_AT_name("FINETRIM")
    3385                      .dwattr $C$DW$304, DW_AT_TI_symbol_name("_FINETRIM")
    3386                      .dwattr $C$DW$304, DW_AT_bit_offset(0x01)
    3387                      .dwattr $C$DW$304, DW_AT_bit_size(0x06)
    3388                      .dwattr $C$DW$304, DW_AT_data_member_location[DW_OP_plus_uconst 0x0]
    3389                      .dwattr $C$DW$304, DW_AT_accessibility(DW_ACCESS_public)
    3390              
    3391              $C$DW$305       .dwtag  DW_TAG_member
    3392                      .dwattr $C$DW$305, DW_AT_type(*$C$DW$T$19)
    3393                      .dwattr $C$DW$305, DW_AT_name("rsvd2")
    3394                      .dwattr $C$DW$305, DW_AT_TI_symbol_name("_rsvd2")
    3395                      .dwattr $C$DW$305, DW_AT_bit_offset(0x00)
    3396                      .dwattr $C$DW$305, DW_AT_bit_size(0x01)
    3397                      .dwattr $C$DW$305, DW_AT_data_member_location[DW_OP_plus_uconst 0x0]
    3398                      .dwattr $C$DW$305, DW_AT_accessibility(DW_ACCESS_public)
    3399              
