TMS320C2000 Assembler PC v6.4.12 Thu Nov 16 10:01:32 2017

Tools Copyright (c) 1996-2017 Texas Instruments Incorporated
C:\Users\Admin\AppData\Local\Temp\0610810                            PAGE    1

       1              ;***************************************************************
       2              ;* TMS320C2000 C/C++ Codegen                        PC v6.4.12 *
       3              ;* Date/Time created: Thu Nov 16 10:01:32 2017                 *
       4              ;***************************************************************
       5                      .compiler_opts --cla_support=cla0 --diag_wrap=off --float_support=softlib --hll_source=on --mem_model
       6        0002  FP      .set    XAR2
       7              
       8              $C$DW$CU        .dwtag  DW_TAG_compile_unit
       9                      .dwattr $C$DW$CU, DW_AT_name("../source/DSP2803x_SWPrioritizedDefaultIsr.c")
      10                      .dwattr $C$DW$CU, DW_AT_producer("TI TMS320C2000 C/C++ Codegen PC v6.4.12 Copyright (c) 1996-2017 Tex
      11                      .dwattr $C$DW$CU, DW_AT_TI_version(0x01)
      12                      .dwattr $C$DW$CU, DW_AT_comp_dir("D:\TI_CCS_Workspace\EPWMSync\KT1205_MGI_V8.5_REVC_MASTER_GPRS_17111
      13              $C$DW$1 .dwtag  DW_TAG_variable, DW_AT_name("PieCtrlRegs")
      14                      .dwattr $C$DW$1, DW_AT_TI_symbol_name("_PieCtrlRegs")
      15                      .dwattr $C$DW$1, DW_AT_type(*$C$DW$T$31)
      16                      .dwattr $C$DW$1, DW_AT_declaration
      17                      .dwattr $C$DW$1, DW_AT_external
      18              ;       C:\ti\ccsv6\tools\compiler\ti-cgt-c2000_6.4.12\bin\opt2000.exe C:\\Users\\Admin\\AppData\\Local\\Temp
      19              ;       C:\ti\ccsv6\tools\compiler\ti-cgt-c2000_6.4.12\bin\ac2000.exe -@C:\\Users\\Admin\\AppData\\Local\\Tem
      20 00000000               .sect   ".text:retain"
      21                      .retain
      22                      .retainrefs
      23                      .global _rsvd_ISR
      24              
      25              $C$DW$2 .dwtag  DW_TAG_subprogram, DW_AT_name("rsvd_ISR")
      26                      .dwattr $C$DW$2, DW_AT_low_pc(_rsvd_ISR)
      27                      .dwattr $C$DW$2, DW_AT_high_pc(0x00)
      28                      .dwattr $C$DW$2, DW_AT_TI_symbol_name("_rsvd_ISR")
      29                      .dwattr $C$DW$2, DW_AT_external
      30                      .dwattr $C$DW$2, DW_AT_TI_begin_file("../source/DSP2803x_SWPrioritizedDefaultIsr.c")
      31                      .dwattr $C$DW$2, DW_AT_TI_begin_line(0x69a)
      32                      .dwattr $C$DW$2, DW_AT_TI_begin_column(0x12)
      33                      .dwattr $C$DW$2, DW_AT_TI_interrupt
      34                      .dwattr $C$DW$2, DW_AT_TI_max_frame_size(-2)
      35                      .dwpsn  file "../source/DSP2803x_SWPrioritizedDefaultIsr.c",line 1691,column 1,is_stmt,address _rsvd_
      36              
      37                      .dwfde $C$DW$CIE, _rsvd_ISR
      38              
      39              ;***************************************************************
      40              ;* FNAME: _rsvd_ISR                     FR SIZE:   0           *
      41              ;*                                                             *
      42              ;* FUNCTION ENVIRONMENT                                        *
      43              ;*                                                             *
      44              ;* FUNCTION PROPERTIES                                         *
      45              ;*                            0 Parameter,  0 Auto,  0 SOE     *
      46              ;***************************************************************
      47              
      48 00000000       _rsvd_ISR:
      49                      .dwcfi  cfa_offset, -2
      50                      .dwcfi  save_reg_to_mem, 26, 0
      51 00000000 761B          ASP       ; [CPU_] 
      52 00000001 2942          CLRC      PAGE0,OVM             ; [CPU_] 
      53 00000002 5616          CLRC      AMODE                 ; [CPU_] 
      54 00000003 7625        ESTOP0
      55 00000004       $C$L1:    
TMS320C2000 Assembler PC v6.4.12 Thu Nov 16 10:01:32 2017

Tools Copyright (c) 1996-2017 Texas Instruments Incorporated
C:\Users\Admin\AppData\Local\Temp\0610810                            PAGE    2

      56                      .dwpsn  file "../source/DSP2803x_SWPrioritizedDefaultIsr.c",line 1693,column 3,is_stmt,isa 0
      57 00000004 6F00          B         $C$L1,UNC             ; [CPU_] |1693| 
      58                      ; branch occurs ; [] |1693| 
      59                      .dwattr $C$DW$2, DW_AT_TI_end_file("../source/DSP2803x_SWPrioritizedDefaultIsr.c")
      60                      .dwattr $C$DW$2, DW_AT_TI_end_line(0x69e)
      61                      .dwattr $C$DW$2, DW_AT_TI_end_column(0x01)
      62                      .dwendentry
      63                      .dwendtag $C$DW$2
      64              
      65 00000005               .sect   ".text:retain"
      66                      .retain
      67                      .retainrefs
      68                      .global _XINT3_ISR
      69              
      70              $C$DW$3 .dwtag  DW_TAG_subprogram, DW_AT_name("XINT3_ISR")
      71                      .dwattr $C$DW$3, DW_AT_low_pc(_XINT3_ISR)
      72                      .dwattr $C$DW$3, DW_AT_high_pc(0x00)
      73                      .dwattr $C$DW$3, DW_AT_TI_symbol_name("_XINT3_ISR")
      74                      .dwattr $C$DW$3, DW_AT_external
      75                      .dwattr $C$DW$3, DW_AT_TI_begin_file("../source/DSP2803x_SWPrioritizedDefaultIsr.c")
      76                      .dwattr $C$DW$3, DW_AT_TI_begin_line(0x63d)
      77                      .dwattr $C$DW$3, DW_AT_TI_begin_column(0x12)
      78                      .dwattr $C$DW$3, DW_AT_TI_interrupt
      79                      .dwattr $C$DW$3, DW_AT_TI_max_frame_size(-4)
      80                      .dwpsn  file "../source/DSP2803x_SWPrioritizedDefaultIsr.c",line 1598,column 1,is_stmt,address _XINT3
      81              
      82                      .dwfde $C$DW$CIE, _XINT3_ISR
      83              
      84              ;***************************************************************
      85              ;* FNAME: _XINT3_ISR                    FR SIZE:   2           *
      86              ;*                                                             *
      87              ;* FUNCTION ENVIRONMENT                                        *
      88              ;*                                                             *
      89              ;* FUNCTION PROPERTIES                                         *
      90              ;*                            0 Parameter,  1 Auto,  0 SOE     *
      91              ;***************************************************************
      92              
      93              _XINT3_ISR:
      94              $C$DW$4 .dwtag  DW_TAG_variable, DW_AT_name("TempPIEIER")
      95                      .dwattr $C$DW$4, DW_AT_TI_symbol_name("_TempPIEIER")
      96                      .dwattr $C$DW$4, DW_AT_type(*$C$DW$T$33)
      97                      .dwattr $C$DW$4, DW_AT_location[DW_OP_breg20 -1]
      98                      .dwcfi  cfa_offset, -2
      99                      .dwcfi  save_reg_to_mem, 26, 0
     100 00000005 761B          ASP       ; [CPU_] 
     101 00000006 FE02          ADDB      SP,#2                 ; [CPU_U] 
     102                      .dwcfi  cfa_offset, -4
     103 00000007 2942          CLRC      PAGE0,OVM             ; [CPU_] 
     104 00000008 5616          CLRC      AMODE                 ; [CPU_] 
     105 00000009 761F!         MOVW      DP,#_PieCtrlRegs+24   ; [CPU_U] 
         0000000a 0000 
     106                      .dwpsn  file "../source/DSP2803x_SWPrioritizedDefaultIsr.c",line 1600,column 29,is_stmt,isa 0
     107 0000000b 9218!         MOV       AL,@_PieCtrlRegs+24   ; [CPU_] |1600| 
     108 0000000c 9641          MOV       *-SP[1],AL            ; [CPU_] |1600| 
     109                      .dwpsn  file "../source/DSP2803x_SWPrioritizedDefaultIsr.c",line 1601,column 2,is_stmt,isa 0
TMS320C2000 Assembler PC v6.4.12 Thu Nov 16 10:01:32 2017

Tools Copyright (c) 1996-2017 Texas Instruments Incorporated
C:\Users\Admin\AppData\Local\Temp\0610810                            PAGE    3

     110 0000000d 7623          OR        IER,#0x0800           ; [CPU_] |1601| 
         0000000e 0800 
     111                      .dwpsn  file "../source/DSP2803x_SWPrioritizedDefaultIsr.c",line 1602,column 2,is_stmt,isa 0
     112 0000000f 7626          AND       IER,#0xffbf           ; [CPU_] |1602| 
         00000010 FFBF 
     113                      .dwpsn  file "../source/DSP2803x_SWPrioritizedDefaultIsr.c",line 1603,column 2,is_stmt,isa 0
     114 00000011 9218!         MOV       AL,@_PieCtrlRegs+24   ; [CPU_] |1603| 
     115 00000012 2B18!         MOV       @_PieCtrlRegs+24,#0   ; [CPU_] |1603| 
     116                      .dwpsn  file "../source/DSP2803x_SWPrioritizedDefaultIsr.c",line 1604,column 2,is_stmt,isa 0
     117 00000013 2801!         MOV       @_PieCtrlRegs+1,#65535 ; [CPU_] |1604| 
         00000014 FFFF 
     118 00000015 2910   clrc INTM
     119 00000016 3B10   setc INTM
     120                      .dwpsn  file "../source/DSP2803x_SWPrioritizedDefaultIsr.c",line 1611,column 2,is_stmt,isa 0
     121 00000017 9241          MOV       AL,*-SP[1]            ; [CPU_] |1611| 
     122 00000018 9618!         MOV       @_PieCtrlRegs+24,AL   ; [CPU_] |1611| 
     123 00000019 7625        ESTOP0
     124 0000001a       $C$L2:    
     125                      .dwpsn  file "../source/DSP2803x_SWPrioritizedDefaultIsr.c",line 1616,column 5,is_stmt,isa 0
     126 0000001a 6F00          B         $C$L2,UNC             ; [CPU_] |1616| 
     127                      ; branch occurs ; [] |1616| 
     128                      .dwattr $C$DW$3, DW_AT_TI_end_file("../source/DSP2803x_SWPrioritizedDefaultIsr.c")
     129                      .dwattr $C$DW$3, DW_AT_TI_end_line(0x652)
     130                      .dwattr $C$DW$3, DW_AT_TI_end_column(0x01)
     131                      .dwendentry
     132                      .dwendtag $C$DW$3
     133              
     134 0000001b               .sect   ".text:retain"
     135                      .retain
     136                      .retainrefs
     137                      .global _XINT2_ISR
     138              
     139              $C$DW$5 .dwtag  DW_TAG_subprogram, DW_AT_name("XINT2_ISR")
     140                      .dwattr $C$DW$5, DW_AT_low_pc(_XINT2_ISR)
     141                      .dwattr $C$DW$5, DW_AT_high_pc(0x00)
     142                      .dwattr $C$DW$5, DW_AT_TI_symbol_name("_XINT2_ISR")
     143                      .dwattr $C$DW$5, DW_AT_external
     144                      .dwattr $C$DW$5, DW_AT_TI_begin_file("../source/DSP2803x_SWPrioritizedDefaultIsr.c")
     145                      .dwattr $C$DW$5, DW_AT_TI_begin_line(0x15a)
     146                      .dwattr $C$DW$5, DW_AT_TI_begin_column(0x13)
     147                      .dwattr $C$DW$5, DW_AT_TI_interrupt
     148                      .dwattr $C$DW$5, DW_AT_TI_max_frame_size(-4)
     149                      .dwpsn  file "../source/DSP2803x_SWPrioritizedDefaultIsr.c",line 347,column 1,is_stmt,address _XINT2_
     150              
     151                      .dwfde $C$DW$CIE, _XINT2_ISR
     152              
     153              ;***************************************************************
     154              ;* FNAME: _XINT2_ISR                    FR SIZE:   2           *
     155              ;*                                                             *
     156              ;* FUNCTION ENVIRONMENT                                        *
     157              ;*                                                             *
     158              ;* FUNCTION PROPERTIES                                         *
     159              ;*                            0 Parameter,  1 Auto,  0 SOE     *
     160              ;***************************************************************
     161              
TMS320C2000 Assembler PC v6.4.12 Thu Nov 16 10:01:32 2017

Tools Copyright (c) 1996-2017 Texas Instruments Incorporated
C:\Users\Admin\AppData\Local\Temp\0610810                            PAGE    4

     162              _XINT2_ISR:
     163              $C$DW$6 .dwtag  DW_TAG_variable, DW_AT_name("TempPIEIER")
     164                      .dwattr $C$DW$6, DW_AT_TI_symbol_name("_TempPIEIER")
     165                      .dwattr $C$DW$6, DW_AT_type(*$C$DW$T$33)
     166                      .dwattr $C$DW$6, DW_AT_location[DW_OP_breg20 -1]
     167                      .dwcfi  cfa_offset, -2
     168                      .dwcfi  save_reg_to_mem, 26, 0
     169 0000001b 761B          ASP       ; [CPU_] 
     170 0000001c FE02          ADDB      SP,#2                 ; [CPU_U] 
     171                      .dwcfi  cfa_offset, -4
     172 0000001d 2942          CLRC      PAGE0,OVM             ; [CPU_] 
     173 0000001e 5616          CLRC      AMODE                 ; [CPU_] 
     174 0000001f 761F!         MOVW      DP,#_PieCtrlRegs+2    ; [CPU_U] 
         00000020 0000 
     175                      .dwpsn  file "../source/DSP2803x_SWPrioritizedDefaultIsr.c",line 349,column 29,is_stmt,isa 0
     176 00000021 9202!         MOV       AL,@_PieCtrlRegs+2    ; [CPU_] |349| 
     177 00000022 9641          MOV       *-SP[1],AL            ; [CPU_] |349| 
     178                      .dwpsn  file "../source/DSP2803x_SWPrioritizedDefaultIsr.c",line 350,column 2,is_stmt,isa 0
     179 00000023 7623          OR        IER,#0x0003           ; [CPU_] |350| 
         00000024 0003 
     180                      .dwpsn  file "../source/DSP2803x_SWPrioritizedDefaultIsr.c",line 351,column 2,is_stmt,isa 0
     181 00000025 1802!         AND       @_PieCtrlRegs+2,#0x0068 ; [CPU_] |351| 
         00000026 0068 
     182                      .dwpsn  file "../source/DSP2803x_SWPrioritizedDefaultIsr.c",line 352,column 2,is_stmt,isa 0
     183 00000027 2801!         MOV       @_PieCtrlRegs+1,#65535 ; [CPU_] |352| 
         00000028 FFFF 
     184 00000029 2910   clrc INTM
     185 0000002a 3B10   setc INTM
     186                      .dwpsn  file "../source/DSP2803x_SWPrioritizedDefaultIsr.c",line 359,column 2,is_stmt,isa 0
     187 0000002b 9241          MOV       AL,*-SP[1]            ; [CPU_] |359| 
     188 0000002c 9602!         MOV       @_PieCtrlRegs+2,AL    ; [CPU_] |359| 
     189 0000002d 7625        ESTOP0
     190 0000002e       $C$L3:    
     191                      .dwpsn  file "../source/DSP2803x_SWPrioritizedDefaultIsr.c",line 364,column 5,is_stmt,isa 0
     192 0000002e 6F00          B         $C$L3,UNC             ; [CPU_] |364| 
     193                      ; branch occurs ; [] |364| 
     194                      .dwattr $C$DW$5, DW_AT_TI_end_file("../source/DSP2803x_SWPrioritizedDefaultIsr.c")
     195                      .dwattr $C$DW$5, DW_AT_TI_end_line(0x16d)
     196                      .dwattr $C$DW$5, DW_AT_TI_end_column(0x01)
     197                      .dwendentry
     198                      .dwendtag $C$DW$5
     199              
     200 0000002f               .sect   ".text:retain"
     201                      .retain
     202                      .retainrefs
     203                      .global _XINT1_ISR
     204              
     205              $C$DW$7 .dwtag  DW_TAG_subprogram, DW_AT_name("XINT1_ISR")
     206                      .dwattr $C$DW$7, DW_AT_low_pc(_XINT1_ISR)
     207                      .dwattr $C$DW$7, DW_AT_high_pc(0x00)
     208                      .dwattr $C$DW$7, DW_AT_TI_symbol_name("_XINT1_ISR")
     209                      .dwattr $C$DW$7, DW_AT_external
     210                      .dwattr $C$DW$7, DW_AT_TI_begin_file("../source/DSP2803x_SWPrioritizedDefaultIsr.c")
     211                      .dwattr $C$DW$7, DW_AT_TI_begin_line(0x144)
     212                      .dwattr $C$DW$7, DW_AT_TI_begin_column(0x13)
TMS320C2000 Assembler PC v6.4.12 Thu Nov 16 10:01:32 2017

Tools Copyright (c) 1996-2017 Texas Instruments Incorporated
C:\Users\Admin\AppData\Local\Temp\0610810                            PAGE    5

     213                      .dwattr $C$DW$7, DW_AT_TI_interrupt
     214                      .dwattr $C$DW$7, DW_AT_TI_max_frame_size(-4)
     215                      .dwpsn  file "../source/DSP2803x_SWPrioritizedDefaultIsr.c",line 325,column 1,is_stmt,address _XINT1_
     216              
     217                      .dwfde $C$DW$CIE, _XINT1_ISR
     218              
     219              ;***************************************************************
     220              ;* FNAME: _XINT1_ISR                    FR SIZE:   2           *
     221              ;*                                                             *
     222              ;* FUNCTION ENVIRONMENT                                        *
     223              ;*                                                             *
     224              ;* FUNCTION PROPERTIES                                         *
     225              ;*                            0 Parameter,  1 Auto,  0 SOE     *
     226              ;***************************************************************
     227              
     228              _XINT1_ISR:
     229              $C$DW$8 .dwtag  DW_TAG_variable, DW_AT_name("TempPIEIER")
     230                      .dwattr $C$DW$8, DW_AT_TI_symbol_name("_TempPIEIER")
     231                      .dwattr $C$DW$8, DW_AT_type(*$C$DW$T$33)
     232                      .dwattr $C$DW$8, DW_AT_location[DW_OP_breg20 -1]
     233                      .dwcfi  cfa_offset, -2
     234                      .dwcfi  save_reg_to_mem, 26, 0
     235 0000002f 761B          ASP       ; [CPU_] 
     236 00000030 FE02          ADDB      SP,#2                 ; [CPU_U] 
     237                      .dwcfi  cfa_offset, -4
     238 00000031 2942          CLRC      PAGE0,OVM             ; [CPU_] 
     239 00000032 5616          CLRC      AMODE                 ; [CPU_] 
     240 00000033 761F!         MOVW      DP,#_PieCtrlRegs+2    ; [CPU_U] 
         00000034 0000 
     241                      .dwpsn  file "../source/DSP2803x_SWPrioritizedDefaultIsr.c",line 327,column 29,is_stmt,isa 0
     242 00000035 9202!         MOV       AL,@_PieCtrlRegs+2    ; [CPU_] |327| 
     243 00000036 9641          MOV       *-SP[1],AL            ; [CPU_] |327| 
     244                      .dwpsn  file "../source/DSP2803x_SWPrioritizedDefaultIsr.c",line 328,column 2,is_stmt,isa 0
     245 00000037 7623          OR        IER,#0x0003           ; [CPU_] |328| 
         00000038 0003 
     246                      .dwpsn  file "../source/DSP2803x_SWPrioritizedDefaultIsr.c",line 329,column 2,is_stmt,isa 0
     247 00000039 9202!         MOV       AL,@_PieCtrlRegs+2    ; [CPU_] |329| 
     248 0000003a 2B02!         MOV       @_PieCtrlRegs+2,#0    ; [CPU_] |329| 
     249                      .dwpsn  file "../source/DSP2803x_SWPrioritizedDefaultIsr.c",line 330,column 2,is_stmt,isa 0
     250 0000003b 2801!         MOV       @_PieCtrlRegs+1,#65535 ; [CPU_] |330| 
         0000003c FFFF 
     251 0000003d 2910   clrc INTM
     252 0000003e 3B10   setc INTM
     253                      .dwpsn  file "../source/DSP2803x_SWPrioritizedDefaultIsr.c",line 335,column 2,is_stmt,isa 0
     254 0000003f 9241          MOV       AL,*-SP[1]            ; [CPU_] |335| 
     255 00000040 9602!         MOV       @_PieCtrlRegs+2,AL    ; [CPU_] |335| 
     256 00000041 7625        ESTOP0
     257 00000042       $C$L4:    
     258                      .dwpsn  file "../source/DSP2803x_SWPrioritizedDefaultIsr.c",line 340,column 5,is_stmt,isa 0
     259 00000042 6F00          B         $C$L4,UNC             ; [CPU_] |340| 
     260                      ; branch occurs ; [] |340| 
     261                      .dwattr $C$DW$7, DW_AT_TI_end_file("../source/DSP2803x_SWPrioritizedDefaultIsr.c")
     262                      .dwattr $C$DW$7, DW_AT_TI_end_line(0x155)
     263                      .dwattr $C$DW$7, DW_AT_TI_end_column(0x01)
     264                      .dwendentry
TMS320C2000 Assembler PC v6.4.12 Thu Nov 16 10:01:32 2017

Tools Copyright (c) 1996-2017 Texas Instruments Incorporated
C:\Users\Admin\AppData\Local\Temp\0610810                            PAGE    6

     265                      .dwendtag $C$DW$7
     266              
     267 00000043               .sect   ".text:retain"
     268                      .retain
     269                      .retainrefs
     270                      .global _WAKEINT_ISR
     271              
     272              $C$DW$9 .dwtag  DW_TAG_subprogram, DW_AT_name("WAKEINT_ISR")
     273                      .dwattr $C$DW$9, DW_AT_low_pc(_WAKEINT_ISR)
     274                      .dwattr $C$DW$9, DW_AT_high_pc(0x00)
     275                      .dwattr $C$DW$9, DW_AT_TI_symbol_name("_WAKEINT_ISR")
     276                      .dwattr $C$DW$9, DW_AT_external
     277                      .dwattr $C$DW$9, DW_AT_TI_begin_file("../source/DSP2803x_SWPrioritizedDefaultIsr.c")
     278                      .dwattr $C$DW$9, DW_AT_TI_begin_line(0x1a5)
     279                      .dwattr $C$DW$9, DW_AT_TI_begin_column(0x13)
     280                      .dwattr $C$DW$9, DW_AT_TI_interrupt
     281                      .dwattr $C$DW$9, DW_AT_TI_max_frame_size(-4)
     282                      .dwpsn  file "../source/DSP2803x_SWPrioritizedDefaultIsr.c",line 422,column 1,is_stmt,address _WAKEIN
     283              
     284                      .dwfde $C$DW$CIE, _WAKEINT_ISR
     285              
     286              ;***************************************************************
     287              ;* FNAME: _WAKEINT_ISR                  FR SIZE:   2           *
     288              ;*                                                             *
     289              ;* FUNCTION ENVIRONMENT                                        *
     290              ;*                                                             *
     291              ;* FUNCTION PROPERTIES                                         *
     292              ;*                            0 Parameter,  1 Auto,  0 SOE     *
     293              ;***************************************************************
     294              
     295              _WAKEINT_ISR:
     296              $C$DW$10        .dwtag  DW_TAG_variable, DW_AT_name("TempPIEIER")
     297                      .dwattr $C$DW$10, DW_AT_TI_symbol_name("_TempPIEIER")
     298                      .dwattr $C$DW$10, DW_AT_type(*$C$DW$T$33)
     299                      .dwattr $C$DW$10, DW_AT_location[DW_OP_breg20 -1]
     300                      .dwcfi  cfa_offset, -2
     301                      .dwcfi  save_reg_to_mem, 26, 0
     302 00000043 761B          ASP       ; [CPU_] 
     303 00000044 FE02          ADDB      SP,#2                 ; [CPU_U] 
     304                      .dwcfi  cfa_offset, -4
     305 00000045 2942          CLRC      PAGE0,OVM             ; [CPU_] 
     306 00000046 5616          CLRC      AMODE                 ; [CPU_] 
     307 00000047 761F!         MOVW      DP,#_PieCtrlRegs+2    ; [CPU_U] 
         00000048 0000 
     308                      .dwpsn  file "../source/DSP2803x_SWPrioritizedDefaultIsr.c",line 424,column 29,is_stmt,isa 0
     309 00000049 9202!         MOV       AL,@_PieCtrlRegs+2    ; [CPU_] |424| 
     310 0000004a 9641          MOV       *-SP[1],AL            ; [CPU_] |424| 
     311                      .dwpsn  file "../source/DSP2803x_SWPrioritizedDefaultIsr.c",line 425,column 2,is_stmt,isa 0
     312 0000004b 7623          OR        IER,#0x0001           ; [CPU_] |425| 
         0000004c 0001 
     313                      .dwpsn  file "../source/DSP2803x_SWPrioritizedDefaultIsr.c",line 426,column 2,is_stmt,isa 0
     314 0000004d 7626          AND       IER,#0x0003           ; [CPU_] |426| 
         0000004e 0003 
     315                      .dwpsn  file "../source/DSP2803x_SWPrioritizedDefaultIsr.c",line 427,column 2,is_stmt,isa 0
     316 0000004f 1802!         AND       @_PieCtrlRegs+2,#0x0078 ; [CPU_] |427| 
TMS320C2000 Assembler PC v6.4.12 Thu Nov 16 10:01:32 2017

Tools Copyright (c) 1996-2017 Texas Instruments Incorporated
C:\Users\Admin\AppData\Local\Temp\0610810                            PAGE    7

         00000050 0078 
     317                      .dwpsn  file "../source/DSP2803x_SWPrioritizedDefaultIsr.c",line 428,column 2,is_stmt,isa 0
     318 00000051 2801!         MOV       @_PieCtrlRegs+1,#65535 ; [CPU_] |428| 
         00000052 FFFF 
     319 00000053 2910   clrc INTM
     320 00000054 3B10   setc INTM
     321                      .dwpsn  file "../source/DSP2803x_SWPrioritizedDefaultIsr.c",line 435,column 2,is_stmt,isa 0
     322 00000055 9241          MOV       AL,*-SP[1]            ; [CPU_] |435| 
     323 00000056 9602!         MOV       @_PieCtrlRegs+2,AL    ; [CPU_] |435| 
     324 00000057 7625        ESTOP0
     325 00000058       $C$L5:    
     326                      .dwpsn  file "../source/DSP2803x_SWPrioritizedDefaultIsr.c",line 440,column 5,is_stmt,isa 0
     327 00000058 6F00          B         $C$L5,UNC             ; [CPU_] |440| 
     328                      ; branch occurs ; [] |440| 
     329                      .dwattr $C$DW$9, DW_AT_TI_end_file("../source/DSP2803x_SWPrioritizedDefaultIsr.c")
     330                      .dwattr $C$DW$9, DW_AT_TI_end_line(0x1b9)
     331                      .dwattr $C$DW$9, DW_AT_TI_end_column(0x01)
     332                      .dwendentry
     333                      .dwendtag $C$DW$9
     334              
     335 00000059               .sect   ".text:retain"
     336                      .retain
     337                      .retainrefs
     338                      .global _USER9_ISR
     339              
     340              $C$DW$11        .dwtag  DW_TAG_subprogram, DW_AT_name("USER9_ISR")
     341                      .dwattr $C$DW$11, DW_AT_low_pc(_USER9_ISR)
     342                      .dwattr $C$DW$11, DW_AT_high_pc(0x00)
     343                      .dwattr $C$DW$11, DW_AT_TI_symbol_name("_USER9_ISR")
     344                      .dwattr $C$DW$11, DW_AT_external
     345                      .dwattr $C$DW$11, DW_AT_TI_begin_file("../source/DSP2803x_SWPrioritizedDefaultIsr.c")
     346                      .dwattr $C$DW$11, DW_AT_TI_begin_line(0xda)
     347                      .dwattr $C$DW$11, DW_AT_TI_begin_column(0x12)
     348                      .dwattr $C$DW$11, DW_AT_TI_interrupt
     349                      .dwattr $C$DW$11, DW_AT_TI_max_frame_size(-2)
     350                      .dwpsn  file "../source/DSP2803x_SWPrioritizedDefaultIsr.c",line 219,column 1,is_stmt,address _USER9_
     351              
     352                      .dwfde $C$DW$CIE, _USER9_ISR
     353              
     354              ;***************************************************************
     355              ;* FNAME: _USER9_ISR                    FR SIZE:   0           *
     356              ;*                                                             *
     357              ;* FUNCTION ENVIRONMENT                                        *
     358              ;*                                                             *
     359              ;* FUNCTION PROPERTIES                                         *
     360              ;*                            0 Parameter,  0 Auto,  0 SOE     *
     361              ;***************************************************************
     362              
     363 00000059       _USER9_ISR:
     364                      .dwcfi  cfa_offset, -2
     365                      .dwcfi  save_reg_to_mem, 26, 0
     366 00000059 761B          ASP       ; [CPU_] 
     367 0000005a 2942          CLRC      PAGE0,OVM             ; [CPU_] 
     368 0000005b 5616          CLRC      AMODE                 ; [CPU_] 
     369 0000005c 2910   clrc INTM
TMS320C2000 Assembler PC v6.4.12 Thu Nov 16 10:01:32 2017

Tools Copyright (c) 1996-2017 Texas Instruments Incorporated
C:\Users\Admin\AppData\Local\Temp\0610810                            PAGE    8

     370 0000005d 7625        ESTOP0
     371 0000005e       $C$L6:    
     372                      .dwpsn  file "../source/DSP2803x_SWPrioritizedDefaultIsr.c",line 227,column 5,is_stmt,isa 0
     373 0000005e 6F00          B         $C$L6,UNC             ; [CPU_] |227| 
     374                      ; branch occurs ; [] |227| 
     375                      .dwattr $C$DW$11, DW_AT_TI_end_file("../source/DSP2803x_SWPrioritizedDefaultIsr.c")
     376                      .dwattr $C$DW$11, DW_AT_TI_end_line(0xe4)
     377                      .dwattr $C$DW$11, DW_AT_TI_end_column(0x01)
     378                      .dwendentry
     379                      .dwendtag $C$DW$11
     380              
     381 0000005f               .sect   ".text:retain"
     382                      .retain
     383                      .retainrefs
     384                      .global _USER8_ISR
     385              
     386              $C$DW$12        .dwtag  DW_TAG_subprogram, DW_AT_name("USER8_ISR")
     387                      .dwattr $C$DW$12, DW_AT_low_pc(_USER8_ISR)
     388                      .dwattr $C$DW$12, DW_AT_high_pc(0x00)
     389                      .dwattr $C$DW$12, DW_AT_TI_symbol_name("_USER8_ISR")
     390                      .dwattr $C$DW$12, DW_AT_external
     391                      .dwattr $C$DW$12, DW_AT_TI_begin_file("../source/DSP2803x_SWPrioritizedDefaultIsr.c")
     392                      .dwattr $C$DW$12, DW_AT_TI_begin_line(0xce)
     393                      .dwattr $C$DW$12, DW_AT_TI_begin_column(0x12)
     394                      .dwattr $C$DW$12, DW_AT_TI_interrupt
     395                      .dwattr $C$DW$12, DW_AT_TI_max_frame_size(-2)
     396                      .dwpsn  file "../source/DSP2803x_SWPrioritizedDefaultIsr.c",line 207,column 1,is_stmt,address _USER8_
     397              
     398                      .dwfde $C$DW$CIE, _USER8_ISR
     399              
     400              ;***************************************************************
     401              ;* FNAME: _USER8_ISR                    FR SIZE:   0           *
     402              ;*                                                             *
     403              ;* FUNCTION ENVIRONMENT                                        *
     404              ;*                                                             *
     405              ;* FUNCTION PROPERTIES                                         *
     406              ;*                            0 Parameter,  0 Auto,  0 SOE     *
     407              ;***************************************************************
     408              
     409 0000005f       _USER8_ISR:
     410                      .dwcfi  cfa_offset, -2
     411                      .dwcfi  save_reg_to_mem, 26, 0
     412 0000005f 761B          ASP       ; [CPU_] 
     413 00000060 2942          CLRC      PAGE0,OVM             ; [CPU_] 
     414 00000061 5616          CLRC      AMODE                 ; [CPU_] 
     415 00000062 2910   clrc INTM
     416 00000063 7625        ESTOP0
     417 00000064       $C$L7:    
     418                      .dwpsn  file "../source/DSP2803x_SWPrioritizedDefaultIsr.c",line 215,column 5,is_stmt,isa 0
     419 00000064 6F00          B         $C$L7,UNC             ; [CPU_] |215| 
     420                      ; branch occurs ; [] |215| 
     421                      .dwattr $C$DW$12, DW_AT_TI_end_file("../source/DSP2803x_SWPrioritizedDefaultIsr.c")
     422                      .dwattr $C$DW$12, DW_AT_TI_end_line(0xd8)
     423                      .dwattr $C$DW$12, DW_AT_TI_end_column(0x01)
     424                      .dwendentry
TMS320C2000 Assembler PC v6.4.12 Thu Nov 16 10:01:32 2017

Tools Copyright (c) 1996-2017 Texas Instruments Incorporated
C:\Users\Admin\AppData\Local\Temp\0610810                            PAGE    9

     425                      .dwendtag $C$DW$12
     426              
     427 00000065               .sect   ".text:retain"
     428                      .retain
     429                      .retainrefs
     430                      .global _USER7_ISR
     431              
     432              $C$DW$13        .dwtag  DW_TAG_subprogram, DW_AT_name("USER7_ISR")
     433                      .dwattr $C$DW$13, DW_AT_low_pc(_USER7_ISR)
     434                      .dwattr $C$DW$13, DW_AT_high_pc(0x00)
     435                      .dwattr $C$DW$13, DW_AT_TI_symbol_name("_USER7_ISR")
     436                      .dwattr $C$DW$13, DW_AT_external
     437                      .dwattr $C$DW$13, DW_AT_TI_begin_file("../source/DSP2803x_SWPrioritizedDefaultIsr.c")
     438                      .dwattr $C$DW$13, DW_AT_TI_begin_line(0xc2)
     439                      .dwattr $C$DW$13, DW_AT_TI_begin_column(0x12)
     440                      .dwattr $C$DW$13, DW_AT_TI_interrupt
     441                      .dwattr $C$DW$13, DW_AT_TI_max_frame_size(-2)
     442                      .dwpsn  file "../source/DSP2803x_SWPrioritizedDefaultIsr.c",line 195,column 1,is_stmt,address _USER7_
     443              
     444                      .dwfde $C$DW$CIE, _USER7_ISR
     445              
     446              ;***************************************************************
     447              ;* FNAME: _USER7_ISR                    FR SIZE:   0           *
     448              ;*                                                             *
     449              ;* FUNCTION ENVIRONMENT                                        *
     450              ;*                                                             *
     451              ;* FUNCTION PROPERTIES                                         *
     452              ;*                            0 Parameter,  0 Auto,  0 SOE     *
     453              ;***************************************************************
     454              
     455 00000065       _USER7_ISR:
     456                      .dwcfi  cfa_offset, -2
     457                      .dwcfi  save_reg_to_mem, 26, 0
     458 00000065 761B          ASP       ; [CPU_] 
     459 00000066 2942          CLRC      PAGE0,OVM             ; [CPU_] 
     460 00000067 5616          CLRC      AMODE                 ; [CPU_] 
     461 00000068 2910   clrc INTM
     462 00000069 7625        ESTOP0
     463 0000006a       $C$L8:    
     464                      .dwpsn  file "../source/DSP2803x_SWPrioritizedDefaultIsr.c",line 203,column 5,is_stmt,isa 0
     465 0000006a 6F00          B         $C$L8,UNC             ; [CPU_] |203| 
     466                      ; branch occurs ; [] |203| 
     467                      .dwattr $C$DW$13, DW_AT_TI_end_file("../source/DSP2803x_SWPrioritizedDefaultIsr.c")
     468                      .dwattr $C$DW$13, DW_AT_TI_end_line(0xcc)
     469                      .dwattr $C$DW$13, DW_AT_TI_end_column(0x01)
     470                      .dwendentry
     471                      .dwendtag $C$DW$13
     472              
     473 0000006b               .sect   ".text:retain"
     474                      .retain
     475                      .retainrefs
     476                      .global _USER6_ISR
     477              
     478              $C$DW$14        .dwtag  DW_TAG_subprogram, DW_AT_name("USER6_ISR")
     479                      .dwattr $C$DW$14, DW_AT_low_pc(_USER6_ISR)
TMS320C2000 Assembler PC v6.4.12 Thu Nov 16 10:01:32 2017

Tools Copyright (c) 1996-2017 Texas Instruments Incorporated
C:\Users\Admin\AppData\Local\Temp\0610810                            PAGE   10

     480                      .dwattr $C$DW$14, DW_AT_high_pc(0x00)
     481                      .dwattr $C$DW$14, DW_AT_TI_symbol_name("_USER6_ISR")
     482                      .dwattr $C$DW$14, DW_AT_external
     483                      .dwattr $C$DW$14, DW_AT_TI_begin_file("../source/DSP2803x_SWPrioritizedDefaultIsr.c")
     484                      .dwattr $C$DW$14, DW_AT_TI_begin_line(0xb6)
     485                      .dwattr $C$DW$14, DW_AT_TI_begin_column(0x12)
     486                      .dwattr $C$DW$14, DW_AT_TI_interrupt
     487                      .dwattr $C$DW$14, DW_AT_TI_max_frame_size(-2)
     488                      .dwpsn  file "../source/DSP2803x_SWPrioritizedDefaultIsr.c",line 183,column 1,is_stmt,address _USER6_
     489              
     490                      .dwfde $C$DW$CIE, _USER6_ISR
     491              
     492              ;***************************************************************
     493              ;* FNAME: _USER6_ISR                    FR SIZE:   0           *
     494              ;*                                                             *
     495              ;* FUNCTION ENVIRONMENT                                        *
     496              ;*                                                             *
     497              ;* FUNCTION PROPERTIES                                         *
     498              ;*                            0 Parameter,  0 Auto,  0 SOE     *
     499              ;***************************************************************
     500              
     501 0000006b       _USER6_ISR:
     502                      .dwcfi  cfa_offset, -2
     503                      .dwcfi  save_reg_to_mem, 26, 0
     504 0000006b 761B          ASP       ; [CPU_] 
     505 0000006c 2942          CLRC      PAGE0,OVM             ; [CPU_] 
     506 0000006d 5616          CLRC      AMODE                 ; [CPU_] 
     507 0000006e 2910   clrc INTM
     508 0000006f 7625        ESTOP0
     509 00000070       $C$L9:    
     510                      .dwpsn  file "../source/DSP2803x_SWPrioritizedDefaultIsr.c",line 191,column 5,is_stmt,isa 0
     511 00000070 6F00          B         $C$L9,UNC             ; [CPU_] |191| 
     512                      ; branch occurs ; [] |191| 
     513                      .dwattr $C$DW$14, DW_AT_TI_end_file("../source/DSP2803x_SWPrioritizedDefaultIsr.c")
     514                      .dwattr $C$DW$14, DW_AT_TI_end_line(0xc0)
     515                      .dwattr $C$DW$14, DW_AT_TI_end_column(0x01)
     516                      .dwendentry
     517                      .dwendtag $C$DW$14
     518              
     519 00000071               .sect   ".text:retain"
     520                      .retain
     521                      .retainrefs
     522                      .global _USER5_ISR
     523              
     524              $C$DW$15        .dwtag  DW_TAG_subprogram, DW_AT_name("USER5_ISR")
     525                      .dwattr $C$DW$15, DW_AT_low_pc(_USER5_ISR)
     526                      .dwattr $C$DW$15, DW_AT_high_pc(0x00)
     527                      .dwattr $C$DW$15, DW_AT_TI_symbol_name("_USER5_ISR")
     528                      .dwattr $C$DW$15, DW_AT_external
     529                      .dwattr $C$DW$15, DW_AT_TI_begin_file("../source/DSP2803x_SWPrioritizedDefaultIsr.c")
     530                      .dwattr $C$DW$15, DW_AT_TI_begin_line(0xaa)
     531                      .dwattr $C$DW$15, DW_AT_TI_begin_column(0x12)
     532                      .dwattr $C$DW$15, DW_AT_TI_interrupt
     533                      .dwattr $C$DW$15, DW_AT_TI_max_frame_size(-2)
     534                      .dwpsn  file "../source/DSP2803x_SWPrioritizedDefaultIsr.c",line 171,column 1,is_stmt,address _USER5_
TMS320C2000 Assembler PC v6.4.12 Thu Nov 16 10:01:32 2017

Tools Copyright (c) 1996-2017 Texas Instruments Incorporated
C:\Users\Admin\AppData\Local\Temp\0610810                            PAGE   11

     535              
     536                      .dwfde $C$DW$CIE, _USER5_ISR
     537              
     538              ;***************************************************************
     539              ;* FNAME: _USER5_ISR                    FR SIZE:   0           *
     540              ;*                                                             *
     541              ;* FUNCTION ENVIRONMENT                                        *
     542              ;*                                                             *
     543              ;* FUNCTION PROPERTIES                                         *
     544              ;*                            0 Parameter,  0 Auto,  0 SOE     *
     545              ;***************************************************************
     546              
     547 00000071       _USER5_ISR:
     548                      .dwcfi  cfa_offset, -2
     549                      .dwcfi  save_reg_to_mem, 26, 0
     550 00000071 761B          ASP       ; [CPU_] 
     551 00000072 2942          CLRC      PAGE0,OVM             ; [CPU_] 
     552 00000073 5616          CLRC      AMODE                 ; [CPU_] 
     553 00000074 2910   clrc INTM
     554 00000075 7625        ESTOP0
     555 00000076       $C$L10:    
     556                      .dwpsn  file "../source/DSP2803x_SWPrioritizedDefaultIsr.c",line 179,column 5,is_stmt,isa 0
     557 00000076 6F00          B         $C$L10,UNC            ; [CPU_] |179| 
     558                      ; branch occurs ; [] |179| 
     559                      .dwattr $C$DW$15, DW_AT_TI_end_file("../source/DSP2803x_SWPrioritizedDefaultIsr.c")
     560                      .dwattr $C$DW$15, DW_AT_TI_end_line(0xb4)
     561                      .dwattr $C$DW$15, DW_AT_TI_end_column(0x01)
     562                      .dwendentry
     563                      .dwendtag $C$DW$15
     564              
     565 00000077               .sect   ".text:retain"
     566                      .retain
     567                      .retainrefs
     568                      .global _USER4_ISR
     569              
     570              $C$DW$16        .dwtag  DW_TAG_subprogram, DW_AT_name("USER4_ISR")
     571                      .dwattr $C$DW$16, DW_AT_low_pc(_USER4_ISR)
     572                      .dwattr $C$DW$16, DW_AT_high_pc(0x00)
     573                      .dwattr $C$DW$16, DW_AT_TI_symbol_name("_USER4_ISR")
     574                      .dwattr $C$DW$16, DW_AT_external
     575                      .dwattr $C$DW$16, DW_AT_TI_begin_file("../source/DSP2803x_SWPrioritizedDefaultIsr.c")
     576                      .dwattr $C$DW$16, DW_AT_TI_begin_line(0x9e)
     577                      .dwattr $C$DW$16, DW_AT_TI_begin_column(0x12)
     578                      .dwattr $C$DW$16, DW_AT_TI_interrupt
     579                      .dwattr $C$DW$16, DW_AT_TI_max_frame_size(-2)
     580                      .dwpsn  file "../source/DSP2803x_SWPrioritizedDefaultIsr.c",line 159,column 1,is_stmt,address _USER4_
     581              
     582                      .dwfde $C$DW$CIE, _USER4_ISR
     583              
     584              ;***************************************************************
     585              ;* FNAME: _USER4_ISR                    FR SIZE:   0           *
     586              ;*                                                             *
     587              ;* FUNCTION ENVIRONMENT                                        *
     588              ;*                                                             *
     589              ;* FUNCTION PROPERTIES                                         *
TMS320C2000 Assembler PC v6.4.12 Thu Nov 16 10:01:32 2017

Tools Copyright (c) 1996-2017 Texas Instruments Incorporated
C:\Users\Admin\AppData\Local\Temp\0610810                            PAGE   12

     590              ;*                            0 Parameter,  0 Auto,  0 SOE     *
     591              ;***************************************************************
     592              
     593 00000077       _USER4_ISR:
     594                      .dwcfi  cfa_offset, -2
     595                      .dwcfi  save_reg_to_mem, 26, 0
     596 00000077 761B          ASP       ; [CPU_] 
     597 00000078 2942          CLRC      PAGE0,OVM             ; [CPU_] 
     598 00000079 5616          CLRC      AMODE                 ; [CPU_] 
     599 0000007a 2910   clrc INTM
     600 0000007b 7625        ESTOP0
     601 0000007c       $C$L11:    
     602                      .dwpsn  file "../source/DSP2803x_SWPrioritizedDefaultIsr.c",line 167,column 5,is_stmt,isa 0
     603 0000007c 6F00          B         $C$L11,UNC            ; [CPU_] |167| 
     604                      ; branch occurs ; [] |167| 
     605                      .dwattr $C$DW$16, DW_AT_TI_end_file("../source/DSP2803x_SWPrioritizedDefaultIsr.c")
     606                      .dwattr $C$DW$16, DW_AT_TI_end_line(0xa8)
     607                      .dwattr $C$DW$16, DW_AT_TI_end_column(0x01)
     608                      .dwendentry
     609                      .dwendtag $C$DW$16
     610              
     611 0000007d               .sect   ".text:retain"
     612                      .retain
     613                      .retainrefs
     614                      .global _USER3_ISR
     615              
     616              $C$DW$17        .dwtag  DW_TAG_subprogram, DW_AT_name("USER3_ISR")
     617                      .dwattr $C$DW$17, DW_AT_low_pc(_USER3_ISR)
     618                      .dwattr $C$DW$17, DW_AT_high_pc(0x00)
     619                      .dwattr $C$DW$17, DW_AT_TI_symbol_name("_USER3_ISR")
     620                      .dwattr $C$DW$17, DW_AT_external
     621                      .dwattr $C$DW$17, DW_AT_TI_begin_file("../source/DSP2803x_SWPrioritizedDefaultIsr.c")
     622                      .dwattr $C$DW$17, DW_AT_TI_begin_line(0x92)
     623                      .dwattr $C$DW$17, DW_AT_TI_begin_column(0x12)
     624                      .dwattr $C$DW$17, DW_AT_TI_interrupt
     625                      .dwattr $C$DW$17, DW_AT_TI_max_frame_size(-2)
     626                      .dwpsn  file "../source/DSP2803x_SWPrioritizedDefaultIsr.c",line 147,column 1,is_stmt,address _USER3_
     627              
     628                      .dwfde $C$DW$CIE, _USER3_ISR
     629              
     630              ;***************************************************************
     631              ;* FNAME: _USER3_ISR                    FR SIZE:   0           *
     632              ;*                                                             *
     633              ;* FUNCTION ENVIRONMENT                                        *
     634              ;*                                                             *
     635              ;* FUNCTION PROPERTIES                                         *
     636              ;*                            0 Parameter,  0 Auto,  0 SOE     *
     637              ;***************************************************************
     638              
     639 0000007d       _USER3_ISR:
     640                      .dwcfi  cfa_offset, -2
     641                      .dwcfi  save_reg_to_mem, 26, 0
     642 0000007d 761B          ASP       ; [CPU_] 
     643 0000007e 2942          CLRC      PAGE0,OVM             ; [CPU_] 
     644 0000007f 5616          CLRC      AMODE                 ; [CPU_] 
TMS320C2000 Assembler PC v6.4.12 Thu Nov 16 10:01:32 2017

Tools Copyright (c) 1996-2017 Texas Instruments Incorporated
C:\Users\Admin\AppData\Local\Temp\0610810                            PAGE   13

     645 00000080 2910   clrc INTM
     646 00000081 7625        ESTOP0
     647 00000082       $C$L12:    
     648                      .dwpsn  file "../source/DSP2803x_SWPrioritizedDefaultIsr.c",line 155,column 5,is_stmt,isa 0
     649 00000082 6F00          B         $C$L12,UNC            ; [CPU_] |155| 
     650                      ; branch occurs ; [] |155| 
     651                      .dwattr $C$DW$17, DW_AT_TI_end_file("../source/DSP2803x_SWPrioritizedDefaultIsr.c")
     652                      .dwattr $C$DW$17, DW_AT_TI_end_line(0x9c)
     653                      .dwattr $C$DW$17, DW_AT_TI_end_column(0x01)
     654                      .dwendentry
     655                      .dwendtag $C$DW$17
     656              
     657 00000083               .sect   ".text:retain"
     658                      .retain
     659                      .retainrefs
     660                      .global _USER2_ISR
     661              
     662              $C$DW$18        .dwtag  DW_TAG_subprogram, DW_AT_name("USER2_ISR")
     663                      .dwattr $C$DW$18, DW_AT_low_pc(_USER2_ISR)
     664                      .dwattr $C$DW$18, DW_AT_high_pc(0x00)
     665                      .dwattr $C$DW$18, DW_AT_TI_symbol_name("_USER2_ISR")
     666                      .dwattr $C$DW$18, DW_AT_external
     667                      .dwattr $C$DW$18, DW_AT_TI_begin_file("../source/DSP2803x_SWPrioritizedDefaultIsr.c")
     668                      .dwattr $C$DW$18, DW_AT_TI_begin_line(0x86)
     669                      .dwattr $C$DW$18, DW_AT_TI_begin_column(0x12)
     670                      .dwattr $C$DW$18, DW_AT_TI_interrupt
     671                      .dwattr $C$DW$18, DW_AT_TI_max_frame_size(-2)
     672                      .dwpsn  file "../source/DSP2803x_SWPrioritizedDefaultIsr.c",line 135,column 1,is_stmt,address _USER2_
     673              
     674                      .dwfde $C$DW$CIE, _USER2_ISR
     675              
     676              ;***************************************************************
     677              ;* FNAME: _USER2_ISR                    FR SIZE:   0           *
     678              ;*                                                             *
     679              ;* FUNCTION ENVIRONMENT                                        *
     680              ;*                                                             *
     681              ;* FUNCTION PROPERTIES                                         *
     682              ;*                            0 Parameter,  0 Auto,  0 SOE     *
     683              ;***************************************************************
     684              
     685 00000083       _USER2_ISR:
     686                      .dwcfi  cfa_offset, -2
     687                      .dwcfi  save_reg_to_mem, 26, 0
     688 00000083 761B          ASP       ; [CPU_] 
     689 00000084 2942          CLRC      PAGE0,OVM             ; [CPU_] 
     690 00000085 5616          CLRC      AMODE                 ; [CPU_] 
     691 00000086 2910   clrc INTM
     692 00000087 7625        ESTOP0
     693 00000088       $C$L13:    
     694                      .dwpsn  file "../source/DSP2803x_SWPrioritizedDefaultIsr.c",line 143,column 5,is_stmt,isa 0
     695 00000088 6F00          B         $C$L13,UNC            ; [CPU_] |143| 
     696                      ; branch occurs ; [] |143| 
     697                      .dwattr $C$DW$18, DW_AT_TI_end_file("../source/DSP2803x_SWPrioritizedDefaultIsr.c")
     698                      .dwattr $C$DW$18, DW_AT_TI_end_line(0x90)
     699                      .dwattr $C$DW$18, DW_AT_TI_end_column(0x01)
TMS320C2000 Assembler PC v6.4.12 Thu Nov 16 10:01:32 2017

Tools Copyright (c) 1996-2017 Texas Instruments Incorporated
C:\Users\Admin\AppData\Local\Temp\0610810                            PAGE   14

     700                      .dwendentry
     701                      .dwendtag $C$DW$18
     702              
     703 00000089               .sect   ".text:retain"
     704                      .retain
     705                      .retainrefs
     706                      .global _USER1_ISR
     707              
     708              $C$DW$19        .dwtag  DW_TAG_subprogram, DW_AT_name("USER1_ISR")
     709                      .dwattr $C$DW$19, DW_AT_low_pc(_USER1_ISR)
     710                      .dwattr $C$DW$19, DW_AT_high_pc(0x00)
     711                      .dwattr $C$DW$19, DW_AT_TI_symbol_name("_USER1_ISR")
     712                      .dwattr $C$DW$19, DW_AT_external
     713                      .dwattr $C$DW$19, DW_AT_TI_begin_file("../source/DSP2803x_SWPrioritizedDefaultIsr.c")
     714                      .dwattr $C$DW$19, DW_AT_TI_begin_line(0x7a)
     715                      .dwattr $C$DW$19, DW_AT_TI_begin_column(0x12)
     716                      .dwattr $C$DW$19, DW_AT_TI_interrupt
     717                      .dwattr $C$DW$19, DW_AT_TI_max_frame_size(-2)
     718                      .dwpsn  file "../source/DSP2803x_SWPrioritizedDefaultIsr.c",line 123,column 1,is_stmt,address _USER1_
     719              
     720                      .dwfde $C$DW$CIE, _USER1_ISR
     721              
     722              ;***************************************************************
     723              ;* FNAME: _USER1_ISR                    FR SIZE:   0           *
     724              ;*                                                             *
     725              ;* FUNCTION ENVIRONMENT                                        *
     726              ;*                                                             *
     727              ;* FUNCTION PROPERTIES                                         *
     728              ;*                            0 Parameter,  0 Auto,  0 SOE     *
     729              ;***************************************************************
     730              
     731 00000089       _USER1_ISR:
     732                      .dwcfi  cfa_offset, -2
     733                      .dwcfi  save_reg_to_mem, 26, 0
     734 00000089 761B          ASP       ; [CPU_] 
     735 0000008a 2942          CLRC      PAGE0,OVM             ; [CPU_] 
     736 0000008b 5616          CLRC      AMODE                 ; [CPU_] 
     737 0000008c 2910   clrc INTM
     738 0000008d 7625        ESTOP0
     739 0000008e       $C$L14:    
     740                      .dwpsn  file "../source/DSP2803x_SWPrioritizedDefaultIsr.c",line 131,column 5,is_stmt,isa 0
     741 0000008e 6F00          B         $C$L14,UNC            ; [CPU_] |131| 
     742                      ; branch occurs ; [] |131| 
     743                      .dwattr $C$DW$19, DW_AT_TI_end_file("../source/DSP2803x_SWPrioritizedDefaultIsr.c")
     744                      .dwattr $C$DW$19, DW_AT_TI_end_line(0x84)
     745                      .dwattr $C$DW$19, DW_AT_TI_end_column(0x01)
     746                      .dwendentry
     747                      .dwendtag $C$DW$19
     748              
     749 0000008f               .sect   ".text:retain"
     750                      .retain
     751                      .retainrefs
     752                      .global _USER12_ISR
     753              
     754              $C$DW$20        .dwtag  DW_TAG_subprogram, DW_AT_name("USER12_ISR")
TMS320C2000 Assembler PC v6.4.12 Thu Nov 16 10:01:32 2017

Tools Copyright (c) 1996-2017 Texas Instruments Incorporated
C:\Users\Admin\AppData\Local\Temp\0610810                            PAGE   15

     755                      .dwattr $C$DW$20, DW_AT_low_pc(_USER12_ISR)
     756                      .dwattr $C$DW$20, DW_AT_high_pc(0x00)
     757                      .dwattr $C$DW$20, DW_AT_TI_symbol_name("_USER12_ISR")
     758                      .dwattr $C$DW$20, DW_AT_external
     759                      .dwattr $C$DW$20, DW_AT_TI_begin_file("../source/DSP2803x_SWPrioritizedDefaultIsr.c")
     760                      .dwattr $C$DW$20, DW_AT_TI_begin_line(0xfe)
     761                      .dwattr $C$DW$20, DW_AT_TI_begin_column(0x12)
     762                      .dwattr $C$DW$20, DW_AT_TI_interrupt
     763                      .dwattr $C$DW$20, DW_AT_TI_max_frame_size(-2)
     764                      .dwpsn  file "../source/DSP2803x_SWPrioritizedDefaultIsr.c",line 255,column 1,is_stmt,address _USER12
     765              
     766                      .dwfde $C$DW$CIE, _USER12_ISR
     767              
     768              ;***************************************************************
     769              ;* FNAME: _USER12_ISR                   FR SIZE:   0           *
     770              ;*                                                             *
     771              ;* FUNCTION ENVIRONMENT                                        *
     772              ;*                                                             *
     773              ;* FUNCTION PROPERTIES                                         *
     774              ;*                            0 Parameter,  0 Auto,  0 SOE     *
     775              ;***************************************************************
     776              
     777 0000008f       _USER12_ISR:
     778                      .dwcfi  cfa_offset, -2
     779                      .dwcfi  save_reg_to_mem, 26, 0
     780 0000008f 761B          ASP       ; [CPU_] 
     781 00000090 2942          CLRC      PAGE0,OVM             ; [CPU_] 
     782 00000091 5616          CLRC      AMODE                 ; [CPU_] 
     783 00000092 2910   clrc INTM
     784 00000093 7625        ESTOP0
     785 00000094       $C$L15:    
     786                      .dwpsn  file "../source/DSP2803x_SWPrioritizedDefaultIsr.c",line 263,column 5,is_stmt,isa 0
     787 00000094 6F00          B         $C$L15,UNC            ; [CPU_] |263| 
     788                      ; branch occurs ; [] |263| 
     789                      .dwattr $C$DW$20, DW_AT_TI_end_file("../source/DSP2803x_SWPrioritizedDefaultIsr.c")
     790                      .dwattr $C$DW$20, DW_AT_TI_end_line(0x108)
     791                      .dwattr $C$DW$20, DW_AT_TI_end_column(0x01)
     792                      .dwendentry
     793                      .dwendtag $C$DW$20
     794              
     795 00000095               .sect   ".text:retain"
     796                      .retain
     797                      .retainrefs
     798                      .global _USER11_ISR
     799              
     800              $C$DW$21        .dwtag  DW_TAG_subprogram, DW_AT_name("USER11_ISR")
     801                      .dwattr $C$DW$21, DW_AT_low_pc(_USER11_ISR)
     802                      .dwattr $C$DW$21, DW_AT_high_pc(0x00)
     803                      .dwattr $C$DW$21, DW_AT_TI_symbol_name("_USER11_ISR")
     804                      .dwattr $C$DW$21, DW_AT_external
     805                      .dwattr $C$DW$21, DW_AT_TI_begin_file("../source/DSP2803x_SWPrioritizedDefaultIsr.c")
     806                      .dwattr $C$DW$21, DW_AT_TI_begin_line(0xf2)
     807                      .dwattr $C$DW$21, DW_AT_TI_begin_column(0x12)
     808                      .dwattr $C$DW$21, DW_AT_TI_interrupt
     809                      .dwattr $C$DW$21, DW_AT_TI_max_frame_size(-2)
TMS320C2000 Assembler PC v6.4.12 Thu Nov 16 10:01:32 2017

Tools Copyright (c) 1996-2017 Texas Instruments Incorporated
C:\Users\Admin\AppData\Local\Temp\0610810                            PAGE   16

     810                      .dwpsn  file "../source/DSP2803x_SWPrioritizedDefaultIsr.c",line 243,column 1,is_stmt,address _USER11
     811              
     812                      .dwfde $C$DW$CIE, _USER11_ISR
     813              
     814              ;***************************************************************
     815              ;* FNAME: _USER11_ISR                   FR SIZE:   0           *
     816              ;*                                                             *
     817              ;* FUNCTION ENVIRONMENT                                        *
     818              ;*                                                             *
     819              ;* FUNCTION PROPERTIES                                         *
     820              ;*                            0 Parameter,  0 Auto,  0 SOE     *
     821              ;***************************************************************
     822              
     823 00000095       _USER11_ISR:
     824                      .dwcfi  cfa_offset, -2
     825                      .dwcfi  save_reg_to_mem, 26, 0
     826 00000095 761B          ASP       ; [CPU_] 
     827 00000096 2942          CLRC      PAGE0,OVM             ; [CPU_] 
     828 00000097 5616          CLRC      AMODE                 ; [CPU_] 
     829 00000098 2910   clrc INTM
     830 00000099 7625        ESTOP0
     831 0000009a       $C$L16:    
     832                      .dwpsn  file "../source/DSP2803x_SWPrioritizedDefaultIsr.c",line 251,column 5,is_stmt,isa 0
     833 0000009a 6F00          B         $C$L16,UNC            ; [CPU_] |251| 
     834                      ; branch occurs ; [] |251| 
     835                      .dwattr $C$DW$21, DW_AT_TI_end_file("../source/DSP2803x_SWPrioritizedDefaultIsr.c")
     836                      .dwattr $C$DW$21, DW_AT_TI_end_line(0xfc)
     837                      .dwattr $C$DW$21, DW_AT_TI_end_column(0x01)
     838                      .dwendentry
     839                      .dwendtag $C$DW$21
     840              
     841 0000009b               .sect   ".text:retain"
     842                      .retain
     843                      .retainrefs
     844                      .global _USER10_ISR
     845              
     846              $C$DW$22        .dwtag  DW_TAG_subprogram, DW_AT_name("USER10_ISR")
     847                      .dwattr $C$DW$22, DW_AT_low_pc(_USER10_ISR)
     848                      .dwattr $C$DW$22, DW_AT_high_pc(0x00)
     849                      .dwattr $C$DW$22, DW_AT_TI_symbol_name("_USER10_ISR")
     850                      .dwattr $C$DW$22, DW_AT_external
     851                      .dwattr $C$DW$22, DW_AT_TI_begin_file("../source/DSP2803x_SWPrioritizedDefaultIsr.c")
     852                      .dwattr $C$DW$22, DW_AT_TI_begin_line(0xe6)
     853                      .dwattr $C$DW$22, DW_AT_TI_begin_column(0x12)
     854                      .dwattr $C$DW$22, DW_AT_TI_interrupt
     855                      .dwattr $C$DW$22, DW_AT_TI_max_frame_size(-2)
     856                      .dwpsn  file "../source/DSP2803x_SWPrioritizedDefaultIsr.c",line 231,column 1,is_stmt,address _USER10
     857              
     858                      .dwfde $C$DW$CIE, _USER10_ISR
     859              
     860              ;***************************************************************
     861              ;* FNAME: _USER10_ISR                   FR SIZE:   0           *
     862              ;*                                                             *
     863              ;* FUNCTION ENVIRONMENT                                        *
     864              ;*                                                             *
TMS320C2000 Assembler PC v6.4.12 Thu Nov 16 10:01:32 2017

Tools Copyright (c) 1996-2017 Texas Instruments Incorporated
C:\Users\Admin\AppData\Local\Temp\0610810                            PAGE   17

     865              ;* FUNCTION PROPERTIES                                         *
     866              ;*                            0 Parameter,  0 Auto,  0 SOE     *
     867              ;***************************************************************
     868              
     869 0000009b       _USER10_ISR:
     870                      .dwcfi  cfa_offset, -2
     871                      .dwcfi  save_reg_to_mem, 26, 0
     872 0000009b 761B          ASP       ; [CPU_] 
     873 0000009c 2942          CLRC      PAGE0,OVM             ; [CPU_] 
     874 0000009d 5616          CLRC      AMODE                 ; [CPU_] 
     875 0000009e 2910   clrc INTM
     876 0000009f 7625        ESTOP0
     877 000000a0       $C$L17:    
     878                      .dwpsn  file "../source/DSP2803x_SWPrioritizedDefaultIsr.c",line 239,column 5,is_stmt,isa 0
     879 000000a0 6F00          B         $C$L17,UNC            ; [CPU_] |239| 
     880                      ; branch occurs ; [] |239| 
     881                      .dwattr $C$DW$22, DW_AT_TI_end_file("../source/DSP2803x_SWPrioritizedDefaultIsr.c")
     882                      .dwattr $C$DW$22, DW_AT_TI_end_line(0xf0)
     883                      .dwattr $C$DW$22, DW_AT_TI_end_column(0x01)
     884                      .dwendentry
     885                      .dwendtag $C$DW$22
     886              
     887 000000a1               .sect   ".text:retain"
     888                      .retain
     889                      .retainrefs
     890                      .global _TINT0_ISR
     891              
     892              $C$DW$23        .dwtag  DW_TAG_subprogram, DW_AT_name("TINT0_ISR")
     893                      .dwattr $C$DW$23, DW_AT_low_pc(_TINT0_ISR)
     894                      .dwattr $C$DW$23, DW_AT_high_pc(0x00)
     895                      .dwattr $C$DW$23, DW_AT_TI_symbol_name("_TINT0_ISR")
     896                      .dwattr $C$DW$23, DW_AT_external
     897                      .dwattr $C$DW$23, DW_AT_TI_begin_file("../source/DSP2803x_SWPrioritizedDefaultIsr.c")
     898                      .dwattr $C$DW$23, DW_AT_TI_begin_line(0x18c)
     899                      .dwattr $C$DW$23, DW_AT_TI_begin_column(0x13)
     900                      .dwattr $C$DW$23, DW_AT_TI_interrupt
     901                      .dwattr $C$DW$23, DW_AT_TI_max_frame_size(-4)
     902                      .dwpsn  file "../source/DSP2803x_SWPrioritizedDefaultIsr.c",line 397,column 1,is_stmt,address _TINT0_
     903              
     904                      .dwfde $C$DW$CIE, _TINT0_ISR
     905              
     906              ;***************************************************************
     907              ;* FNAME: _TINT0_ISR                    FR SIZE:   2           *
     908              ;*                                                             *
     909              ;* FUNCTION ENVIRONMENT                                        *
     910              ;*                                                             *
     911              ;* FUNCTION PROPERTIES                                         *
     912              ;*                            0 Parameter,  1 Auto,  0 SOE     *
     913              ;***************************************************************
     914              
     915              _TINT0_ISR:
     916              $C$DW$24        .dwtag  DW_TAG_variable, DW_AT_name("TempPIEIER")
     917                      .dwattr $C$DW$24, DW_AT_TI_symbol_name("_TempPIEIER")
     918                      .dwattr $C$DW$24, DW_AT_type(*$C$DW$T$33)
     919                      .dwattr $C$DW$24, DW_AT_location[DW_OP_breg20 -1]
TMS320C2000 Assembler PC v6.4.12 Thu Nov 16 10:01:32 2017

Tools Copyright (c) 1996-2017 Texas Instruments Incorporated
C:\Users\Admin\AppData\Local\Temp\0610810                            PAGE   18

     920                      .dwcfi  cfa_offset, -2
     921                      .dwcfi  save_reg_to_mem, 26, 0
     922 000000a1 761B          ASP       ; [CPU_] 
     923 000000a2 FE02          ADDB      SP,#2                 ; [CPU_U] 
     924                      .dwcfi  cfa_offset, -4
     925 000000a3 2942          CLRC      PAGE0,OVM             ; [CPU_] 
     926 000000a4 5616          CLRC      AMODE                 ; [CPU_] 
     927 000000a5 761F!         MOVW      DP,#_PieCtrlRegs+2    ; [CPU_U] 
         000000a6 0000 
     928                      .dwpsn  file "../source/DSP2803x_SWPrioritizedDefaultIsr.c",line 399,column 29,is_stmt,isa 0
     929 000000a7 9202!         MOV       AL,@_PieCtrlRegs+2    ; [CPU_] |399| 
     930 000000a8 9641          MOV       *-SP[1],AL            ; [CPU_] |399| 
     931                      .dwpsn  file "../source/DSP2803x_SWPrioritizedDefaultIsr.c",line 400,column 2,is_stmt,isa 0
     932 000000a9 7623          OR        IER,#0x0001           ; [CPU_] |400| 
         000000aa 0001 
     933                      .dwpsn  file "../source/DSP2803x_SWPrioritizedDefaultIsr.c",line 401,column 2,is_stmt,isa 0
     934 000000ab 7626          AND       IER,#0x0003           ; [CPU_] |401| 
         000000ac 0003 
     935                      .dwpsn  file "../source/DSP2803x_SWPrioritizedDefaultIsr.c",line 402,column 2,is_stmt,isa 0
     936 000000ad 9202!         MOV       AL,@_PieCtrlRegs+2    ; [CPU_] |402| 
     937 000000ae 2B02!         MOV       @_PieCtrlRegs+2,#0    ; [CPU_] |402| 
     938                      .dwpsn  file "../source/DSP2803x_SWPrioritizedDefaultIsr.c",line 403,column 2,is_stmt,isa 0
     939 000000af 2801!         MOV       @_PieCtrlRegs+1,#65535 ; [CPU_] |403| 
         000000b0 FFFF 
     940 000000b1 2910   clrc INTM
     941 000000b2 3B10   setc INTM
     942                      .dwpsn  file "../source/DSP2803x_SWPrioritizedDefaultIsr.c",line 410,column 2,is_stmt,isa 0
     943 000000b3 9241          MOV       AL,*-SP[1]            ; [CPU_] |410| 
     944 000000b4 9602!         MOV       @_PieCtrlRegs+2,AL    ; [CPU_] |410| 
     945 000000b5 7625        ESTOP0
     946 000000b6       $C$L18:    
     947                      .dwpsn  file "../source/DSP2803x_SWPrioritizedDefaultIsr.c",line 415,column 5,is_stmt,isa 0
     948 000000b6 6F00          B         $C$L18,UNC            ; [CPU_] |415| 
     949                      ; branch occurs ; [] |415| 
     950                      .dwattr $C$DW$23, DW_AT_TI_end_file("../source/DSP2803x_SWPrioritizedDefaultIsr.c")
     951                      .dwattr $C$DW$23, DW_AT_TI_end_line(0x1a0)
     952                      .dwattr $C$DW$23, DW_AT_TI_end_column(0x01)
     953                      .dwendentry
     954                      .dwendtag $C$DW$23
     955              
     956 000000b7               .sect   ".text:retain"
     957                      .retain
     958                      .retainrefs
     959                      .global _SPITXINTA_ISR
     960              
     961              $C$DW$25        .dwtag  DW_TAG_subprogram, DW_AT_name("SPITXINTA_ISR")
     962                      .dwattr $C$DW$25, DW_AT_low_pc(_SPITXINTA_ISR)
     963                      .dwattr $C$DW$25, DW_AT_high_pc(0x00)
     964                      .dwattr $C$DW$25, DW_AT_TI_symbol_name("_SPITXINTA_ISR")
     965                      .dwattr $C$DW$25, DW_AT_external
     966                      .dwattr $C$DW$25, DW_AT_TI_begin_file("../source/DSP2803x_SWPrioritizedDefaultIsr.c")
     967                      .dwattr $C$DW$25, DW_AT_TI_begin_line(0x389)
     968                      .dwattr $C$DW$25, DW_AT_TI_begin_column(0x12)
     969                      .dwattr $C$DW$25, DW_AT_TI_interrupt
     970                      .dwattr $C$DW$25, DW_AT_TI_max_frame_size(-4)
TMS320C2000 Assembler PC v6.4.12 Thu Nov 16 10:01:32 2017

Tools Copyright (c) 1996-2017 Texas Instruments Incorporated
C:\Users\Admin\AppData\Local\Temp\0610810                            PAGE   19

     971                      .dwpsn  file "../source/DSP2803x_SWPrioritizedDefaultIsr.c",line 906,column 1,is_stmt,address _SPITXI
     972              
     973                      .dwfde $C$DW$CIE, _SPITXINTA_ISR
     974              
     975              ;***************************************************************
     976              ;* FNAME: _SPITXINTA_ISR                FR SIZE:   2           *
     977              ;*                                                             *
     978              ;* FUNCTION ENVIRONMENT                                        *
     979              ;*                                                             *
     980              ;* FUNCTION PROPERTIES                                         *
     981              ;*                            0 Parameter,  1 Auto,  0 SOE     *
     982              ;***************************************************************
     983              
     984              _SPITXINTA_ISR:
     985              $C$DW$26        .dwtag  DW_TAG_variable, DW_AT_name("TempPIEIER")
     986                      .dwattr $C$DW$26, DW_AT_TI_symbol_name("_TempPIEIER")
     987                      .dwattr $C$DW$26, DW_AT_type(*$C$DW$T$33)
     988                      .dwattr $C$DW$26, DW_AT_location[DW_OP_breg20 -1]
     989                      .dwcfi  cfa_offset, -2
     990                      .dwcfi  save_reg_to_mem, 26, 0
     991 000000b7 761B          ASP       ; [CPU_] 
     992 000000b8 FE02          ADDB      SP,#2                 ; [CPU_U] 
     993                      .dwcfi  cfa_offset, -4
     994 000000b9 2942          CLRC      PAGE0,OVM             ; [CPU_] 
     995 000000ba 5616          CLRC      AMODE                 ; [CPU_] 
     996 000000bb 761F!         MOVW      DP,#_PieCtrlRegs+12   ; [CPU_U] 
         000000bc 0000 
     997                      .dwpsn  file "../source/DSP2803x_SWPrioritizedDefaultIsr.c",line 908,column 29,is_stmt,isa 0
     998 000000bd 920C!         MOV       AL,@_PieCtrlRegs+12   ; [CPU_] |908| 
     999 000000be 9641          MOV       *-SP[1],AL            ; [CPU_] |908| 
    1000                      .dwpsn  file "../source/DSP2803x_SWPrioritizedDefaultIsr.c",line 909,column 2,is_stmt,isa 0
    1001 000000bf 7623          OR        IER,#0x0020           ; [CPU_] |909| 
         000000c0 0020 
    1002                      .dwpsn  file "../source/DSP2803x_SWPrioritizedDefaultIsr.c",line 910,column 2,is_stmt,isa 0
    1003 000000c1 7626          AND       IER,#0x003b           ; [CPU_] |910| 
         000000c2 003B 
    1004                      .dwpsn  file "../source/DSP2803x_SWPrioritizedDefaultIsr.c",line 911,column 2,is_stmt,isa 0
    1005 000000c3 920C!         MOV       AL,@_PieCtrlRegs+12   ; [CPU_] |911| 
    1006 000000c4 2B0C!         MOV       @_PieCtrlRegs+12,#0   ; [CPU_] |911| 
    1007                      .dwpsn  file "../source/DSP2803x_SWPrioritizedDefaultIsr.c",line 912,column 2,is_stmt,isa 0
    1008 000000c5 2801!         MOV       @_PieCtrlRegs+1,#65535 ; [CPU_] |912| 
         000000c6 FFFF 
    1009 000000c7 2910   clrc INTM
    1010 000000c8 3B10   setc INTM
    1011                      .dwpsn  file "../source/DSP2803x_SWPrioritizedDefaultIsr.c",line 919,column 2,is_stmt,isa 0
    1012 000000c9 9241          MOV       AL,*-SP[1]            ; [CPU_] |919| 
    1013 000000ca 960C!         MOV       @_PieCtrlRegs+12,AL   ; [CPU_] |919| 
    1014 000000cb 7625        ESTOP0
    1015 000000cc       $C$L19:    
    1016                      .dwpsn  file "../source/DSP2803x_SWPrioritizedDefaultIsr.c",line 924,column 5,is_stmt,isa 0
    1017 000000cc 6F00          B         $C$L19,UNC            ; [CPU_] |924| 
    1018                      ; branch occurs ; [] |924| 
    1019                      .dwattr $C$DW$25, DW_AT_TI_end_file("../source/DSP2803x_SWPrioritizedDefaultIsr.c")
    1020                      .dwattr $C$DW$25, DW_AT_TI_end_line(0x39d)
    1021                      .dwattr $C$DW$25, DW_AT_TI_end_column(0x01)
TMS320C2000 Assembler PC v6.4.12 Thu Nov 16 10:01:32 2017

Tools Copyright (c) 1996-2017 Texas Instruments Incorporated
C:\Users\Admin\AppData\Local\Temp\0610810                            PAGE   20

    1022                      .dwendentry
    1023                      .dwendtag $C$DW$25
    1024              
    1025 000000cd               .sect   ".text:retain"
    1026                      .retain
    1027                      .retainrefs
    1028                      .global _SPIRXINTA_ISR
    1029              
    1030              $C$DW$27        .dwtag  DW_TAG_subprogram, DW_AT_name("SPIRXINTA_ISR")
    1031                      .dwattr $C$DW$27, DW_AT_low_pc(_SPIRXINTA_ISR)
    1032                      .dwattr $C$DW$27, DW_AT_high_pc(0x00)
    1033                      .dwattr $C$DW$27, DW_AT_TI_symbol_name("_SPIRXINTA_ISR")
    1034                      .dwattr $C$DW$27, DW_AT_external
    1035                      .dwattr $C$DW$27, DW_AT_TI_begin_file("../source/DSP2803x_SWPrioritizedDefaultIsr.c")
    1036                      .dwattr $C$DW$27, DW_AT_TI_begin_line(0x36f)
    1037                      .dwattr $C$DW$27, DW_AT_TI_begin_column(0x12)
    1038                      .dwattr $C$DW$27, DW_AT_TI_interrupt
    1039                      .dwattr $C$DW$27, DW_AT_TI_max_frame_size(-4)
    1040                      .dwpsn  file "../source/DSP2803x_SWPrioritizedDefaultIsr.c",line 880,column 1,is_stmt,address _SPIRXI
    1041              
    1042                      .dwfde $C$DW$CIE, _SPIRXINTA_ISR
    1043              
    1044              ;***************************************************************
    1045              ;* FNAME: _SPIRXINTA_ISR                FR SIZE:   2           *
    1046              ;*                                                             *
    1047              ;* FUNCTION ENVIRONMENT                                        *
    1048              ;*                                                             *
    1049              ;* FUNCTION PROPERTIES                                         *
    1050              ;*                            0 Parameter,  1 Auto,  0 SOE     *
    1051              ;***************************************************************
    1052              
    1053              _SPIRXINTA_ISR:
    1054              $C$DW$28        .dwtag  DW_TAG_variable, DW_AT_name("TempPIEIER")
    1055                      .dwattr $C$DW$28, DW_AT_TI_symbol_name("_TempPIEIER")
    1056                      .dwattr $C$DW$28, DW_AT_type(*$C$DW$T$33)
    1057                      .dwattr $C$DW$28, DW_AT_location[DW_OP_breg20 -1]
    1058                      .dwcfi  cfa_offset, -2
    1059                      .dwcfi  save_reg_to_mem, 26, 0
    1060 000000cd 761B          ASP       ; [CPU_] 
    1061 000000ce FE02          ADDB      SP,#2                 ; [CPU_U] 
    1062                      .dwcfi  cfa_offset, -4
    1063 000000cf 2942          CLRC      PAGE0,OVM             ; [CPU_] 
    1064 000000d0 5616          CLRC      AMODE                 ; [CPU_] 
    1065 000000d1 761F!         MOVW      DP,#_PieCtrlRegs+12   ; [CPU_U] 
         000000d2 0000 
    1066                      .dwpsn  file "../source/DSP2803x_SWPrioritizedDefaultIsr.c",line 882,column 29,is_stmt,isa 0
    1067 000000d3 920C!         MOV       AL,@_PieCtrlRegs+12   ; [CPU_] |882| 
    1068 000000d4 9641          MOV       *-SP[1],AL            ; [CPU_] |882| 
    1069                      .dwpsn  file "../source/DSP2803x_SWPrioritizedDefaultIsr.c",line 883,column 2,is_stmt,isa 0
    1070 000000d5 7623          OR        IER,#0x0020           ; [CPU_] |883| 
         000000d6 0020 
    1071                      .dwpsn  file "../source/DSP2803x_SWPrioritizedDefaultIsr.c",line 884,column 2,is_stmt,isa 0
    1072 000000d7 7626          AND       IER,#0x003b           ; [CPU_] |884| 
         000000d8 003B 
    1073                      .dwpsn  file "../source/DSP2803x_SWPrioritizedDefaultIsr.c",line 885,column 2,is_stmt,isa 0
TMS320C2000 Assembler PC v6.4.12 Thu Nov 16 10:01:32 2017

Tools Copyright (c) 1996-2017 Texas Instruments Incorporated
C:\Users\Admin\AppData\Local\Temp\0610810                            PAGE   21

    1074 000000d9 180C!         AND       @_PieCtrlRegs+12,#0x000a ; [CPU_] |885| 
         000000da 000A 
    1075                      .dwpsn  file "../source/DSP2803x_SWPrioritizedDefaultIsr.c",line 886,column 2,is_stmt,isa 0
    1076 000000db 2801!         MOV       @_PieCtrlRegs+1,#65535 ; [CPU_] |886| 
         000000dc FFFF 
    1077 000000dd 2910   clrc INTM
    1078 000000de 3B10   setc INTM
    1079                      .dwpsn  file "../source/DSP2803x_SWPrioritizedDefaultIsr.c",line 893,column 2,is_stmt,isa 0
    1080 000000df 9241          MOV       AL,*-SP[1]            ; [CPU_] |893| 
    1081 000000e0 960C!         MOV       @_PieCtrlRegs+12,AL   ; [CPU_] |893| 
    1082 000000e1 7625        ESTOP0
    1083 000000e2       $C$L20:    
    1084                      .dwpsn  file "../source/DSP2803x_SWPrioritizedDefaultIsr.c",line 898,column 5,is_stmt,isa 0
    1085 000000e2 6F00          B         $C$L20,UNC            ; [CPU_] |898| 
    1086                      ; branch occurs ; [] |898| 
    1087                      .dwattr $C$DW$27, DW_AT_TI_end_file("../source/DSP2803x_SWPrioritizedDefaultIsr.c")
    1088                      .dwattr $C$DW$27, DW_AT_TI_end_line(0x384)
    1089                      .dwattr $C$DW$27, DW_AT_TI_end_column(0x01)
    1090                      .dwendentry
    1091                      .dwendtag $C$DW$27
    1092              
    1093 000000e3               .sect   ".text:retain"
    1094                      .retain
    1095                      .retainrefs
    1096                      .global _SCITXINTB_ISR
    1097              
    1098              $C$DW$29        .dwtag  DW_TAG_subprogram, DW_AT_name("SCITXINTB_ISR")
    1099                      .dwattr $C$DW$29, DW_AT_low_pc(_SCITXINTB_ISR)
    1100                      .dwattr $C$DW$29, DW_AT_high_pc(0x00)
    1101                      .dwattr $C$DW$29, DW_AT_TI_symbol_name("_SCITXINTB_ISR")
    1102                      .dwattr $C$DW$29, DW_AT_external
    1103                      .dwattr $C$DW$29, DW_AT_TI_begin_file("../source/DSP2803x_SWPrioritizedDefaultIsr.c")
    1104                      .dwattr $C$DW$29, DW_AT_TI_begin_line(0x464)
    1105                      .dwattr $C$DW$29, DW_AT_TI_begin_column(0x12)
    1106                      .dwattr $C$DW$29, DW_AT_TI_interrupt
    1107                      .dwattr $C$DW$29, DW_AT_TI_max_frame_size(-4)
    1108                      .dwpsn  file "../source/DSP2803x_SWPrioritizedDefaultIsr.c",line 1125,column 1,is_stmt,address _SCITX
    1109              
    1110                      .dwfde $C$DW$CIE, _SCITXINTB_ISR
    1111              
    1112              ;***************************************************************
    1113              ;* FNAME: _SCITXINTB_ISR                FR SIZE:   2           *
    1114              ;*                                                             *
    1115              ;* FUNCTION ENVIRONMENT                                        *
    1116              ;*                                                             *
    1117              ;* FUNCTION PROPERTIES                                         *
    1118              ;*                            0 Parameter,  1 Auto,  0 SOE     *
    1119              ;***************************************************************
    1120              
    1121              _SCITXINTB_ISR:
    1122              $C$DW$30        .dwtag  DW_TAG_variable, DW_AT_name("TempPIEIER")
    1123                      .dwattr $C$DW$30, DW_AT_TI_symbol_name("_TempPIEIER")
    1124                      .dwattr $C$DW$30, DW_AT_type(*$C$DW$T$33)
    1125                      .dwattr $C$DW$30, DW_AT_location[DW_OP_breg20 -1]
    1126                      .dwcfi  cfa_offset, -2
TMS320C2000 Assembler PC v6.4.12 Thu Nov 16 10:01:32 2017

Tools Copyright (c) 1996-2017 Texas Instruments Incorporated
C:\Users\Admin\AppData\Local\Temp\0610810                            PAGE   22

    1127                      .dwcfi  save_reg_to_mem, 26, 0
    1128 000000e3 761B          ASP       ; [CPU_] 
    1129 000000e4 FE02          ADDB      SP,#2                 ; [CPU_U] 
    1130                      .dwcfi  cfa_offset, -4
    1131 000000e5 2942          CLRC      PAGE0,OVM             ; [CPU_] 
    1132 000000e6 5616          CLRC      AMODE                 ; [CPU_] 
    1133 000000e7 761F!         MOVW      DP,#_PieCtrlRegs+18   ; [CPU_U] 
         000000e8 0000 
    1134                      .dwpsn  file "../source/DSP2803x_SWPrioritizedDefaultIsr.c",line 1127,column 29,is_stmt,isa 0
    1135 000000e9 9212!         MOV       AL,@_PieCtrlRegs+18   ; [CPU_] |1127| 
    1136 000000ea 9641          MOV       *-SP[1],AL            ; [CPU_] |1127| 
    1137                      .dwpsn  file "../source/DSP2803x_SWPrioritizedDefaultIsr.c",line 1128,column 2,is_stmt,isa 0
    1138 000000eb 7623          OR        IER,#0x0100           ; [CPU_] |1128| 
         000000ec 0100 
    1139                      .dwpsn  file "../source/DSP2803x_SWPrioritizedDefaultIsr.c",line 1129,column 2,is_stmt,isa 0
    1140 000000ed 7626          AND       IER,#0x011b           ; [CPU_] |1129| 
         000000ee 011B 
    1141                      .dwpsn  file "../source/DSP2803x_SWPrioritizedDefaultIsr.c",line 1130,column 2,is_stmt,isa 0
    1142 000000ef 1812!         AND       @_PieCtrlRegs+18,#0x0035 ; [CPU_] |1130| 
         000000f0 0035 
    1143                      .dwpsn  file "../source/DSP2803x_SWPrioritizedDefaultIsr.c",line 1131,column 2,is_stmt,isa 0
    1144 000000f1 2801!         MOV       @_PieCtrlRegs+1,#65535 ; [CPU_] |1131| 
         000000f2 FFFF 
    1145 000000f3 2910   clrc INTM
    1146 000000f4 3B10   setc INTM
    1147                      .dwpsn  file "../source/DSP2803x_SWPrioritizedDefaultIsr.c",line 1138,column 2,is_stmt,isa 0
    1148 000000f5 9241          MOV       AL,*-SP[1]            ; [CPU_] |1138| 
    1149 000000f6 9612!         MOV       @_PieCtrlRegs+18,AL   ; [CPU_] |1138| 
    1150 000000f7 7625        ESTOP0
    1151 000000f8       $C$L21:    
    1152                      .dwpsn  file "../source/DSP2803x_SWPrioritizedDefaultIsr.c",line 1143,column 5,is_stmt,isa 0
    1153 000000f8 6F00          B         $C$L21,UNC            ; [CPU_] |1143| 
    1154                      ; branch occurs ; [] |1143| 
    1155                      .dwattr $C$DW$29, DW_AT_TI_end_file("../source/DSP2803x_SWPrioritizedDefaultIsr.c")
    1156                      .dwattr $C$DW$29, DW_AT_TI_end_line(0x479)
    1157                      .dwattr $C$DW$29, DW_AT_TI_end_column(0x01)
    1158                      .dwendentry
    1159                      .dwendtag $C$DW$29
    1160              
    1161 000000f9               .sect   ".text:retain"
    1162                      .retain
    1163                      .retainrefs
    1164                      .global _SCITXINTA_ISR
    1165              
    1166              $C$DW$31        .dwtag  DW_TAG_subprogram, DW_AT_name("SCITXINTA_ISR")
    1167                      .dwattr $C$DW$31, DW_AT_low_pc(_SCITXINTA_ISR)
    1168                      .dwattr $C$DW$31, DW_AT_high_pc(0x00)
    1169                      .dwattr $C$DW$31, DW_AT_TI_symbol_name("_SCITXINTA_ISR")
    1170                      .dwattr $C$DW$31, DW_AT_external
    1171                      .dwattr $C$DW$31, DW_AT_TI_begin_file("../source/DSP2803x_SWPrioritizedDefaultIsr.c")
    1172                      .dwattr $C$DW$31, DW_AT_TI_begin_line(0x430)
    1173                      .dwattr $C$DW$31, DW_AT_TI_begin_column(0x12)
    1174                      .dwattr $C$DW$31, DW_AT_TI_interrupt
    1175                      .dwattr $C$DW$31, DW_AT_TI_max_frame_size(-4)
    1176                      .dwpsn  file "../source/DSP2803x_SWPrioritizedDefaultIsr.c",line 1073,column 1,is_stmt,address _SCITX
TMS320C2000 Assembler PC v6.4.12 Thu Nov 16 10:01:32 2017

Tools Copyright (c) 1996-2017 Texas Instruments Incorporated
C:\Users\Admin\AppData\Local\Temp\0610810                            PAGE   23

    1177              
    1178                      .dwfde $C$DW$CIE, _SCITXINTA_ISR
    1179              
    1180              ;***************************************************************
    1181              ;* FNAME: _SCITXINTA_ISR                FR SIZE:   2           *
    1182              ;*                                                             *
    1183              ;* FUNCTION ENVIRONMENT                                        *
    1184              ;*                                                             *
    1185              ;* FUNCTION PROPERTIES                                         *
    1186              ;*                            0 Parameter,  1 Auto,  0 SOE     *
    1187              ;***************************************************************
    1188              
    1189              _SCITXINTA_ISR:
    1190              $C$DW$32        .dwtag  DW_TAG_variable, DW_AT_name("TempPIEIER")
    1191                      .dwattr $C$DW$32, DW_AT_TI_symbol_name("_TempPIEIER")
    1192                      .dwattr $C$DW$32, DW_AT_type(*$C$DW$T$33)
    1193                      .dwattr $C$DW$32, DW_AT_location[DW_OP_breg20 -1]
    1194                      .dwcfi  cfa_offset, -2
    1195                      .dwcfi  save_reg_to_mem, 26, 0
    1196 000000f9 761B          ASP       ; [CPU_] 
    1197 000000fa FE02          ADDB      SP,#2                 ; [CPU_U] 
    1198                      .dwcfi  cfa_offset, -4
    1199 000000fb 2942          CLRC      PAGE0,OVM             ; [CPU_] 
    1200 000000fc 5616          CLRC      AMODE                 ; [CPU_] 
    1201 000000fd 761F!         MOVW      DP,#_PieCtrlRegs+18   ; [CPU_U] 
         000000fe 0000 
    1202                      .dwpsn  file "../source/DSP2803x_SWPrioritizedDefaultIsr.c",line 1075,column 29,is_stmt,isa 0
    1203 000000ff 9212!         MOV       AL,@_PieCtrlRegs+18   ; [CPU_] |1075| 
    1204 00000100 9641          MOV       *-SP[1],AL            ; [CPU_] |1075| 
    1205                      .dwpsn  file "../source/DSP2803x_SWPrioritizedDefaultIsr.c",line 1076,column 2,is_stmt,isa 0
    1206 00000101 7623          OR        IER,#0x0100           ; [CPU_] |1076| 
         00000102 0100 
    1207                      .dwpsn  file "../source/DSP2803x_SWPrioritizedDefaultIsr.c",line 1077,column 2,is_stmt,isa 0
    1208 00000103 7626          AND       IER,#0x011b           ; [CPU_] |1077| 
         00000104 011B 
    1209                      .dwpsn  file "../source/DSP2803x_SWPrioritizedDefaultIsr.c",line 1078,column 2,is_stmt,isa 0
    1210 00000105 1812!         AND       @_PieCtrlRegs+18,#0x003d ; [CPU_] |1078| 
         00000106 003D 
    1211                      .dwpsn  file "../source/DSP2803x_SWPrioritizedDefaultIsr.c",line 1079,column 2,is_stmt,isa 0
    1212 00000107 2801!         MOV       @_PieCtrlRegs+1,#65535 ; [CPU_] |1079| 
         00000108 FFFF 
    1213 00000109 2910   clrc INTM
    1214 0000010a 3B10   setc INTM
    1215                      .dwpsn  file "../source/DSP2803x_SWPrioritizedDefaultIsr.c",line 1086,column 2,is_stmt,isa 0
    1216 0000010b 9241          MOV       AL,*-SP[1]            ; [CPU_] |1086| 
    1217 0000010c 9612!         MOV       @_PieCtrlRegs+18,AL   ; [CPU_] |1086| 
    1218 0000010d 7625        ESTOP0
    1219 0000010e       $C$L22:    
    1220                      .dwpsn  file "../source/DSP2803x_SWPrioritizedDefaultIsr.c",line 1091,column 5,is_stmt,isa 0
    1221 0000010e 6F00          B         $C$L22,UNC            ; [CPU_] |1091| 
    1222                      ; branch occurs ; [] |1091| 
    1223                      .dwattr $C$DW$31, DW_AT_TI_end_file("../source/DSP2803x_SWPrioritizedDefaultIsr.c")
    1224                      .dwattr $C$DW$31, DW_AT_TI_end_line(0x445)
    1225                      .dwattr $C$DW$31, DW_AT_TI_end_column(0x01)
    1226                      .dwendentry
TMS320C2000 Assembler PC v6.4.12 Thu Nov 16 10:01:32 2017

Tools Copyright (c) 1996-2017 Texas Instruments Incorporated
C:\Users\Admin\AppData\Local\Temp\0610810                            PAGE   24

    1227                      .dwendtag $C$DW$31
    1228              
    1229 0000010f               .sect   ".text:retain"
    1230                      .retain
    1231                      .retainrefs
    1232                      .global _SCIRXINTA_ISR
    1233              
    1234              $C$DW$33        .dwtag  DW_TAG_subprogram, DW_AT_name("SCIRXINTA_ISR")
    1235                      .dwattr $C$DW$33, DW_AT_low_pc(_SCIRXINTA_ISR)
    1236                      .dwattr $C$DW$33, DW_AT_high_pc(0x00)
    1237                      .dwattr $C$DW$33, DW_AT_TI_symbol_name("_SCIRXINTA_ISR")
    1238                      .dwattr $C$DW$33, DW_AT_external
    1239                      .dwattr $C$DW$33, DW_AT_TI_begin_file("../source/DSP2803x_SWPrioritizedDefaultIsr.c")
    1240                      .dwattr $C$DW$33, DW_AT_TI_begin_line(0x416)
    1241                      .dwattr $C$DW$33, DW_AT_TI_begin_column(0x12)
    1242                      .dwattr $C$DW$33, DW_AT_TI_interrupt
    1243                      .dwattr $C$DW$33, DW_AT_TI_max_frame_size(-4)
    1244                      .dwpsn  file "../source/DSP2803x_SWPrioritizedDefaultIsr.c",line 1047,column 1,is_stmt,address _SCIRX
    1245              
    1246                      .dwfde $C$DW$CIE, _SCIRXINTA_ISR
    1247              
    1248              ;***************************************************************
    1249              ;* FNAME: _SCIRXINTA_ISR                FR SIZE:   2           *
    1250              ;*                                                             *
    1251              ;* FUNCTION ENVIRONMENT                                        *
    1252              ;*                                                             *
    1253              ;* FUNCTION PROPERTIES                                         *
    1254              ;*                            0 Parameter,  1 Auto,  0 SOE     *
    1255              ;***************************************************************
    1256              
    1257              _SCIRXINTA_ISR:
    1258              $C$DW$34        .dwtag  DW_TAG_variable, DW_AT_name("TempPIEIER")
    1259                      .dwattr $C$DW$34, DW_AT_TI_symbol_name("_TempPIEIER")
    1260                      .dwattr $C$DW$34, DW_AT_type(*$C$DW$T$33)
    1261                      .dwattr $C$DW$34, DW_AT_location[DW_OP_breg20 -1]
    1262                      .dwcfi  cfa_offset, -2
    1263                      .dwcfi  save_reg_to_mem, 26, 0
    1264 0000010f 761B          ASP       ; [CPU_] 
    1265 00000110 FE02          ADDB      SP,#2                 ; [CPU_U] 
    1266                      .dwcfi  cfa_offset, -4
    1267 00000111 2942          CLRC      PAGE0,OVM             ; [CPU_] 
    1268 00000112 5616          CLRC      AMODE                 ; [CPU_] 
    1269 00000113 761F!         MOVW      DP,#_PieCtrlRegs+18   ; [CPU_U] 
         00000114 0000 
    1270                      .dwpsn  file "../source/DSP2803x_SWPrioritizedDefaultIsr.c",line 1049,column 29,is_stmt,isa 0
    1271 00000115 9212!         MOV       AL,@_PieCtrlRegs+18   ; [CPU_] |1049| 
    1272 00000116 9641          MOV       *-SP[1],AL            ; [CPU_] |1049| 
    1273                      .dwpsn  file "../source/DSP2803x_SWPrioritizedDefaultIsr.c",line 1050,column 2,is_stmt,isa 0
    1274 00000117 7623          OR        IER,#0x0100           ; [CPU_] |1050| 
         00000118 0100 
    1275                      .dwpsn  file "../source/DSP2803x_SWPrioritizedDefaultIsr.c",line 1051,column 2,is_stmt,isa 0
    1276 00000119 7626          AND       IER,#0x011b           ; [CPU_] |1051| 
         0000011a 011B 
    1277                      .dwpsn  file "../source/DSP2803x_SWPrioritizedDefaultIsr.c",line 1052,column 2,is_stmt,isa 0
    1278 0000011b 9212!         MOV       AL,@_PieCtrlRegs+18   ; [CPU_] |1052| 
TMS320C2000 Assembler PC v6.4.12 Thu Nov 16 10:01:32 2017

Tools Copyright (c) 1996-2017 Texas Instruments Incorporated
C:\Users\Admin\AppData\Local\Temp\0610810                            PAGE   25

    1279 0000011c 2B12!         MOV       @_PieCtrlRegs+18,#0   ; [CPU_] |1052| 
    1280                      .dwpsn  file "../source/DSP2803x_SWPrioritizedDefaultIsr.c",line 1053,column 2,is_stmt,isa 0
    1281 0000011d 2801!         MOV       @_PieCtrlRegs+1,#65535 ; [CPU_] |1053| 
         0000011e FFFF 
    1282 0000011f 2910   clrc INTM
    1283 00000120 3B10   setc INTM
    1284                      .dwpsn  file "../source/DSP2803x_SWPrioritizedDefaultIsr.c",line 1060,column 2,is_stmt,isa 0
    1285 00000121 9241          MOV       AL,*-SP[1]            ; [CPU_] |1060| 
    1286 00000122 9612!         MOV       @_PieCtrlRegs+18,AL   ; [CPU_] |1060| 
    1287 00000123 7625        ESTOP0
    1288 00000124       $C$L23:    
    1289                      .dwpsn  file "../source/DSP2803x_SWPrioritizedDefaultIsr.c",line 1065,column 5,is_stmt,isa 0
    1290 00000124 6F00          B         $C$L23,UNC            ; [CPU_] |1065| 
    1291                      ; branch occurs ; [] |1065| 
    1292                      .dwattr $C$DW$33, DW_AT_TI_end_file("../source/DSP2803x_SWPrioritizedDefaultIsr.c")
    1293                      .dwattr $C$DW$33, DW_AT_TI_end_line(0x42b)
    1294                      .dwattr $C$DW$33, DW_AT_TI_end_column(0x01)
    1295                      .dwendentry
    1296                      .dwendtag $C$DW$33
    1297              
    1298 00000125               .sect   ".text:retain"
    1299                      .retain
    1300                      .retainrefs
    1301                      .global _RTOSINT_ISR
    1302              
    1303              $C$DW$35        .dwtag  DW_TAG_subprogram, DW_AT_name("RTOSINT_ISR")
    1304                      .dwattr $C$DW$35, DW_AT_low_pc(_RTOSINT_ISR)
    1305                      .dwattr $C$DW$35, DW_AT_high_pc(0x00)
    1306                      .dwattr $C$DW$35, DW_AT_TI_symbol_name("_RTOSINT_ISR")
    1307                      .dwattr $C$DW$35, DW_AT_external
    1308                      .dwattr $C$DW$35, DW_AT_TI_begin_file("../source/DSP2803x_SWPrioritizedDefaultIsr.c")
    1309                      .dwattr $C$DW$35, DW_AT_TI_begin_line(0x46)
    1310                      .dwattr $C$DW$35, DW_AT_TI_begin_column(0x12)
    1311                      .dwattr $C$DW$35, DW_AT_TI_interrupt
    1312                      .dwattr $C$DW$35, DW_AT_TI_max_frame_size(-2)
    1313                      .dwpsn  file "../source/DSP2803x_SWPrioritizedDefaultIsr.c",line 71,column 1,is_stmt,address _RTOSINT
    1314              
    1315                      .dwfde $C$DW$CIE, _RTOSINT_ISR
    1316              
    1317              ;***************************************************************
    1318              ;* FNAME: _RTOSINT_ISR                  FR SIZE:   0           *
    1319              ;*                                                             *
    1320              ;* FUNCTION ENVIRONMENT                                        *
    1321              ;*                                                             *
    1322              ;* FUNCTION PROPERTIES                                         *
    1323              ;*                            0 Parameter,  0 Auto,  0 SOE     *
    1324              ;***************************************************************
    1325              
    1326 00000125       _RTOSINT_ISR:
    1327                      .dwcfi  cfa_offset, -2
    1328                      .dwcfi  save_reg_to_mem, 26, 0
    1329 00000125 761B          ASP       ; [CPU_] 
    1330 00000126 2942          CLRC      PAGE0,OVM             ; [CPU_] 
    1331 00000127 5616          CLRC      AMODE                 ; [CPU_] 
    1332                      .dwpsn  file "../source/DSP2803x_SWPrioritizedDefaultIsr.c",line 72,column 2,is_stmt,isa 0
TMS320C2000 Assembler PC v6.4.12 Thu Nov 16 10:01:32 2017

Tools Copyright (c) 1996-2017 Texas Instruments Incorporated
C:\Users\Admin\AppData\Local\Temp\0610810                            PAGE   26

    1333 00000128 7623          OR        IER,#0x013b           ; [CPU_] |72| 
         00000129 013B 
    1334 0000012a 2910   clrc INTM
    1335 0000012b 7625        ESTOP0
    1336 0000012c       $C$L24:    
    1337                      .dwpsn  file "../source/DSP2803x_SWPrioritizedDefaultIsr.c",line 80,column 5,is_stmt,isa 0
    1338 0000012c 6F00          B         $C$L24,UNC            ; [CPU_] |80| 
    1339                      ; branch occurs ; [] |80| 
    1340                      .dwattr $C$DW$35, DW_AT_TI_end_file("../source/DSP2803x_SWPrioritizedDefaultIsr.c")
    1341                      .dwattr $C$DW$35, DW_AT_TI_end_line(0x51)
    1342                      .dwattr $C$DW$35, DW_AT_TI_end_column(0x01)
    1343                      .dwendentry
    1344                      .dwendtag $C$DW$35
    1345              
    1346 0000012d               .sect   ".text:retain"
    1347                      .retain
    1348                      .retainrefs
    1349                      .global _PIE_RESERVED
    1350              
    1351              $C$DW$36        .dwtag  DW_TAG_subprogram, DW_AT_name("PIE_RESERVED")
    1352                      .dwattr $C$DW$36, DW_AT_low_pc(_PIE_RESERVED)
    1353                      .dwattr $C$DW$36, DW_AT_high_pc(0x00)
    1354                      .dwattr $C$DW$36, DW_AT_TI_symbol_name("_PIE_RESERVED")
    1355                      .dwattr $C$DW$36, DW_AT_external
    1356                      .dwattr $C$DW$36, DW_AT_TI_begin_file("../source/DSP2803x_SWPrioritizedDefaultIsr.c")
    1357                      .dwattr $C$DW$36, DW_AT_TI_begin_line(0x68e)
    1358                      .dwattr $C$DW$36, DW_AT_TI_begin_column(0x12)
    1359                      .dwattr $C$DW$36, DW_AT_TI_interrupt
    1360                      .dwattr $C$DW$36, DW_AT_TI_max_frame_size(-2)
    1361                      .dwpsn  file "../source/DSP2803x_SWPrioritizedDefaultIsr.c",line 1679,column 1,is_stmt,address _PIE_R
    1362              
    1363                      .dwfde $C$DW$CIE, _PIE_RESERVED
    1364              
    1365              ;***************************************************************
    1366              ;* FNAME: _PIE_RESERVED                 FR SIZE:   0           *
    1367              ;*                                                             *
    1368              ;* FUNCTION ENVIRONMENT                                        *
    1369              ;*                                                             *
    1370              ;* FUNCTION PROPERTIES                                         *
    1371              ;*                            0 Parameter,  0 Auto,  0 SOE     *
    1372              ;***************************************************************
    1373              
    1374 0000012d       _PIE_RESERVED:
    1375                      .dwcfi  cfa_offset, -2
    1376                      .dwcfi  save_reg_to_mem, 26, 0
    1377 0000012d 761B          ASP       ; [CPU_] 
    1378 0000012e 2942          CLRC      PAGE0,OVM             ; [CPU_] 
    1379 0000012f 5616          CLRC      AMODE                 ; [CPU_] 
    1380 00000130 7625        ESTOP0
    1381 00000131       $C$L25:    
    1382                      .dwpsn  file "../source/DSP2803x_SWPrioritizedDefaultIsr.c",line 1681,column 3,is_stmt,isa 0
    1383 00000131 6F00          B         $C$L25,UNC            ; [CPU_] |1681| 
    1384                      ; branch occurs ; [] |1681| 
    1385                      .dwattr $C$DW$36, DW_AT_TI_end_file("../source/DSP2803x_SWPrioritizedDefaultIsr.c")
    1386                      .dwattr $C$DW$36, DW_AT_TI_end_line(0x692)
TMS320C2000 Assembler PC v6.4.12 Thu Nov 16 10:01:32 2017

Tools Copyright (c) 1996-2017 Texas Instruments Incorporated
C:\Users\Admin\AppData\Local\Temp\0610810                            PAGE   27

    1387                      .dwattr $C$DW$36, DW_AT_TI_end_column(0x01)
    1388                      .dwendentry
    1389                      .dwendtag $C$DW$36
    1390              
    1391 00000132               .sect   ".text:retain"
    1392                      .retain
    1393                      .retainrefs
    1394                      .global _NMI_ISR
    1395              
    1396              $C$DW$37        .dwtag  DW_TAG_subprogram, DW_AT_name("NMI_ISR")
    1397                      .dwattr $C$DW$37, DW_AT_low_pc(_NMI_ISR)
    1398                      .dwattr $C$DW$37, DW_AT_high_pc(0x00)
    1399                      .dwattr $C$DW$37, DW_AT_TI_symbol_name("_NMI_ISR")
    1400                      .dwattr $C$DW$37, DW_AT_external
    1401                      .dwattr $C$DW$37, DW_AT_TI_begin_file("../source/DSP2803x_SWPrioritizedDefaultIsr.c")
    1402                      .dwattr $C$DW$37, DW_AT_TI_begin_line(0x62)
    1403                      .dwattr $C$DW$37, DW_AT_TI_begin_column(0x12)
    1404                      .dwattr $C$DW$37, DW_AT_TI_interrupt
    1405                      .dwattr $C$DW$37, DW_AT_TI_max_frame_size(-2)
    1406                      .dwpsn  file "../source/DSP2803x_SWPrioritizedDefaultIsr.c",line 99,column 1,is_stmt,address _NMI_ISR
    1407              
    1408                      .dwfde $C$DW$CIE, _NMI_ISR
    1409              
    1410              ;***************************************************************
    1411              ;* FNAME: _NMI_ISR                      FR SIZE:   0           *
    1412              ;*                                                             *
    1413              ;* FUNCTION ENVIRONMENT                                        *
    1414              ;*                                                             *
    1415              ;* FUNCTION PROPERTIES                                         *
    1416              ;*                            0 Parameter,  0 Auto,  0 SOE     *
    1417              ;***************************************************************
    1418              
    1419 00000132       _NMI_ISR:
    1420                      .dwcfi  cfa_offset, -2
    1421                      .dwcfi  save_reg_to_mem, 26, 0
    1422 00000132 761B          ASP       ; [CPU_] 
    1423 00000133 2942          CLRC      PAGE0,OVM             ; [CPU_] 
    1424 00000134 5616          CLRC      AMODE                 ; [CPU_] 
    1425 00000135 2910   clrc INTM
    1426 00000136 7625        ESTOP0
    1427 00000137       $C$L26:    
    1428                      .dwpsn  file "../source/DSP2803x_SWPrioritizedDefaultIsr.c",line 107,column 5,is_stmt,isa 0
    1429 00000137 6F00          B         $C$L26,UNC            ; [CPU_] |107| 
    1430                      ; branch occurs ; [] |107| 
    1431                      .dwattr $C$DW$37, DW_AT_TI_end_file("../source/DSP2803x_SWPrioritizedDefaultIsr.c")
    1432                      .dwattr $C$DW$37, DW_AT_TI_end_line(0x6c)
    1433                      .dwattr $C$DW$37, DW_AT_TI_end_column(0x01)
    1434                      .dwendentry
    1435                      .dwendtag $C$DW$37
    1436              
    1437 00000138               .sect   ".text:retain"
    1438                      .retain
    1439                      .retainrefs
    1440                      .global _LVF_ISR
    1441              
TMS320C2000 Assembler PC v6.4.12 Thu Nov 16 10:01:32 2017

Tools Copyright (c) 1996-2017 Texas Instruments Incorporated
C:\Users\Admin\AppData\Local\Temp\0610810                            PAGE   28

    1442              $C$DW$38        .dwtag  DW_TAG_subprogram, DW_AT_name("LVF_ISR")
    1443                      .dwattr $C$DW$38, DW_AT_low_pc(_LVF_ISR)
    1444                      .dwattr $C$DW$38, DW_AT_high_pc(0x00)
    1445                      .dwattr $C$DW$38, DW_AT_TI_symbol_name("_LVF_ISR")
    1446                      .dwattr $C$DW$38, DW_AT_external
    1447                      .dwattr $C$DW$38, DW_AT_TI_begin_file("../source/DSP2803x_SWPrioritizedDefaultIsr.c")
    1448                      .dwattr $C$DW$38, DW_AT_TI_begin_line(0x657)
    1449                      .dwattr $C$DW$38, DW_AT_TI_begin_column(0x12)
    1450                      .dwattr $C$DW$38, DW_AT_TI_interrupt
    1451                      .dwattr $C$DW$38, DW_AT_TI_max_frame_size(-4)
    1452                      .dwpsn  file "../source/DSP2803x_SWPrioritizedDefaultIsr.c",line 1624,column 1,is_stmt,address _LVF_I
    1453              
    1454                      .dwfde $C$DW$CIE, _LVF_ISR
    1455              
    1456              ;***************************************************************
    1457              ;* FNAME: _LVF_ISR                      FR SIZE:   2           *
    1458              ;*                                                             *
    1459              ;* FUNCTION ENVIRONMENT                                        *
    1460              ;*                                                             *
    1461              ;* FUNCTION PROPERTIES                                         *
    1462              ;*                            0 Parameter,  1 Auto,  0 SOE     *
    1463              ;***************************************************************
    1464              
    1465              _LVF_ISR:
    1466              $C$DW$39        .dwtag  DW_TAG_variable, DW_AT_name("TempPIEIER")
    1467                      .dwattr $C$DW$39, DW_AT_TI_symbol_name("_TempPIEIER")
    1468                      .dwattr $C$DW$39, DW_AT_type(*$C$DW$T$33)
    1469                      .dwattr $C$DW$39, DW_AT_location[DW_OP_breg20 -1]
    1470                      .dwcfi  cfa_offset, -2
    1471                      .dwcfi  save_reg_to_mem, 26, 0
    1472 00000138 761B          ASP       ; [CPU_] 
    1473 00000139 FE02          ADDB      SP,#2                 ; [CPU_U] 
    1474                      .dwcfi  cfa_offset, -4
    1475 0000013a 2942          CLRC      PAGE0,OVM             ; [CPU_] 
    1476 0000013b 5616          CLRC      AMODE                 ; [CPU_] 
    1477 0000013c 761F!         MOVW      DP,#_PieCtrlRegs+24   ; [CPU_U] 
         0000013d 0000 
    1478                      .dwpsn  file "../source/DSP2803x_SWPrioritizedDefaultIsr.c",line 1626,column 29,is_stmt,isa 0
    1479 0000013e 9218!         MOV       AL,@_PieCtrlRegs+24   ; [CPU_] |1626| 
    1480 0000013f 9641          MOV       *-SP[1],AL            ; [CPU_] |1626| 
    1481                      .dwpsn  file "../source/DSP2803x_SWPrioritizedDefaultIsr.c",line 1627,column 2,is_stmt,isa 0
    1482 00000140 7623          OR        IER,#0x0800           ; [CPU_] |1627| 
         00000141 0800 
    1483                      .dwpsn  file "../source/DSP2803x_SWPrioritizedDefaultIsr.c",line 1628,column 2,is_stmt,isa 0
    1484 00000142 7626          AND       IER,#0xffbf           ; [CPU_] |1628| 
         00000143 FFBF 
    1485                      .dwpsn  file "../source/DSP2803x_SWPrioritizedDefaultIsr.c",line 1629,column 2,is_stmt,isa 0
    1486 00000144 1818!         AND       @_PieCtrlRegs+24,#0x0081 ; [CPU_] |1629| 
         00000145 0081 
    1487                      .dwpsn  file "../source/DSP2803x_SWPrioritizedDefaultIsr.c",line 1630,column 2,is_stmt,isa 0
    1488 00000146 2801!         MOV       @_PieCtrlRegs+1,#65535 ; [CPU_] |1630| 
         00000147 FFFF 
    1489 00000148 2910   clrc INTM
    1490 00000149 3B10   setc INTM
    1491                      .dwpsn  file "../source/DSP2803x_SWPrioritizedDefaultIsr.c",line 1637,column 2,is_stmt,isa 0
TMS320C2000 Assembler PC v6.4.12 Thu Nov 16 10:01:32 2017

Tools Copyright (c) 1996-2017 Texas Instruments Incorporated
C:\Users\Admin\AppData\Local\Temp\0610810                            PAGE   29

    1492 0000014a 9241          MOV       AL,*-SP[1]            ; [CPU_] |1637| 
    1493 0000014b 9618!         MOV       @_PieCtrlRegs+24,AL   ; [CPU_] |1637| 
    1494 0000014c 7625        ESTOP0
    1495 0000014d       $C$L27:    
    1496                      .dwpsn  file "../source/DSP2803x_SWPrioritizedDefaultIsr.c",line 1642,column 5,is_stmt,isa 0
    1497 0000014d 6F00          B         $C$L27,UNC            ; [CPU_] |1642| 
    1498                      ; branch occurs ; [] |1642| 
    1499                      .dwattr $C$DW$38, DW_AT_TI_end_file("../source/DSP2803x_SWPrioritizedDefaultIsr.c")
    1500                      .dwattr $C$DW$38, DW_AT_TI_end_line(0x66c)
    1501                      .dwattr $C$DW$38, DW_AT_TI_end_column(0x01)
    1502                      .dwendentry
    1503                      .dwendtag $C$DW$38
    1504              
    1505 0000014e               .sect   ".text:retain"
    1506                      .retain
    1507                      .retainrefs
    1508                      .global _LUF_ISR
    1509              
    1510              $C$DW$40        .dwtag  DW_TAG_subprogram, DW_AT_name("LUF_ISR")
    1511                      .dwattr $C$DW$40, DW_AT_low_pc(_LUF_ISR)
    1512                      .dwattr $C$DW$40, DW_AT_high_pc(0x00)
    1513                      .dwattr $C$DW$40, DW_AT_TI_symbol_name("_LUF_ISR")
    1514                      .dwattr $C$DW$40, DW_AT_external
    1515                      .dwattr $C$DW$40, DW_AT_TI_begin_file("../source/DSP2803x_SWPrioritizedDefaultIsr.c")
    1516                      .dwattr $C$DW$40, DW_AT_TI_begin_line(0x671)
    1517                      .dwattr $C$DW$40, DW_AT_TI_begin_column(0x12)
    1518                      .dwattr $C$DW$40, DW_AT_TI_interrupt
    1519                      .dwattr $C$DW$40, DW_AT_TI_max_frame_size(-4)
    1520                      .dwpsn  file "../source/DSP2803x_SWPrioritizedDefaultIsr.c",line 1650,column 1,is_stmt,address _LUF_I
    1521              
    1522                      .dwfde $C$DW$CIE, _LUF_ISR
    1523              
    1524              ;***************************************************************
    1525              ;* FNAME: _LUF_ISR                      FR SIZE:   2           *
    1526              ;*                                                             *
    1527              ;* FUNCTION ENVIRONMENT                                        *
    1528              ;*                                                             *
    1529              ;* FUNCTION PROPERTIES                                         *
    1530              ;*                            0 Parameter,  1 Auto,  0 SOE     *
    1531              ;***************************************************************
    1532              
    1533              _LUF_ISR:
    1534              $C$DW$41        .dwtag  DW_TAG_variable, DW_AT_name("TempPIEIER")
    1535                      .dwattr $C$DW$41, DW_AT_TI_symbol_name("_TempPIEIER")
    1536                      .dwattr $C$DW$41, DW_AT_type(*$C$DW$T$33)
    1537                      .dwattr $C$DW$41, DW_AT_location[DW_OP_breg20 -1]
    1538                      .dwcfi  cfa_offset, -2
    1539                      .dwcfi  save_reg_to_mem, 26, 0
    1540 0000014e 761B          ASP       ; [CPU_] 
    1541 0000014f FE02          ADDB      SP,#2                 ; [CPU_U] 
    1542                      .dwcfi  cfa_offset, -4
    1543 00000150 2942          CLRC      PAGE0,OVM             ; [CPU_] 
    1544 00000151 5616          CLRC      AMODE                 ; [CPU_] 
    1545 00000152 761F!         MOVW      DP,#_PieCtrlRegs+24   ; [CPU_U] 
         00000153 0000 
TMS320C2000 Assembler PC v6.4.12 Thu Nov 16 10:01:32 2017

Tools Copyright (c) 1996-2017 Texas Instruments Incorporated
C:\Users\Admin\AppData\Local\Temp\0610810                            PAGE   30

    1546                      .dwpsn  file "../source/DSP2803x_SWPrioritizedDefaultIsr.c",line 1652,column 29,is_stmt,isa 0
    1547 00000154 9218!         MOV       AL,@_PieCtrlRegs+24   ; [CPU_] |1652| 
    1548 00000155 9641          MOV       *-SP[1],AL            ; [CPU_] |1652| 
    1549                      .dwpsn  file "../source/DSP2803x_SWPrioritizedDefaultIsr.c",line 1653,column 2,is_stmt,isa 0
    1550 00000156 7623          OR        IER,#0x0800           ; [CPU_] |1653| 
         00000157 0800 
    1551                      .dwpsn  file "../source/DSP2803x_SWPrioritizedDefaultIsr.c",line 1654,column 2,is_stmt,isa 0
    1552 00000158 7626          AND       IER,#0xffbf           ; [CPU_] |1654| 
         00000159 FFBF 
    1553                      .dwpsn  file "../source/DSP2803x_SWPrioritizedDefaultIsr.c",line 1655,column 2,is_stmt,isa 0
    1554 0000015a 1818!         AND       @_PieCtrlRegs+24,#0x0001 ; [CPU_] |1655| 
         0000015b 0001 
    1555                      .dwpsn  file "../source/DSP2803x_SWPrioritizedDefaultIsr.c",line 1656,column 2,is_stmt,isa 0
    1556 0000015c 2801!         MOV       @_PieCtrlRegs+1,#65535 ; [CPU_] |1656| 
         0000015d FFFF 
    1557 0000015e 2910   clrc INTM
    1558 0000015f 3B10   setc INTM
    1559                      .dwpsn  file "../source/DSP2803x_SWPrioritizedDefaultIsr.c",line 1663,column 2,is_stmt,isa 0
    1560 00000160 9241          MOV       AL,*-SP[1]            ; [CPU_] |1663| 
    1561 00000161 9618!         MOV       @_PieCtrlRegs+24,AL   ; [CPU_] |1663| 
    1562 00000162 7625        ESTOP0
    1563 00000163       $C$L28:    
    1564                      .dwpsn  file "../source/DSP2803x_SWPrioritizedDefaultIsr.c",line 1668,column 5,is_stmt,isa 0
    1565 00000163 6F00          B         $C$L28,UNC            ; [CPU_] |1668| 
    1566                      ; branch occurs ; [] |1668| 
    1567                      .dwattr $C$DW$40, DW_AT_TI_end_file("../source/DSP2803x_SWPrioritizedDefaultIsr.c")
    1568                      .dwattr $C$DW$40, DW_AT_TI_end_line(0x686)
    1569                      .dwattr $C$DW$40, DW_AT_TI_end_column(0x01)
    1570                      .dwendentry
    1571                      .dwendtag $C$DW$40
    1572              
    1573 00000164               .sect   ".text:retain"
    1574                      .retain
    1575                      .retainrefs
    1576                      .global _LIN0INTA_ISR
    1577              
    1578              $C$DW$42        .dwtag  DW_TAG_subprogram, DW_AT_name("LIN0INTA_ISR")
    1579                      .dwattr $C$DW$42, DW_AT_low_pc(_LIN0INTA_ISR)
    1580                      .dwattr $C$DW$42, DW_AT_high_pc(0x00)
    1581                      .dwattr $C$DW$42, DW_AT_TI_symbol_name("_LIN0INTA_ISR")
    1582                      .dwattr $C$DW$42, DW_AT_external
    1583                      .dwattr $C$DW$42, DW_AT_TI_begin_file("../source/DSP2803x_SWPrioritizedDefaultIsr.c")
    1584                      .dwattr $C$DW$42, DW_AT_TI_begin_line(0x44a)
    1585                      .dwattr $C$DW$42, DW_AT_TI_begin_column(0x12)
    1586                      .dwattr $C$DW$42, DW_AT_TI_interrupt
    1587                      .dwattr $C$DW$42, DW_AT_TI_max_frame_size(-4)
    1588                      .dwpsn  file "../source/DSP2803x_SWPrioritizedDefaultIsr.c",line 1099,column 1,is_stmt,address _LIN0I
    1589              
    1590                      .dwfde $C$DW$CIE, _LIN0INTA_ISR
    1591              
    1592              ;***************************************************************
    1593              ;* FNAME: _LIN0INTA_ISR                 FR SIZE:   2           *
    1594              ;*                                                             *
    1595              ;* FUNCTION ENVIRONMENT                                        *
    1596              ;*                                                             *
TMS320C2000 Assembler PC v6.4.12 Thu Nov 16 10:01:32 2017

Tools Copyright (c) 1996-2017 Texas Instruments Incorporated
C:\Users\Admin\AppData\Local\Temp\0610810                            PAGE   31

    1597              ;* FUNCTION PROPERTIES                                         *
    1598              ;*                            0 Parameter,  1 Auto,  0 SOE     *
    1599              ;***************************************************************
    1600              
    1601              _LIN0INTA_ISR:
    1602              $C$DW$43        .dwtag  DW_TAG_variable, DW_AT_name("TempPIEIER")
    1603                      .dwattr $C$DW$43, DW_AT_TI_symbol_name("_TempPIEIER")
    1604                      .dwattr $C$DW$43, DW_AT_type(*$C$DW$T$33)
    1605                      .dwattr $C$DW$43, DW_AT_location[DW_OP_breg20 -1]
    1606                      .dwcfi  cfa_offset, -2
    1607                      .dwcfi  save_reg_to_mem, 26, 0
    1608 00000164 761B          ASP       ; [CPU_] 
    1609 00000165 FE02          ADDB      SP,#2                 ; [CPU_U] 
    1610                      .dwcfi  cfa_offset, -4
    1611 00000166 2942          CLRC      PAGE0,OVM             ; [CPU_] 
    1612 00000167 5616          CLRC      AMODE                 ; [CPU_] 
    1613 00000168 761F!         MOVW      DP,#_PieCtrlRegs+18   ; [CPU_U] 
         00000169 0000 
    1614                      .dwpsn  file "../source/DSP2803x_SWPrioritizedDefaultIsr.c",line 1101,column 29,is_stmt,isa 0
    1615 0000016a 9212!         MOV       AL,@_PieCtrlRegs+18   ; [CPU_] |1101| 
    1616 0000016b 9641          MOV       *-SP[1],AL            ; [CPU_] |1101| 
    1617                      .dwpsn  file "../source/DSP2803x_SWPrioritizedDefaultIsr.c",line 1102,column 2,is_stmt,isa 0
    1618 0000016c 7623          OR        IER,#0x0100           ; [CPU_] |1102| 
         0000016d 0100 
    1619                      .dwpsn  file "../source/DSP2803x_SWPrioritizedDefaultIsr.c",line 1103,column 2,is_stmt,isa 0
    1620 0000016e 7626          AND       IER,#0x011b           ; [CPU_] |1103| 
         0000016f 011B 
    1621                      .dwpsn  file "../source/DSP2803x_SWPrioritizedDefaultIsr.c",line 1104,column 2,is_stmt,isa 0
    1622 00000170 1812!         AND       @_PieCtrlRegs+18,#0x0031 ; [CPU_] |1104| 
         00000171 0031 
    1623                      .dwpsn  file "../source/DSP2803x_SWPrioritizedDefaultIsr.c",line 1105,column 2,is_stmt,isa 0
    1624 00000172 2801!         MOV       @_PieCtrlRegs+1,#65535 ; [CPU_] |1105| 
         00000173 FFFF 
    1625 00000174 2910   clrc INTM
    1626 00000175 3B10   setc INTM
    1627                      .dwpsn  file "../source/DSP2803x_SWPrioritizedDefaultIsr.c",line 1112,column 2,is_stmt,isa 0
    1628 00000176 9241          MOV       AL,*-SP[1]            ; [CPU_] |1112| 
    1629 00000177 9612!         MOV       @_PieCtrlRegs+18,AL   ; [CPU_] |1112| 
    1630 00000178 7625        ESTOP0
    1631 00000179       $C$L29:    
    1632                      .dwpsn  file "../source/DSP2803x_SWPrioritizedDefaultIsr.c",line 1117,column 5,is_stmt,isa 0
    1633 00000179 6F00          B         $C$L29,UNC            ; [CPU_] |1117| 
    1634                      ; branch occurs ; [] |1117| 
    1635                      .dwattr $C$DW$42, DW_AT_TI_end_file("../source/DSP2803x_SWPrioritizedDefaultIsr.c")
    1636                      .dwattr $C$DW$42, DW_AT_TI_end_line(0x45f)
    1637                      .dwattr $C$DW$42, DW_AT_TI_end_column(0x01)
    1638                      .dwendentry
    1639                      .dwendtag $C$DW$42
    1640              
    1641 0000017a               .sect   ".text:retain"
    1642                      .retain
    1643                      .retainrefs
    1644                      .global _INT_NOTUSED_ISR
    1645              
    1646              $C$DW$44        .dwtag  DW_TAG_subprogram, DW_AT_name("INT_NOTUSED_ISR")
TMS320C2000 Assembler PC v6.4.12 Thu Nov 16 10:01:32 2017

Tools Copyright (c) 1996-2017 Texas Instruments Incorporated
C:\Users\Admin\AppData\Local\Temp\0610810                            PAGE   32

    1647                      .dwattr $C$DW$44, DW_AT_low_pc(_INT_NOTUSED_ISR)
    1648                      .dwattr $C$DW$44, DW_AT_high_pc(0x00)
    1649                      .dwattr $C$DW$44, DW_AT_TI_symbol_name("_INT_NOTUSED_ISR")
    1650                      .dwattr $C$DW$44, DW_AT_external
    1651                      .dwattr $C$DW$44, DW_AT_TI_begin_file("../source/DSP2803x_SWPrioritizedDefaultIsr.c")
    1652                      .dwattr $C$DW$44, DW_AT_TI_begin_line(0x694)
    1653                      .dwattr $C$DW$44, DW_AT_TI_begin_column(0x12)
    1654                      .dwattr $C$DW$44, DW_AT_TI_interrupt
    1655                      .dwattr $C$DW$44, DW_AT_TI_max_frame_size(-2)
    1656                      .dwpsn  file "../source/DSP2803x_SWPrioritizedDefaultIsr.c",line 1685,column 1,is_stmt,address _INT_N
    1657              
    1658                      .dwfde $C$DW$CIE, _INT_NOTUSED_ISR
    1659              
    1660              ;***************************************************************
    1661              ;* FNAME: _INT_NOTUSED_ISR              FR SIZE:   0           *
    1662              ;*                                                             *
    1663              ;* FUNCTION ENVIRONMENT                                        *
    1664              ;*                                                             *
    1665              ;* FUNCTION PROPERTIES                                         *
    1666              ;*                            0 Parameter,  0 Auto,  0 SOE     *
    1667              ;***************************************************************
    1668              
    1669 0000017a       _INT_NOTUSED_ISR:
    1670                      .dwcfi  cfa_offset, -2
    1671                      .dwcfi  save_reg_to_mem, 26, 0
    1672 0000017a 761B          ASP       ; [CPU_] 
    1673 0000017b 2942          CLRC      PAGE0,OVM             ; [CPU_] 
    1674 0000017c 5616          CLRC      AMODE                 ; [CPU_] 
    1675 0000017d 7625        ESTOP0
    1676 0000017e       $C$L30:    
    1677                      .dwpsn  file "../source/DSP2803x_SWPrioritizedDefaultIsr.c",line 1687,column 3,is_stmt,isa 0
    1678 0000017e 6F00          B         $C$L30,UNC            ; [CPU_] |1687| 
    1679                      ; branch occurs ; [] |1687| 
    1680                      .dwattr $C$DW$44, DW_AT_TI_end_file("../source/DSP2803x_SWPrioritizedDefaultIsr.c")
    1681                      .dwattr $C$DW$44, DW_AT_TI_end_line(0x698)
    1682                      .dwattr $C$DW$44, DW_AT_TI_end_column(0x01)
    1683                      .dwendentry
    1684                      .dwendtag $C$DW$44
    1685              
    1686 0000017f               .sect   ".text:retain"
    1687                      .retain
    1688                      .retainrefs
    1689                      .global _INT14_ISR
    1690              
    1691              $C$DW$45        .dwtag  DW_TAG_subprogram, DW_AT_name("INT14_ISR")
    1692                      .dwattr $C$DW$45, DW_AT_low_pc(_INT14_ISR)
    1693                      .dwattr $C$DW$45, DW_AT_high_pc(0x00)
    1694                      .dwattr $C$DW$45, DW_AT_TI_symbol_name("_INT14_ISR")
    1695                      .dwattr $C$DW$45, DW_AT_external
    1696                      .dwattr $C$DW$45, DW_AT_TI_begin_file("../source/DSP2803x_SWPrioritizedDefaultIsr.c")
    1697                      .dwattr $C$DW$45, DW_AT_TI_begin_line(0x26)
    1698                      .dwattr $C$DW$45, DW_AT_TI_begin_column(0x12)
    1699                      .dwattr $C$DW$45, DW_AT_TI_interrupt
    1700                      .dwattr $C$DW$45, DW_AT_TI_max_frame_size(-2)
    1701                      .dwpsn  file "../source/DSP2803x_SWPrioritizedDefaultIsr.c",line 39,column 1,is_stmt,address _INT14_I
TMS320C2000 Assembler PC v6.4.12 Thu Nov 16 10:01:32 2017

Tools Copyright (c) 1996-2017 Texas Instruments Incorporated
C:\Users\Admin\AppData\Local\Temp\0610810                            PAGE   33

    1702              
    1703                      .dwfde $C$DW$CIE, _INT14_ISR
    1704              
    1705              ;***************************************************************
    1706              ;* FNAME: _INT14_ISR                    FR SIZE:   0           *
    1707              ;*                                                             *
    1708              ;* FUNCTION ENVIRONMENT                                        *
    1709              ;*                                                             *
    1710              ;* FUNCTION PROPERTIES                                         *
    1711              ;*                            0 Parameter,  0 Auto,  0 SOE     *
    1712              ;***************************************************************
    1713              
    1714 0000017f       _INT14_ISR:
    1715                      .dwcfi  cfa_offset, -2
    1716                      .dwcfi  save_reg_to_mem, 26, 0
    1717 0000017f 761B          ASP       ; [CPU_] 
    1718 00000180 2942          CLRC      PAGE0,OVM             ; [CPU_] 
    1719 00000181 5616          CLRC      AMODE                 ; [CPU_] 
    1720                      .dwpsn  file "../source/DSP2803x_SWPrioritizedDefaultIsr.c",line 40,column 4,is_stmt,isa 0
    1721 00000182 7623          OR        IER,#0x013b           ; [CPU_] |40| 
         00000183 013B 
    1722 00000184 2910   clrc INTM
    1723 00000185 7625        ESTOP0
    1724 00000186       $C$L31:    
    1725                      .dwpsn  file "../source/DSP2803x_SWPrioritizedDefaultIsr.c",line 48,column 4,is_stmt,isa 0
    1726 00000186 6F00          B         $C$L31,UNC            ; [CPU_] |48| 
    1727                      ; branch occurs ; [] |48| 
    1728                      .dwattr $C$DW$45, DW_AT_TI_end_file("../source/DSP2803x_SWPrioritizedDefaultIsr.c")
    1729                      .dwattr $C$DW$45, DW_AT_TI_end_line(0x31)
    1730                      .dwattr $C$DW$45, DW_AT_TI_end_column(0x01)
    1731                      .dwendentry
    1732                      .dwendtag $C$DW$45
    1733              
    1734 00000187               .sect   ".text:retain"
    1735                      .retain
    1736                      .retainrefs
    1737                      .global _INT13_ISR
    1738              
    1739              $C$DW$46        .dwtag  DW_TAG_subprogram, DW_AT_name("INT13_ISR")
    1740                      .dwattr $C$DW$46, DW_AT_low_pc(_INT13_ISR)
    1741                      .dwattr $C$DW$46, DW_AT_high_pc(0x00)
    1742                      .dwattr $C$DW$46, DW_AT_TI_symbol_name("_INT13_ISR")
    1743                      .dwattr $C$DW$46, DW_AT_external
    1744                      .dwattr $C$DW$46, DW_AT_TI_begin_file("../source/DSP2803x_SWPrioritizedDefaultIsr.c")
    1745                      .dwattr $C$DW$46, DW_AT_TI_begin_line(0x16)
    1746                      .dwattr $C$DW$46, DW_AT_TI_begin_column(0x12)
    1747                      .dwattr $C$DW$46, DW_AT_TI_interrupt
    1748                      .dwattr $C$DW$46, DW_AT_TI_max_frame_size(-2)
    1749                      .dwpsn  file "../source/DSP2803x_SWPrioritizedDefaultIsr.c",line 23,column 1,is_stmt,address _INT13_I
    1750              
    1751                      .dwfde $C$DW$CIE, _INT13_ISR
    1752              
    1753              ;***************************************************************
    1754              ;* FNAME: _INT13_ISR                    FR SIZE:   0           *
    1755              ;*                                                             *
TMS320C2000 Assembler PC v6.4.12 Thu Nov 16 10:01:32 2017

Tools Copyright (c) 1996-2017 Texas Instruments Incorporated
C:\Users\Admin\AppData\Local\Temp\0610810                            PAGE   34

    1756              ;* FUNCTION ENVIRONMENT                                        *
    1757              ;*                                                             *
    1758              ;* FUNCTION PROPERTIES                                         *
    1759              ;*                            0 Parameter,  0 Auto,  0 SOE     *
    1760              ;***************************************************************
    1761              
    1762 00000187       _INT13_ISR:
    1763                      .dwcfi  cfa_offset, -2
    1764                      .dwcfi  save_reg_to_mem, 26, 0
    1765 00000187 761B          ASP       ; [CPU_] 
    1766 00000188 2942          CLRC      PAGE0,OVM             ; [CPU_] 
    1767 00000189 5616          CLRC      AMODE                 ; [CPU_] 
    1768                      .dwpsn  file "../source/DSP2803x_SWPrioritizedDefaultIsr.c",line 24,column 3,is_stmt,isa 0
    1769 0000018a 7623          OR        IER,#0x113b           ; [CPU_] |24| 
         0000018b 113B 
    1770 0000018c 2910   clrc INTM
    1771 0000018d 7625        ESTOP0
    1772 0000018e       $C$L32:    
    1773                      .dwpsn  file "../source/DSP2803x_SWPrioritizedDefaultIsr.c",line 32,column 6,is_stmt,isa 0
    1774 0000018e 6F00          B         $C$L32,UNC            ; [CPU_] |32| 
    1775                      ; branch occurs ; [] |32| 
    1776                      .dwattr $C$DW$46, DW_AT_TI_end_file("../source/DSP2803x_SWPrioritizedDefaultIsr.c")
    1777                      .dwattr $C$DW$46, DW_AT_TI_end_line(0x21)
    1778                      .dwattr $C$DW$46, DW_AT_TI_end_column(0x01)
    1779                      .dwendentry
    1780                      .dwendtag $C$DW$46
    1781              
    1782 0000018f               .sect   ".text:retain"
    1783                      .retain
    1784                      .retainrefs
    1785                      .global _ILLEGAL_ISR
    1786              
    1787              $C$DW$47        .dwtag  DW_TAG_subprogram, DW_AT_name("ILLEGAL_ISR")
    1788                      .dwattr $C$DW$47, DW_AT_low_pc(_ILLEGAL_ISR)
    1789                      .dwattr $C$DW$47, DW_AT_high_pc(0x00)
    1790                      .dwattr $C$DW$47, DW_AT_TI_symbol_name("_ILLEGAL_ISR")
    1791                      .dwattr $C$DW$47, DW_AT_external
    1792                      .dwattr $C$DW$47, DW_AT_TI_begin_file("../source/DSP2803x_SWPrioritizedDefaultIsr.c")
    1793                      .dwattr $C$DW$47, DW_AT_TI_begin_line(0x6e)
    1794                      .dwattr $C$DW$47, DW_AT_TI_begin_column(0x12)
    1795                      .dwattr $C$DW$47, DW_AT_TI_interrupt
    1796                      .dwattr $C$DW$47, DW_AT_TI_max_frame_size(-2)
    1797                      .dwpsn  file "../source/DSP2803x_SWPrioritizedDefaultIsr.c",line 111,column 1,is_stmt,address _ILLEGA
    1798              
    1799                      .dwfde $C$DW$CIE, _ILLEGAL_ISR
    1800              
    1801              ;***************************************************************
    1802              ;* FNAME: _ILLEGAL_ISR                  FR SIZE:   0           *
    1803              ;*                                                             *
    1804              ;* FUNCTION ENVIRONMENT                                        *
    1805              ;*                                                             *
    1806              ;* FUNCTION PROPERTIES                                         *
    1807              ;*                            0 Parameter,  0 Auto,  0 SOE     *
    1808              ;***************************************************************
    1809              
TMS320C2000 Assembler PC v6.4.12 Thu Nov 16 10:01:32 2017

Tools Copyright (c) 1996-2017 Texas Instruments Incorporated
C:\Users\Admin\AppData\Local\Temp\0610810                            PAGE   35

    1810 0000018f       _ILLEGAL_ISR:
    1811                      .dwcfi  cfa_offset, -2
    1812                      .dwcfi  save_reg_to_mem, 26, 0
    1813 0000018f 761B          ASP       ; [CPU_] 
    1814 00000190 2942          CLRC      PAGE0,OVM             ; [CPU_] 
    1815 00000191 5616          CLRC      AMODE                 ; [CPU_] 
    1816 00000192 2910   clrc INTM
    1817 00000193 7625        ESTOP0
    1818 00000194       $C$L33:    
    1819                      .dwpsn  file "../source/DSP2803x_SWPrioritizedDefaultIsr.c",line 119,column 5,is_stmt,isa 0
    1820 00000194 6F00          B         $C$L33,UNC            ; [CPU_] |119| 
    1821                      ; branch occurs ; [] |119| 
    1822                      .dwattr $C$DW$47, DW_AT_TI_end_file("../source/DSP2803x_SWPrioritizedDefaultIsr.c")
    1823                      .dwattr $C$DW$47, DW_AT_TI_end_line(0x78)
    1824                      .dwattr $C$DW$47, DW_AT_TI_end_column(0x01)
    1825                      .dwendentry
    1826                      .dwendtag $C$DW$47
    1827              
    1828 00000195               .sect   ".text:retain"
    1829                      .retain
    1830                      .retainrefs
    1831                      .global _I2CINT2A_ISR
    1832              
    1833              $C$DW$48        .dwtag  DW_TAG_subprogram, DW_AT_name("I2CINT2A_ISR")
    1834                      .dwattr $C$DW$48, DW_AT_low_pc(_I2CINT2A_ISR)
    1835                      .dwattr $C$DW$48, DW_AT_high_pc(0x00)
    1836                      .dwattr $C$DW$48, DW_AT_TI_symbol_name("_I2CINT2A_ISR")
    1837                      .dwattr $C$DW$48, DW_AT_external
    1838                      .dwattr $C$DW$48, DW_AT_TI_begin_file("../source/DSP2803x_SWPrioritizedDefaultIsr.c")
    1839                      .dwattr $C$DW$48, DW_AT_TI_begin_line(0x3c4)
    1840                      .dwattr $C$DW$48, DW_AT_TI_begin_column(0x12)
    1841                      .dwattr $C$DW$48, DW_AT_TI_interrupt
    1842                      .dwattr $C$DW$48, DW_AT_TI_max_frame_size(-4)
    1843                      .dwpsn  file "../source/DSP2803x_SWPrioritizedDefaultIsr.c",line 965,column 1,is_stmt,address _I2CINT
    1844              
    1845                      .dwfde $C$DW$CIE, _I2CINT2A_ISR
    1846              
    1847              ;***************************************************************
    1848              ;* FNAME: _I2CINT2A_ISR                 FR SIZE:   2           *
    1849              ;*                                                             *
    1850              ;* FUNCTION ENVIRONMENT                                        *
    1851              ;*                                                             *
    1852              ;* FUNCTION PROPERTIES                                         *
    1853              ;*                            0 Parameter,  1 Auto,  0 SOE     *
    1854              ;***************************************************************
    1855              
    1856              _I2CINT2A_ISR:
    1857              $C$DW$49        .dwtag  DW_TAG_variable, DW_AT_name("TempPIEIER")
    1858                      .dwattr $C$DW$49, DW_AT_TI_symbol_name("_TempPIEIER")
    1859                      .dwattr $C$DW$49, DW_AT_type(*$C$DW$T$33)
    1860                      .dwattr $C$DW$49, DW_AT_location[DW_OP_breg20 -1]
    1861                      .dwcfi  cfa_offset, -2
    1862                      .dwcfi  save_reg_to_mem, 26, 0
    1863 00000195 761B          ASP       ; [CPU_] 
    1864 00000196 FE02          ADDB      SP,#2                 ; [CPU_U] 
TMS320C2000 Assembler PC v6.4.12 Thu Nov 16 10:01:32 2017

Tools Copyright (c) 1996-2017 Texas Instruments Incorporated
C:\Users\Admin\AppData\Local\Temp\0610810                            PAGE   36

    1865                      .dwcfi  cfa_offset, -4
    1866 00000197 2942          CLRC      PAGE0,OVM             ; [CPU_] 
    1867 00000198 5616          CLRC      AMODE                 ; [CPU_] 
    1868 00000199 761F!         MOVW      DP,#_PieCtrlRegs+16   ; [CPU_U] 
         0000019a 0000 
    1869                      .dwpsn  file "../source/DSP2803x_SWPrioritizedDefaultIsr.c",line 967,column 29,is_stmt,isa 0
    1870 0000019b 9210!         MOV       AL,@_PieCtrlRegs+16   ; [CPU_] |967| 
    1871 0000019c 9641          MOV       *-SP[1],AL            ; [CPU_] |967| 
    1872                      .dwpsn  file "../source/DSP2803x_SWPrioritizedDefaultIsr.c",line 968,column 2,is_stmt,isa 0
    1873 0000019d 7623          OR        IER,#0x0080           ; [CPU_] |968| 
         0000019e 0080 
    1874                      .dwpsn  file "../source/DSP2803x_SWPrioritizedDefaultIsr.c",line 969,column 2,is_stmt,isa 0
    1875 0000019f 7626          AND       IER,#0xf1bf           ; [CPU_] |969| 
         000001a0 F1BF 
    1876                      .dwpsn  file "../source/DSP2803x_SWPrioritizedDefaultIsr.c",line 970,column 2,is_stmt,isa 0
    1877 000001a1 1810!         AND       @_PieCtrlRegs+16,#0x0001 ; [CPU_] |970| 
         000001a2 0001 
    1878                      .dwpsn  file "../source/DSP2803x_SWPrioritizedDefaultIsr.c",line 971,column 2,is_stmt,isa 0
    1879 000001a3 2801!         MOV       @_PieCtrlRegs+1,#65535 ; [CPU_] |971| 
         000001a4 FFFF 
    1880 000001a5 2910   clrc INTM
    1881 000001a6 3B10   setc INTM
    1882                      .dwpsn  file "../source/DSP2803x_SWPrioritizedDefaultIsr.c",line 978,column 2,is_stmt,isa 0
    1883 000001a7 9241          MOV       AL,*-SP[1]            ; [CPU_] |978| 
    1884 000001a8 9610!         MOV       @_PieCtrlRegs+16,AL   ; [CPU_] |978| 
    1885 000001a9 7625        ESTOP0
    1886 000001aa       $C$L34:    
    1887                      .dwpsn  file "../source/DSP2803x_SWPrioritizedDefaultIsr.c",line 983,column 5,is_stmt,isa 0
    1888 000001aa 6F00          B         $C$L34,UNC            ; [CPU_] |983| 
    1889                      ; branch occurs ; [] |983| 
    1890                      .dwattr $C$DW$48, DW_AT_TI_end_file("../source/DSP2803x_SWPrioritizedDefaultIsr.c")
    1891                      .dwattr $C$DW$48, DW_AT_TI_end_line(0x3d9)
    1892                      .dwattr $C$DW$48, DW_AT_TI_end_column(0x01)
    1893                      .dwendentry
    1894                      .dwendtag $C$DW$48
    1895              
    1896 000001ab               .sect   ".text:retain"
    1897                      .retain
    1898                      .retainrefs
    1899                      .global _I2CINT1A_ISR
    1900              
    1901              $C$DW$50        .dwtag  DW_TAG_subprogram, DW_AT_name("I2CINT1A_ISR")
    1902                      .dwattr $C$DW$50, DW_AT_low_pc(_I2CINT1A_ISR)
    1903                      .dwattr $C$DW$50, DW_AT_high_pc(0x00)
    1904                      .dwattr $C$DW$50, DW_AT_TI_symbol_name("_I2CINT1A_ISR")
    1905                      .dwattr $C$DW$50, DW_AT_external
    1906                      .dwattr $C$DW$50, DW_AT_TI_begin_file("../source/DSP2803x_SWPrioritizedDefaultIsr.c")
    1907                      .dwattr $C$DW$50, DW_AT_TI_begin_line(0x3aa)
    1908                      .dwattr $C$DW$50, DW_AT_TI_begin_column(0x12)
    1909                      .dwattr $C$DW$50, DW_AT_TI_interrupt
    1910                      .dwattr $C$DW$50, DW_AT_TI_max_frame_size(-4)
    1911                      .dwpsn  file "../source/DSP2803x_SWPrioritizedDefaultIsr.c",line 939,column 1,is_stmt,address _I2CINT
    1912              
    1913                      .dwfde $C$DW$CIE, _I2CINT1A_ISR
    1914              
TMS320C2000 Assembler PC v6.4.12 Thu Nov 16 10:01:32 2017

Tools Copyright (c) 1996-2017 Texas Instruments Incorporated
C:\Users\Admin\AppData\Local\Temp\0610810                            PAGE   37

    1915              ;***************************************************************
    1916              ;* FNAME: _I2CINT1A_ISR                 FR SIZE:   2           *
    1917              ;*                                                             *
    1918              ;* FUNCTION ENVIRONMENT                                        *
    1919              ;*                                                             *
    1920              ;* FUNCTION PROPERTIES                                         *
    1921              ;*                            0 Parameter,  1 Auto,  0 SOE     *
    1922              ;***************************************************************
    1923              
    1924              _I2CINT1A_ISR:
    1925              $C$DW$51        .dwtag  DW_TAG_variable, DW_AT_name("TempPIEIER")
    1926                      .dwattr $C$DW$51, DW_AT_TI_symbol_name("_TempPIEIER")
    1927                      .dwattr $C$DW$51, DW_AT_type(*$C$DW$T$33)
    1928                      .dwattr $C$DW$51, DW_AT_location[DW_OP_breg20 -1]
    1929                      .dwcfi  cfa_offset, -2
    1930                      .dwcfi  save_reg_to_mem, 26, 0
    1931 000001ab 761B          ASP       ; [CPU_] 
    1932 000001ac FE02          ADDB      SP,#2                 ; [CPU_U] 
    1933                      .dwcfi  cfa_offset, -4
    1934 000001ad 2942          CLRC      PAGE0,OVM             ; [CPU_] 
    1935 000001ae 5616          CLRC      AMODE                 ; [CPU_] 
    1936 000001af 761F!         MOVW      DP,#_PieCtrlRegs+16   ; [CPU_U] 
         000001b0 0000 
    1937                      .dwpsn  file "../source/DSP2803x_SWPrioritizedDefaultIsr.c",line 941,column 29,is_stmt,isa 0
    1938 000001b1 9210!         MOV       AL,@_PieCtrlRegs+16   ; [CPU_] |941| 
    1939 000001b2 9641          MOV       *-SP[1],AL            ; [CPU_] |941| 
    1940                      .dwpsn  file "../source/DSP2803x_SWPrioritizedDefaultIsr.c",line 942,column 2,is_stmt,isa 0
    1941 000001b3 7623          OR        IER,#0x0080           ; [CPU_] |942| 
         000001b4 0080 
    1942                      .dwpsn  file "../source/DSP2803x_SWPrioritizedDefaultIsr.c",line 943,column 2,is_stmt,isa 0
    1943 000001b5 7626          AND       IER,#0xf1bf           ; [CPU_] |943| 
         000001b6 F1BF 
    1944                      .dwpsn  file "../source/DSP2803x_SWPrioritizedDefaultIsr.c",line 944,column 2,is_stmt,isa 0
    1945 000001b7 9210!         MOV       AL,@_PieCtrlRegs+16   ; [CPU_] |944| 
    1946 000001b8 2B10!         MOV       @_PieCtrlRegs+16,#0   ; [CPU_] |944| 
    1947                      .dwpsn  file "../source/DSP2803x_SWPrioritizedDefaultIsr.c",line 945,column 2,is_stmt,isa 0
    1948 000001b9 2801!         MOV       @_PieCtrlRegs+1,#65535 ; [CPU_] |945| 
         000001ba FFFF 
    1949 000001bb 2910   clrc INTM
    1950 000001bc 3B10   setc INTM
    1951                      .dwpsn  file "../source/DSP2803x_SWPrioritizedDefaultIsr.c",line 952,column 2,is_stmt,isa 0
    1952 000001bd 9241          MOV       AL,*-SP[1]            ; [CPU_] |952| 
    1953 000001be 9610!         MOV       @_PieCtrlRegs+16,AL   ; [CPU_] |952| 
    1954 000001bf 7625        ESTOP0
    1955 000001c0       $C$L35:    
    1956                      .dwpsn  file "../source/DSP2803x_SWPrioritizedDefaultIsr.c",line 957,column 5,is_stmt,isa 0
    1957 000001c0 6F00          B         $C$L35,UNC            ; [CPU_] |957| 
    1958                      ; branch occurs ; [] |957| 
    1959                      .dwattr $C$DW$50, DW_AT_TI_end_file("../source/DSP2803x_SWPrioritizedDefaultIsr.c")
    1960                      .dwattr $C$DW$50, DW_AT_TI_end_line(0x3bf)
    1961                      .dwattr $C$DW$50, DW_AT_TI_end_column(0x01)
    1962                      .dwendentry
    1963                      .dwendtag $C$DW$50
    1964              
    1965 000001c1               .sect   ".text:retain"
TMS320C2000 Assembler PC v6.4.12 Thu Nov 16 10:01:32 2017

Tools Copyright (c) 1996-2017 Texas Instruments Incorporated
C:\Users\Admin\AppData\Local\Temp\0610810                            PAGE   38

    1966                      .retain
    1967                      .retainrefs
    1968                      .global _EQEP1_INT_ISR
    1969              
    1970              $C$DW$52        .dwtag  DW_TAG_subprogram, DW_AT_name("EQEP1_INT_ISR")
    1971                      .dwattr $C$DW$52, DW_AT_low_pc(_EQEP1_INT_ISR)
    1972                      .dwattr $C$DW$52, DW_AT_high_pc(0x00)
    1973                      .dwattr $C$DW$52, DW_AT_TI_symbol_name("_EQEP1_INT_ISR")
    1974                      .dwattr $C$DW$52, DW_AT_external
    1975                      .dwattr $C$DW$52, DW_AT_TI_begin_file("../source/DSP2803x_SWPrioritizedDefaultIsr.c")
    1976                      .dwattr $C$DW$52, DW_AT_TI_begin_line(0x351)
    1977                      .dwattr $C$DW$52, DW_AT_TI_begin_column(0x12)
    1978                      .dwattr $C$DW$52, DW_AT_TI_interrupt
    1979                      .dwattr $C$DW$52, DW_AT_TI_max_frame_size(-4)
    1980                      .dwpsn  file "../source/DSP2803x_SWPrioritizedDefaultIsr.c",line 850,column 1,is_stmt,address _EQEP1_
    1981              
    1982                      .dwfde $C$DW$CIE, _EQEP1_INT_ISR
    1983              
    1984              ;***************************************************************
    1985              ;* FNAME: _EQEP1_INT_ISR                FR SIZE:   2           *
    1986              ;*                                                             *
    1987              ;* FUNCTION ENVIRONMENT                                        *
    1988              ;*                                                             *
    1989              ;* FUNCTION PROPERTIES                                         *
    1990              ;*                            0 Parameter,  1 Auto,  0 SOE     *
    1991              ;***************************************************************
    1992              
    1993              _EQEP1_INT_ISR:
    1994              $C$DW$53        .dwtag  DW_TAG_variable, DW_AT_name("TempPIEIER")
    1995                      .dwattr $C$DW$53, DW_AT_TI_symbol_name("_TempPIEIER")
    1996                      .dwattr $C$DW$53, DW_AT_type(*$C$DW$T$33)
    1997                      .dwattr $C$DW$53, DW_AT_location[DW_OP_breg20 -1]
    1998                      .dwcfi  cfa_offset, -2
    1999                      .dwcfi  save_reg_to_mem, 26, 0
    2000 000001c1 761B          ASP       ; [CPU_] 
    2001 000001c2 FE02          ADDB      SP,#2                 ; [CPU_U] 
    2002                      .dwcfi  cfa_offset, -4
    2003 000001c3 2942          CLRC      PAGE0,OVM             ; [CPU_] 
    2004 000001c4 5616          CLRC      AMODE                 ; [CPU_] 
    2005 000001c5 761F!         MOVW      DP,#_PieCtrlRegs+10   ; [CPU_U] 
         000001c6 0000 
    2006                      .dwpsn  file "../source/DSP2803x_SWPrioritizedDefaultIsr.c",line 852,column 29,is_stmt,isa 0
    2007 000001c7 920A!         MOV       AL,@_PieCtrlRegs+10   ; [CPU_] |852| 
    2008 000001c8 9641          MOV       *-SP[1],AL            ; [CPU_] |852| 
    2009                      .dwpsn  file "../source/DSP2803x_SWPrioritizedDefaultIsr.c",line 853,column 2,is_stmt,isa 0
    2010 000001c9 7623          OR        IER,#0x0010           ; [CPU_] |853| 
         000001ca 0010 
    2011                      .dwpsn  file "../source/DSP2803x_SWPrioritizedDefaultIsr.c",line 854,column 2,is_stmt,isa 0
    2012 000001cb 7626          AND       IER,#0x0012           ; [CPU_] |854| 
         000001cc 0012 
    2013                      .dwpsn  file "../source/DSP2803x_SWPrioritizedDefaultIsr.c",line 855,column 2,is_stmt,isa 0
    2014 000001cd 920A!         MOV       AL,@_PieCtrlRegs+10   ; [CPU_] |855| 
    2015 000001ce 2B0A!         MOV       @_PieCtrlRegs+10,#0   ; [CPU_] |855| 
    2016                      .dwpsn  file "../source/DSP2803x_SWPrioritizedDefaultIsr.c",line 856,column 2,is_stmt,isa 0
    2017 000001cf 2801!         MOV       @_PieCtrlRegs+1,#65535 ; [CPU_] |856| 
TMS320C2000 Assembler PC v6.4.12 Thu Nov 16 10:01:32 2017

Tools Copyright (c) 1996-2017 Texas Instruments Incorporated
C:\Users\Admin\AppData\Local\Temp\0610810                            PAGE   39

         000001d0 FFFF 
    2018 000001d1 2910   clrc INTM
    2019 000001d2 3B10   setc INTM
    2020                      .dwpsn  file "../source/DSP2803x_SWPrioritizedDefaultIsr.c",line 863,column 2,is_stmt,isa 0
    2021 000001d3 9241          MOV       AL,*-SP[1]            ; [CPU_] |863| 
    2022 000001d4 960A!         MOV       @_PieCtrlRegs+10,AL   ; [CPU_] |863| 
    2023 000001d5 7625        ESTOP0
    2024 000001d6       $C$L36:    
    2025                      .dwpsn  file "../source/DSP2803x_SWPrioritizedDefaultIsr.c",line 868,column 5,is_stmt,isa 0
    2026 000001d6 6F00          B         $C$L36,UNC            ; [CPU_] |868| 
    2027                      ; branch occurs ; [] |868| 
    2028                      .dwattr $C$DW$52, DW_AT_TI_end_file("../source/DSP2803x_SWPrioritizedDefaultIsr.c")
    2029                      .dwattr $C$DW$52, DW_AT_TI_end_line(0x366)
    2030                      .dwattr $C$DW$52, DW_AT_TI_end_column(0x01)
    2031                      .dwendentry
    2032                      .dwendtag $C$DW$52
    2033              
    2034 000001d7               .sect   ".text:retain"
    2035                      .retain
    2036                      .retainrefs
    2037                      .global _EPWM7_TZINT_ISR
    2038              
    2039              $C$DW$54        .dwtag  DW_TAG_subprogram, DW_AT_name("EPWM7_TZINT_ISR")
    2040                      .dwattr $C$DW$54, DW_AT_low_pc(_EPWM7_TZINT_ISR)
    2041                      .dwattr $C$DW$54, DW_AT_high_pc(0x00)
    2042                      .dwattr $C$DW$54, DW_AT_TI_symbol_name("_EPWM7_TZINT_ISR")
    2043                      .dwattr $C$DW$54, DW_AT_external
    2044                      .dwattr $C$DW$54, DW_AT_TI_begin_file("../source/DSP2803x_SWPrioritizedDefaultIsr.c")
    2045                      .dwattr $C$DW$54, DW_AT_TI_begin_line(0x25c)
    2046                      .dwattr $C$DW$54, DW_AT_TI_begin_column(0x12)
    2047                      .dwattr $C$DW$54, DW_AT_TI_interrupt
    2048                      .dwattr $C$DW$54, DW_AT_TI_max_frame_size(-4)
    2049                      .dwpsn  file "../source/DSP2803x_SWPrioritizedDefaultIsr.c",line 605,column 1,is_stmt,address _EPWM7_
    2050              
    2051                      .dwfde $C$DW$CIE, _EPWM7_TZINT_ISR
    2052              
    2053              ;***************************************************************
    2054              ;* FNAME: _EPWM7_TZINT_ISR              FR SIZE:   2           *
    2055              ;*                                                             *
    2056              ;* FUNCTION ENVIRONMENT                                        *
    2057              ;*                                                             *
    2058              ;* FUNCTION PROPERTIES                                         *
    2059              ;*                            0 Parameter,  1 Auto,  0 SOE     *
    2060              ;***************************************************************
    2061              
    2062              _EPWM7_TZINT_ISR:
    2063              $C$DW$55        .dwtag  DW_TAG_variable, DW_AT_name("TempPIEIER")
    2064                      .dwattr $C$DW$55, DW_AT_TI_symbol_name("_TempPIEIER")
    2065                      .dwattr $C$DW$55, DW_AT_type(*$C$DW$T$33)
    2066                      .dwattr $C$DW$55, DW_AT_location[DW_OP_breg20 -1]
    2067                      .dwcfi  cfa_offset, -2
    2068                      .dwcfi  save_reg_to_mem, 26, 0
    2069 000001d7 761B          ASP       ; [CPU_] 
    2070 000001d8 FE02          ADDB      SP,#2                 ; [CPU_U] 
    2071                      .dwcfi  cfa_offset, -4
TMS320C2000 Assembler PC v6.4.12 Thu Nov 16 10:01:32 2017

Tools Copyright (c) 1996-2017 Texas Instruments Incorporated
C:\Users\Admin\AppData\Local\Temp\0610810                            PAGE   40

    2072 000001d9 2942          CLRC      PAGE0,OVM             ; [CPU_] 
    2073 000001da 5616          CLRC      AMODE                 ; [CPU_] 
    2074 000001db 761F!         MOVW      DP,#_PieCtrlRegs+4    ; [CPU_U] 
         000001dc 0000 
    2075                      .dwpsn  file "../source/DSP2803x_SWPrioritizedDefaultIsr.c",line 607,column 29,is_stmt,isa 0
    2076 000001dd 9204!         MOV       AL,@_PieCtrlRegs+4    ; [CPU_] |607| 
    2077 000001de 9641          MOV       *-SP[1],AL            ; [CPU_] |607| 
    2078                      .dwpsn  file "../source/DSP2803x_SWPrioritizedDefaultIsr.c",line 608,column 2,is_stmt,isa 0
    2079 000001df 7623          OR        IER,#0x0002           ; [CPU_] |608| 
         000001e0 0002 
    2080                      .dwpsn  file "../source/DSP2803x_SWPrioritizedDefaultIsr.c",line 609,column 2,is_stmt,isa 0
    2081 000001e1 7626          AND       IER,#0x0002           ; [CPU_] |609| 
         000001e2 0002 
    2082                      .dwpsn  file "../source/DSP2803x_SWPrioritizedDefaultIsr.c",line 610,column 2,is_stmt,isa 0
    2083 000001e3 1804!         AND       @_PieCtrlRegs+4,#0x0008 ; [CPU_] |610| 
         000001e4 0008 
    2084                      .dwpsn  file "../source/DSP2803x_SWPrioritizedDefaultIsr.c",line 611,column 2,is_stmt,isa 0
    2085 000001e5 2801!         MOV       @_PieCtrlRegs+1,#65535 ; [CPU_] |611| 
         000001e6 FFFF 
    2086 000001e7 2910   clrc INTM
    2087 000001e8 3B10   setc INTM
    2088                      .dwpsn  file "../source/DSP2803x_SWPrioritizedDefaultIsr.c",line 618,column 2,is_stmt,isa 0
    2089 000001e9 9241          MOV       AL,*-SP[1]            ; [CPU_] |618| 
    2090 000001ea 9604!         MOV       @_PieCtrlRegs+4,AL    ; [CPU_] |618| 
    2091 000001eb 7625        ESTOP0
    2092 000001ec       $C$L37:    
    2093                      .dwpsn  file "../source/DSP2803x_SWPrioritizedDefaultIsr.c",line 623,column 5,is_stmt,isa 0
    2094 000001ec 6F00          B         $C$L37,UNC            ; [CPU_] |623| 
    2095                      ; branch occurs ; [] |623| 
    2096                      .dwattr $C$DW$54, DW_AT_TI_end_file("../source/DSP2803x_SWPrioritizedDefaultIsr.c")
    2097                      .dwattr $C$DW$54, DW_AT_TI_end_line(0x271)
    2098                      .dwattr $C$DW$54, DW_AT_TI_end_column(0x01)
    2099                      .dwendentry
    2100                      .dwendtag $C$DW$54
    2101              
    2102 000001ed               .sect   ".text:retain"
    2103                      .retain
    2104                      .retainrefs
    2105                      .global _EPWM7_INT_ISR
    2106              
    2107              $C$DW$56        .dwtag  DW_TAG_subprogram, DW_AT_name("EPWM7_INT_ISR")
    2108                      .dwattr $C$DW$56, DW_AT_low_pc(_EPWM7_INT_ISR)
    2109                      .dwattr $C$DW$56, DW_AT_high_pc(0x00)
    2110                      .dwattr $C$DW$56, DW_AT_TI_symbol_name("_EPWM7_INT_ISR")
    2111                      .dwattr $C$DW$56, DW_AT_external
    2112                      .dwattr $C$DW$56, DW_AT_TI_begin_file("../source/DSP2803x_SWPrioritizedDefaultIsr.c")
    2113                      .dwattr $C$DW$56, DW_AT_TI_begin_line(0x315)
    2114                      .dwattr $C$DW$56, DW_AT_TI_begin_column(0x12)
    2115                      .dwattr $C$DW$56, DW_AT_TI_interrupt
    2116                      .dwattr $C$DW$56, DW_AT_TI_max_frame_size(-4)
    2117                      .dwpsn  file "../source/DSP2803x_SWPrioritizedDefaultIsr.c",line 790,column 1,is_stmt,address _EPWM7_
    2118              
    2119                      .dwfde $C$DW$CIE, _EPWM7_INT_ISR
    2120              
    2121              ;***************************************************************
TMS320C2000 Assembler PC v6.4.12 Thu Nov 16 10:01:32 2017

Tools Copyright (c) 1996-2017 Texas Instruments Incorporated
C:\Users\Admin\AppData\Local\Temp\0610810                            PAGE   41

    2122              ;* FNAME: _EPWM7_INT_ISR                FR SIZE:   2           *
    2123              ;*                                                             *
    2124              ;* FUNCTION ENVIRONMENT                                        *
    2125              ;*                                                             *
    2126              ;* FUNCTION PROPERTIES                                         *
    2127              ;*                            0 Parameter,  1 Auto,  0 SOE     *
    2128              ;***************************************************************
    2129              
    2130              _EPWM7_INT_ISR:
    2131              $C$DW$57        .dwtag  DW_TAG_variable, DW_AT_name("TempPIEIER")
    2132                      .dwattr $C$DW$57, DW_AT_TI_symbol_name("_TempPIEIER")
    2133                      .dwattr $C$DW$57, DW_AT_type(*$C$DW$T$33)
    2134                      .dwattr $C$DW$57, DW_AT_location[DW_OP_breg20 -1]
    2135                      .dwcfi  cfa_offset, -2
    2136                      .dwcfi  save_reg_to_mem, 26, 0
    2137 000001ed 761B          ASP       ; [CPU_] 
    2138 000001ee FE02          ADDB      SP,#2                 ; [CPU_U] 
    2139                      .dwcfi  cfa_offset, -4
    2140 000001ef 2942          CLRC      PAGE0,OVM             ; [CPU_] 
    2141 000001f0 5616          CLRC      AMODE                 ; [CPU_] 
    2142 000001f1 761F!         MOVW      DP,#_PieCtrlRegs+6    ; [CPU_U] 
         000001f2 0000 
    2143                      .dwpsn  file "../source/DSP2803x_SWPrioritizedDefaultIsr.c",line 792,column 29,is_stmt,isa 0
    2144 000001f3 9206!         MOV       AL,@_PieCtrlRegs+6    ; [CPU_] |792| 
    2145 000001f4 9641          MOV       *-SP[1],AL            ; [CPU_] |792| 
    2146                      .dwpsn  file "../source/DSP2803x_SWPrioritizedDefaultIsr.c",line 793,column 2,is_stmt,isa 0
    2147 000001f5 7623          OR        IER,#0x0004           ; [CPU_] |793| 
         000001f6 0004 
    2148                      .dwpsn  file "../source/DSP2803x_SWPrioritizedDefaultIsr.c",line 794,column 2,is_stmt,isa 0
    2149 000001f7 7626          AND       IER,#0x013f           ; [CPU_] |794| 
         000001f8 013F 
    2150                      .dwpsn  file "../source/DSP2803x_SWPrioritizedDefaultIsr.c",line 795,column 2,is_stmt,isa 0
    2151 000001f9 1806!         AND       @_PieCtrlRegs+6,#0x001f ; [CPU_] |795| 
         000001fa 001F 
    2152                      .dwpsn  file "../source/DSP2803x_SWPrioritizedDefaultIsr.c",line 796,column 2,is_stmt,isa 0
    2153 000001fb 2801!         MOV       @_PieCtrlRegs+1,#65535 ; [CPU_] |796| 
         000001fc FFFF 
    2154 000001fd 2910   clrc INTM
    2155 000001fe 3B10   setc INTM
    2156                      .dwpsn  file "../source/DSP2803x_SWPrioritizedDefaultIsr.c",line 803,column 2,is_stmt,isa 0
    2157 000001ff 9241          MOV       AL,*-SP[1]            ; [CPU_] |803| 
    2158 00000200 9606!         MOV       @_PieCtrlRegs+6,AL    ; [CPU_] |803| 
    2159 00000201 7625        ESTOP0
    2160 00000202       $C$L38:    
    2161                      .dwpsn  file "../source/DSP2803x_SWPrioritizedDefaultIsr.c",line 808,column 5,is_stmt,isa 0
    2162 00000202 6F00          B         $C$L38,UNC            ; [CPU_] |808| 
    2163                      ; branch occurs ; [] |808| 
    2164                      .dwattr $C$DW$56, DW_AT_TI_end_file("../source/DSP2803x_SWPrioritizedDefaultIsr.c")
    2165                      .dwattr $C$DW$56, DW_AT_TI_end_line(0x32a)
    2166                      .dwattr $C$DW$56, DW_AT_TI_end_column(0x01)
    2167                      .dwendentry
    2168                      .dwendtag $C$DW$56
    2169              
    2170 00000203               .sect   ".text:retain"
    2171                      .retain
TMS320C2000 Assembler PC v6.4.12 Thu Nov 16 10:01:32 2017

Tools Copyright (c) 1996-2017 Texas Instruments Incorporated
C:\Users\Admin\AppData\Local\Temp\0610810                            PAGE   42

    2172                      .retainrefs
    2173                      .global _EPWM6_TZINT_ISR
    2174              
    2175              $C$DW$58        .dwtag  DW_TAG_subprogram, DW_AT_name("EPWM6_TZINT_ISR")
    2176                      .dwattr $C$DW$58, DW_AT_low_pc(_EPWM6_TZINT_ISR)
    2177                      .dwattr $C$DW$58, DW_AT_high_pc(0x00)
    2178                      .dwattr $C$DW$58, DW_AT_TI_symbol_name("_EPWM6_TZINT_ISR")
    2179                      .dwattr $C$DW$58, DW_AT_external
    2180                      .dwattr $C$DW$58, DW_AT_TI_begin_file("../source/DSP2803x_SWPrioritizedDefaultIsr.c")
    2181                      .dwattr $C$DW$58, DW_AT_TI_begin_line(0x242)
    2182                      .dwattr $C$DW$58, DW_AT_TI_begin_column(0x12)
    2183                      .dwattr $C$DW$58, DW_AT_TI_interrupt
    2184                      .dwattr $C$DW$58, DW_AT_TI_max_frame_size(-4)
    2185                      .dwpsn  file "../source/DSP2803x_SWPrioritizedDefaultIsr.c",line 579,column 1,is_stmt,address _EPWM6_
    2186              
    2187                      .dwfde $C$DW$CIE, _EPWM6_TZINT_ISR
    2188              
    2189              ;***************************************************************
    2190              ;* FNAME: _EPWM6_TZINT_ISR              FR SIZE:   2           *
    2191              ;*                                                             *
    2192              ;* FUNCTION ENVIRONMENT                                        *
    2193              ;*                                                             *
    2194              ;* FUNCTION PROPERTIES                                         *
    2195              ;*                            0 Parameter,  1 Auto,  0 SOE     *
    2196              ;***************************************************************
    2197              
    2198              _EPWM6_TZINT_ISR:
    2199              $C$DW$59        .dwtag  DW_TAG_variable, DW_AT_name("TempPIEIER")
    2200                      .dwattr $C$DW$59, DW_AT_TI_symbol_name("_TempPIEIER")
    2201                      .dwattr $C$DW$59, DW_AT_type(*$C$DW$T$33)
    2202                      .dwattr $C$DW$59, DW_AT_location[DW_OP_breg20 -1]
    2203                      .dwcfi  cfa_offset, -2
    2204                      .dwcfi  save_reg_to_mem, 26, 0
    2205 00000203 761B          ASP       ; [CPU_] 
    2206 00000204 FE02          ADDB      SP,#2                 ; [CPU_U] 
    2207                      .dwcfi  cfa_offset, -4
    2208 00000205 2942          CLRC      PAGE0,OVM             ; [CPU_] 
    2209 00000206 5616          CLRC      AMODE                 ; [CPU_] 
    2210 00000207 761F!         MOVW      DP,#_PieCtrlRegs+4    ; [CPU_U] 
         00000208 0000 
    2211                      .dwpsn  file "../source/DSP2803x_SWPrioritizedDefaultIsr.c",line 581,column 29,is_stmt,isa 0
    2212 00000209 9204!         MOV       AL,@_PieCtrlRegs+4    ; [CPU_] |581| 
    2213 0000020a 9641          MOV       *-SP[1],AL            ; [CPU_] |581| 
    2214                      .dwpsn  file "../source/DSP2803x_SWPrioritizedDefaultIsr.c",line 582,column 2,is_stmt,isa 0
    2215 0000020b 7623          OR        IER,#0x0002           ; [CPU_] |582| 
         0000020c 0002 
    2216                      .dwpsn  file "../source/DSP2803x_SWPrioritizedDefaultIsr.c",line 583,column 2,is_stmt,isa 0
    2217 0000020d 7626          AND       IER,#0x0002           ; [CPU_] |583| 
         0000020e 0002 
    2218                      .dwpsn  file "../source/DSP2803x_SWPrioritizedDefaultIsr.c",line 584,column 2,is_stmt,isa 0
    2219 0000020f 1804!         AND       @_PieCtrlRegs+4,#0x005f ; [CPU_] |584| 
         00000210 005F 
    2220                      .dwpsn  file "../source/DSP2803x_SWPrioritizedDefaultIsr.c",line 585,column 2,is_stmt,isa 0
    2221 00000211 2801!         MOV       @_PieCtrlRegs+1,#65535 ; [CPU_] |585| 
         00000212 FFFF 
TMS320C2000 Assembler PC v6.4.12 Thu Nov 16 10:01:32 2017

Tools Copyright (c) 1996-2017 Texas Instruments Incorporated
C:\Users\Admin\AppData\Local\Temp\0610810                            PAGE   43

    2222 00000213 2910   clrc INTM
    2223 00000214 3B10   setc INTM
    2224                      .dwpsn  file "../source/DSP2803x_SWPrioritizedDefaultIsr.c",line 592,column 2,is_stmt,isa 0
    2225 00000215 9241          MOV       AL,*-SP[1]            ; [CPU_] |592| 
    2226 00000216 9604!         MOV       @_PieCtrlRegs+4,AL    ; [CPU_] |592| 
    2227 00000217 7625        ESTOP0
    2228 00000218       $C$L39:    
    2229                      .dwpsn  file "../source/DSP2803x_SWPrioritizedDefaultIsr.c",line 597,column 5,is_stmt,isa 0
    2230 00000218 6F00          B         $C$L39,UNC            ; [CPU_] |597| 
    2231                      ; branch occurs ; [] |597| 
    2232                      .dwattr $C$DW$58, DW_AT_TI_end_file("../source/DSP2803x_SWPrioritizedDefaultIsr.c")
    2233                      .dwattr $C$DW$58, DW_AT_TI_end_line(0x257)
    2234                      .dwattr $C$DW$58, DW_AT_TI_end_column(0x01)
    2235                      .dwendentry
    2236                      .dwendtag $C$DW$58
    2237              
    2238 00000219               .sect   ".text:retain"
    2239                      .retain
    2240                      .retainrefs
    2241                      .global _EPWM6_INT_ISR
    2242              
    2243              $C$DW$60        .dwtag  DW_TAG_subprogram, DW_AT_name("EPWM6_INT_ISR")
    2244                      .dwattr $C$DW$60, DW_AT_low_pc(_EPWM6_INT_ISR)
    2245                      .dwattr $C$DW$60, DW_AT_high_pc(0x00)
    2246                      .dwattr $C$DW$60, DW_AT_TI_symbol_name("_EPWM6_INT_ISR")
    2247                      .dwattr $C$DW$60, DW_AT_external
    2248                      .dwattr $C$DW$60, DW_AT_TI_begin_file("../source/DSP2803x_SWPrioritizedDefaultIsr.c")
    2249                      .dwattr $C$DW$60, DW_AT_TI_begin_line(0x2fb)
    2250                      .dwattr $C$DW$60, DW_AT_TI_begin_column(0x12)
    2251                      .dwattr $C$DW$60, DW_AT_TI_interrupt
    2252                      .dwattr $C$DW$60, DW_AT_TI_max_frame_size(-4)
    2253                      .dwpsn  file "../source/DSP2803x_SWPrioritizedDefaultIsr.c",line 764,column 1,is_stmt,address _EPWM6_
    2254              
    2255                      .dwfde $C$DW$CIE, _EPWM6_INT_ISR
    2256              
    2257              ;***************************************************************
    2258              ;* FNAME: _EPWM6_INT_ISR                FR SIZE:   2           *
    2259              ;*                                                             *
    2260              ;* FUNCTION ENVIRONMENT                                        *
    2261              ;*                                                             *
    2262              ;* FUNCTION PROPERTIES                                         *
    2263              ;*                            0 Parameter,  1 Auto,  0 SOE     *
    2264              ;***************************************************************
    2265              
    2266              _EPWM6_INT_ISR:
    2267              $C$DW$61        .dwtag  DW_TAG_variable, DW_AT_name("TempPIEIER")
    2268                      .dwattr $C$DW$61, DW_AT_TI_symbol_name("_TempPIEIER")
    2269                      .dwattr $C$DW$61, DW_AT_type(*$C$DW$T$33)
    2270                      .dwattr $C$DW$61, DW_AT_location[DW_OP_breg20 -1]
    2271                      .dwcfi  cfa_offset, -2
    2272                      .dwcfi  save_reg_to_mem, 26, 0
    2273 00000219 761B          ASP       ; [CPU_] 
    2274 0000021a FE02          ADDB      SP,#2                 ; [CPU_U] 
    2275                      .dwcfi  cfa_offset, -4
    2276 0000021b 2942          CLRC      PAGE0,OVM             ; [CPU_] 
TMS320C2000 Assembler PC v6.4.12 Thu Nov 16 10:01:32 2017

Tools Copyright (c) 1996-2017 Texas Instruments Incorporated
C:\Users\Admin\AppData\Local\Temp\0610810                            PAGE   44

    2277 0000021c 5616          CLRC      AMODE                 ; [CPU_] 
    2278 0000021d 761F!         MOVW      DP,#_PieCtrlRegs+6    ; [CPU_U] 
         0000021e 0000 
    2279                      .dwpsn  file "../source/DSP2803x_SWPrioritizedDefaultIsr.c",line 766,column 29,is_stmt,isa 0
    2280 0000021f 9206!         MOV       AL,@_PieCtrlRegs+6    ; [CPU_] |766| 
    2281 00000220 9641          MOV       *-SP[1],AL            ; [CPU_] |766| 
    2282                      .dwpsn  file "../source/DSP2803x_SWPrioritizedDefaultIsr.c",line 767,column 2,is_stmt,isa 0
    2283 00000221 7623          OR        IER,#0x0004           ; [CPU_] |767| 
         00000222 0004 
    2284                      .dwpsn  file "../source/DSP2803x_SWPrioritizedDefaultIsr.c",line 768,column 2,is_stmt,isa 0
    2285 00000223 7626          AND       IER,#0x013f           ; [CPU_] |768| 
         00000224 013F 
    2286                      .dwpsn  file "../source/DSP2803x_SWPrioritizedDefaultIsr.c",line 769,column 2,is_stmt,isa 0
    2287 00000225 1806!         AND       @_PieCtrlRegs+6,#0x005f ; [CPU_] |769| 
         00000226 005F 
    2288                      .dwpsn  file "../source/DSP2803x_SWPrioritizedDefaultIsr.c",line 770,column 2,is_stmt,isa 0
    2289 00000227 2801!         MOV       @_PieCtrlRegs+1,#65535 ; [CPU_] |770| 
         00000228 FFFF 
    2290 00000229 2910   clrc INTM
    2291 0000022a 3B10   setc INTM
    2292                      .dwpsn  file "../source/DSP2803x_SWPrioritizedDefaultIsr.c",line 777,column 2,is_stmt,isa 0
    2293 0000022b 9241          MOV       AL,*-SP[1]            ; [CPU_] |777| 
    2294 0000022c 9606!         MOV       @_PieCtrlRegs+6,AL    ; [CPU_] |777| 
    2295 0000022d 7625        ESTOP0
    2296 0000022e       $C$L40:    
    2297                      .dwpsn  file "../source/DSP2803x_SWPrioritizedDefaultIsr.c",line 782,column 5,is_stmt,isa 0
    2298 0000022e 6F00          B         $C$L40,UNC            ; [CPU_] |782| 
    2299                      ; branch occurs ; [] |782| 
    2300                      .dwattr $C$DW$60, DW_AT_TI_end_file("../source/DSP2803x_SWPrioritizedDefaultIsr.c")
    2301                      .dwattr $C$DW$60, DW_AT_TI_end_line(0x310)
    2302                      .dwattr $C$DW$60, DW_AT_TI_end_column(0x01)
    2303                      .dwendentry
    2304                      .dwendtag $C$DW$60
    2305              
    2306 0000022f               .sect   ".text:retain"
    2307                      .retain
    2308                      .retainrefs
    2309                      .global _EPWM5_TZINT_ISR
    2310              
    2311              $C$DW$62        .dwtag  DW_TAG_subprogram, DW_AT_name("EPWM5_TZINT_ISR")
    2312                      .dwattr $C$DW$62, DW_AT_low_pc(_EPWM5_TZINT_ISR)
    2313                      .dwattr $C$DW$62, DW_AT_high_pc(0x00)
    2314                      .dwattr $C$DW$62, DW_AT_TI_symbol_name("_EPWM5_TZINT_ISR")
    2315                      .dwattr $C$DW$62, DW_AT_external
    2316                      .dwattr $C$DW$62, DW_AT_TI_begin_file("../source/DSP2803x_SWPrioritizedDefaultIsr.c")
    2317                      .dwattr $C$DW$62, DW_AT_TI_begin_line(0x228)
    2318                      .dwattr $C$DW$62, DW_AT_TI_begin_column(0x12)
    2319                      .dwattr $C$DW$62, DW_AT_TI_interrupt
    2320                      .dwattr $C$DW$62, DW_AT_TI_max_frame_size(-4)
    2321                      .dwpsn  file "../source/DSP2803x_SWPrioritizedDefaultIsr.c",line 553,column 1,is_stmt,address _EPWM5_
    2322              
    2323                      .dwfde $C$DW$CIE, _EPWM5_TZINT_ISR
    2324              
    2325              ;***************************************************************
    2326              ;* FNAME: _EPWM5_TZINT_ISR              FR SIZE:   2           *
TMS320C2000 Assembler PC v6.4.12 Thu Nov 16 10:01:32 2017

Tools Copyright (c) 1996-2017 Texas Instruments Incorporated
C:\Users\Admin\AppData\Local\Temp\0610810                            PAGE   45

    2327              ;*                                                             *
    2328              ;* FUNCTION ENVIRONMENT                                        *
    2329              ;*                                                             *
    2330              ;* FUNCTION PROPERTIES                                         *
    2331              ;*                            0 Parameter,  1 Auto,  0 SOE     *
    2332              ;***************************************************************
    2333              
    2334              _EPWM5_TZINT_ISR:
    2335              $C$DW$63        .dwtag  DW_TAG_variable, DW_AT_name("TempPIEIER")
    2336                      .dwattr $C$DW$63, DW_AT_TI_symbol_name("_TempPIEIER")
    2337                      .dwattr $C$DW$63, DW_AT_type(*$C$DW$T$33)
    2338                      .dwattr $C$DW$63, DW_AT_location[DW_OP_breg20 -1]
    2339                      .dwcfi  cfa_offset, -2
    2340                      .dwcfi  save_reg_to_mem, 26, 0
    2341 0000022f 761B          ASP       ; [CPU_] 
    2342 00000230 FE02          ADDB      SP,#2                 ; [CPU_U] 
    2343                      .dwcfi  cfa_offset, -4
    2344 00000231 2942          CLRC      PAGE0,OVM             ; [CPU_] 
    2345 00000232 5616          CLRC      AMODE                 ; [CPU_] 
    2346 00000233 761F!         MOVW      DP,#_PieCtrlRegs+4    ; [CPU_U] 
         00000234 0000 
    2347                      .dwpsn  file "../source/DSP2803x_SWPrioritizedDefaultIsr.c",line 555,column 29,is_stmt,isa 0
    2348 00000235 9204!         MOV       AL,@_PieCtrlRegs+4    ; [CPU_] |555| 
    2349 00000236 9641          MOV       *-SP[1],AL            ; [CPU_] |555| 
    2350                      .dwpsn  file "../source/DSP2803x_SWPrioritizedDefaultIsr.c",line 556,column 2,is_stmt,isa 0
    2351 00000237 7623          OR        IER,#0x0002           ; [CPU_] |556| 
         00000238 0002 
    2352                      .dwpsn  file "../source/DSP2803x_SWPrioritizedDefaultIsr.c",line 557,column 2,is_stmt,isa 0
    2353 00000239 7626          AND       IER,#0x0002           ; [CPU_] |557| 
         0000023a 0002 
    2354                      .dwpsn  file "../source/DSP2803x_SWPrioritizedDefaultIsr.c",line 558,column 2,is_stmt,isa 0
    2355 0000023b 1804!         AND       @_PieCtrlRegs+4,#0x004c ; [CPU_] |558| 
         0000023c 004C 
    2356                      .dwpsn  file "../source/DSP2803x_SWPrioritizedDefaultIsr.c",line 559,column 2,is_stmt,isa 0
    2357 0000023d 2801!         MOV       @_PieCtrlRegs+1,#65535 ; [CPU_] |559| 
         0000023e FFFF 
    2358 0000023f 2910   clrc INTM
    2359 00000240 3B10   setc INTM
    2360                      .dwpsn  file "../source/DSP2803x_SWPrioritizedDefaultIsr.c",line 566,column 2,is_stmt,isa 0
    2361 00000241 9241          MOV       AL,*-SP[1]            ; [CPU_] |566| 
    2362 00000242 9604!         MOV       @_PieCtrlRegs+4,AL    ; [CPU_] |566| 
    2363 00000243 7625        ESTOP0
    2364 00000244       $C$L41:    
    2365                      .dwpsn  file "../source/DSP2803x_SWPrioritizedDefaultIsr.c",line 571,column 5,is_stmt,isa 0
    2366 00000244 6F00          B         $C$L41,UNC            ; [CPU_] |571| 
    2367                      ; branch occurs ; [] |571| 
    2368                      .dwattr $C$DW$62, DW_AT_TI_end_file("../source/DSP2803x_SWPrioritizedDefaultIsr.c")
    2369                      .dwattr $C$DW$62, DW_AT_TI_end_line(0x23d)
    2370                      .dwattr $C$DW$62, DW_AT_TI_end_column(0x01)
    2371                      .dwendentry
    2372                      .dwendtag $C$DW$62
    2373              
    2374 00000245               .sect   ".text:retain"
    2375                      .retain
    2376                      .retainrefs
TMS320C2000 Assembler PC v6.4.12 Thu Nov 16 10:01:32 2017

Tools Copyright (c) 1996-2017 Texas Instruments Incorporated
C:\Users\Admin\AppData\Local\Temp\0610810                            PAGE   46

    2377                      .global _EPWM5_INT_ISR
    2378              
    2379              $C$DW$64        .dwtag  DW_TAG_subprogram, DW_AT_name("EPWM5_INT_ISR")
    2380                      .dwattr $C$DW$64, DW_AT_low_pc(_EPWM5_INT_ISR)
    2381                      .dwattr $C$DW$64, DW_AT_high_pc(0x00)
    2382                      .dwattr $C$DW$64, DW_AT_TI_symbol_name("_EPWM5_INT_ISR")
    2383                      .dwattr $C$DW$64, DW_AT_external
    2384                      .dwattr $C$DW$64, DW_AT_TI_begin_file("../source/DSP2803x_SWPrioritizedDefaultIsr.c")
    2385                      .dwattr $C$DW$64, DW_AT_TI_begin_line(0x2e1)
    2386                      .dwattr $C$DW$64, DW_AT_TI_begin_column(0x12)
    2387                      .dwattr $C$DW$64, DW_AT_TI_interrupt
    2388                      .dwattr $C$DW$64, DW_AT_TI_max_frame_size(-4)
    2389                      .dwpsn  file "../source/DSP2803x_SWPrioritizedDefaultIsr.c",line 738,column 1,is_stmt,address _EPWM5_
    2390              
    2391                      .dwfde $C$DW$CIE, _EPWM5_INT_ISR
    2392              
    2393              ;***************************************************************
    2394              ;* FNAME: _EPWM5_INT_ISR                FR SIZE:   2           *
    2395              ;*                                                             *
    2396              ;* FUNCTION ENVIRONMENT                                        *
    2397              ;*                                                             *
    2398              ;* FUNCTION PROPERTIES                                         *
    2399              ;*                            0 Parameter,  1 Auto,  0 SOE     *
    2400              ;***************************************************************
    2401              
    2402              _EPWM5_INT_ISR:
    2403              $C$DW$65        .dwtag  DW_TAG_variable, DW_AT_name("TempPIEIER")
    2404                      .dwattr $C$DW$65, DW_AT_TI_symbol_name("_TempPIEIER")
    2405                      .dwattr $C$DW$65, DW_AT_type(*$C$DW$T$33)
    2406                      .dwattr $C$DW$65, DW_AT_location[DW_OP_breg20 -1]
    2407                      .dwcfi  cfa_offset, -2
    2408                      .dwcfi  save_reg_to_mem, 26, 0
    2409 00000245 761B          ASP       ; [CPU_] 
    2410 00000246 FE02          ADDB      SP,#2                 ; [CPU_U] 
    2411                      .dwcfi  cfa_offset, -4
    2412 00000247 2942          CLRC      PAGE0,OVM             ; [CPU_] 
    2413 00000248 5616          CLRC      AMODE                 ; [CPU_] 
    2414 00000249 761F!         MOVW      DP,#_PieCtrlRegs+6    ; [CPU_U] 
         0000024a 0000 
    2415                      .dwpsn  file "../source/DSP2803x_SWPrioritizedDefaultIsr.c",line 740,column 29,is_stmt,isa 0
    2416 0000024b 9206!         MOV       AL,@_PieCtrlRegs+6    ; [CPU_] |740| 
    2417 0000024c 9641          MOV       *-SP[1],AL            ; [CPU_] |740| 
    2418                      .dwpsn  file "../source/DSP2803x_SWPrioritizedDefaultIsr.c",line 741,column 2,is_stmt,isa 0
    2419 0000024d 7623          OR        IER,#0x0004           ; [CPU_] |741| 
         0000024e 0004 
    2420                      .dwpsn  file "../source/DSP2803x_SWPrioritizedDefaultIsr.c",line 742,column 2,is_stmt,isa 0
    2421 0000024f 7626          AND       IER,#0x013f           ; [CPU_] |742| 
         00000250 013F 
    2422                      .dwpsn  file "../source/DSP2803x_SWPrioritizedDefaultIsr.c",line 743,column 2,is_stmt,isa 0
    2423 00000251 1806!         AND       @_PieCtrlRegs+6,#0x000e ; [CPU_] |743| 
         00000252 000E 
    2424                      .dwpsn  file "../source/DSP2803x_SWPrioritizedDefaultIsr.c",line 744,column 2,is_stmt,isa 0
    2425 00000253 2801!         MOV       @_PieCtrlRegs+1,#65535 ; [CPU_] |744| 
         00000254 FFFF 
    2426 00000255 2910   clrc INTM
TMS320C2000 Assembler PC v6.4.12 Thu Nov 16 10:01:32 2017

Tools Copyright (c) 1996-2017 Texas Instruments Incorporated
C:\Users\Admin\AppData\Local\Temp\0610810                            PAGE   47

    2427 00000256 3B10   setc INTM
    2428                      .dwpsn  file "../source/DSP2803x_SWPrioritizedDefaultIsr.c",line 751,column 2,is_stmt,isa 0
    2429 00000257 9241          MOV       AL,*-SP[1]            ; [CPU_] |751| 
    2430 00000258 9606!         MOV       @_PieCtrlRegs+6,AL    ; [CPU_] |751| 
    2431 00000259 7625        ESTOP0
    2432 0000025a       $C$L42:    
    2433                      .dwpsn  file "../source/DSP2803x_SWPrioritizedDefaultIsr.c",line 756,column 5,is_stmt,isa 0
    2434 0000025a 6F00          B         $C$L42,UNC            ; [CPU_] |756| 
    2435                      ; branch occurs ; [] |756| 
    2436                      .dwattr $C$DW$64, DW_AT_TI_end_file("../source/DSP2803x_SWPrioritizedDefaultIsr.c")
    2437                      .dwattr $C$DW$64, DW_AT_TI_end_line(0x2f6)
    2438                      .dwattr $C$DW$64, DW_AT_TI_end_column(0x01)
    2439                      .dwendentry
    2440                      .dwendtag $C$DW$64
    2441              
    2442 0000025b               .sect   ".text:retain"
    2443                      .retain
    2444                      .retainrefs
    2445                      .global _EPWM4_TZINT_ISR
    2446              
    2447              $C$DW$66        .dwtag  DW_TAG_subprogram, DW_AT_name("EPWM4_TZINT_ISR")
    2448                      .dwattr $C$DW$66, DW_AT_low_pc(_EPWM4_TZINT_ISR)
    2449                      .dwattr $C$DW$66, DW_AT_high_pc(0x00)
    2450                      .dwattr $C$DW$66, DW_AT_TI_symbol_name("_EPWM4_TZINT_ISR")
    2451                      .dwattr $C$DW$66, DW_AT_external
    2452                      .dwattr $C$DW$66, DW_AT_TI_begin_file("../source/DSP2803x_SWPrioritizedDefaultIsr.c")
    2453                      .dwattr $C$DW$66, DW_AT_TI_begin_line(0x20e)
    2454                      .dwattr $C$DW$66, DW_AT_TI_begin_column(0x12)
    2455                      .dwattr $C$DW$66, DW_AT_TI_interrupt
    2456                      .dwattr $C$DW$66, DW_AT_TI_max_frame_size(-4)
    2457                      .dwpsn  file "../source/DSP2803x_SWPrioritizedDefaultIsr.c",line 527,column 1,is_stmt,address _EPWM4_
    2458              
    2459                      .dwfde $C$DW$CIE, _EPWM4_TZINT_ISR
    2460              
    2461              ;***************************************************************
    2462              ;* FNAME: _EPWM4_TZINT_ISR              FR SIZE:   2           *
    2463              ;*                                                             *
    2464              ;* FUNCTION ENVIRONMENT                                        *
    2465              ;*                                                             *
    2466              ;* FUNCTION PROPERTIES                                         *
    2467              ;*                            0 Parameter,  1 Auto,  0 SOE     *
    2468              ;***************************************************************
    2469              
    2470              _EPWM4_TZINT_ISR:
    2471              $C$DW$67        .dwtag  DW_TAG_variable, DW_AT_name("TempPIEIER")
    2472                      .dwattr $C$DW$67, DW_AT_TI_symbol_name("_TempPIEIER")
    2473                      .dwattr $C$DW$67, DW_AT_type(*$C$DW$T$33)
    2474                      .dwattr $C$DW$67, DW_AT_location[DW_OP_breg20 -1]
    2475                      .dwcfi  cfa_offset, -2
    2476                      .dwcfi  save_reg_to_mem, 26, 0
    2477 0000025b 761B          ASP       ; [CPU_] 
    2478 0000025c FE02          ADDB      SP,#2                 ; [CPU_U] 
    2479                      .dwcfi  cfa_offset, -4
    2480 0000025d 2942          CLRC      PAGE0,OVM             ; [CPU_] 
    2481 0000025e 5616          CLRC      AMODE                 ; [CPU_] 
TMS320C2000 Assembler PC v6.4.12 Thu Nov 16 10:01:32 2017

Tools Copyright (c) 1996-2017 Texas Instruments Incorporated
C:\Users\Admin\AppData\Local\Temp\0610810                            PAGE   48

    2482 0000025f 761F!         MOVW      DP,#_PieCtrlRegs+4    ; [CPU_U] 
         00000260 0000 
    2483                      .dwpsn  file "../source/DSP2803x_SWPrioritizedDefaultIsr.c",line 529,column 29,is_stmt,isa 0
    2484 00000261 9204!         MOV       AL,@_PieCtrlRegs+4    ; [CPU_] |529| 
    2485 00000262 9641          MOV       *-SP[1],AL            ; [CPU_] |529| 
    2486                      .dwpsn  file "../source/DSP2803x_SWPrioritizedDefaultIsr.c",line 530,column 2,is_stmt,isa 0
    2487 00000263 7623          OR        IER,#0x0002           ; [CPU_] |530| 
         00000264 0002 
    2488                      .dwpsn  file "../source/DSP2803x_SWPrioritizedDefaultIsr.c",line 531,column 2,is_stmt,isa 0
    2489 00000265 7626          AND       IER,#0x0002           ; [CPU_] |531| 
         00000266 0002 
    2490                      .dwpsn  file "../source/DSP2803x_SWPrioritizedDefaultIsr.c",line 532,column 2,is_stmt,isa 0
    2491 00000267 9204!         MOV       AL,@_PieCtrlRegs+4    ; [CPU_] |532| 
    2492 00000268 2B04!         MOV       @_PieCtrlRegs+4,#0    ; [CPU_] |532| 
    2493                      .dwpsn  file "../source/DSP2803x_SWPrioritizedDefaultIsr.c",line 533,column 2,is_stmt,isa 0
    2494 00000269 2801!         MOV       @_PieCtrlRegs+1,#65535 ; [CPU_] |533| 
         0000026a FFFF 
    2495 0000026b 2910   clrc INTM
    2496 0000026c 3B10   setc INTM
    2497                      .dwpsn  file "../source/DSP2803x_SWPrioritizedDefaultIsr.c",line 540,column 2,is_stmt,isa 0
    2498 0000026d 9241          MOV       AL,*-SP[1]            ; [CPU_] |540| 
    2499 0000026e 9604!         MOV       @_PieCtrlRegs+4,AL    ; [CPU_] |540| 
    2500 0000026f 7625        ESTOP0
    2501 00000270       $C$L43:    
    2502                      .dwpsn  file "../source/DSP2803x_SWPrioritizedDefaultIsr.c",line 545,column 5,is_stmt,isa 0
    2503 00000270 6F00          B         $C$L43,UNC            ; [CPU_] |545| 
    2504                      ; branch occurs ; [] |545| 
    2505                      .dwattr $C$DW$66, DW_AT_TI_end_file("../source/DSP2803x_SWPrioritizedDefaultIsr.c")
    2506                      .dwattr $C$DW$66, DW_AT_TI_end_line(0x223)
    2507                      .dwattr $C$DW$66, DW_AT_TI_end_column(0x01)
    2508                      .dwendentry
    2509                      .dwendtag $C$DW$66
    2510              
    2511 00000271               .sect   ".text:retain"
    2512                      .retain
    2513                      .retainrefs
    2514                      .global _EPWM4_INT_ISR
    2515              
    2516              $C$DW$68        .dwtag  DW_TAG_subprogram, DW_AT_name("EPWM4_INT_ISR")
    2517                      .dwattr $C$DW$68, DW_AT_low_pc(_EPWM4_INT_ISR)
    2518                      .dwattr $C$DW$68, DW_AT_high_pc(0x00)
    2519                      .dwattr $C$DW$68, DW_AT_TI_symbol_name("_EPWM4_INT_ISR")
    2520                      .dwattr $C$DW$68, DW_AT_external
    2521                      .dwattr $C$DW$68, DW_AT_TI_begin_file("../source/DSP2803x_SWPrioritizedDefaultIsr.c")
    2522                      .dwattr $C$DW$68, DW_AT_TI_begin_line(0x2c7)
    2523                      .dwattr $C$DW$68, DW_AT_TI_begin_column(0x12)
    2524                      .dwattr $C$DW$68, DW_AT_TI_interrupt
    2525                      .dwattr $C$DW$68, DW_AT_TI_max_frame_size(-4)
    2526                      .dwpsn  file "../source/DSP2803x_SWPrioritizedDefaultIsr.c",line 712,column 1,is_stmt,address _EPWM4_
    2527              
    2528                      .dwfde $C$DW$CIE, _EPWM4_INT_ISR
    2529              
    2530              ;***************************************************************
    2531              ;* FNAME: _EPWM4_INT_ISR                FR SIZE:   2           *
    2532              ;*                                                             *
TMS320C2000 Assembler PC v6.4.12 Thu Nov 16 10:01:32 2017

Tools Copyright (c) 1996-2017 Texas Instruments Incorporated
C:\Users\Admin\AppData\Local\Temp\0610810                            PAGE   49

    2533              ;* FUNCTION ENVIRONMENT                                        *
    2534              ;*                                                             *
    2535              ;* FUNCTION PROPERTIES                                         *
    2536              ;*                            0 Parameter,  1 Auto,  0 SOE     *
    2537              ;***************************************************************
    2538              
    2539              _EPWM4_INT_ISR:
    2540              $C$DW$69        .dwtag  DW_TAG_variable, DW_AT_name("TempPIEIER")
    2541                      .dwattr $C$DW$69, DW_AT_TI_symbol_name("_TempPIEIER")
    2542                      .dwattr $C$DW$69, DW_AT_type(*$C$DW$T$33)
    2543                      .dwattr $C$DW$69, DW_AT_location[DW_OP_breg20 -1]
    2544                      .dwcfi  cfa_offset, -2
    2545                      .dwcfi  save_reg_to_mem, 26, 0
    2546 00000271 761B          ASP       ; [CPU_] 
    2547 00000272 FE02          ADDB      SP,#2                 ; [CPU_U] 
    2548                      .dwcfi  cfa_offset, -4
    2549 00000273 2942          CLRC      PAGE0,OVM             ; [CPU_] 
    2550 00000274 5616          CLRC      AMODE                 ; [CPU_] 
    2551 00000275 761F!         MOVW      DP,#_PieCtrlRegs+6    ; [CPU_U] 
         00000276 0000 
    2552                      .dwpsn  file "../source/DSP2803x_SWPrioritizedDefaultIsr.c",line 714,column 29,is_stmt,isa 0
    2553 00000277 9206!         MOV       AL,@_PieCtrlRegs+6    ; [CPU_] |714| 
    2554 00000278 9641          MOV       *-SP[1],AL            ; [CPU_] |714| 
    2555                      .dwpsn  file "../source/DSP2803x_SWPrioritizedDefaultIsr.c",line 715,column 2,is_stmt,isa 0
    2556 00000279 7623          OR        IER,#0x0004           ; [CPU_] |715| 
         0000027a 0004 
    2557                      .dwpsn  file "../source/DSP2803x_SWPrioritizedDefaultIsr.c",line 716,column 2,is_stmt,isa 0
    2558 0000027b 7626          AND       IER,#0x013f           ; [CPU_] |716| 
         0000027c 013F 
    2559                      .dwpsn  file "../source/DSP2803x_SWPrioritizedDefaultIsr.c",line 717,column 2,is_stmt,isa 0
    2560 0000027d 1806!         AND       @_PieCtrlRegs+6,#0x0006 ; [CPU_] |717| 
         0000027e 0006 
    2561                      .dwpsn  file "../source/DSP2803x_SWPrioritizedDefaultIsr.c",line 718,column 2,is_stmt,isa 0
    2562 0000027f 2801!         MOV       @_PieCtrlRegs+1,#65535 ; [CPU_] |718| 
         00000280 FFFF 
    2563 00000281 2910   clrc INTM
    2564 00000282 3B10   setc INTM
    2565                      .dwpsn  file "../source/DSP2803x_SWPrioritizedDefaultIsr.c",line 725,column 2,is_stmt,isa 0
    2566 00000283 9241          MOV       AL,*-SP[1]            ; [CPU_] |725| 
    2567 00000284 9606!         MOV       @_PieCtrlRegs+6,AL    ; [CPU_] |725| 
    2568 00000285 7625        ESTOP0
    2569 00000286       $C$L44:    
    2570                      .dwpsn  file "../source/DSP2803x_SWPrioritizedDefaultIsr.c",line 730,column 5,is_stmt,isa 0
    2571 00000286 6F00          B         $C$L44,UNC            ; [CPU_] |730| 
    2572                      ; branch occurs ; [] |730| 
    2573                      .dwattr $C$DW$68, DW_AT_TI_end_file("../source/DSP2803x_SWPrioritizedDefaultIsr.c")
    2574                      .dwattr $C$DW$68, DW_AT_TI_end_line(0x2dc)
    2575                      .dwattr $C$DW$68, DW_AT_TI_end_column(0x01)
    2576                      .dwendentry
    2577                      .dwendtag $C$DW$68
    2578              
    2579 00000287               .sect   ".text:retain"
    2580                      .retain
    2581                      .retainrefs
    2582                      .global _EPWM3_TZINT_ISR
TMS320C2000 Assembler PC v6.4.12 Thu Nov 16 10:01:32 2017

Tools Copyright (c) 1996-2017 Texas Instruments Incorporated
C:\Users\Admin\AppData\Local\Temp\0610810                            PAGE   50

    2583              
    2584              $C$DW$70        .dwtag  DW_TAG_subprogram, DW_AT_name("EPWM3_TZINT_ISR")
    2585                      .dwattr $C$DW$70, DW_AT_low_pc(_EPWM3_TZINT_ISR)
    2586                      .dwattr $C$DW$70, DW_AT_high_pc(0x00)
    2587                      .dwattr $C$DW$70, DW_AT_TI_symbol_name("_EPWM3_TZINT_ISR")
    2588                      .dwattr $C$DW$70, DW_AT_external
    2589                      .dwattr $C$DW$70, DW_AT_TI_begin_file("../source/DSP2803x_SWPrioritizedDefaultIsr.c")
    2590                      .dwattr $C$DW$70, DW_AT_TI_begin_line(0x1f4)
    2591                      .dwattr $C$DW$70, DW_AT_TI_begin_column(0x12)
    2592                      .dwattr $C$DW$70, DW_AT_TI_interrupt
    2593                      .dwattr $C$DW$70, DW_AT_TI_max_frame_size(-4)
    2594                      .dwpsn  file "../source/DSP2803x_SWPrioritizedDefaultIsr.c",line 501,column 1,is_stmt,address _EPWM3_
    2595              
    2596                      .dwfde $C$DW$CIE, _EPWM3_TZINT_ISR
    2597              
    2598              ;***************************************************************
    2599              ;* FNAME: _EPWM3_TZINT_ISR              FR SIZE:   2           *
    2600              ;*                                                             *
    2601              ;* FUNCTION ENVIRONMENT                                        *
    2602              ;*                                                             *
    2603              ;* FUNCTION PROPERTIES                                         *
    2604              ;*                            0 Parameter,  1 Auto,  0 SOE     *
    2605              ;***************************************************************
    2606              
    2607              _EPWM3_TZINT_ISR:
    2608              $C$DW$71        .dwtag  DW_TAG_variable, DW_AT_name("TempPIEIER")
    2609                      .dwattr $C$DW$71, DW_AT_TI_symbol_name("_TempPIEIER")
    2610                      .dwattr $C$DW$71, DW_AT_type(*$C$DW$T$33)
    2611                      .dwattr $C$DW$71, DW_AT_location[DW_OP_breg20 -1]
    2612                      .dwcfi  cfa_offset, -2
    2613                      .dwcfi  save_reg_to_mem, 26, 0
    2614 00000287 761B          ASP       ; [CPU_] 
    2615 00000288 FE02          ADDB      SP,#2                 ; [CPU_U] 
    2616                      .dwcfi  cfa_offset, -4
    2617 00000289 2942          CLRC      PAGE0,OVM             ; [CPU_] 
    2618 0000028a 5616          CLRC      AMODE                 ; [CPU_] 
    2619 0000028b 761F!         MOVW      DP,#_PieCtrlRegs+4    ; [CPU_U] 
         0000028c 0000 
    2620                      .dwpsn  file "../source/DSP2803x_SWPrioritizedDefaultIsr.c",line 503,column 29,is_stmt,isa 0
    2621 0000028d 9204!         MOV       AL,@_PieCtrlRegs+4    ; [CPU_] |503| 
    2622 0000028e 9641          MOV       *-SP[1],AL            ; [CPU_] |503| 
    2623                      .dwpsn  file "../source/DSP2803x_SWPrioritizedDefaultIsr.c",line 504,column 2,is_stmt,isa 0
    2624 0000028f 7623          OR        IER,#0x0002           ; [CPU_] |504| 
         00000290 0002 
    2625                      .dwpsn  file "../source/DSP2803x_SWPrioritizedDefaultIsr.c",line 505,column 2,is_stmt,isa 0
    2626 00000291 7626          AND       IER,#0x0002           ; [CPU_] |505| 
         00000292 0002 
    2627                      .dwpsn  file "../source/DSP2803x_SWPrioritizedDefaultIsr.c",line 506,column 2,is_stmt,isa 0
    2628 00000293 1804!         AND       @_PieCtrlRegs+4,#0x0008 ; [CPU_] |506| 
         00000294 0008 
    2629                      .dwpsn  file "../source/DSP2803x_SWPrioritizedDefaultIsr.c",line 507,column 2,is_stmt,isa 0
    2630 00000295 2801!         MOV       @_PieCtrlRegs+1,#65535 ; [CPU_] |507| 
         00000296 FFFF 
    2631 00000297 2910   clrc INTM
    2632 00000298 3B10   setc INTM
TMS320C2000 Assembler PC v6.4.12 Thu Nov 16 10:01:32 2017

Tools Copyright (c) 1996-2017 Texas Instruments Incorporated
C:\Users\Admin\AppData\Local\Temp\0610810                            PAGE   51

    2633                      .dwpsn  file "../source/DSP2803x_SWPrioritizedDefaultIsr.c",line 514,column 2,is_stmt,isa 0
    2634 00000299 9241          MOV       AL,*-SP[1]            ; [CPU_] |514| 
    2635 0000029a 9604!         MOV       @_PieCtrlRegs+4,AL    ; [CPU_] |514| 
    2636 0000029b 7625        ESTOP0
    2637 0000029c       $C$L45:    
    2638                      .dwpsn  file "../source/DSP2803x_SWPrioritizedDefaultIsr.c",line 519,column 5,is_stmt,isa 0
    2639 0000029c 6F00          B         $C$L45,UNC            ; [CPU_] |519| 
    2640                      ; branch occurs ; [] |519| 
    2641                      .dwattr $C$DW$70, DW_AT_TI_end_file("../source/DSP2803x_SWPrioritizedDefaultIsr.c")
    2642                      .dwattr $C$DW$70, DW_AT_TI_end_line(0x209)
    2643                      .dwattr $C$DW$70, DW_AT_TI_end_column(0x01)
    2644                      .dwendentry
    2645                      .dwendtag $C$DW$70
    2646              
    2647 0000029d               .sect   ".text:retain"
    2648                      .retain
    2649                      .retainrefs
    2650                      .global _EPWM3_INT_ISR
    2651              
    2652              $C$DW$72        .dwtag  DW_TAG_subprogram, DW_AT_name("EPWM3_INT_ISR")
    2653                      .dwattr $C$DW$72, DW_AT_low_pc(_EPWM3_INT_ISR)
    2654                      .dwattr $C$DW$72, DW_AT_high_pc(0x00)
    2655                      .dwattr $C$DW$72, DW_AT_TI_symbol_name("_EPWM3_INT_ISR")
    2656                      .dwattr $C$DW$72, DW_AT_external
    2657                      .dwattr $C$DW$72, DW_AT_TI_begin_file("../source/DSP2803x_SWPrioritizedDefaultIsr.c")
    2658                      .dwattr $C$DW$72, DW_AT_TI_begin_line(0x2ad)
    2659                      .dwattr $C$DW$72, DW_AT_TI_begin_column(0x12)
    2660                      .dwattr $C$DW$72, DW_AT_TI_interrupt
    2661                      .dwattr $C$DW$72, DW_AT_TI_max_frame_size(-4)
    2662                      .dwpsn  file "../source/DSP2803x_SWPrioritizedDefaultIsr.c",line 686,column 1,is_stmt,address _EPWM3_
    2663              
    2664                      .dwfde $C$DW$CIE, _EPWM3_INT_ISR
    2665              
    2666              ;***************************************************************
    2667              ;* FNAME: _EPWM3_INT_ISR                FR SIZE:   2           *
    2668              ;*                                                             *
    2669              ;* FUNCTION ENVIRONMENT                                        *
    2670              ;*                                                             *
    2671              ;* FUNCTION PROPERTIES                                         *
    2672              ;*                            0 Parameter,  1 Auto,  0 SOE     *
    2673              ;***************************************************************
    2674              
    2675              _EPWM3_INT_ISR:
    2676              $C$DW$73        .dwtag  DW_TAG_variable, DW_AT_name("TempPIEIER")
    2677                      .dwattr $C$DW$73, DW_AT_TI_symbol_name("_TempPIEIER")
    2678                      .dwattr $C$DW$73, DW_AT_type(*$C$DW$T$33)
    2679                      .dwattr $C$DW$73, DW_AT_location[DW_OP_breg20 -1]
    2680                      .dwcfi  cfa_offset, -2
    2681                      .dwcfi  save_reg_to_mem, 26, 0
    2682 0000029d 761B          ASP       ; [CPU_] 
    2683 0000029e FE02          ADDB      SP,#2                 ; [CPU_U] 
    2684                      .dwcfi  cfa_offset, -4
    2685 0000029f 2942          CLRC      PAGE0,OVM             ; [CPU_] 
    2686 000002a0 5616          CLRC      AMODE                 ; [CPU_] 
    2687 000002a1 761F!         MOVW      DP,#_PieCtrlRegs+6    ; [CPU_U] 
TMS320C2000 Assembler PC v6.4.12 Thu Nov 16 10:01:32 2017

Tools Copyright (c) 1996-2017 Texas Instruments Incorporated
C:\Users\Admin\AppData\Local\Temp\0610810                            PAGE   52

         000002a2 0000 
    2688                      .dwpsn  file "../source/DSP2803x_SWPrioritizedDefaultIsr.c",line 688,column 29,is_stmt,isa 0
    2689 000002a3 9206!         MOV       AL,@_PieCtrlRegs+6    ; [CPU_] |688| 
    2690 000002a4 9641          MOV       *-SP[1],AL            ; [CPU_] |688| 
    2691                      .dwpsn  file "../source/DSP2803x_SWPrioritizedDefaultIsr.c",line 689,column 2,is_stmt,isa 0
    2692 000002a5 7623          OR        IER,#0x0004           ; [CPU_] |689| 
         000002a6 0004 
    2693                      .dwpsn  file "../source/DSP2803x_SWPrioritizedDefaultIsr.c",line 690,column 2,is_stmt,isa 0
    2694 000002a7 7626          AND       IER,#0x013f           ; [CPU_] |690| 
         000002a8 013F 
    2695                      .dwpsn  file "../source/DSP2803x_SWPrioritizedDefaultIsr.c",line 691,column 2,is_stmt,isa 0
    2696 000002a9 9206!         MOV       AL,@_PieCtrlRegs+6    ; [CPU_] |691| 
    2697 000002aa 2B06!         MOV       @_PieCtrlRegs+6,#0    ; [CPU_] |691| 
    2698                      .dwpsn  file "../source/DSP2803x_SWPrioritizedDefaultIsr.c",line 692,column 2,is_stmt,isa 0
    2699 000002ab 2801!         MOV       @_PieCtrlRegs+1,#65535 ; [CPU_] |692| 
         000002ac FFFF 
    2700 000002ad 2910   clrc INTM
    2701 000002ae 3B10   setc INTM
    2702                      .dwpsn  file "../source/DSP2803x_SWPrioritizedDefaultIsr.c",line 699,column 2,is_stmt,isa 0
    2703 000002af 9241          MOV       AL,*-SP[1]            ; [CPU_] |699| 
    2704 000002b0 9606!         MOV       @_PieCtrlRegs+6,AL    ; [CPU_] |699| 
    2705 000002b1 7625        ESTOP0
    2706 000002b2       $C$L46:    
    2707                      .dwpsn  file "../source/DSP2803x_SWPrioritizedDefaultIsr.c",line 704,column 5,is_stmt,isa 0
    2708 000002b2 6F00          B         $C$L46,UNC            ; [CPU_] |704| 
    2709                      ; branch occurs ; [] |704| 
    2710                      .dwattr $C$DW$72, DW_AT_TI_end_file("../source/DSP2803x_SWPrioritizedDefaultIsr.c")
    2711                      .dwattr $C$DW$72, DW_AT_TI_end_line(0x2c2)
    2712                      .dwattr $C$DW$72, DW_AT_TI_end_column(0x01)
    2713                      .dwendentry
    2714                      .dwendtag $C$DW$72
    2715              
    2716 000002b3               .sect   ".text:retain"
    2717                      .retain
    2718                      .retainrefs
    2719                      .global _EPWM2_TZINT_ISR
    2720              
    2721              $C$DW$74        .dwtag  DW_TAG_subprogram, DW_AT_name("EPWM2_TZINT_ISR")
    2722                      .dwattr $C$DW$74, DW_AT_low_pc(_EPWM2_TZINT_ISR)
    2723                      .dwattr $C$DW$74, DW_AT_high_pc(0x00)
    2724                      .dwattr $C$DW$74, DW_AT_TI_symbol_name("_EPWM2_TZINT_ISR")
    2725                      .dwattr $C$DW$74, DW_AT_external
    2726                      .dwattr $C$DW$74, DW_AT_TI_begin_file("../source/DSP2803x_SWPrioritizedDefaultIsr.c")
    2727                      .dwattr $C$DW$74, DW_AT_TI_begin_line(0x1db)
    2728                      .dwattr $C$DW$74, DW_AT_TI_begin_column(0x12)
    2729                      .dwattr $C$DW$74, DW_AT_TI_interrupt
    2730                      .dwattr $C$DW$74, DW_AT_TI_max_frame_size(-4)
    2731                      .dwpsn  file "../source/DSP2803x_SWPrioritizedDefaultIsr.c",line 476,column 1,is_stmt,address _EPWM2_
    2732              
    2733                      .dwfde $C$DW$CIE, _EPWM2_TZINT_ISR
    2734              
    2735              ;***************************************************************
    2736              ;* FNAME: _EPWM2_TZINT_ISR              FR SIZE:   2           *
    2737              ;*                                                             *
    2738              ;* FUNCTION ENVIRONMENT                                        *
TMS320C2000 Assembler PC v6.4.12 Thu Nov 16 10:01:32 2017

Tools Copyright (c) 1996-2017 Texas Instruments Incorporated
C:\Users\Admin\AppData\Local\Temp\0610810                            PAGE   53

    2739              ;*                                                             *
    2740              ;* FUNCTION PROPERTIES                                         *
    2741              ;*                            0 Parameter,  1 Auto,  0 SOE     *
    2742              ;***************************************************************
    2743              
    2744              _EPWM2_TZINT_ISR:
    2745              $C$DW$75        .dwtag  DW_TAG_variable, DW_AT_name("TempPIEIER")
    2746                      .dwattr $C$DW$75, DW_AT_TI_symbol_name("_TempPIEIER")
    2747                      .dwattr $C$DW$75, DW_AT_type(*$C$DW$T$33)
    2748                      .dwattr $C$DW$75, DW_AT_location[DW_OP_breg20 -1]
    2749                      .dwcfi  cfa_offset, -2
    2750                      .dwcfi  save_reg_to_mem, 26, 0
    2751 000002b3 761B          ASP       ; [CPU_] 
    2752 000002b4 FE02          ADDB      SP,#2                 ; [CPU_U] 
    2753                      .dwcfi  cfa_offset, -4
    2754 000002b5 2942          CLRC      PAGE0,OVM             ; [CPU_] 
    2755 000002b6 5616          CLRC      AMODE                 ; [CPU_] 
    2756 000002b7 761F!         MOVW      DP,#_PieCtrlRegs+4    ; [CPU_U] 
         000002b8 0000 
    2757                      .dwpsn  file "../source/DSP2803x_SWPrioritizedDefaultIsr.c",line 478,column 29,is_stmt,isa 0
    2758 000002b9 9204!         MOV       AL,@_PieCtrlRegs+4    ; [CPU_] |478| 
    2759 000002ba 9641          MOV       *-SP[1],AL            ; [CPU_] |478| 
    2760                      .dwpsn  file "../source/DSP2803x_SWPrioritizedDefaultIsr.c",line 479,column 2,is_stmt,isa 0
    2761 000002bb 7623          OR        IER,#0x0002           ; [CPU_] |479| 
         000002bc 0002 
    2762                      .dwpsn  file "../source/DSP2803x_SWPrioritizedDefaultIsr.c",line 480,column 2,is_stmt,isa 0
    2763 000002bd 7626          AND       IER,#0x0002           ; [CPU_] |480| 
         000002be 0002 
    2764                      .dwpsn  file "../source/DSP2803x_SWPrioritizedDefaultIsr.c",line 481,column 2,is_stmt,isa 0
    2765 000002bf 1804!         AND       @_PieCtrlRegs+4,#0x004c ; [CPU_] |481| 
         000002c0 004C 
    2766                      .dwpsn  file "../source/DSP2803x_SWPrioritizedDefaultIsr.c",line 482,column 2,is_stmt,isa 0
    2767 000002c1 2801!         MOV       @_PieCtrlRegs+1,#65535 ; [CPU_] |482| 
         000002c2 FFFF 
    2768 000002c3 2910   clrc INTM
    2769 000002c4 3B10   setc INTM
    2770                      .dwpsn  file "../source/DSP2803x_SWPrioritizedDefaultIsr.c",line 489,column 2,is_stmt,isa 0
    2771 000002c5 9241          MOV       AL,*-SP[1]            ; [CPU_] |489| 
    2772 000002c6 9604!         MOV       @_PieCtrlRegs+4,AL    ; [CPU_] |489| 
    2773 000002c7 7625        ESTOP0
    2774 000002c8       $C$L47:    
    2775                      .dwpsn  file "../source/DSP2803x_SWPrioritizedDefaultIsr.c",line 494,column 5,is_stmt,isa 0
    2776 000002c8 6F00          B         $C$L47,UNC            ; [CPU_] |494| 
    2777                      ; branch occurs ; [] |494| 
    2778                      .dwattr $C$DW$74, DW_AT_TI_end_file("../source/DSP2803x_SWPrioritizedDefaultIsr.c")
    2779                      .dwattr $C$DW$74, DW_AT_TI_end_line(0x1ef)
    2780                      .dwattr $C$DW$74, DW_AT_TI_end_column(0x01)
    2781                      .dwendentry
    2782                      .dwendtag $C$DW$74
    2783              
    2784 000002c9               .sect   ".text:retain"
    2785                      .retain
    2786                      .retainrefs
    2787                      .global _EPWM2_INT_ISR
    2788              
TMS320C2000 Assembler PC v6.4.12 Thu Nov 16 10:01:32 2017

Tools Copyright (c) 1996-2017 Texas Instruments Incorporated
C:\Users\Admin\AppData\Local\Temp\0610810                            PAGE   54

    2789              $C$DW$76        .dwtag  DW_TAG_subprogram, DW_AT_name("EPWM2_INT_ISR")
    2790                      .dwattr $C$DW$76, DW_AT_low_pc(_EPWM2_INT_ISR)
    2791                      .dwattr $C$DW$76, DW_AT_high_pc(0x00)
    2792                      .dwattr $C$DW$76, DW_AT_TI_symbol_name("_EPWM2_INT_ISR")
    2793                      .dwattr $C$DW$76, DW_AT_external
    2794                      .dwattr $C$DW$76, DW_AT_TI_begin_file("../source/DSP2803x_SWPrioritizedDefaultIsr.c")
    2795                      .dwattr $C$DW$76, DW_AT_TI_begin_line(0x293)
    2796                      .dwattr $C$DW$76, DW_AT_TI_begin_column(0x12)
    2797                      .dwattr $C$DW$76, DW_AT_TI_interrupt
    2798                      .dwattr $C$DW$76, DW_AT_TI_max_frame_size(-4)
    2799                      .dwpsn  file "../source/DSP2803x_SWPrioritizedDefaultIsr.c",line 660,column 1,is_stmt,address _EPWM2_
    2800              
    2801                      .dwfde $C$DW$CIE, _EPWM2_INT_ISR
    2802              
    2803              ;***************************************************************
    2804              ;* FNAME: _EPWM2_INT_ISR                FR SIZE:   2           *
    2805              ;*                                                             *
    2806              ;* FUNCTION ENVIRONMENT                                        *
    2807              ;*                                                             *
    2808              ;* FUNCTION PROPERTIES                                         *
    2809              ;*                            0 Parameter,  1 Auto,  0 SOE     *
    2810              ;***************************************************************
    2811              
    2812              _EPWM2_INT_ISR:
    2813              $C$DW$77        .dwtag  DW_TAG_variable, DW_AT_name("TempPIEIER")
    2814                      .dwattr $C$DW$77, DW_AT_TI_symbol_name("_TempPIEIER")
    2815                      .dwattr $C$DW$77, DW_AT_type(*$C$DW$T$33)
    2816                      .dwattr $C$DW$77, DW_AT_location[DW_OP_breg20 -1]
    2817                      .dwcfi  cfa_offset, -2
    2818                      .dwcfi  save_reg_to_mem, 26, 0
    2819 000002c9 761B          ASP       ; [CPU_] 
    2820 000002ca FE02          ADDB      SP,#2                 ; [CPU_U] 
    2821                      .dwcfi  cfa_offset, -4
    2822 000002cb 2942          CLRC      PAGE0,OVM             ; [CPU_] 
    2823 000002cc 5616          CLRC      AMODE                 ; [CPU_] 
    2824 000002cd 761F!         MOVW      DP,#_PieCtrlRegs+6    ; [CPU_U] 
         000002ce 0000 
    2825                      .dwpsn  file "../source/DSP2803x_SWPrioritizedDefaultIsr.c",line 662,column 29,is_stmt,isa 0
    2826 000002cf 9206!         MOV       AL,@_PieCtrlRegs+6    ; [CPU_] |662| 
    2827 000002d0 9641          MOV       *-SP[1],AL            ; [CPU_] |662| 
    2828                      .dwpsn  file "../source/DSP2803x_SWPrioritizedDefaultIsr.c",line 663,column 2,is_stmt,isa 0
    2829 000002d1 7623          OR        IER,#0x0004           ; [CPU_] |663| 
         000002d2 0004 
    2830                      .dwpsn  file "../source/DSP2803x_SWPrioritizedDefaultIsr.c",line 664,column 2,is_stmt,isa 0
    2831 000002d3 7626          AND       IER,#0x013f           ; [CPU_] |664| 
         000002d4 013F 
    2832                      .dwpsn  file "../source/DSP2803x_SWPrioritizedDefaultIsr.c",line 665,column 2,is_stmt,isa 0
    2833 000002d5 9206!         MOV       AL,@_PieCtrlRegs+6    ; [CPU_] |665| 
    2834 000002d6 2B06!         MOV       @_PieCtrlRegs+6,#0    ; [CPU_] |665| 
    2835                      .dwpsn  file "../source/DSP2803x_SWPrioritizedDefaultIsr.c",line 666,column 2,is_stmt,isa 0
    2836 000002d7 2801!         MOV       @_PieCtrlRegs+1,#65535 ; [CPU_] |666| 
         000002d8 FFFF 
    2837 000002d9 2910   clrc INTM
    2838 000002da 3B10   setc INTM
    2839                      .dwpsn  file "../source/DSP2803x_SWPrioritizedDefaultIsr.c",line 673,column 2,is_stmt,isa 0
TMS320C2000 Assembler PC v6.4.12 Thu Nov 16 10:01:32 2017

Tools Copyright (c) 1996-2017 Texas Instruments Incorporated
C:\Users\Admin\AppData\Local\Temp\0610810                            PAGE   55

    2840 000002db 9241          MOV       AL,*-SP[1]            ; [CPU_] |673| 
    2841 000002dc 9606!         MOV       @_PieCtrlRegs+6,AL    ; [CPU_] |673| 
    2842 000002dd 7625        ESTOP0
    2843 000002de       $C$L48:    
    2844                      .dwpsn  file "../source/DSP2803x_SWPrioritizedDefaultIsr.c",line 678,column 5,is_stmt,isa 0
    2845 000002de 6F00          B         $C$L48,UNC            ; [CPU_] |678| 
    2846                      ; branch occurs ; [] |678| 
    2847                      .dwattr $C$DW$76, DW_AT_TI_end_file("../source/DSP2803x_SWPrioritizedDefaultIsr.c")
    2848                      .dwattr $C$DW$76, DW_AT_TI_end_line(0x2a8)
    2849                      .dwattr $C$DW$76, DW_AT_TI_end_column(0x01)
    2850                      .dwendentry
    2851                      .dwendtag $C$DW$76
    2852              
    2853 000002df               .sect   ".text:retain"
    2854                      .retain
    2855                      .retainrefs
    2856                      .global _EPWM1_TZINT_ISR
    2857              
    2858              $C$DW$78        .dwtag  DW_TAG_subprogram, DW_AT_name("EPWM1_TZINT_ISR")
    2859                      .dwattr $C$DW$78, DW_AT_low_pc(_EPWM1_TZINT_ISR)
    2860                      .dwattr $C$DW$78, DW_AT_high_pc(0x00)
    2861                      .dwattr $C$DW$78, DW_AT_TI_symbol_name("_EPWM1_TZINT_ISR")
    2862                      .dwattr $C$DW$78, DW_AT_external
    2863                      .dwattr $C$DW$78, DW_AT_TI_begin_file("../source/DSP2803x_SWPrioritizedDefaultIsr.c")
    2864                      .dwattr $C$DW$78, DW_AT_TI_begin_line(0x1c2)
    2865                      .dwattr $C$DW$78, DW_AT_TI_begin_column(0x12)
    2866                      .dwattr $C$DW$78, DW_AT_TI_interrupt
    2867                      .dwattr $C$DW$78, DW_AT_TI_max_frame_size(-4)
    2868                      .dwpsn  file "../source/DSP2803x_SWPrioritizedDefaultIsr.c",line 451,column 1,is_stmt,address _EPWM1_
    2869              
    2870                      .dwfde $C$DW$CIE, _EPWM1_TZINT_ISR
    2871              
    2872              ;***************************************************************
    2873              ;* FNAME: _EPWM1_TZINT_ISR              FR SIZE:   2           *
    2874              ;*                                                             *
    2875              ;* FUNCTION ENVIRONMENT                                        *
    2876              ;*                                                             *
    2877              ;* FUNCTION PROPERTIES                                         *
    2878              ;*                            0 Parameter,  1 Auto,  0 SOE     *
    2879              ;***************************************************************
    2880              
    2881              _EPWM1_TZINT_ISR:
    2882              $C$DW$79        .dwtag  DW_TAG_variable, DW_AT_name("TempPIEIER")
    2883                      .dwattr $C$DW$79, DW_AT_TI_symbol_name("_TempPIEIER")
    2884                      .dwattr $C$DW$79, DW_AT_type(*$C$DW$T$33)
    2885                      .dwattr $C$DW$79, DW_AT_location[DW_OP_breg20 -1]
    2886                      .dwcfi  cfa_offset, -2
    2887                      .dwcfi  save_reg_to_mem, 26, 0
    2888 000002df 761B          ASP       ; [CPU_] 
    2889 000002e0 FE02          ADDB      SP,#2                 ; [CPU_U] 
    2890                      .dwcfi  cfa_offset, -4
    2891 000002e1 2942          CLRC      PAGE0,OVM             ; [CPU_] 
    2892 000002e2 5616          CLRC      AMODE                 ; [CPU_] 
    2893 000002e3 761F!         MOVW      DP,#_PieCtrlRegs+4    ; [CPU_U] 
         000002e4 0000 
TMS320C2000 Assembler PC v6.4.12 Thu Nov 16 10:01:32 2017

Tools Copyright (c) 1996-2017 Texas Instruments Incorporated
C:\Users\Admin\AppData\Local\Temp\0610810                            PAGE   56

    2894                      .dwpsn  file "../source/DSP2803x_SWPrioritizedDefaultIsr.c",line 453,column 29,is_stmt,isa 0
    2895 000002e5 9204!         MOV       AL,@_PieCtrlRegs+4    ; [CPU_] |453| 
    2896 000002e6 9641          MOV       *-SP[1],AL            ; [CPU_] |453| 
    2897                      .dwpsn  file "../source/DSP2803x_SWPrioritizedDefaultIsr.c",line 454,column 2,is_stmt,isa 0
    2898 000002e7 7623          OR        IER,#0x0002           ; [CPU_] |454| 
         000002e8 0002 
    2899                      .dwpsn  file "../source/DSP2803x_SWPrioritizedDefaultIsr.c",line 455,column 2,is_stmt,isa 0
    2900 000002e9 7626          AND       IER,#0x0002           ; [CPU_] |455| 
         000002ea 0002 
    2901                      .dwpsn  file "../source/DSP2803x_SWPrioritizedDefaultIsr.c",line 456,column 2,is_stmt,isa 0
    2902 000002eb 1804!         AND       @_PieCtrlRegs+4,#0x005e ; [CPU_] |456| 
         000002ec 005E 
    2903                      .dwpsn  file "../source/DSP2803x_SWPrioritizedDefaultIsr.c",line 457,column 2,is_stmt,isa 0
    2904 000002ed 2801!         MOV       @_PieCtrlRegs+1,#65535 ; [CPU_] |457| 
         000002ee FFFF 
    2905 000002ef 2910   clrc INTM
    2906 000002f0 3B10   setc INTM
    2907                      .dwpsn  file "../source/DSP2803x_SWPrioritizedDefaultIsr.c",line 464,column 2,is_stmt,isa 0
    2908 000002f1 9241          MOV       AL,*-SP[1]            ; [CPU_] |464| 
    2909 000002f2 9604!         MOV       @_PieCtrlRegs+4,AL    ; [CPU_] |464| 
    2910 000002f3 7625        ESTOP0
    2911 000002f4       $C$L49:    
    2912                      .dwpsn  file "../source/DSP2803x_SWPrioritizedDefaultIsr.c",line 469,column 5,is_stmt,isa 0
    2913 000002f4 6F00          B         $C$L49,UNC            ; [CPU_] |469| 
    2914                      ; branch occurs ; [] |469| 
    2915                      .dwattr $C$DW$78, DW_AT_TI_end_file("../source/DSP2803x_SWPrioritizedDefaultIsr.c")
    2916                      .dwattr $C$DW$78, DW_AT_TI_end_line(0x1d6)
    2917                      .dwattr $C$DW$78, DW_AT_TI_end_column(0x01)
    2918                      .dwendentry
    2919                      .dwendtag $C$DW$78
    2920              
    2921 000002f5               .sect   ".text:retain"
    2922                      .retain
    2923                      .retainrefs
    2924                      .global _EPWM1_INT_ISR
    2925              
    2926              $C$DW$80        .dwtag  DW_TAG_subprogram, DW_AT_name("EPWM1_INT_ISR")
    2927                      .dwattr $C$DW$80, DW_AT_low_pc(_EPWM1_INT_ISR)
    2928                      .dwattr $C$DW$80, DW_AT_high_pc(0x00)
    2929                      .dwattr $C$DW$80, DW_AT_TI_symbol_name("_EPWM1_INT_ISR")
    2930                      .dwattr $C$DW$80, DW_AT_external
    2931                      .dwattr $C$DW$80, DW_AT_TI_begin_file("../source/DSP2803x_SWPrioritizedDefaultIsr.c")
    2932                      .dwattr $C$DW$80, DW_AT_TI_begin_line(0x27a)
    2933                      .dwattr $C$DW$80, DW_AT_TI_begin_column(0x12)
    2934                      .dwattr $C$DW$80, DW_AT_TI_interrupt
    2935                      .dwattr $C$DW$80, DW_AT_TI_max_frame_size(-4)
    2936                      .dwpsn  file "../source/DSP2803x_SWPrioritizedDefaultIsr.c",line 635,column 1,is_stmt,address _EPWM1_
    2937              
    2938                      .dwfde $C$DW$CIE, _EPWM1_INT_ISR
    2939              
    2940              ;***************************************************************
    2941              ;* FNAME: _EPWM1_INT_ISR                FR SIZE:   2           *
    2942              ;*                                                             *
    2943              ;* FUNCTION ENVIRONMENT                                        *
    2944              ;*                                                             *
TMS320C2000 Assembler PC v6.4.12 Thu Nov 16 10:01:32 2017

Tools Copyright (c) 1996-2017 Texas Instruments Incorporated
C:\Users\Admin\AppData\Local\Temp\0610810                            PAGE   57

    2945              ;* FUNCTION PROPERTIES                                         *
    2946              ;*                            0 Parameter,  1 Auto,  0 SOE     *
    2947              ;***************************************************************
    2948              
    2949              _EPWM1_INT_ISR:
    2950              $C$DW$81        .dwtag  DW_TAG_variable, DW_AT_name("TempPIEIER")
    2951                      .dwattr $C$DW$81, DW_AT_TI_symbol_name("_TempPIEIER")
    2952                      .dwattr $C$DW$81, DW_AT_type(*$C$DW$T$33)
    2953                      .dwattr $C$DW$81, DW_AT_location[DW_OP_breg20 -1]
    2954                      .dwcfi  cfa_offset, -2
    2955                      .dwcfi  save_reg_to_mem, 26, 0
    2956 000002f5 761B          ASP       ; [CPU_] 
    2957 000002f6 FE02          ADDB      SP,#2                 ; [CPU_U] 
    2958                      .dwcfi  cfa_offset, -4
    2959 000002f7 2942          CLRC      PAGE0,OVM             ; [CPU_] 
    2960 000002f8 5616          CLRC      AMODE                 ; [CPU_] 
    2961 000002f9 761F!         MOVW      DP,#_PieCtrlRegs+6    ; [CPU_U] 
         000002fa 0000 
    2962                      .dwpsn  file "../source/DSP2803x_SWPrioritizedDefaultIsr.c",line 637,column 29,is_stmt,isa 0
    2963 000002fb 9206!         MOV       AL,@_PieCtrlRegs+6    ; [CPU_] |637| 
    2964 000002fc 9641          MOV       *-SP[1],AL            ; [CPU_] |637| 
    2965                      .dwpsn  file "../source/DSP2803x_SWPrioritizedDefaultIsr.c",line 638,column 2,is_stmt,isa 0
    2966 000002fd 7623          OR        IER,#0x0004           ; [CPU_] |638| 
         000002fe 0004 
    2967                      .dwpsn  file "../source/DSP2803x_SWPrioritizedDefaultIsr.c",line 639,column 2,is_stmt,isa 0
    2968 000002ff 7626          AND       IER,#0x013f           ; [CPU_] |639| 
         00000300 013F 
    2969                      .dwpsn  file "../source/DSP2803x_SWPrioritizedDefaultIsr.c",line 640,column 2,is_stmt,isa 0
    2970 00000301 1806!         AND       @_PieCtrlRegs+6,#0x001e ; [CPU_] |640| 
         00000302 001E 
    2971                      .dwpsn  file "../source/DSP2803x_SWPrioritizedDefaultIsr.c",line 641,column 2,is_stmt,isa 0
    2972 00000303 2801!         MOV       @_PieCtrlRegs+1,#65535 ; [CPU_] |641| 
         00000304 FFFF 
    2973 00000305 2910   clrc INTM
    2974 00000306 3B10   setc INTM
    2975                      .dwpsn  file "../source/DSP2803x_SWPrioritizedDefaultIsr.c",line 648,column 2,is_stmt,isa 0
    2976 00000307 9241          MOV       AL,*-SP[1]            ; [CPU_] |648| 
    2977 00000308 9606!         MOV       @_PieCtrlRegs+6,AL    ; [CPU_] |648| 
    2978 00000309 7625        ESTOP0
    2979 0000030a       $C$L50:    
    2980                      .dwpsn  file "../source/DSP2803x_SWPrioritizedDefaultIsr.c",line 653,column 5,is_stmt,isa 0
    2981 0000030a 6F00          B         $C$L50,UNC            ; [CPU_] |653| 
    2982                      ; branch occurs ; [] |653| 
    2983                      .dwattr $C$DW$80, DW_AT_TI_end_file("../source/DSP2803x_SWPrioritizedDefaultIsr.c")
    2984                      .dwattr $C$DW$80, DW_AT_TI_end_line(0x28e)
    2985                      .dwattr $C$DW$80, DW_AT_TI_end_column(0x01)
    2986                      .dwendentry
    2987                      .dwendtag $C$DW$80
    2988              
    2989 0000030b               .sect   ".text:retain"
    2990                      .retain
    2991                      .retainrefs
    2992                      .global _EMUINT_ISR
    2993              
    2994              $C$DW$82        .dwtag  DW_TAG_subprogram, DW_AT_name("EMUINT_ISR")
TMS320C2000 Assembler PC v6.4.12 Thu Nov 16 10:01:32 2017

Tools Copyright (c) 1996-2017 Texas Instruments Incorporated
C:\Users\Admin\AppData\Local\Temp\0610810                            PAGE   58

    2995                      .dwattr $C$DW$82, DW_AT_low_pc(_EMUINT_ISR)
    2996                      .dwattr $C$DW$82, DW_AT_high_pc(0x00)
    2997                      .dwattr $C$DW$82, DW_AT_TI_symbol_name("_EMUINT_ISR")
    2998                      .dwattr $C$DW$82, DW_AT_external
    2999                      .dwattr $C$DW$82, DW_AT_TI_begin_file("../source/DSP2803x_SWPrioritizedDefaultIsr.c")
    3000                      .dwattr $C$DW$82, DW_AT_TI_begin_line(0x55)
    3001                      .dwattr $C$DW$82, DW_AT_TI_begin_column(0x12)
    3002                      .dwattr $C$DW$82, DW_AT_TI_interrupt
    3003                      .dwattr $C$DW$82, DW_AT_TI_max_frame_size(-2)
    3004                      .dwpsn  file "../source/DSP2803x_SWPrioritizedDefaultIsr.c",line 86,column 1,is_stmt,address _EMUINT_
    3005              
    3006                      .dwfde $C$DW$CIE, _EMUINT_ISR
    3007              
    3008              ;***************************************************************
    3009              ;* FNAME: _EMUINT_ISR                   FR SIZE:   0           *
    3010              ;*                                                             *
    3011              ;* FUNCTION ENVIRONMENT                                        *
    3012              ;*                                                             *
    3013              ;* FUNCTION PROPERTIES                                         *
    3014              ;*                            0 Parameter,  0 Auto,  0 SOE     *
    3015              ;***************************************************************
    3016              
    3017 0000030b       _EMUINT_ISR:
    3018                      .dwcfi  cfa_offset, -2
    3019                      .dwcfi  save_reg_to_mem, 26, 0
    3020 0000030b 761B          ASP       ; [CPU_] 
    3021 0000030c 2942          CLRC      PAGE0,OVM             ; [CPU_] 
    3022 0000030d 5616          CLRC      AMODE                 ; [CPU_] 
    3023 0000030e 2910   clrc INTM
    3024 0000030f 7625        ESTOP0
    3025 00000310       $C$L51:    
    3026                      .dwpsn  file "../source/DSP2803x_SWPrioritizedDefaultIsr.c",line 94,column 5,is_stmt,isa 0
    3027 00000310 6F00          B         $C$L51,UNC            ; [CPU_] |94| 
    3028                      ; branch occurs ; [] |94| 
    3029                      .dwattr $C$DW$82, DW_AT_TI_end_file("../source/DSP2803x_SWPrioritizedDefaultIsr.c")
    3030                      .dwattr $C$DW$82, DW_AT_TI_end_line(0x5f)
    3031                      .dwattr $C$DW$82, DW_AT_TI_end_column(0x01)
    3032                      .dwendentry
    3033                      .dwendtag $C$DW$82
    3034              
    3035 00000311               .sect   ".text:retain"
    3036                      .retain
    3037                      .retainrefs
    3038                      .global _ECAP1_INT_ISR
    3039              
    3040              $C$DW$83        .dwtag  DW_TAG_subprogram, DW_AT_name("ECAP1_INT_ISR")
    3041                      .dwattr $C$DW$83, DW_AT_low_pc(_ECAP1_INT_ISR)
    3042                      .dwattr $C$DW$83, DW_AT_high_pc(0x00)
    3043                      .dwattr $C$DW$83, DW_AT_TI_symbol_name("_ECAP1_INT_ISR")
    3044                      .dwattr $C$DW$83, DW_AT_external
    3045                      .dwattr $C$DW$83, DW_AT_TI_begin_file("../source/DSP2803x_SWPrioritizedDefaultIsr.c")
    3046                      .dwattr $C$DW$83, DW_AT_TI_begin_line(0x333)
    3047                      .dwattr $C$DW$83, DW_AT_TI_begin_column(0x12)
    3048                      .dwattr $C$DW$83, DW_AT_TI_interrupt
    3049                      .dwattr $C$DW$83, DW_AT_TI_max_frame_size(-4)
TMS320C2000 Assembler PC v6.4.12 Thu Nov 16 10:01:32 2017

Tools Copyright (c) 1996-2017 Texas Instruments Incorporated
C:\Users\Admin\AppData\Local\Temp\0610810                            PAGE   59

    3050                      .dwpsn  file "../source/DSP2803x_SWPrioritizedDefaultIsr.c",line 820,column 1,is_stmt,address _ECAP1_
    3051              
    3052                      .dwfde $C$DW$CIE, _ECAP1_INT_ISR
    3053              
    3054              ;***************************************************************
    3055              ;* FNAME: _ECAP1_INT_ISR                FR SIZE:   2           *
    3056              ;*                                                             *
    3057              ;* FUNCTION ENVIRONMENT                                        *
    3058              ;*                                                             *
    3059              ;* FUNCTION PROPERTIES                                         *
    3060              ;*                            0 Parameter,  1 Auto,  0 SOE     *
    3061              ;***************************************************************
    3062              
    3063              _ECAP1_INT_ISR:
    3064              $C$DW$84        .dwtag  DW_TAG_variable, DW_AT_name("TempPIEIER")
    3065                      .dwattr $C$DW$84, DW_AT_TI_symbol_name("_TempPIEIER")
    3066                      .dwattr $C$DW$84, DW_AT_type(*$C$DW$T$33)
    3067                      .dwattr $C$DW$84, DW_AT_location[DW_OP_breg20 -1]
    3068                      .dwcfi  cfa_offset, -2
    3069                      .dwcfi  save_reg_to_mem, 26, 0
    3070 00000311 761B          ASP       ; [CPU_] 
    3071 00000312 FE02          ADDB      SP,#2                 ; [CPU_U] 
    3072                      .dwcfi  cfa_offset, -4
    3073 00000313 2942          CLRC      PAGE0,OVM             ; [CPU_] 
    3074 00000314 5616          CLRC      AMODE                 ; [CPU_] 
    3075 00000315 761F!         MOVW      DP,#_PieCtrlRegs+8    ; [CPU_U] 
         00000316 0000 
    3076                      .dwpsn  file "../source/DSP2803x_SWPrioritizedDefaultIsr.c",line 822,column 29,is_stmt,isa 0
    3077 00000317 9208!         MOV       AL,@_PieCtrlRegs+8    ; [CPU_] |822| 
    3078 00000318 9641          MOV       *-SP[1],AL            ; [CPU_] |822| 
    3079                      .dwpsn  file "../source/DSP2803x_SWPrioritizedDefaultIsr.c",line 823,column 2,is_stmt,isa 0
    3080 00000319 7623          OR        IER,#0x0008           ; [CPU_] |823| 
         0000031a 0008 
    3081                      .dwpsn  file "../source/DSP2803x_SWPrioritizedDefaultIsr.c",line 824,column 2,is_stmt,isa 0
    3082 0000031b 7626          AND       IER,#0x000a           ; [CPU_] |824| 
         0000031c 000A 
    3083                      .dwpsn  file "../source/DSP2803x_SWPrioritizedDefaultIsr.c",line 825,column 2,is_stmt,isa 0
    3084 0000031d 9208!         MOV       AL,@_PieCtrlRegs+8    ; [CPU_] |825| 
    3085 0000031e 2B08!         MOV       @_PieCtrlRegs+8,#0    ; [CPU_] |825| 
    3086                      .dwpsn  file "../source/DSP2803x_SWPrioritizedDefaultIsr.c",line 826,column 2,is_stmt,isa 0
    3087 0000031f 2801!         MOV       @_PieCtrlRegs+1,#65535 ; [CPU_] |826| 
         00000320 FFFF 
    3088 00000321 2910   clrc INTM
    3089 00000322 3B10   setc INTM
    3090                      .dwpsn  file "../source/DSP2803x_SWPrioritizedDefaultIsr.c",line 833,column 2,is_stmt,isa 0
    3091 00000323 9241          MOV       AL,*-SP[1]            ; [CPU_] |833| 
    3092 00000324 9608!         MOV       @_PieCtrlRegs+8,AL    ; [CPU_] |833| 
    3093 00000325 7625        ESTOP0
    3094 00000326       $C$L52:    
    3095                      .dwpsn  file "../source/DSP2803x_SWPrioritizedDefaultIsr.c",line 838,column 5,is_stmt,isa 0
    3096 00000326 6F00          B         $C$L52,UNC            ; [CPU_] |838| 
    3097                      ; branch occurs ; [] |838| 
    3098                      .dwattr $C$DW$83, DW_AT_TI_end_file("../source/DSP2803x_SWPrioritizedDefaultIsr.c")
    3099                      .dwattr $C$DW$83, DW_AT_TI_end_line(0x348)
    3100                      .dwattr $C$DW$83, DW_AT_TI_end_column(0x01)
TMS320C2000 Assembler PC v6.4.12 Thu Nov 16 10:01:32 2017

Tools Copyright (c) 1996-2017 Texas Instruments Incorporated
C:\Users\Admin\AppData\Local\Temp\0610810                            PAGE   60

    3101                      .dwendentry
    3102                      .dwendtag $C$DW$83
    3103              
    3104 00000327               .sect   ".text:retain"
    3105                      .retain
    3106                      .retainrefs
    3107                      .global _ECAN1INTA_ISR
    3108              
    3109              $C$DW$85        .dwtag  DW_TAG_subprogram, DW_AT_name("ECAN1INTA_ISR")
    3110                      .dwattr $C$DW$85, DW_AT_low_pc(_ECAN1INTA_ISR)
    3111                      .dwattr $C$DW$85, DW_AT_high_pc(0x00)
    3112                      .dwattr $C$DW$85, DW_AT_TI_symbol_name("_ECAN1INTA_ISR")
    3113                      .dwattr $C$DW$85, DW_AT_external
    3114                      .dwattr $C$DW$85, DW_AT_TI_begin_file("../source/DSP2803x_SWPrioritizedDefaultIsr.c")
    3115                      .dwattr $C$DW$85, DW_AT_TI_begin_line(0x498)
    3116                      .dwattr $C$DW$85, DW_AT_TI_begin_column(0x12)
    3117                      .dwattr $C$DW$85, DW_AT_TI_interrupt
    3118                      .dwattr $C$DW$85, DW_AT_TI_max_frame_size(-4)
    3119                      .dwpsn  file "../source/DSP2803x_SWPrioritizedDefaultIsr.c",line 1177,column 1,is_stmt,address _ECAN1
    3120              
    3121                      .dwfde $C$DW$CIE, _ECAN1INTA_ISR
    3122              
    3123              ;***************************************************************
    3124              ;* FNAME: _ECAN1INTA_ISR                FR SIZE:   2           *
    3125              ;*                                                             *
    3126              ;* FUNCTION ENVIRONMENT                                        *
    3127              ;*                                                             *
    3128              ;* FUNCTION PROPERTIES                                         *
    3129              ;*                            0 Parameter,  1 Auto,  0 SOE     *
    3130              ;***************************************************************
    3131              
    3132              _ECAN1INTA_ISR:
    3133              $C$DW$86        .dwtag  DW_TAG_variable, DW_AT_name("TempPIEIER")
    3134                      .dwattr $C$DW$86, DW_AT_TI_symbol_name("_TempPIEIER")
    3135                      .dwattr $C$DW$86, DW_AT_type(*$C$DW$T$33)
    3136                      .dwattr $C$DW$86, DW_AT_location[DW_OP_breg20 -1]
    3137                      .dwcfi  cfa_offset, -2
    3138                      .dwcfi  save_reg_to_mem, 26, 0
    3139 00000327 761B          ASP       ; [CPU_] 
    3140 00000328 FE02          ADDB      SP,#2                 ; [CPU_U] 
    3141                      .dwcfi  cfa_offset, -4
    3142 00000329 2942          CLRC      PAGE0,OVM             ; [CPU_] 
    3143 0000032a 5616          CLRC      AMODE                 ; [CPU_] 
    3144 0000032b 761F!         MOVW      DP,#_PieCtrlRegs+18   ; [CPU_U] 
         0000032c 0000 
    3145                      .dwpsn  file "../source/DSP2803x_SWPrioritizedDefaultIsr.c",line 1179,column 29,is_stmt,isa 0
    3146 0000032d 9212!         MOV       AL,@_PieCtrlRegs+18   ; [CPU_] |1179| 
    3147 0000032e 9641          MOV       *-SP[1],AL            ; [CPU_] |1179| 
    3148                      .dwpsn  file "../source/DSP2803x_SWPrioritizedDefaultIsr.c",line 1180,column 2,is_stmt,isa 0
    3149 0000032f 7623          OR        IER,#0x0100           ; [CPU_] |1180| 
         00000330 0100 
    3150                      .dwpsn  file "../source/DSP2803x_SWPrioritizedDefaultIsr.c",line 1181,column 2,is_stmt,isa 0
    3151 00000331 7626          AND       IER,#0x011b           ; [CPU_] |1181| 
         00000332 011B 
    3152                      .dwpsn  file "../source/DSP2803x_SWPrioritizedDefaultIsr.c",line 1182,column 2,is_stmt,isa 0
TMS320C2000 Assembler PC v6.4.12 Thu Nov 16 10:01:32 2017

Tools Copyright (c) 1996-2017 Texas Instruments Incorporated
C:\Users\Admin\AppData\Local\Temp\0610810                            PAGE   61

    3153 00000333 9212!         MOV       AL,@_PieCtrlRegs+18   ; [CPU_] |1182| 
    3154 00000334 2B12!         MOV       @_PieCtrlRegs+18,#0   ; [CPU_] |1182| 
    3155                      .dwpsn  file "../source/DSP2803x_SWPrioritizedDefaultIsr.c",line 1183,column 2,is_stmt,isa 0
    3156 00000335 2801!         MOV       @_PieCtrlRegs+1,#65535 ; [CPU_] |1183| 
         00000336 FFFF 
    3157 00000337 2910   clrc INTM
    3158 00000338 3B10   setc INTM
    3159                      .dwpsn  file "../source/DSP2803x_SWPrioritizedDefaultIsr.c",line 1190,column 2,is_stmt,isa 0
    3160 00000339 9241          MOV       AL,*-SP[1]            ; [CPU_] |1190| 
    3161 0000033a 9612!         MOV       @_PieCtrlRegs+18,AL   ; [CPU_] |1190| 
    3162 0000033b 7625        ESTOP0
    3163 0000033c       $C$L53:    
    3164                      .dwpsn  file "../source/DSP2803x_SWPrioritizedDefaultIsr.c",line 1195,column 5,is_stmt,isa 0
    3165 0000033c 6F00          B         $C$L53,UNC            ; [CPU_] |1195| 
    3166                      ; branch occurs ; [] |1195| 
    3167                      .dwattr $C$DW$85, DW_AT_TI_end_file("../source/DSP2803x_SWPrioritizedDefaultIsr.c")
    3168                      .dwattr $C$DW$85, DW_AT_TI_end_line(0x4ad)
    3169                      .dwattr $C$DW$85, DW_AT_TI_end_column(0x01)
    3170                      .dwendentry
    3171                      .dwendtag $C$DW$85
    3172              
    3173 0000033d               .sect   ".text:retain"
    3174                      .retain
    3175                      .retainrefs
    3176                      .global _ECAN0INTA_ISR
    3177              
    3178              $C$DW$87        .dwtag  DW_TAG_subprogram, DW_AT_name("ECAN0INTA_ISR")
    3179                      .dwattr $C$DW$87, DW_AT_low_pc(_ECAN0INTA_ISR)
    3180                      .dwattr $C$DW$87, DW_AT_high_pc(0x00)
    3181                      .dwattr $C$DW$87, DW_AT_TI_symbol_name("_ECAN0INTA_ISR")
    3182                      .dwattr $C$DW$87, DW_AT_external
    3183                      .dwattr $C$DW$87, DW_AT_TI_begin_file("../source/DSP2803x_SWPrioritizedDefaultIsr.c")
    3184                      .dwattr $C$DW$87, DW_AT_TI_begin_line(0x47e)
    3185                      .dwattr $C$DW$87, DW_AT_TI_begin_column(0x12)
    3186                      .dwattr $C$DW$87, DW_AT_TI_interrupt
    3187                      .dwattr $C$DW$87, DW_AT_TI_max_frame_size(-4)
    3188                      .dwpsn  file "../source/DSP2803x_SWPrioritizedDefaultIsr.c",line 1151,column 1,is_stmt,address _ECAN0
    3189              
    3190                      .dwfde $C$DW$CIE, _ECAN0INTA_ISR
    3191              
    3192              ;***************************************************************
    3193              ;* FNAME: _ECAN0INTA_ISR                FR SIZE:   2           *
    3194              ;*                                                             *
    3195              ;* FUNCTION ENVIRONMENT                                        *
    3196              ;*                                                             *
    3197              ;* FUNCTION PROPERTIES                                         *
    3198              ;*                            0 Parameter,  1 Auto,  0 SOE     *
    3199              ;***************************************************************
    3200              
    3201              _ECAN0INTA_ISR:
    3202              $C$DW$88        .dwtag  DW_TAG_variable, DW_AT_name("TempPIEIER")
    3203                      .dwattr $C$DW$88, DW_AT_TI_symbol_name("_TempPIEIER")
    3204                      .dwattr $C$DW$88, DW_AT_type(*$C$DW$T$33)
    3205                      .dwattr $C$DW$88, DW_AT_location[DW_OP_breg20 -1]
    3206                      .dwcfi  cfa_offset, -2
TMS320C2000 Assembler PC v6.4.12 Thu Nov 16 10:01:32 2017

Tools Copyright (c) 1996-2017 Texas Instruments Incorporated
C:\Users\Admin\AppData\Local\Temp\0610810                            PAGE   62

    3207                      .dwcfi  save_reg_to_mem, 26, 0
    3208 0000033d 761B          ASP       ; [CPU_] 
    3209 0000033e FE02          ADDB      SP,#2                 ; [CPU_U] 
    3210                      .dwcfi  cfa_offset, -4
    3211 0000033f 2942          CLRC      PAGE0,OVM             ; [CPU_] 
    3212 00000340 5616          CLRC      AMODE                 ; [CPU_] 
    3213 00000341 761F!         MOVW      DP,#_PieCtrlRegs+18   ; [CPU_U] 
         00000342 0000 
    3214                      .dwpsn  file "../source/DSP2803x_SWPrioritizedDefaultIsr.c",line 1153,column 29,is_stmt,isa 0
    3215 00000343 9212!         MOV       AL,@_PieCtrlRegs+18   ; [CPU_] |1153| 
    3216 00000344 9641          MOV       *-SP[1],AL            ; [CPU_] |1153| 
    3217                      .dwpsn  file "../source/DSP2803x_SWPrioritizedDefaultIsr.c",line 1154,column 2,is_stmt,isa 0
    3218 00000345 7623          OR        IER,#0x0100           ; [CPU_] |1154| 
         00000346 0100 
    3219                      .dwpsn  file "../source/DSP2803x_SWPrioritizedDefaultIsr.c",line 1155,column 2,is_stmt,isa 0
    3220 00000347 7626          AND       IER,#0x011b           ; [CPU_] |1155| 
         00000348 011B 
    3221                      .dwpsn  file "../source/DSP2803x_SWPrioritizedDefaultIsr.c",line 1156,column 2,is_stmt,isa 0
    3222 00000349 9212!         MOV       AL,@_PieCtrlRegs+18   ; [CPU_] |1156| 
    3223 0000034a 2B12!         MOV       @_PieCtrlRegs+18,#0   ; [CPU_] |1156| 
    3224                      .dwpsn  file "../source/DSP2803x_SWPrioritizedDefaultIsr.c",line 1157,column 2,is_stmt,isa 0
    3225 0000034b 2801!         MOV       @_PieCtrlRegs+1,#65535 ; [CPU_] |1157| 
         0000034c FFFF 
    3226 0000034d 2910   clrc INTM
    3227 0000034e 3B10   setc INTM
    3228                      .dwpsn  file "../source/DSP2803x_SWPrioritizedDefaultIsr.c",line 1164,column 2,is_stmt,isa 0
    3229 0000034f 9241          MOV       AL,*-SP[1]            ; [CPU_] |1164| 
    3230 00000350 9612!         MOV       @_PieCtrlRegs+18,AL   ; [CPU_] |1164| 
    3231 00000351 7625        ESTOP0
    3232 00000352       $C$L54:    
    3233                      .dwpsn  file "../source/DSP2803x_SWPrioritizedDefaultIsr.c",line 1169,column 5,is_stmt,isa 0
    3234 00000352 6F00          B         $C$L54,UNC            ; [CPU_] |1169| 
    3235                      ; branch occurs ; [] |1169| 
    3236                      .dwattr $C$DW$87, DW_AT_TI_end_file("../source/DSP2803x_SWPrioritizedDefaultIsr.c")
    3237                      .dwattr $C$DW$87, DW_AT_TI_end_line(0x493)
    3238                      .dwattr $C$DW$87, DW_AT_TI_end_column(0x01)
    3239                      .dwendentry
    3240                      .dwendtag $C$DW$87
    3241              
    3242 00000353               .sect   ".text:retain"
    3243                      .retain
    3244                      .retainrefs
    3245                      .global _DATALOG_ISR
    3246              
    3247              $C$DW$89        .dwtag  DW_TAG_subprogram, DW_AT_name("DATALOG_ISR")
    3248                      .dwattr $C$DW$89, DW_AT_low_pc(_DATALOG_ISR)
    3249                      .dwattr $C$DW$89, DW_AT_high_pc(0x00)
    3250                      .dwattr $C$DW$89, DW_AT_TI_symbol_name("_DATALOG_ISR")
    3251                      .dwattr $C$DW$89, DW_AT_external
    3252                      .dwattr $C$DW$89, DW_AT_TI_begin_file("../source/DSP2803x_SWPrioritizedDefaultIsr.c")
    3253                      .dwattr $C$DW$89, DW_AT_TI_begin_line(0x36)
    3254                      .dwattr $C$DW$89, DW_AT_TI_begin_column(0x12)
    3255                      .dwattr $C$DW$89, DW_AT_TI_interrupt
    3256                      .dwattr $C$DW$89, DW_AT_TI_max_frame_size(-2)
    3257                      .dwpsn  file "../source/DSP2803x_SWPrioritizedDefaultIsr.c",line 55,column 1,is_stmt,address _DATALOG
TMS320C2000 Assembler PC v6.4.12 Thu Nov 16 10:01:32 2017

Tools Copyright (c) 1996-2017 Texas Instruments Incorporated
C:\Users\Admin\AppData\Local\Temp\0610810                            PAGE   63

    3258              
    3259                      .dwfde $C$DW$CIE, _DATALOG_ISR
    3260              
    3261              ;***************************************************************
    3262              ;* FNAME: _DATALOG_ISR                  FR SIZE:   0           *
    3263              ;*                                                             *
    3264              ;* FUNCTION ENVIRONMENT                                        *
    3265              ;*                                                             *
    3266              ;* FUNCTION PROPERTIES                                         *
    3267              ;*                            0 Parameter,  0 Auto,  0 SOE     *
    3268              ;***************************************************************
    3269              
    3270 00000353       _DATALOG_ISR:
    3271                      .dwcfi  cfa_offset, -2
    3272                      .dwcfi  save_reg_to_mem, 26, 0
    3273 00000353 761B          ASP       ; [CPU_] 
    3274 00000354 2942          CLRC      PAGE0,OVM             ; [CPU_] 
    3275 00000355 5616          CLRC      AMODE                 ; [CPU_] 
    3276                      .dwpsn  file "../source/DSP2803x_SWPrioritizedDefaultIsr.c",line 56,column 2,is_stmt,isa 0
    3277 00000356 7623          OR        IER,#0x013b           ; [CPU_] |56| 
         00000357 013B 
    3278 00000358 2910   clrc INTM
    3279 00000359 7625        ESTOP0
    3280 0000035a       $C$L55:    
    3281                      .dwpsn  file "../source/DSP2803x_SWPrioritizedDefaultIsr.c",line 64,column 5,is_stmt,isa 0
    3282 0000035a 6F00          B         $C$L55,UNC            ; [CPU_] |64| 
    3283                      ; branch occurs ; [] |64| 
    3284                      .dwattr $C$DW$89, DW_AT_TI_end_file("../source/DSP2803x_SWPrioritizedDefaultIsr.c")
    3285                      .dwattr $C$DW$89, DW_AT_TI_end_line(0x41)
    3286                      .dwattr $C$DW$89, DW_AT_TI_end_column(0x01)
    3287                      .dwendentry
    3288                      .dwendtag $C$DW$89
    3289              
    3290 0000035b               .sect   ".text:retain"
    3291                      .retain
    3292                      .retainrefs
    3293                      .global _CLA1_INT8_ISR
    3294              
    3295              $C$DW$90        .dwtag  DW_TAG_subprogram, DW_AT_name("CLA1_INT8_ISR")
    3296                      .dwattr $C$DW$90, DW_AT_low_pc(_CLA1_INT8_ISR)
    3297                      .dwattr $C$DW$90, DW_AT_high_pc(0x00)
    3298                      .dwattr $C$DW$90, DW_AT_TI_symbol_name("_CLA1_INT8_ISR")
    3299                      .dwattr $C$DW$90, DW_AT_external
    3300                      .dwattr $C$DW$90, DW_AT_TI_begin_file("../source/DSP2803x_SWPrioritizedDefaultIsr.c")
    3301                      .dwattr $C$DW$90, DW_AT_TI_begin_line(0x620)
    3302                      .dwattr $C$DW$90, DW_AT_TI_begin_column(0x13)
    3303                      .dwattr $C$DW$90, DW_AT_TI_interrupt
    3304                      .dwattr $C$DW$90, DW_AT_TI_max_frame_size(-4)
    3305                      .dwpsn  file "../source/DSP2803x_SWPrioritizedDefaultIsr.c",line 1569,column 1,is_stmt,address _CLA1_
    3306              
    3307                      .dwfde $C$DW$CIE, _CLA1_INT8_ISR
    3308              
    3309              ;***************************************************************
    3310              ;* FNAME: _CLA1_INT8_ISR                FR SIZE:   2           *
    3311              ;*                                                             *
TMS320C2000 Assembler PC v6.4.12 Thu Nov 16 10:01:32 2017

Tools Copyright (c) 1996-2017 Texas Instruments Incorporated
C:\Users\Admin\AppData\Local\Temp\0610810                            PAGE   64

    3312              ;* FUNCTION ENVIRONMENT                                        *
    3313              ;*                                                             *
    3314              ;* FUNCTION PROPERTIES                                         *
    3315              ;*                            0 Parameter,  1 Auto,  0 SOE     *
    3316              ;***************************************************************
    3317              
    3318              _CLA1_INT8_ISR:
    3319              $C$DW$91        .dwtag  DW_TAG_variable, DW_AT_name("TempPIEIER")
    3320                      .dwattr $C$DW$91, DW_AT_TI_symbol_name("_TempPIEIER")
    3321                      .dwattr $C$DW$91, DW_AT_type(*$C$DW$T$33)
    3322                      .dwattr $C$DW$91, DW_AT_location[DW_OP_breg20 -1]
    3323                      .dwcfi  cfa_offset, -2
    3324                      .dwcfi  save_reg_to_mem, 26, 0
    3325 0000035b 761B          ASP       ; [CPU_] 
    3326 0000035c FE02          ADDB      SP,#2                 ; [CPU_U] 
    3327                      .dwcfi  cfa_offset, -4
    3328 0000035d 2942          CLRC      PAGE0,OVM             ; [CPU_] 
    3329 0000035e 5616          CLRC      AMODE                 ; [CPU_] 
    3330 0000035f 761F!         MOVW      DP,#_PieCtrlRegs+22   ; [CPU_U] 
         00000360 0000 
    3331                      .dwpsn  file "../source/DSP2803x_SWPrioritizedDefaultIsr.c",line 1571,column 29,is_stmt,isa 0
    3332 00000361 9216!         MOV       AL,@_PieCtrlRegs+22   ; [CPU_] |1571| 
    3333 00000362 9641          MOV       *-SP[1],AL            ; [CPU_] |1571| 
    3334                      .dwpsn  file "../source/DSP2803x_SWPrioritizedDefaultIsr.c",line 1572,column 2,is_stmt,isa 0
    3335 00000363 7623          OR        IER,#0x0400           ; [CPU_] |1572| 
         00000364 0400 
    3336                      .dwpsn  file "../source/DSP2803x_SWPrioritizedDefaultIsr.c",line 1573,column 2,is_stmt,isa 0
    3337 00000365 7626          AND       IER,#0xf5bf           ; [CPU_] |1573| 
         00000366 F5BF 
    3338                      .dwpsn  file "../source/DSP2803x_SWPrioritizedDefaultIsr.c",line 1574,column 2,is_stmt,isa 0
    3339 00000367 9216!         MOV       AL,@_PieCtrlRegs+22   ; [CPU_] |1574| 
    3340 00000368 2B16!         MOV       @_PieCtrlRegs+22,#0   ; [CPU_] |1574| 
    3341                      .dwpsn  file "../source/DSP2803x_SWPrioritizedDefaultIsr.c",line 1575,column 2,is_stmt,isa 0
    3342 00000369 2801!         MOV       @_PieCtrlRegs+1,#65535 ; [CPU_] |1575| 
         0000036a FFFF 
    3343 0000036b 2910   clrc INTM
    3344 0000036c 3B10   setc INTM
    3345                      .dwpsn  file "../source/DSP2803x_SWPrioritizedDefaultIsr.c",line 1582,column 2,is_stmt,isa 0
    3346 0000036d 9241          MOV       AL,*-SP[1]            ; [CPU_] |1582| 
    3347 0000036e 9616!         MOV       @_PieCtrlRegs+22,AL   ; [CPU_] |1582| 
    3348 0000036f 7625        ESTOP0
    3349 00000370       $C$L56:    
    3350                      .dwpsn  file "../source/DSP2803x_SWPrioritizedDefaultIsr.c",line 1587,column 5,is_stmt,isa 0
    3351 00000370 6F00          B         $C$L56,UNC            ; [CPU_] |1587| 
    3352                      ; branch occurs ; [] |1587| 
    3353                      .dwattr $C$DW$90, DW_AT_TI_end_file("../source/DSP2803x_SWPrioritizedDefaultIsr.c")
    3354                      .dwattr $C$DW$90, DW_AT_TI_end_line(0x634)
    3355                      .dwattr $C$DW$90, DW_AT_TI_end_column(0x01)
    3356                      .dwendentry
    3357                      .dwendtag $C$DW$90
    3358              
    3359 00000371               .sect   ".text:retain"
    3360                      .retain
    3361                      .retainrefs
    3362                      .global _CLA1_INT7_ISR
TMS320C2000 Assembler PC v6.4.12 Thu Nov 16 10:01:32 2017

Tools Copyright (c) 1996-2017 Texas Instruments Incorporated
C:\Users\Admin\AppData\Local\Temp\0610810                            PAGE   65

    3363              
    3364              $C$DW$92        .dwtag  DW_TAG_subprogram, DW_AT_name("CLA1_INT7_ISR")
    3365                      .dwattr $C$DW$92, DW_AT_low_pc(_CLA1_INT7_ISR)
    3366                      .dwattr $C$DW$92, DW_AT_high_pc(0x00)
    3367                      .dwattr $C$DW$92, DW_AT_TI_symbol_name("_CLA1_INT7_ISR")
    3368                      .dwattr $C$DW$92, DW_AT_external
    3369                      .dwattr $C$DW$92, DW_AT_TI_begin_file("../source/DSP2803x_SWPrioritizedDefaultIsr.c")
    3370                      .dwattr $C$DW$92, DW_AT_TI_begin_line(0x607)
    3371                      .dwattr $C$DW$92, DW_AT_TI_begin_column(0x13)
    3372                      .dwattr $C$DW$92, DW_AT_TI_interrupt
    3373                      .dwattr $C$DW$92, DW_AT_TI_max_frame_size(-4)
    3374                      .dwpsn  file "../source/DSP2803x_SWPrioritizedDefaultIsr.c",line 1544,column 1,is_stmt,address _CLA1_
    3375              
    3376                      .dwfde $C$DW$CIE, _CLA1_INT7_ISR
    3377              
    3378              ;***************************************************************
    3379              ;* FNAME: _CLA1_INT7_ISR                FR SIZE:   2           *
    3380              ;*                                                             *
    3381              ;* FUNCTION ENVIRONMENT                                        *
    3382              ;*                                                             *
    3383              ;* FUNCTION PROPERTIES                                         *
    3384              ;*                            0 Parameter,  1 Auto,  0 SOE     *
    3385              ;***************************************************************
    3386              
    3387              _CLA1_INT7_ISR:
    3388              $C$DW$93        .dwtag  DW_TAG_variable, DW_AT_name("TempPIEIER")
    3389                      .dwattr $C$DW$93, DW_AT_TI_symbol_name("_TempPIEIER")
    3390                      .dwattr $C$DW$93, DW_AT_type(*$C$DW$T$33)
    3391                      .dwattr $C$DW$93, DW_AT_location[DW_OP_breg20 -1]
    3392                      .dwcfi  cfa_offset, -2
    3393                      .dwcfi  save_reg_to_mem, 26, 0
    3394 00000371 761B          ASP       ; [CPU_] 
    3395 00000372 FE02          ADDB      SP,#2                 ; [CPU_U] 
    3396                      .dwcfi  cfa_offset, -4
    3397 00000373 2942          CLRC      PAGE0,OVM             ; [CPU_] 
    3398 00000374 5616          CLRC      AMODE                 ; [CPU_] 
    3399 00000375 761F!         MOVW      DP,#_PieCtrlRegs+22   ; [CPU_U] 
         00000376 0000 
    3400                      .dwpsn  file "../source/DSP2803x_SWPrioritizedDefaultIsr.c",line 1546,column 29,is_stmt,isa 0
    3401 00000377 9216!         MOV       AL,@_PieCtrlRegs+22   ; [CPU_] |1546| 
    3402 00000378 9641          MOV       *-SP[1],AL            ; [CPU_] |1546| 
    3403                      .dwpsn  file "../source/DSP2803x_SWPrioritizedDefaultIsr.c",line 1547,column 2,is_stmt,isa 0
    3404 00000379 7623          OR        IER,#0x0400           ; [CPU_] |1547| 
         0000037a 0400 
    3405                      .dwpsn  file "../source/DSP2803x_SWPrioritizedDefaultIsr.c",line 1548,column 2,is_stmt,isa 0
    3406 0000037b 7626          AND       IER,#0xf5bf           ; [CPU_] |1548| 
         0000037c F5BF 
    3407                      .dwpsn  file "../source/DSP2803x_SWPrioritizedDefaultIsr.c",line 1549,column 2,is_stmt,isa 0
    3408 0000037d 1816!         AND       @_PieCtrlRegs+22,#0x00bf ; [CPU_] |1549| 
         0000037e 00BF 
    3409                      .dwpsn  file "../source/DSP2803x_SWPrioritizedDefaultIsr.c",line 1550,column 2,is_stmt,isa 0
    3410 0000037f 2801!         MOV       @_PieCtrlRegs+1,#65535 ; [CPU_] |1550| 
         00000380 FFFF 
    3411 00000381 2910   clrc INTM
    3412 00000382 3B10   setc INTM
TMS320C2000 Assembler PC v6.4.12 Thu Nov 16 10:01:32 2017

Tools Copyright (c) 1996-2017 Texas Instruments Incorporated
C:\Users\Admin\AppData\Local\Temp\0610810                            PAGE   66

    3413                      .dwpsn  file "../source/DSP2803x_SWPrioritizedDefaultIsr.c",line 1557,column 2,is_stmt,isa 0
    3414 00000383 9241          MOV       AL,*-SP[1]            ; [CPU_] |1557| 
    3415 00000384 9616!         MOV       @_PieCtrlRegs+22,AL   ; [CPU_] |1557| 
    3416 00000385 7625        ESTOP0
    3417 00000386       $C$L57:    
    3418                      .dwpsn  file "../source/DSP2803x_SWPrioritizedDefaultIsr.c",line 1562,column 5,is_stmt,isa 0
    3419 00000386 6F00          B         $C$L57,UNC            ; [CPU_] |1562| 
    3420                      ; branch occurs ; [] |1562| 
    3421                      .dwattr $C$DW$92, DW_AT_TI_end_file("../source/DSP2803x_SWPrioritizedDefaultIsr.c")
    3422                      .dwattr $C$DW$92, DW_AT_TI_end_line(0x61b)
    3423                      .dwattr $C$DW$92, DW_AT_TI_end_column(0x01)
    3424                      .dwendentry
    3425                      .dwendtag $C$DW$92
    3426              
    3427 00000387               .sect   ".text:retain"
    3428                      .retain
    3429                      .retainrefs
    3430                      .global _CLA1_INT6_ISR
    3431              
    3432              $C$DW$94        .dwtag  DW_TAG_subprogram, DW_AT_name("CLA1_INT6_ISR")
    3433                      .dwattr $C$DW$94, DW_AT_low_pc(_CLA1_INT6_ISR)
    3434                      .dwattr $C$DW$94, DW_AT_high_pc(0x00)
    3435                      .dwattr $C$DW$94, DW_AT_TI_symbol_name("_CLA1_INT6_ISR")
    3436                      .dwattr $C$DW$94, DW_AT_external
    3437                      .dwattr $C$DW$94, DW_AT_TI_begin_file("../source/DSP2803x_SWPrioritizedDefaultIsr.c")
    3438                      .dwattr $C$DW$94, DW_AT_TI_begin_line(0x5ed)
    3439                      .dwattr $C$DW$94, DW_AT_TI_begin_column(0x13)
    3440                      .dwattr $C$DW$94, DW_AT_TI_interrupt
    3441                      .dwattr $C$DW$94, DW_AT_TI_max_frame_size(-4)
    3442                      .dwpsn  file "../source/DSP2803x_SWPrioritizedDefaultIsr.c",line 1518,column 1,is_stmt,address _CLA1_
    3443              
    3444                      .dwfde $C$DW$CIE, _CLA1_INT6_ISR
    3445              
    3446              ;***************************************************************
    3447              ;* FNAME: _CLA1_INT6_ISR                FR SIZE:   2           *
    3448              ;*                                                             *
    3449              ;* FUNCTION ENVIRONMENT                                        *
    3450              ;*                                                             *
    3451              ;* FUNCTION PROPERTIES                                         *
    3452              ;*                            0 Parameter,  1 Auto,  0 SOE     *
    3453              ;***************************************************************
    3454              
    3455              _CLA1_INT6_ISR:
    3456              $C$DW$95        .dwtag  DW_TAG_variable, DW_AT_name("TempPIEIER")
    3457                      .dwattr $C$DW$95, DW_AT_TI_symbol_name("_TempPIEIER")
    3458                      .dwattr $C$DW$95, DW_AT_type(*$C$DW$T$33)
    3459                      .dwattr $C$DW$95, DW_AT_location[DW_OP_breg20 -1]
    3460                      .dwcfi  cfa_offset, -2
    3461                      .dwcfi  save_reg_to_mem, 26, 0
    3462 00000387 761B          ASP       ; [CPU_] 
    3463 00000388 FE02          ADDB      SP,#2                 ; [CPU_U] 
    3464                      .dwcfi  cfa_offset, -4
    3465 00000389 2942          CLRC      PAGE0,OVM             ; [CPU_] 
    3466 0000038a 5616          CLRC      AMODE                 ; [CPU_] 
    3467 0000038b 761F!         MOVW      DP,#_PieCtrlRegs+22   ; [CPU_U] 
TMS320C2000 Assembler PC v6.4.12 Thu Nov 16 10:01:32 2017

Tools Copyright (c) 1996-2017 Texas Instruments Incorporated
C:\Users\Admin\AppData\Local\Temp\0610810                            PAGE   67

         0000038c 0000 
    3468                      .dwpsn  file "../source/DSP2803x_SWPrioritizedDefaultIsr.c",line 1520,column 29,is_stmt,isa 0
    3469 0000038d 9216!         MOV       AL,@_PieCtrlRegs+22   ; [CPU_] |1520| 
    3470 0000038e 9641          MOV       *-SP[1],AL            ; [CPU_] |1520| 
    3471                      .dwpsn  file "../source/DSP2803x_SWPrioritizedDefaultIsr.c",line 1521,column 2,is_stmt,isa 0
    3472 0000038f 7623          OR        IER,#0x0400           ; [CPU_] |1521| 
         00000390 0400 
    3473                      .dwpsn  file "../source/DSP2803x_SWPrioritizedDefaultIsr.c",line 1522,column 2,is_stmt,isa 0
    3474 00000391 7626          AND       IER,#0xf5bf           ; [CPU_] |1522| 
         00000392 F5BF 
    3475                      .dwpsn  file "../source/DSP2803x_SWPrioritizedDefaultIsr.c",line 1523,column 2,is_stmt,isa 0
    3476 00000393 9216!         MOV       AL,@_PieCtrlRegs+22   ; [CPU_] |1523| 
    3477 00000394 2B16!         MOV       @_PieCtrlRegs+22,#0   ; [CPU_] |1523| 
    3478                      .dwpsn  file "../source/DSP2803x_SWPrioritizedDefaultIsr.c",line 1524,column 2,is_stmt,isa 0
    3479 00000395 2801!         MOV       @_PieCtrlRegs+1,#65535 ; [CPU_] |1524| 
         00000396 FFFF 
    3480 00000397 2910   clrc INTM
    3481 00000398 3B10   setc INTM
    3482                      .dwpsn  file "../source/DSP2803x_SWPrioritizedDefaultIsr.c",line 1531,column 2,is_stmt,isa 0
    3483 00000399 9241          MOV       AL,*-SP[1]            ; [CPU_] |1531| 
    3484 0000039a 9616!         MOV       @_PieCtrlRegs+22,AL   ; [CPU_] |1531| 
    3485 0000039b 7625        ESTOP0
    3486 0000039c       $C$L58:    
    3487                      .dwpsn  file "../source/DSP2803x_SWPrioritizedDefaultIsr.c",line 1536,column 5,is_stmt,isa 0
    3488 0000039c 6F00          B         $C$L58,UNC            ; [CPU_] |1536| 
    3489                      ; branch occurs ; [] |1536| 
    3490                      .dwattr $C$DW$94, DW_AT_TI_end_file("../source/DSP2803x_SWPrioritizedDefaultIsr.c")
    3491                      .dwattr $C$DW$94, DW_AT_TI_end_line(0x602)
    3492                      .dwattr $C$DW$94, DW_AT_TI_end_column(0x01)
    3493                      .dwendentry
    3494                      .dwendtag $C$DW$94
    3495              
    3496 0000039d               .sect   ".text:retain"
    3497                      .retain
    3498                      .retainrefs
    3499                      .global _CLA1_INT5_ISR
    3500              
    3501              $C$DW$96        .dwtag  DW_TAG_subprogram, DW_AT_name("CLA1_INT5_ISR")
    3502                      .dwattr $C$DW$96, DW_AT_low_pc(_CLA1_INT5_ISR)
    3503                      .dwattr $C$DW$96, DW_AT_high_pc(0x00)
    3504                      .dwattr $C$DW$96, DW_AT_TI_symbol_name("_CLA1_INT5_ISR")
    3505                      .dwattr $C$DW$96, DW_AT_external
    3506                      .dwattr $C$DW$96, DW_AT_TI_begin_file("../source/DSP2803x_SWPrioritizedDefaultIsr.c")
    3507                      .dwattr $C$DW$96, DW_AT_TI_begin_line(0x5d5)
    3508                      .dwattr $C$DW$96, DW_AT_TI_begin_column(0x13)
    3509                      .dwattr $C$DW$96, DW_AT_TI_interrupt
    3510                      .dwattr $C$DW$96, DW_AT_TI_max_frame_size(-4)
    3511                      .dwpsn  file "../source/DSP2803x_SWPrioritizedDefaultIsr.c",line 1494,column 1,is_stmt,address _CLA1_
    3512              
    3513                      .dwfde $C$DW$CIE, _CLA1_INT5_ISR
    3514              
    3515              ;***************************************************************
    3516              ;* FNAME: _CLA1_INT5_ISR                FR SIZE:   2           *
    3517              ;*                                                             *
    3518              ;* FUNCTION ENVIRONMENT                                        *
TMS320C2000 Assembler PC v6.4.12 Thu Nov 16 10:01:32 2017

Tools Copyright (c) 1996-2017 Texas Instruments Incorporated
C:\Users\Admin\AppData\Local\Temp\0610810                            PAGE   68

    3519              ;*                                                             *
    3520              ;* FUNCTION PROPERTIES                                         *
    3521              ;*                            0 Parameter,  1 Auto,  0 SOE     *
    3522              ;***************************************************************
    3523              
    3524              _CLA1_INT5_ISR:
    3525              $C$DW$97        .dwtag  DW_TAG_variable, DW_AT_name("TempPIEIER")
    3526                      .dwattr $C$DW$97, DW_AT_TI_symbol_name("_TempPIEIER")
    3527                      .dwattr $C$DW$97, DW_AT_type(*$C$DW$T$33)
    3528                      .dwattr $C$DW$97, DW_AT_location[DW_OP_breg20 -1]
    3529                      .dwcfi  cfa_offset, -2
    3530                      .dwcfi  save_reg_to_mem, 26, 0
    3531 0000039d 761B          ASP       ; [CPU_] 
    3532 0000039e FE02          ADDB      SP,#2                 ; [CPU_U] 
    3533                      .dwcfi  cfa_offset, -4
    3534 0000039f 2942          CLRC      PAGE0,OVM             ; [CPU_] 
    3535 000003a0 5616          CLRC      AMODE                 ; [CPU_] 
    3536 000003a1 761F!         MOVW      DP,#_PieCtrlRegs+22   ; [CPU_U] 
         000003a2 0000 
    3537                      .dwpsn  file "../source/DSP2803x_SWPrioritizedDefaultIsr.c",line 1496,column 29,is_stmt,isa 0
    3538 000003a3 9216!         MOV       AL,@_PieCtrlRegs+22   ; [CPU_] |1496| 
    3539 000003a4 9641          MOV       *-SP[1],AL            ; [CPU_] |1496| 
    3540                      .dwpsn  file "../source/DSP2803x_SWPrioritizedDefaultIsr.c",line 1497,column 2,is_stmt,isa 0
    3541 000003a5 7623          OR        IER,#0xf5bf           ; [CPU_] |1497| 
         000003a6 F5BF 
    3542                      .dwpsn  file "../source/DSP2803x_SWPrioritizedDefaultIsr.c",line 1498,column 2,is_stmt,isa 0
    3543 000003a7 1816!         AND       @_PieCtrlRegs+22,#0x00af ; [CPU_] |1498| 
         000003a8 00AF 
    3544                      .dwpsn  file "../source/DSP2803x_SWPrioritizedDefaultIsr.c",line 1499,column 2,is_stmt,isa 0
    3545 000003a9 2801!         MOV       @_PieCtrlRegs+1,#65535 ; [CPU_] |1499| 
         000003aa FFFF 
    3546 000003ab 2910   clrc INTM
    3547 000003ac 3B10   setc INTM
    3548                      .dwpsn  file "../source/DSP2803x_SWPrioritizedDefaultIsr.c",line 1506,column 2,is_stmt,isa 0
    3549 000003ad 9241          MOV       AL,*-SP[1]            ; [CPU_] |1506| 
    3550 000003ae 9616!         MOV       @_PieCtrlRegs+22,AL   ; [CPU_] |1506| 
    3551 000003af 7625        ESTOP0
    3552 000003b0       $C$L59:    
    3553                      .dwpsn  file "../source/DSP2803x_SWPrioritizedDefaultIsr.c",line 1511,column 5,is_stmt,isa 0
    3554 000003b0 6F00          B         $C$L59,UNC            ; [CPU_] |1511| 
    3555                      ; branch occurs ; [] |1511| 
    3556                      .dwattr $C$DW$96, DW_AT_TI_end_file("../source/DSP2803x_SWPrioritizedDefaultIsr.c")
    3557                      .dwattr $C$DW$96, DW_AT_TI_end_line(0x5e8)
    3558                      .dwattr $C$DW$96, DW_AT_TI_end_column(0x01)
    3559                      .dwendentry
    3560                      .dwendtag $C$DW$96
    3561              
    3562 000003b1               .sect   ".text:retain"
    3563                      .retain
    3564                      .retainrefs
    3565                      .global _CLA1_INT4_ISR
    3566              
    3567              $C$DW$98        .dwtag  DW_TAG_subprogram, DW_AT_name("CLA1_INT4_ISR")
    3568                      .dwattr $C$DW$98, DW_AT_low_pc(_CLA1_INT4_ISR)
    3569                      .dwattr $C$DW$98, DW_AT_high_pc(0x00)
TMS320C2000 Assembler PC v6.4.12 Thu Nov 16 10:01:32 2017

Tools Copyright (c) 1996-2017 Texas Instruments Incorporated
C:\Users\Admin\AppData\Local\Temp\0610810                            PAGE   69

    3570                      .dwattr $C$DW$98, DW_AT_TI_symbol_name("_CLA1_INT4_ISR")
    3571                      .dwattr $C$DW$98, DW_AT_external
    3572                      .dwattr $C$DW$98, DW_AT_TI_begin_file("../source/DSP2803x_SWPrioritizedDefaultIsr.c")
    3573                      .dwattr $C$DW$98, DW_AT_TI_begin_line(0x5bf)
    3574                      .dwattr $C$DW$98, DW_AT_TI_begin_column(0x13)
    3575                      .dwattr $C$DW$98, DW_AT_TI_interrupt
    3576                      .dwattr $C$DW$98, DW_AT_TI_max_frame_size(-4)
    3577                      .dwpsn  file "../source/DSP2803x_SWPrioritizedDefaultIsr.c",line 1472,column 1,is_stmt,address _CLA1_
    3578              
    3579                      .dwfde $C$DW$CIE, _CLA1_INT4_ISR
    3580              
    3581              ;***************************************************************
    3582              ;* FNAME: _CLA1_INT4_ISR                FR SIZE:   2           *
    3583              ;*                                                             *
    3584              ;* FUNCTION ENVIRONMENT                                        *
    3585              ;*                                                             *
    3586              ;* FUNCTION PROPERTIES                                         *
    3587              ;*                            0 Parameter,  1 Auto,  0 SOE     *
    3588              ;***************************************************************
    3589              
    3590              _CLA1_INT4_ISR:
    3591              $C$DW$99        .dwtag  DW_TAG_variable, DW_AT_name("TempPIEIER")
    3592                      .dwattr $C$DW$99, DW_AT_TI_symbol_name("_TempPIEIER")
    3593                      .dwattr $C$DW$99, DW_AT_type(*$C$DW$T$33)
    3594                      .dwattr $C$DW$99, DW_AT_location[DW_OP_breg20 -1]
    3595                      .dwcfi  cfa_offset, -2
    3596                      .dwcfi  save_reg_to_mem, 26, 0
    3597 000003b1 761B          ASP       ; [CPU_] 
    3598 000003b2 FE02          ADDB      SP,#2                 ; [CPU_U] 
    3599                      .dwcfi  cfa_offset, -4
    3600 000003b3 2942          CLRC      PAGE0,OVM             ; [CPU_] 
    3601 000003b4 5616          CLRC      AMODE                 ; [CPU_] 
    3602 000003b5 761F!         MOVW      DP,#_PieCtrlRegs+22   ; [CPU_U] 
         000003b6 0000 
    3603                      .dwpsn  file "../source/DSP2803x_SWPrioritizedDefaultIsr.c",line 1474,column 29,is_stmt,isa 0
    3604 000003b7 9216!         MOV       AL,@_PieCtrlRegs+22   ; [CPU_] |1474| 
    3605 000003b8 9641          MOV       *-SP[1],AL            ; [CPU_] |1474| 
    3606                      .dwpsn  file "../source/DSP2803x_SWPrioritizedDefaultIsr.c",line 1475,column 2,is_stmt,isa 0
    3607 000003b9 7623          OR        IER,#0xf5bf           ; [CPU_] |1475| 
         000003ba F5BF 
    3608                      .dwpsn  file "../source/DSP2803x_SWPrioritizedDefaultIsr.c",line 1476,column 2,is_stmt,isa 0
    3609 000003bb 1816!         AND       @_PieCtrlRegs+22,#0x00a3 ; [CPU_] |1476| 
         000003bc 00A3 
    3610                      .dwpsn  file "../source/DSP2803x_SWPrioritizedDefaultIsr.c",line 1477,column 2,is_stmt,isa 0
    3611 000003bd 2801!         MOV       @_PieCtrlRegs+1,#65535 ; [CPU_] |1477| 
         000003be FFFF 
    3612 000003bf 2910   clrc INTM
    3613 000003c0 3B10   setc INTM
    3614                      .dwpsn  file "../source/DSP2803x_SWPrioritizedDefaultIsr.c",line 1482,column 2,is_stmt,isa 0
    3615 000003c1 9241          MOV       AL,*-SP[1]            ; [CPU_] |1482| 
    3616 000003c2 9616!         MOV       @_PieCtrlRegs+22,AL   ; [CPU_] |1482| 
    3617 000003c3 7625        ESTOP0
    3618 000003c4       $C$L60:    
    3619                      .dwpsn  file "../source/DSP2803x_SWPrioritizedDefaultIsr.c",line 1487,column 5,is_stmt,isa 0
    3620 000003c4 6F00          B         $C$L60,UNC            ; [CPU_] |1487| 
TMS320C2000 Assembler PC v6.4.12 Thu Nov 16 10:01:32 2017

Tools Copyright (c) 1996-2017 Texas Instruments Incorporated
C:\Users\Admin\AppData\Local\Temp\0610810                            PAGE   70

    3621                      ; branch occurs ; [] |1487| 
    3622                      .dwattr $C$DW$98, DW_AT_TI_end_file("../source/DSP2803x_SWPrioritizedDefaultIsr.c")
    3623                      .dwattr $C$DW$98, DW_AT_TI_end_line(0x5d0)
    3624                      .dwattr $C$DW$98, DW_AT_TI_end_column(0x01)
    3625                      .dwendentry
    3626                      .dwendtag $C$DW$98
    3627              
    3628 000003c5               .sect   ".text:retain"
    3629                      .retain
    3630                      .retainrefs
    3631                      .global _CLA1_INT3_ISR
    3632              
    3633              $C$DW$100       .dwtag  DW_TAG_subprogram, DW_AT_name("CLA1_INT3_ISR")
    3634                      .dwattr $C$DW$100, DW_AT_low_pc(_CLA1_INT3_ISR)
    3635                      .dwattr $C$DW$100, DW_AT_high_pc(0x00)
    3636                      .dwattr $C$DW$100, DW_AT_TI_symbol_name("_CLA1_INT3_ISR")
    3637                      .dwattr $C$DW$100, DW_AT_external
    3638                      .dwattr $C$DW$100, DW_AT_TI_begin_file("../source/DSP2803x_SWPrioritizedDefaultIsr.c")
    3639                      .dwattr $C$DW$100, DW_AT_TI_begin_line(0x5a9)
    3640                      .dwattr $C$DW$100, DW_AT_TI_begin_column(0x13)
    3641                      .dwattr $C$DW$100, DW_AT_TI_interrupt
    3642                      .dwattr $C$DW$100, DW_AT_TI_max_frame_size(-4)
    3643                      .dwpsn  file "../source/DSP2803x_SWPrioritizedDefaultIsr.c",line 1450,column 1,is_stmt,address _CLA1_
    3644              
    3645                      .dwfde $C$DW$CIE, _CLA1_INT3_ISR
    3646              
    3647              ;***************************************************************
    3648              ;* FNAME: _CLA1_INT3_ISR                FR SIZE:   2           *
    3649              ;*                                                             *
    3650              ;* FUNCTION ENVIRONMENT                                        *
    3651              ;*                                                             *
    3652              ;* FUNCTION PROPERTIES                                         *
    3653              ;*                            0 Parameter,  1 Auto,  0 SOE     *
    3654              ;***************************************************************
    3655              
    3656              _CLA1_INT3_ISR:
    3657              $C$DW$101       .dwtag  DW_TAG_variable, DW_AT_name("TempPIEIER")
    3658                      .dwattr $C$DW$101, DW_AT_TI_symbol_name("_TempPIEIER")
    3659                      .dwattr $C$DW$101, DW_AT_type(*$C$DW$T$33)
    3660                      .dwattr $C$DW$101, DW_AT_location[DW_OP_breg20 -1]
    3661                      .dwcfi  cfa_offset, -2
    3662                      .dwcfi  save_reg_to_mem, 26, 0
    3663 000003c5 761B          ASP       ; [CPU_] 
    3664 000003c6 FE02          ADDB      SP,#2                 ; [CPU_U] 
    3665                      .dwcfi  cfa_offset, -4
    3666 000003c7 2942          CLRC      PAGE0,OVM             ; [CPU_] 
    3667 000003c8 5616          CLRC      AMODE                 ; [CPU_] 
    3668 000003c9 761F!         MOVW      DP,#_PieCtrlRegs+22   ; [CPU_U] 
         000003ca 0000 
    3669                      .dwpsn  file "../source/DSP2803x_SWPrioritizedDefaultIsr.c",line 1452,column 29,is_stmt,isa 0
    3670 000003cb 9216!         MOV       AL,@_PieCtrlRegs+22   ; [CPU_] |1452| 
    3671 000003cc 9641          MOV       *-SP[1],AL            ; [CPU_] |1452| 
    3672                      .dwpsn  file "../source/DSP2803x_SWPrioritizedDefaultIsr.c",line 1453,column 2,is_stmt,isa 0
    3673 000003cd 7623          OR        IER,#0xf5bf           ; [CPU_] |1453| 
         000003ce F5BF 
TMS320C2000 Assembler PC v6.4.12 Thu Nov 16 10:01:32 2017

Tools Copyright (c) 1996-2017 Texas Instruments Incorporated
C:\Users\Admin\AppData\Local\Temp\0610810                            PAGE   71

    3674                      .dwpsn  file "../source/DSP2803x_SWPrioritizedDefaultIsr.c",line 1454,column 2,is_stmt,isa 0
    3675 000003cf 1816!         AND       @_PieCtrlRegs+22,#0x00ab ; [CPU_] |1454| 
         000003d0 00AB 
    3676                      .dwpsn  file "../source/DSP2803x_SWPrioritizedDefaultIsr.c",line 1455,column 2,is_stmt,isa 0
    3677 000003d1 2801!         MOV       @_PieCtrlRegs+1,#65535 ; [CPU_] |1455| 
         000003d2 FFFF 
    3678 000003d3 2910   clrc INTM
    3679 000003d4 3B10   setc INTM
    3680                      .dwpsn  file "../source/DSP2803x_SWPrioritizedDefaultIsr.c",line 1460,column 2,is_stmt,isa 0
    3681 000003d5 9241          MOV       AL,*-SP[1]            ; [CPU_] |1460| 
    3682 000003d6 9616!         MOV       @_PieCtrlRegs+22,AL   ; [CPU_] |1460| 
    3683 000003d7 7625        ESTOP0
    3684 000003d8       $C$L61:    
    3685                      .dwpsn  file "../source/DSP2803x_SWPrioritizedDefaultIsr.c",line 1465,column 5,is_stmt,isa 0
    3686 000003d8 6F00          B         $C$L61,UNC            ; [CPU_] |1465| 
    3687                      ; branch occurs ; [] |1465| 
    3688                      .dwattr $C$DW$100, DW_AT_TI_end_file("../source/DSP2803x_SWPrioritizedDefaultIsr.c")
    3689                      .dwattr $C$DW$100, DW_AT_TI_end_line(0x5ba)
    3690                      .dwattr $C$DW$100, DW_AT_TI_end_column(0x01)
    3691                      .dwendentry
    3692                      .dwendtag $C$DW$100
    3693              
    3694 000003d9               .sect   ".text:retain"
    3695                      .retain
    3696                      .retainrefs
    3697                      .global _CLA1_INT2_ISR
    3698              
    3699              $C$DW$102       .dwtag  DW_TAG_subprogram, DW_AT_name("CLA1_INT2_ISR")
    3700                      .dwattr $C$DW$102, DW_AT_low_pc(_CLA1_INT2_ISR)
    3701                      .dwattr $C$DW$102, DW_AT_high_pc(0x00)
    3702                      .dwattr $C$DW$102, DW_AT_TI_symbol_name("_CLA1_INT2_ISR")
    3703                      .dwattr $C$DW$102, DW_AT_external
    3704                      .dwattr $C$DW$102, DW_AT_TI_begin_file("../source/DSP2803x_SWPrioritizedDefaultIsr.c")
    3705                      .dwattr $C$DW$102, DW_AT_TI_begin_line(0x593)
    3706                      .dwattr $C$DW$102, DW_AT_TI_begin_column(0x13)
    3707                      .dwattr $C$DW$102, DW_AT_TI_interrupt
    3708                      .dwattr $C$DW$102, DW_AT_TI_max_frame_size(-4)
    3709                      .dwpsn  file "../source/DSP2803x_SWPrioritizedDefaultIsr.c",line 1428,column 1,is_stmt,address _CLA1_
    3710              
    3711                      .dwfde $C$DW$CIE, _CLA1_INT2_ISR
    3712              
    3713              ;***************************************************************
    3714              ;* FNAME: _CLA1_INT2_ISR                FR SIZE:   2           *
    3715              ;*                                                             *
    3716              ;* FUNCTION ENVIRONMENT                                        *
    3717              ;*                                                             *
    3718              ;* FUNCTION PROPERTIES                                         *
    3719              ;*                            0 Parameter,  1 Auto,  0 SOE     *
    3720              ;***************************************************************
    3721              
    3722              _CLA1_INT2_ISR:
    3723              $C$DW$103       .dwtag  DW_TAG_variable, DW_AT_name("TempPIEIER")
    3724                      .dwattr $C$DW$103, DW_AT_TI_symbol_name("_TempPIEIER")
    3725                      .dwattr $C$DW$103, DW_AT_type(*$C$DW$T$33)
    3726                      .dwattr $C$DW$103, DW_AT_location[DW_OP_breg20 -1]
TMS320C2000 Assembler PC v6.4.12 Thu Nov 16 10:01:32 2017

Tools Copyright (c) 1996-2017 Texas Instruments Incorporated
C:\Users\Admin\AppData\Local\Temp\0610810                            PAGE   72

    3727                      .dwcfi  cfa_offset, -2
    3728                      .dwcfi  save_reg_to_mem, 26, 0
    3729 000003d9 761B          ASP       ; [CPU_] 
    3730 000003da FE02          ADDB      SP,#2                 ; [CPU_U] 
    3731                      .dwcfi  cfa_offset, -4
    3732 000003db 2942          CLRC      PAGE0,OVM             ; [CPU_] 
    3733 000003dc 5616          CLRC      AMODE                 ; [CPU_] 
    3734 000003dd 761F!         MOVW      DP,#_PieCtrlRegs+22   ; [CPU_U] 
         000003de 0000 
    3735                      .dwpsn  file "../source/DSP2803x_SWPrioritizedDefaultIsr.c",line 1430,column 29,is_stmt,isa 0
    3736 000003df 9216!         MOV       AL,@_PieCtrlRegs+22   ; [CPU_] |1430| 
    3737 000003e0 9641          MOV       *-SP[1],AL            ; [CPU_] |1430| 
    3738                      .dwpsn  file "../source/DSP2803x_SWPrioritizedDefaultIsr.c",line 1431,column 2,is_stmt,isa 0
    3739 000003e1 7623          OR        IER,#0xf5bf           ; [CPU_] |1431| 
         000003e2 F5BF 
    3740                      .dwpsn  file "../source/DSP2803x_SWPrioritizedDefaultIsr.c",line 1432,column 2,is_stmt,isa 0
    3741 000003e3 1816!         AND       @_PieCtrlRegs+22,#0x00a1 ; [CPU_] |1432| 
         000003e4 00A1 
    3742                      .dwpsn  file "../source/DSP2803x_SWPrioritizedDefaultIsr.c",line 1433,column 2,is_stmt,isa 0
    3743 000003e5 2801!         MOV       @_PieCtrlRegs+1,#65535 ; [CPU_] |1433| 
         000003e6 FFFF 
    3744 000003e7 2910   clrc INTM
    3745 000003e8 3B10   setc INTM
    3746                      .dwpsn  file "../source/DSP2803x_SWPrioritizedDefaultIsr.c",line 1438,column 2,is_stmt,isa 0
    3747 000003e9 9241          MOV       AL,*-SP[1]            ; [CPU_] |1438| 
    3748 000003ea 9616!         MOV       @_PieCtrlRegs+22,AL   ; [CPU_] |1438| 
    3749 000003eb 7625        ESTOP0
    3750 000003ec       $C$L62:    
    3751                      .dwpsn  file "../source/DSP2803x_SWPrioritizedDefaultIsr.c",line 1443,column 5,is_stmt,isa 0
    3752 000003ec 6F00          B         $C$L62,UNC            ; [CPU_] |1443| 
    3753                      ; branch occurs ; [] |1443| 
    3754                      .dwattr $C$DW$102, DW_AT_TI_end_file("../source/DSP2803x_SWPrioritizedDefaultIsr.c")
    3755                      .dwattr $C$DW$102, DW_AT_TI_end_line(0x5a4)
    3756                      .dwattr $C$DW$102, DW_AT_TI_end_column(0x01)
    3757                      .dwendentry
    3758                      .dwendtag $C$DW$102
    3759              
    3760 000003ed               .sect   ".text:retain"
    3761                      .retain
    3762                      .retainrefs
    3763                      .global _CLA1_INT1_ISR
    3764              
    3765              $C$DW$104       .dwtag  DW_TAG_subprogram, DW_AT_name("CLA1_INT1_ISR")
    3766                      .dwattr $C$DW$104, DW_AT_low_pc(_CLA1_INT1_ISR)
    3767                      .dwattr $C$DW$104, DW_AT_high_pc(0x00)
    3768                      .dwattr $C$DW$104, DW_AT_TI_symbol_name("_CLA1_INT1_ISR")
    3769                      .dwattr $C$DW$104, DW_AT_external
    3770                      .dwattr $C$DW$104, DW_AT_TI_begin_file("../source/DSP2803x_SWPrioritizedDefaultIsr.c")
    3771                      .dwattr $C$DW$104, DW_AT_TI_begin_line(0x57d)
    3772                      .dwattr $C$DW$104, DW_AT_TI_begin_column(0x13)
    3773                      .dwattr $C$DW$104, DW_AT_TI_interrupt
    3774                      .dwattr $C$DW$104, DW_AT_TI_max_frame_size(-4)
    3775                      .dwpsn  file "../source/DSP2803x_SWPrioritizedDefaultIsr.c",line 1406,column 1,is_stmt,address _CLA1_
    3776              
    3777                      .dwfde $C$DW$CIE, _CLA1_INT1_ISR
TMS320C2000 Assembler PC v6.4.12 Thu Nov 16 10:01:32 2017

Tools Copyright (c) 1996-2017 Texas Instruments Incorporated
C:\Users\Admin\AppData\Local\Temp\0610810                            PAGE   73

    3778              
    3779              ;***************************************************************
    3780              ;* FNAME: _CLA1_INT1_ISR                FR SIZE:   2           *
    3781              ;*                                                             *
    3782              ;* FUNCTION ENVIRONMENT                                        *
    3783              ;*                                                             *
    3784              ;* FUNCTION PROPERTIES                                         *
    3785              ;*                            0 Parameter,  1 Auto,  0 SOE     *
    3786              ;***************************************************************
    3787              
    3788              _CLA1_INT1_ISR:
    3789              $C$DW$105       .dwtag  DW_TAG_variable, DW_AT_name("TempPIEIER")
    3790                      .dwattr $C$DW$105, DW_AT_TI_symbol_name("_TempPIEIER")
    3791                      .dwattr $C$DW$105, DW_AT_type(*$C$DW$T$33)
    3792                      .dwattr $C$DW$105, DW_AT_location[DW_OP_breg20 -1]
    3793                      .dwcfi  cfa_offset, -2
    3794                      .dwcfi  save_reg_to_mem, 26, 0
    3795 000003ed 761B          ASP       ; [CPU_] 
    3796 000003ee FE02          ADDB      SP,#2                 ; [CPU_U] 
    3797                      .dwcfi  cfa_offset, -4
    3798 000003ef 2942          CLRC      PAGE0,OVM             ; [CPU_] 
    3799 000003f0 5616          CLRC      AMODE                 ; [CPU_] 
    3800 000003f1 761F!         MOVW      DP,#_PieCtrlRegs+22   ; [CPU_U] 
         000003f2 0000 
    3801                      .dwpsn  file "../source/DSP2803x_SWPrioritizedDefaultIsr.c",line 1408,column 29,is_stmt,isa 0
    3802 000003f3 9216!         MOV       AL,@_PieCtrlRegs+22   ; [CPU_] |1408| 
    3803 000003f4 9641          MOV       *-SP[1],AL            ; [CPU_] |1408| 
    3804                      .dwpsn  file "../source/DSP2803x_SWPrioritizedDefaultIsr.c",line 1409,column 2,is_stmt,isa 0
    3805 000003f5 7623          OR        IER,#0xf5bf           ; [CPU_] |1409| 
         000003f6 F5BF 
    3806                      .dwpsn  file "../source/DSP2803x_SWPrioritizedDefaultIsr.c",line 1410,column 2,is_stmt,isa 0
    3807 000003f7 9216!         MOV       AL,@_PieCtrlRegs+22   ; [CPU_] |1410| 
    3808 000003f8 2B16!         MOV       @_PieCtrlRegs+22,#0   ; [CPU_] |1410| 
    3809                      .dwpsn  file "../source/DSP2803x_SWPrioritizedDefaultIsr.c",line 1411,column 2,is_stmt,isa 0
    3810 000003f9 2801!         MOV       @_PieCtrlRegs+1,#65535 ; [CPU_] |1411| 
         000003fa FFFF 
    3811 000003fb 2910   clrc INTM
    3812 000003fc 3B10   setc INTM
    3813                      .dwpsn  file "../source/DSP2803x_SWPrioritizedDefaultIsr.c",line 1416,column 2,is_stmt,isa 0
    3814 000003fd 9241          MOV       AL,*-SP[1]            ; [CPU_] |1416| 
    3815 000003fe 9616!         MOV       @_PieCtrlRegs+22,AL   ; [CPU_] |1416| 
    3816 000003ff 7625        ESTOP0
    3817 00000400       $C$L63:    
    3818                      .dwpsn  file "../source/DSP2803x_SWPrioritizedDefaultIsr.c",line 1421,column 5,is_stmt,isa 0
    3819 00000400 6F00          B         $C$L63,UNC            ; [CPU_] |1421| 
    3820                      ; branch occurs ; [] |1421| 
    3821                      .dwattr $C$DW$104, DW_AT_TI_end_file("../source/DSP2803x_SWPrioritizedDefaultIsr.c")
    3822                      .dwattr $C$DW$104, DW_AT_TI_end_line(0x58e)
    3823                      .dwattr $C$DW$104, DW_AT_TI_end_column(0x01)
    3824                      .dwendentry
    3825                      .dwendtag $C$DW$104
    3826              
    3827 00000401               .sect   ".text:retain"
    3828                      .retain
    3829                      .retainrefs
TMS320C2000 Assembler PC v6.4.12 Thu Nov 16 10:01:32 2017

Tools Copyright (c) 1996-2017 Texas Instruments Incorporated
C:\Users\Admin\AppData\Local\Temp\0610810                            PAGE   74

    3830                      .global _ADCINT9_ISR
    3831              
    3832              $C$DW$106       .dwtag  DW_TAG_subprogram, DW_AT_name("ADCINT9_ISR")
    3833                      .dwattr $C$DW$106, DW_AT_low_pc(_ADCINT9_ISR)
    3834                      .dwattr $C$DW$106, DW_AT_high_pc(0x00)
    3835                      .dwattr $C$DW$106, DW_AT_TI_symbol_name("_ADCINT9_ISR")
    3836                      .dwattr $C$DW$106, DW_AT_external
    3837                      .dwattr $C$DW$106, DW_AT_TI_begin_file("../source/DSP2803x_SWPrioritizedDefaultIsr.c")
    3838                      .dwattr $C$DW$106, DW_AT_TI_begin_line(0x172)
    3839                      .dwattr $C$DW$106, DW_AT_TI_begin_column(0x13)
    3840                      .dwattr $C$DW$106, DW_AT_TI_interrupt
    3841                      .dwattr $C$DW$106, DW_AT_TI_max_frame_size(-4)
    3842                      .dwpsn  file "../source/DSP2803x_SWPrioritizedDefaultIsr.c",line 371,column 1,is_stmt,address _ADCINT
    3843              
    3844                      .dwfde $C$DW$CIE, _ADCINT9_ISR
    3845              
    3846              ;***************************************************************
    3847              ;* FNAME: _ADCINT9_ISR                  FR SIZE:   2           *
    3848              ;*                                                             *
    3849              ;* FUNCTION ENVIRONMENT                                        *
    3850              ;*                                                             *
    3851              ;* FUNCTION PROPERTIES                                         *
    3852              ;*                            0 Parameter,  1 Auto,  0 SOE     *
    3853              ;***************************************************************
    3854              
    3855              _ADCINT9_ISR:
    3856              $C$DW$107       .dwtag  DW_TAG_variable, DW_AT_name("TempPIEIER")
    3857                      .dwattr $C$DW$107, DW_AT_TI_symbol_name("_TempPIEIER")
    3858                      .dwattr $C$DW$107, DW_AT_type(*$C$DW$T$33)
    3859                      .dwattr $C$DW$107, DW_AT_location[DW_OP_breg20 -1]
    3860                      .dwcfi  cfa_offset, -2
    3861                      .dwcfi  save_reg_to_mem, 26, 0
    3862 00000401 761B          ASP       ; [CPU_] 
    3863 00000402 FE02          ADDB      SP,#2                 ; [CPU_U] 
    3864                      .dwcfi  cfa_offset, -4
    3865 00000403 2942          CLRC      PAGE0,OVM             ; [CPU_] 
    3866 00000404 5616          CLRC      AMODE                 ; [CPU_] 
    3867 00000405 761F!         MOVW      DP,#_PieCtrlRegs+2    ; [CPU_U] 
         00000406 0000 
    3868                      .dwpsn  file "../source/DSP2803x_SWPrioritizedDefaultIsr.c",line 373,column 29,is_stmt,isa 0
    3869 00000407 9202!         MOV       AL,@_PieCtrlRegs+2    ; [CPU_] |373| 
    3870 00000408 9641          MOV       *-SP[1],AL            ; [CPU_] |373| 
    3871                      .dwpsn  file "../source/DSP2803x_SWPrioritizedDefaultIsr.c",line 374,column 2,is_stmt,isa 0
    3872 00000409 7623          OR        IER,#0x0001           ; [CPU_] |374| 
         0000040a 0001 
    3873                      .dwpsn  file "../source/DSP2803x_SWPrioritizedDefaultIsr.c",line 375,column 2,is_stmt,isa 0
    3874 0000040b 7626          AND       IER,#0x0003           ; [CPU_] |375| 
         0000040c 0003 
    3875                      .dwpsn  file "../source/DSP2803x_SWPrioritizedDefaultIsr.c",line 376,column 2,is_stmt,isa 0
    3876 0000040d 1802!         AND       @_PieCtrlRegs+2,#0x0048 ; [CPU_] |376| 
         0000040e 0048 
    3877                      .dwpsn  file "../source/DSP2803x_SWPrioritizedDefaultIsr.c",line 377,column 2,is_stmt,isa 0
    3878 0000040f 2801!         MOV       @_PieCtrlRegs+1,#65535 ; [CPU_] |377| 
         00000410 FFFF 
    3879 00000411 2910   clrc INTM
TMS320C2000 Assembler PC v6.4.12 Thu Nov 16 10:01:32 2017

Tools Copyright (c) 1996-2017 Texas Instruments Incorporated
C:\Users\Admin\AppData\Local\Temp\0610810                            PAGE   75

    3880 00000412 3B10   setc INTM
    3881                      .dwpsn  file "../source/DSP2803x_SWPrioritizedDefaultIsr.c",line 384,column 2,is_stmt,isa 0
    3882 00000413 9241          MOV       AL,*-SP[1]            ; [CPU_] |384| 
    3883 00000414 9602!         MOV       @_PieCtrlRegs+2,AL    ; [CPU_] |384| 
    3884 00000415 7625        ESTOP0
    3885 00000416       $C$L64:    
    3886                      .dwpsn  file "../source/DSP2803x_SWPrioritizedDefaultIsr.c",line 389,column 5,is_stmt,isa 0
    3887 00000416 6F00          B         $C$L64,UNC            ; [CPU_] |389| 
    3888                      ; branch occurs ; [] |389| 
    3889                      .dwattr $C$DW$106, DW_AT_TI_end_file("../source/DSP2803x_SWPrioritizedDefaultIsr.c")
    3890                      .dwattr $C$DW$106, DW_AT_TI_end_line(0x187)
    3891                      .dwattr $C$DW$106, DW_AT_TI_end_column(0x01)
    3892                      .dwendentry
    3893                      .dwendtag $C$DW$106
    3894              
    3895 00000417               .sect   ".text:retain"
    3896                      .retain
    3897                      .retainrefs
    3898                      .global _ADCINT8_ISR
    3899              
    3900              $C$DW$108       .dwtag  DW_TAG_subprogram, DW_AT_name("ADCINT8_ISR")
    3901                      .dwattr $C$DW$108, DW_AT_low_pc(_ADCINT8_ISR)
    3902                      .dwattr $C$DW$108, DW_AT_high_pc(0x00)
    3903                      .dwattr $C$DW$108, DW_AT_TI_symbol_name("_ADCINT8_ISR")
    3904                      .dwattr $C$DW$108, DW_AT_external
    3905                      .dwattr $C$DW$108, DW_AT_TI_begin_file("../source/DSP2803x_SWPrioritizedDefaultIsr.c")
    3906                      .dwattr $C$DW$108, DW_AT_TI_begin_line(0x55f)
    3907                      .dwattr $C$DW$108, DW_AT_TI_begin_column(0x13)
    3908                      .dwattr $C$DW$108, DW_AT_TI_interrupt
    3909                      .dwattr $C$DW$108, DW_AT_TI_max_frame_size(-4)
    3910                      .dwpsn  file "../source/DSP2803x_SWPrioritizedDefaultIsr.c",line 1376,column 1,is_stmt,address _ADCIN
    3911              
    3912                      .dwfde $C$DW$CIE, _ADCINT8_ISR
    3913              
    3914              ;***************************************************************
    3915              ;* FNAME: _ADCINT8_ISR                  FR SIZE:   2           *
    3916              ;*                                                             *
    3917              ;* FUNCTION ENVIRONMENT                                        *
    3918              ;*                                                             *
    3919              ;* FUNCTION PROPERTIES                                         *
    3920              ;*                            0 Parameter,  1 Auto,  0 SOE     *
    3921              ;***************************************************************
    3922              
    3923              _ADCINT8_ISR:
    3924              $C$DW$109       .dwtag  DW_TAG_variable, DW_AT_name("TempPIEIER")
    3925                      .dwattr $C$DW$109, DW_AT_TI_symbol_name("_TempPIEIER")
    3926                      .dwattr $C$DW$109, DW_AT_type(*$C$DW$T$33)
    3927                      .dwattr $C$DW$109, DW_AT_location[DW_OP_breg20 -1]
    3928                      .dwcfi  cfa_offset, -2
    3929                      .dwcfi  save_reg_to_mem, 26, 0
    3930 00000417 761B          ASP       ; [CPU_] 
    3931 00000418 FE02          ADDB      SP,#2                 ; [CPU_U] 
    3932                      .dwcfi  cfa_offset, -4
    3933 00000419 2942          CLRC      PAGE0,OVM             ; [CPU_] 
    3934 0000041a 5616          CLRC      AMODE                 ; [CPU_] 
TMS320C2000 Assembler PC v6.4.12 Thu Nov 16 10:01:32 2017

Tools Copyright (c) 1996-2017 Texas Instruments Incorporated
C:\Users\Admin\AppData\Local\Temp\0610810                            PAGE   76

    3935 0000041b 761F!         MOVW      DP,#_PieCtrlRegs+20   ; [CPU_U] 
         0000041c 0000 
    3936                      .dwpsn  file "../source/DSP2803x_SWPrioritizedDefaultIsr.c",line 1378,column 29,is_stmt,isa 0
    3937 0000041d 9214!         MOV       AL,@_PieCtrlRegs+20   ; [CPU_] |1378| 
    3938 0000041e 9641          MOV       *-SP[1],AL            ; [CPU_] |1378| 
    3939                      .dwpsn  file "../source/DSP2803x_SWPrioritizedDefaultIsr.c",line 1379,column 2,is_stmt,isa 0
    3940 0000041f 7623          OR        IER,#0x0200           ; [CPU_] |1379| 
         00000420 0200 
    3941                      .dwpsn  file "../source/DSP2803x_SWPrioritizedDefaultIsr.c",line 1380,column 2,is_stmt,isa 0
    3942 00000421 7626          AND       IER,#0xf3bf           ; [CPU_] |1380| 
         00000422 F3BF 
    3943                      .dwpsn  file "../source/DSP2803x_SWPrioritizedDefaultIsr.c",line 1381,column 2,is_stmt,isa 0
    3944 00000423 1814!         AND       @_PieCtrlRegs+20,#0x0004 ; [CPU_] |1381| 
         00000424 0004 
    3945                      .dwpsn  file "../source/DSP2803x_SWPrioritizedDefaultIsr.c",line 1382,column 2,is_stmt,isa 0
    3946 00000425 2801!         MOV       @_PieCtrlRegs+1,#65535 ; [CPU_] |1382| 
         00000426 FFFF 
    3947 00000427 2910   clrc INTM
    3948 00000428 3B10   setc INTM
    3949                      .dwpsn  file "../source/DSP2803x_SWPrioritizedDefaultIsr.c",line 1389,column 2,is_stmt,isa 0
    3950 00000429 9241          MOV       AL,*-SP[1]            ; [CPU_] |1389| 
    3951 0000042a 9614!         MOV       @_PieCtrlRegs+20,AL   ; [CPU_] |1389| 
    3952 0000042b 7625        ESTOP0
    3953 0000042c       $C$L65:    
    3954                      .dwpsn  file "../source/DSP2803x_SWPrioritizedDefaultIsr.c",line 1394,column 5,is_stmt,isa 0
    3955 0000042c 6F00          B         $C$L65,UNC            ; [CPU_] |1394| 
    3956                      ; branch occurs ; [] |1394| 
    3957                      .dwattr $C$DW$108, DW_AT_TI_end_file("../source/DSP2803x_SWPrioritizedDefaultIsr.c")
    3958                      .dwattr $C$DW$108, DW_AT_TI_end_line(0x573)
    3959                      .dwattr $C$DW$108, DW_AT_TI_end_column(0x01)
    3960                      .dwendentry
    3961                      .dwendtag $C$DW$108
    3962              
    3963 0000042d               .sect   ".text:retain"
    3964                      .retain
    3965                      .retainrefs
    3966                      .global _ADCINT7_ISR
    3967              
    3968              $C$DW$110       .dwtag  DW_TAG_subprogram, DW_AT_name("ADCINT7_ISR")
    3969                      .dwattr $C$DW$110, DW_AT_low_pc(_ADCINT7_ISR)
    3970                      .dwattr $C$DW$110, DW_AT_high_pc(0x00)
    3971                      .dwattr $C$DW$110, DW_AT_TI_symbol_name("_ADCINT7_ISR")
    3972                      .dwattr $C$DW$110, DW_AT_external
    3973                      .dwattr $C$DW$110, DW_AT_TI_begin_file("../source/DSP2803x_SWPrioritizedDefaultIsr.c")
    3974                      .dwattr $C$DW$110, DW_AT_TI_begin_line(0x546)
    3975                      .dwattr $C$DW$110, DW_AT_TI_begin_column(0x13)
    3976                      .dwattr $C$DW$110, DW_AT_TI_interrupt
    3977                      .dwattr $C$DW$110, DW_AT_TI_max_frame_size(-4)
    3978                      .dwpsn  file "../source/DSP2803x_SWPrioritizedDefaultIsr.c",line 1351,column 1,is_stmt,address _ADCIN
    3979              
    3980                      .dwfde $C$DW$CIE, _ADCINT7_ISR
    3981              
    3982              ;***************************************************************
    3983              ;* FNAME: _ADCINT7_ISR                  FR SIZE:   2           *
    3984              ;*                                                             *
TMS320C2000 Assembler PC v6.4.12 Thu Nov 16 10:01:32 2017

Tools Copyright (c) 1996-2017 Texas Instruments Incorporated
C:\Users\Admin\AppData\Local\Temp\0610810                            PAGE   77

    3985              ;* FUNCTION ENVIRONMENT                                        *
    3986              ;*                                                             *
    3987              ;* FUNCTION PROPERTIES                                         *
    3988              ;*                            0 Parameter,  1 Auto,  0 SOE     *
    3989              ;***************************************************************
    3990              
    3991              _ADCINT7_ISR:
    3992              $C$DW$111       .dwtag  DW_TAG_variable, DW_AT_name("TempPIEIER")
    3993                      .dwattr $C$DW$111, DW_AT_TI_symbol_name("_TempPIEIER")
    3994                      .dwattr $C$DW$111, DW_AT_type(*$C$DW$T$33)
    3995                      .dwattr $C$DW$111, DW_AT_location[DW_OP_breg20 -1]
    3996                      .dwcfi  cfa_offset, -2
    3997                      .dwcfi  save_reg_to_mem, 26, 0
    3998 0000042d 761B          ASP       ; [CPU_] 
    3999 0000042e FE02          ADDB      SP,#2                 ; [CPU_U] 
    4000                      .dwcfi  cfa_offset, -4
    4001 0000042f 2942          CLRC      PAGE0,OVM             ; [CPU_] 
    4002 00000430 5616          CLRC      AMODE                 ; [CPU_] 
    4003 00000431 761F!         MOVW      DP,#_PieCtrlRegs+20   ; [CPU_U] 
         00000432 0000 
    4004                      .dwpsn  file "../source/DSP2803x_SWPrioritizedDefaultIsr.c",line 1353,column 29,is_stmt,isa 0
    4005 00000433 9214!         MOV       AL,@_PieCtrlRegs+20   ; [CPU_] |1353| 
    4006 00000434 9641          MOV       *-SP[1],AL            ; [CPU_] |1353| 
    4007                      .dwpsn  file "../source/DSP2803x_SWPrioritizedDefaultIsr.c",line 1354,column 2,is_stmt,isa 0
    4008 00000435 7623          OR        IER,#0x0200           ; [CPU_] |1354| 
         00000436 0200 
    4009                      .dwpsn  file "../source/DSP2803x_SWPrioritizedDefaultIsr.c",line 1355,column 2,is_stmt,isa 0
    4010 00000437 7626          AND       IER,#0xf3bf           ; [CPU_] |1355| 
         00000438 F3BF 
    4011                      .dwpsn  file "../source/DSP2803x_SWPrioritizedDefaultIsr.c",line 1356,column 2,is_stmt,isa 0
    4012 00000439 1814!         AND       @_PieCtrlRegs+20,#0x009c ; [CPU_] |1356| 
         0000043a 009C 
    4013                      .dwpsn  file "../source/DSP2803x_SWPrioritizedDefaultIsr.c",line 1357,column 2,is_stmt,isa 0
    4014 0000043b 2801!         MOV       @_PieCtrlRegs+1,#65535 ; [CPU_] |1357| 
         0000043c FFFF 
    4015 0000043d 2910   clrc INTM
    4016 0000043e 3B10   setc INTM
    4017                      .dwpsn  file "../source/DSP2803x_SWPrioritizedDefaultIsr.c",line 1364,column 2,is_stmt,isa 0
    4018 0000043f 9241          MOV       AL,*-SP[1]            ; [CPU_] |1364| 
    4019 00000440 9614!         MOV       @_PieCtrlRegs+20,AL   ; [CPU_] |1364| 
    4020 00000441 7625        ESTOP0
    4021 00000442       $C$L66:    
    4022                      .dwpsn  file "../source/DSP2803x_SWPrioritizedDefaultIsr.c",line 1369,column 5,is_stmt,isa 0
    4023 00000442 6F00          B         $C$L66,UNC            ; [CPU_] |1369| 
    4024                      ; branch occurs ; [] |1369| 
    4025                      .dwattr $C$DW$110, DW_AT_TI_end_file("../source/DSP2803x_SWPrioritizedDefaultIsr.c")
    4026                      .dwattr $C$DW$110, DW_AT_TI_end_line(0x55a)
    4027                      .dwattr $C$DW$110, DW_AT_TI_end_column(0x01)
    4028                      .dwendentry
    4029                      .dwendtag $C$DW$110
    4030              
    4031 00000443               .sect   ".text:retain"
    4032                      .retain
    4033                      .retainrefs
    4034                      .global _ADCINT6_ISR
TMS320C2000 Assembler PC v6.4.12 Thu Nov 16 10:01:32 2017

Tools Copyright (c) 1996-2017 Texas Instruments Incorporated
C:\Users\Admin\AppData\Local\Temp\0610810                            PAGE   78

    4035              
    4036              $C$DW$112       .dwtag  DW_TAG_subprogram, DW_AT_name("ADCINT6_ISR")
    4037                      .dwattr $C$DW$112, DW_AT_low_pc(_ADCINT6_ISR)
    4038                      .dwattr $C$DW$112, DW_AT_high_pc(0x00)
    4039                      .dwattr $C$DW$112, DW_AT_TI_symbol_name("_ADCINT6_ISR")
    4040                      .dwattr $C$DW$112, DW_AT_external
    4041                      .dwattr $C$DW$112, DW_AT_TI_begin_file("../source/DSP2803x_SWPrioritizedDefaultIsr.c")
    4042                      .dwattr $C$DW$112, DW_AT_TI_begin_line(0x52c)
    4043                      .dwattr $C$DW$112, DW_AT_TI_begin_column(0x13)
    4044                      .dwattr $C$DW$112, DW_AT_TI_interrupt
    4045                      .dwattr $C$DW$112, DW_AT_TI_max_frame_size(-4)
    4046                      .dwpsn  file "../source/DSP2803x_SWPrioritizedDefaultIsr.c",line 1325,column 1,is_stmt,address _ADCIN
    4047              
    4048                      .dwfde $C$DW$CIE, _ADCINT6_ISR
    4049              
    4050              ;***************************************************************
    4051              ;* FNAME: _ADCINT6_ISR                  FR SIZE:   2           *
    4052              ;*                                                             *
    4053              ;* FUNCTION ENVIRONMENT                                        *
    4054              ;*                                                             *
    4055              ;* FUNCTION PROPERTIES                                         *
    4056              ;*                            0 Parameter,  1 Auto,  0 SOE     *
    4057              ;***************************************************************
    4058              
    4059              _ADCINT6_ISR:
    4060              $C$DW$113       .dwtag  DW_TAG_variable, DW_AT_name("TempPIEIER")
    4061                      .dwattr $C$DW$113, DW_AT_TI_symbol_name("_TempPIEIER")
    4062                      .dwattr $C$DW$113, DW_AT_type(*$C$DW$T$33)
    4063                      .dwattr $C$DW$113, DW_AT_location[DW_OP_breg20 -1]
    4064                      .dwcfi  cfa_offset, -2
    4065                      .dwcfi  save_reg_to_mem, 26, 0
    4066 00000443 761B          ASP       ; [CPU_] 
    4067 00000444 FE02          ADDB      SP,#2                 ; [CPU_U] 
    4068                      .dwcfi  cfa_offset, -4
    4069 00000445 2942          CLRC      PAGE0,OVM             ; [CPU_] 
    4070 00000446 5616          CLRC      AMODE                 ; [CPU_] 
    4071 00000447 761F!         MOVW      DP,#_PieCtrlRegs+20   ; [CPU_U] 
         00000448 0000 
    4072                      .dwpsn  file "../source/DSP2803x_SWPrioritizedDefaultIsr.c",line 1327,column 29,is_stmt,isa 0
    4073 00000449 9214!         MOV       AL,@_PieCtrlRegs+20   ; [CPU_] |1327| 
    4074 0000044a 9641          MOV       *-SP[1],AL            ; [CPU_] |1327| 
    4075                      .dwpsn  file "../source/DSP2803x_SWPrioritizedDefaultIsr.c",line 1328,column 2,is_stmt,isa 0
    4076 0000044b 7623          OR        IER,#0x0200           ; [CPU_] |1328| 
         0000044c 0200 
    4077                      .dwpsn  file "../source/DSP2803x_SWPrioritizedDefaultIsr.c",line 1329,column 2,is_stmt,isa 0
    4078 0000044d 7626          AND       IER,#0xf3bf           ; [CPU_] |1329| 
         0000044e F3BF 
    4079                      .dwpsn  file "../source/DSP2803x_SWPrioritizedDefaultIsr.c",line 1330,column 2,is_stmt,isa 0
    4080 0000044f 1814!         AND       @_PieCtrlRegs+20,#0x009c ; [CPU_] |1330| 
         00000450 009C 
    4081                      .dwpsn  file "../source/DSP2803x_SWPrioritizedDefaultIsr.c",line 1331,column 2,is_stmt,isa 0
    4082 00000451 2801!         MOV       @_PieCtrlRegs+1,#65535 ; [CPU_] |1331| 
         00000452 FFFF 
    4083 00000453 2910   clrc INTM
    4084 00000454 3B10   setc INTM
TMS320C2000 Assembler PC v6.4.12 Thu Nov 16 10:01:32 2017

Tools Copyright (c) 1996-2017 Texas Instruments Incorporated
C:\Users\Admin\AppData\Local\Temp\0610810                            PAGE   79

    4085                      .dwpsn  file "../source/DSP2803x_SWPrioritizedDefaultIsr.c",line 1338,column 2,is_stmt,isa 0
    4086 00000455 9241          MOV       AL,*-SP[1]            ; [CPU_] |1338| 
    4087 00000456 9614!         MOV       @_PieCtrlRegs+20,AL   ; [CPU_] |1338| 
    4088 00000457 7625        ESTOP0
    4089 00000458       $C$L67:    
    4090                      .dwpsn  file "../source/DSP2803x_SWPrioritizedDefaultIsr.c",line 1343,column 5,is_stmt,isa 0
    4091 00000458 6F00          B         $C$L67,UNC            ; [CPU_] |1343| 
    4092                      ; branch occurs ; [] |1343| 
    4093                      .dwattr $C$DW$112, DW_AT_TI_end_file("../source/DSP2803x_SWPrioritizedDefaultIsr.c")
    4094                      .dwattr $C$DW$112, DW_AT_TI_end_line(0x541)
    4095                      .dwattr $C$DW$112, DW_AT_TI_end_column(0x01)
    4096                      .dwendentry
    4097                      .dwendtag $C$DW$112
    4098              
    4099 00000459               .sect   ".text:retain"
    4100                      .retain
    4101                      .retainrefs
    4102                      .global _ADCINT5_ISR
    4103              
    4104              $C$DW$114       .dwtag  DW_TAG_subprogram, DW_AT_name("ADCINT5_ISR")
    4105                      .dwattr $C$DW$114, DW_AT_low_pc(_ADCINT5_ISR)
    4106                      .dwattr $C$DW$114, DW_AT_high_pc(0x00)
    4107                      .dwattr $C$DW$114, DW_AT_TI_symbol_name("_ADCINT5_ISR")
    4108                      .dwattr $C$DW$114, DW_AT_external
    4109                      .dwattr $C$DW$114, DW_AT_TI_begin_file("../source/DSP2803x_SWPrioritizedDefaultIsr.c")
    4110                      .dwattr $C$DW$114, DW_AT_TI_begin_line(0x514)
    4111                      .dwattr $C$DW$114, DW_AT_TI_begin_column(0x13)
    4112                      .dwattr $C$DW$114, DW_AT_TI_interrupt
    4113                      .dwattr $C$DW$114, DW_AT_TI_max_frame_size(-4)
    4114                      .dwpsn  file "../source/DSP2803x_SWPrioritizedDefaultIsr.c",line 1301,column 1,is_stmt,address _ADCIN
    4115              
    4116                      .dwfde $C$DW$CIE, _ADCINT5_ISR
    4117              
    4118              ;***************************************************************
    4119              ;* FNAME: _ADCINT5_ISR                  FR SIZE:   2           *
    4120              ;*                                                             *
    4121              ;* FUNCTION ENVIRONMENT                                        *
    4122              ;*                                                             *
    4123              ;* FUNCTION PROPERTIES                                         *
    4124              ;*                            0 Parameter,  1 Auto,  0 SOE     *
    4125              ;***************************************************************
    4126              
    4127              _ADCINT5_ISR:
    4128              $C$DW$115       .dwtag  DW_TAG_variable, DW_AT_name("TempPIEIER")
    4129                      .dwattr $C$DW$115, DW_AT_TI_symbol_name("_TempPIEIER")
    4130                      .dwattr $C$DW$115, DW_AT_type(*$C$DW$T$33)
    4131                      .dwattr $C$DW$115, DW_AT_location[DW_OP_breg20 -1]
    4132                      .dwcfi  cfa_offset, -2
    4133                      .dwcfi  save_reg_to_mem, 26, 0
    4134 00000459 761B          ASP       ; [CPU_] 
    4135 0000045a FE02          ADDB      SP,#2                 ; [CPU_U] 
    4136                      .dwcfi  cfa_offset, -4
    4137 0000045b 2942          CLRC      PAGE0,OVM             ; [CPU_] 
    4138 0000045c 5616          CLRC      AMODE                 ; [CPU_] 
    4139 0000045d 761F!         MOVW      DP,#_PieCtrlRegs+20   ; [CPU_U] 
TMS320C2000 Assembler PC v6.4.12 Thu Nov 16 10:01:32 2017

Tools Copyright (c) 1996-2017 Texas Instruments Incorporated
C:\Users\Admin\AppData\Local\Temp\0610810                            PAGE   80

         0000045e 0000 
    4140                      .dwpsn  file "../source/DSP2803x_SWPrioritizedDefaultIsr.c",line 1303,column 29,is_stmt,isa 0
    4141 0000045f 9214!         MOV       AL,@_PieCtrlRegs+20   ; [CPU_] |1303| 
    4142 00000460 9641          MOV       *-SP[1],AL            ; [CPU_] |1303| 
    4143                      .dwpsn  file "../source/DSP2803x_SWPrioritizedDefaultIsr.c",line 1304,column 2,is_stmt,isa 0
    4144 00000461 7623          OR        IER,#0xf3bf           ; [CPU_] |1304| 
         00000462 F3BF 
    4145                      .dwpsn  file "../source/DSP2803x_SWPrioritizedDefaultIsr.c",line 1305,column 2,is_stmt,isa 0
    4146 00000463 1814!         AND       @_PieCtrlRegs+20,#0x008c ; [CPU_] |1305| 
         00000464 008C 
    4147                      .dwpsn  file "../source/DSP2803x_SWPrioritizedDefaultIsr.c",line 1306,column 2,is_stmt,isa 0
    4148 00000465 2801!         MOV       @_PieCtrlRegs+1,#65535 ; [CPU_] |1306| 
         00000466 FFFF 
    4149 00000467 2910   clrc INTM
    4150 00000468 3B10   setc INTM
    4151                      .dwpsn  file "../source/DSP2803x_SWPrioritizedDefaultIsr.c",line 1313,column 2,is_stmt,isa 0
    4152 00000469 9241          MOV       AL,*-SP[1]            ; [CPU_] |1313| 
    4153 0000046a 9614!         MOV       @_PieCtrlRegs+20,AL   ; [CPU_] |1313| 
    4154 0000046b 7625        ESTOP0
    4155 0000046c       $C$L68:    
    4156                      .dwpsn  file "../source/DSP2803x_SWPrioritizedDefaultIsr.c",line 1318,column 5,is_stmt,isa 0
    4157 0000046c 6F00          B         $C$L68,UNC            ; [CPU_] |1318| 
    4158                      ; branch occurs ; [] |1318| 
    4159                      .dwattr $C$DW$114, DW_AT_TI_end_file("../source/DSP2803x_SWPrioritizedDefaultIsr.c")
    4160                      .dwattr $C$DW$114, DW_AT_TI_end_line(0x527)
    4161                      .dwattr $C$DW$114, DW_AT_TI_end_column(0x01)
    4162                      .dwendentry
    4163                      .dwendtag $C$DW$114
    4164              
    4165 0000046d               .sect   ".text:retain"
    4166                      .retain
    4167                      .retainrefs
    4168                      .global _ADCINT4_ISR
    4169              
    4170              $C$DW$116       .dwtag  DW_TAG_subprogram, DW_AT_name("ADCINT4_ISR")
    4171                      .dwattr $C$DW$116, DW_AT_low_pc(_ADCINT4_ISR)
    4172                      .dwattr $C$DW$116, DW_AT_high_pc(0x00)
    4173                      .dwattr $C$DW$116, DW_AT_TI_symbol_name("_ADCINT4_ISR")
    4174                      .dwattr $C$DW$116, DW_AT_external
    4175                      .dwattr $C$DW$116, DW_AT_TI_begin_file("../source/DSP2803x_SWPrioritizedDefaultIsr.c")
    4176                      .dwattr $C$DW$116, DW_AT_TI_begin_line(0x4fe)
    4177                      .dwattr $C$DW$116, DW_AT_TI_begin_column(0x13)
    4178                      .dwattr $C$DW$116, DW_AT_TI_interrupt
    4179                      .dwattr $C$DW$116, DW_AT_TI_max_frame_size(-4)
    4180                      .dwpsn  file "../source/DSP2803x_SWPrioritizedDefaultIsr.c",line 1279,column 1,is_stmt,address _ADCIN
    4181              
    4182                      .dwfde $C$DW$CIE, _ADCINT4_ISR
    4183              
    4184              ;***************************************************************
    4185              ;* FNAME: _ADCINT4_ISR                  FR SIZE:   2           *
    4186              ;*                                                             *
    4187              ;* FUNCTION ENVIRONMENT                                        *
    4188              ;*                                                             *
    4189              ;* FUNCTION PROPERTIES                                         *
    4190              ;*                            0 Parameter,  1 Auto,  0 SOE     *
TMS320C2000 Assembler PC v6.4.12 Thu Nov 16 10:01:32 2017

Tools Copyright (c) 1996-2017 Texas Instruments Incorporated
C:\Users\Admin\AppData\Local\Temp\0610810                            PAGE   81

    4191              ;***************************************************************
    4192              
    4193              _ADCINT4_ISR:
    4194              $C$DW$117       .dwtag  DW_TAG_variable, DW_AT_name("TempPIEIER")
    4195                      .dwattr $C$DW$117, DW_AT_TI_symbol_name("_TempPIEIER")
    4196                      .dwattr $C$DW$117, DW_AT_type(*$C$DW$T$33)
    4197                      .dwattr $C$DW$117, DW_AT_location[DW_OP_breg20 -1]
    4198                      .dwcfi  cfa_offset, -2
    4199                      .dwcfi  save_reg_to_mem, 26, 0
    4200 0000046d 761B          ASP       ; [CPU_] 
    4201 0000046e FE02          ADDB      SP,#2                 ; [CPU_U] 
    4202                      .dwcfi  cfa_offset, -4
    4203 0000046f 2942          CLRC      PAGE0,OVM             ; [CPU_] 
    4204 00000470 5616          CLRC      AMODE                 ; [CPU_] 
    4205 00000471 761F!         MOVW      DP,#_PieCtrlRegs+20   ; [CPU_U] 
         00000472 0000 
    4206                      .dwpsn  file "../source/DSP2803x_SWPrioritizedDefaultIsr.c",line 1281,column 29,is_stmt,isa 0
    4207 00000473 9214!         MOV       AL,@_PieCtrlRegs+20   ; [CPU_] |1281| 
    4208 00000474 9641          MOV       *-SP[1],AL            ; [CPU_] |1281| 
    4209                      .dwpsn  file "../source/DSP2803x_SWPrioritizedDefaultIsr.c",line 1282,column 2,is_stmt,isa 0
    4210 00000475 7623          OR        IER,#0xf3bf           ; [CPU_] |1282| 
         00000476 F3BF 
    4211                      .dwpsn  file "../source/DSP2803x_SWPrioritizedDefaultIsr.c",line 1283,column 2,is_stmt,isa 0
    4212 00000477 1814!         AND       @_PieCtrlRegs+20,#0x0084 ; [CPU_] |1283| 
         00000478 0084 
    4213                      .dwpsn  file "../source/DSP2803x_SWPrioritizedDefaultIsr.c",line 1284,column 2,is_stmt,isa 0
    4214 00000479 2801!         MOV       @_PieCtrlRegs+1,#65535 ; [CPU_] |1284| 
         0000047a FFFF 
    4215 0000047b 2910   clrc INTM
    4216 0000047c 3B10   setc INTM
    4217                      .dwpsn  file "../source/DSP2803x_SWPrioritizedDefaultIsr.c",line 1289,column 2,is_stmt,isa 0
    4218 0000047d 9241          MOV       AL,*-SP[1]            ; [CPU_] |1289| 
    4219 0000047e 9614!         MOV       @_PieCtrlRegs+20,AL   ; [CPU_] |1289| 
    4220 0000047f 7625        ESTOP0
    4221 00000480       $C$L69:    
    4222                      .dwpsn  file "../source/DSP2803x_SWPrioritizedDefaultIsr.c",line 1294,column 5,is_stmt,isa 0
    4223 00000480 6F00          B         $C$L69,UNC            ; [CPU_] |1294| 
    4224                      ; branch occurs ; [] |1294| 
    4225                      .dwattr $C$DW$116, DW_AT_TI_end_file("../source/DSP2803x_SWPrioritizedDefaultIsr.c")
    4226                      .dwattr $C$DW$116, DW_AT_TI_end_line(0x50f)
    4227                      .dwattr $C$DW$116, DW_AT_TI_end_column(0x01)
    4228                      .dwendentry
    4229                      .dwendtag $C$DW$116
    4230              
    4231 00000481               .sect   ".text:retain"
    4232                      .retain
    4233                      .retainrefs
    4234                      .global _ADCINT3_ISR
    4235              
    4236              $C$DW$118       .dwtag  DW_TAG_subprogram, DW_AT_name("ADCINT3_ISR")
    4237                      .dwattr $C$DW$118, DW_AT_low_pc(_ADCINT3_ISR)
    4238                      .dwattr $C$DW$118, DW_AT_high_pc(0x00)
    4239                      .dwattr $C$DW$118, DW_AT_TI_symbol_name("_ADCINT3_ISR")
    4240                      .dwattr $C$DW$118, DW_AT_external
    4241                      .dwattr $C$DW$118, DW_AT_TI_begin_file("../source/DSP2803x_SWPrioritizedDefaultIsr.c")
TMS320C2000 Assembler PC v6.4.12 Thu Nov 16 10:01:32 2017

Tools Copyright (c) 1996-2017 Texas Instruments Incorporated
C:\Users\Admin\AppData\Local\Temp\0610810                            PAGE   82

    4242                      .dwattr $C$DW$118, DW_AT_TI_begin_line(0x4e8)
    4243                      .dwattr $C$DW$118, DW_AT_TI_begin_column(0x13)
    4244                      .dwattr $C$DW$118, DW_AT_TI_interrupt
    4245                      .dwattr $C$DW$118, DW_AT_TI_max_frame_size(-4)
    4246                      .dwpsn  file "../source/DSP2803x_SWPrioritizedDefaultIsr.c",line 1257,column 1,is_stmt,address _ADCIN
    4247              
    4248                      .dwfde $C$DW$CIE, _ADCINT3_ISR
    4249              
    4250              ;***************************************************************
    4251              ;* FNAME: _ADCINT3_ISR                  FR SIZE:   2           *
    4252              ;*                                                             *
    4253              ;* FUNCTION ENVIRONMENT                                        *
    4254              ;*                                                             *
    4255              ;* FUNCTION PROPERTIES                                         *
    4256              ;*                            0 Parameter,  1 Auto,  0 SOE     *
    4257              ;***************************************************************
    4258              
    4259              _ADCINT3_ISR:
    4260              $C$DW$119       .dwtag  DW_TAG_variable, DW_AT_name("TempPIEIER")
    4261                      .dwattr $C$DW$119, DW_AT_TI_symbol_name("_TempPIEIER")
    4262                      .dwattr $C$DW$119, DW_AT_type(*$C$DW$T$33)
    4263                      .dwattr $C$DW$119, DW_AT_location[DW_OP_breg20 -1]
    4264                      .dwcfi  cfa_offset, -2
    4265                      .dwcfi  save_reg_to_mem, 26, 0
    4266 00000481 761B          ASP       ; [CPU_] 
    4267 00000482 FE02          ADDB      SP,#2                 ; [CPU_U] 
    4268                      .dwcfi  cfa_offset, -4
    4269 00000483 2942          CLRC      PAGE0,OVM             ; [CPU_] 
    4270 00000484 5616          CLRC      AMODE                 ; [CPU_] 
    4271 00000485 761F!         MOVW      DP,#_PieCtrlRegs+20   ; [CPU_U] 
         00000486 0000 
    4272                      .dwpsn  file "../source/DSP2803x_SWPrioritizedDefaultIsr.c",line 1259,column 29,is_stmt,isa 0
    4273 00000487 9214!         MOV       AL,@_PieCtrlRegs+20   ; [CPU_] |1259| 
    4274 00000488 9641          MOV       *-SP[1],AL            ; [CPU_] |1259| 
    4275                      .dwpsn  file "../source/DSP2803x_SWPrioritizedDefaultIsr.c",line 1260,column 2,is_stmt,isa 0
    4276 00000489 7623          OR        IER,#0xf3bf           ; [CPU_] |1260| 
         0000048a F3BF 
    4277                      .dwpsn  file "../source/DSP2803x_SWPrioritizedDefaultIsr.c",line 1261,column 2,is_stmt,isa 0
    4278 0000048b 9214!         MOV       AL,@_PieCtrlRegs+20   ; [CPU_] |1261| 
    4279 0000048c 2B14!         MOV       @_PieCtrlRegs+20,#0   ; [CPU_] |1261| 
    4280                      .dwpsn  file "../source/DSP2803x_SWPrioritizedDefaultIsr.c",line 1262,column 2,is_stmt,isa 0
    4281 0000048d 2801!         MOV       @_PieCtrlRegs+1,#65535 ; [CPU_] |1262| 
         0000048e FFFF 
    4282 0000048f 2910   clrc INTM
    4283 00000490 3B10   setc INTM
    4284                      .dwpsn  file "../source/DSP2803x_SWPrioritizedDefaultIsr.c",line 1267,column 2,is_stmt,isa 0
    4285 00000491 9241          MOV       AL,*-SP[1]            ; [CPU_] |1267| 
    4286 00000492 9614!         MOV       @_PieCtrlRegs+20,AL   ; [CPU_] |1267| 
    4287 00000493 7625        ESTOP0
    4288 00000494       $C$L70:    
    4289                      .dwpsn  file "../source/DSP2803x_SWPrioritizedDefaultIsr.c",line 1272,column 5,is_stmt,isa 0
    4290 00000494 6F00          B         $C$L70,UNC            ; [CPU_] |1272| 
    4291                      ; branch occurs ; [] |1272| 
    4292                      .dwattr $C$DW$118, DW_AT_TI_end_file("../source/DSP2803x_SWPrioritizedDefaultIsr.c")
    4293                      .dwattr $C$DW$118, DW_AT_TI_end_line(0x4f9)
TMS320C2000 Assembler PC v6.4.12 Thu Nov 16 10:01:32 2017

Tools Copyright (c) 1996-2017 Texas Instruments Incorporated
C:\Users\Admin\AppData\Local\Temp\0610810                            PAGE   83

    4294                      .dwattr $C$DW$118, DW_AT_TI_end_column(0x01)
    4295                      .dwendentry
    4296                      .dwendtag $C$DW$118
    4297              
    4298 00000495               .sect   ".text:retain"
    4299                      .retain
    4300                      .retainrefs
    4301                      .global _ADCINT2_ISR
    4302              
    4303              $C$DW$120       .dwtag  DW_TAG_subprogram, DW_AT_name("ADCINT2_ISR")
    4304                      .dwattr $C$DW$120, DW_AT_low_pc(_ADCINT2_ISR)
    4305                      .dwattr $C$DW$120, DW_AT_high_pc(0x00)
    4306                      .dwattr $C$DW$120, DW_AT_TI_symbol_name("_ADCINT2_ISR")
    4307                      .dwattr $C$DW$120, DW_AT_external
    4308                      .dwattr $C$DW$120, DW_AT_TI_begin_file("../source/DSP2803x_SWPrioritizedDefaultIsr.c")
    4309                      .dwattr $C$DW$120, DW_AT_TI_begin_line(0x12a)
    4310                      .dwattr $C$DW$120, DW_AT_TI_begin_column(0x12)
    4311                      .dwattr $C$DW$120, DW_AT_TI_interrupt
    4312                      .dwattr $C$DW$120, DW_AT_TI_max_frame_size(-4)
    4313                      .dwpsn  file "../source/DSP2803x_SWPrioritizedDefaultIsr.c",line 299,column 1,is_stmt,address _ADCINT
    4314              
    4315                      .dwfde $C$DW$CIE, _ADCINT2_ISR
    4316              
    4317              ;***************************************************************
    4318              ;* FNAME: _ADCINT2_ISR                  FR SIZE:   2           *
    4319              ;*                                                             *
    4320              ;* FUNCTION ENVIRONMENT                                        *
    4321              ;*                                                             *
    4322              ;* FUNCTION PROPERTIES                                         *
    4323              ;*                            0 Parameter,  1 Auto,  0 SOE     *
    4324              ;***************************************************************
    4325              
    4326              _ADCINT2_ISR:
    4327              $C$DW$121       .dwtag  DW_TAG_variable, DW_AT_name("TempPIEIER")
    4328                      .dwattr $C$DW$121, DW_AT_TI_symbol_name("_TempPIEIER")
    4329                      .dwattr $C$DW$121, DW_AT_type(*$C$DW$T$33)
    4330                      .dwattr $C$DW$121, DW_AT_location[DW_OP_breg20 -1]
    4331                      .dwcfi  cfa_offset, -2
    4332                      .dwcfi  save_reg_to_mem, 26, 0
    4333 00000495 761B          ASP       ; [CPU_] 
    4334 00000496 FE02          ADDB      SP,#2                 ; [CPU_U] 
    4335                      .dwcfi  cfa_offset, -4
    4336 00000497 2942          CLRC      PAGE0,OVM             ; [CPU_] 
    4337 00000498 5616          CLRC      AMODE                 ; [CPU_] 
    4338 00000499 761F!         MOVW      DP,#_PieCtrlRegs+2    ; [CPU_U] 
         0000049a 0000 
    4339                      .dwpsn  file "../source/DSP2803x_SWPrioritizedDefaultIsr.c",line 301,column 29,is_stmt,isa 0
    4340 0000049b 9202!         MOV       AL,@_PieCtrlRegs+2    ; [CPU_] |301| 
    4341 0000049c 9641          MOV       *-SP[1],AL            ; [CPU_] |301| 
    4342                      .dwpsn  file "../source/DSP2803x_SWPrioritizedDefaultIsr.c",line 302,column 2,is_stmt,isa 0
    4343 0000049d 7623          OR        IER,#0x0001           ; [CPU_] |302| 
         0000049e 0001 
    4344                      .dwpsn  file "../source/DSP2803x_SWPrioritizedDefaultIsr.c",line 303,column 2,is_stmt,isa 0
    4345 0000049f 7626          AND       IER,#0x0003           ; [CPU_] |303| 
         000004a0 0003 
TMS320C2000 Assembler PC v6.4.12 Thu Nov 16 10:01:32 2017

Tools Copyright (c) 1996-2017 Texas Instruments Incorporated
C:\Users\Admin\AppData\Local\Temp\0610810                            PAGE   84

    4346                      .dwpsn  file "../source/DSP2803x_SWPrioritizedDefaultIsr.c",line 304,column 2,is_stmt,isa 0
    4347 000004a1 1802!         AND       @_PieCtrlRegs+2,#0x00f8 ; [CPU_] |304| 
         000004a2 00F8 
    4348                      .dwpsn  file "../source/DSP2803x_SWPrioritizedDefaultIsr.c",line 305,column 2,is_stmt,isa 0
    4349 000004a3 2801!         MOV       @_PieCtrlRegs+1,#65535 ; [CPU_] |305| 
         000004a4 FFFF 
    4350 000004a5 2910   clrc INTM
    4351 000004a6 3B10   setc INTM
    4352                      .dwpsn  file "../source/DSP2803x_SWPrioritizedDefaultIsr.c",line 312,column 2,is_stmt,isa 0
    4353 000004a7 9241          MOV       AL,*-SP[1]            ; [CPU_] |312| 
    4354 000004a8 9602!         MOV       @_PieCtrlRegs+2,AL    ; [CPU_] |312| 
    4355 000004a9 7625        ESTOP0
    4356 000004aa       $C$L71:    
    4357                      .dwpsn  file "../source/DSP2803x_SWPrioritizedDefaultIsr.c",line 317,column 5,is_stmt,isa 0
    4358 000004aa 6F00          B         $C$L71,UNC            ; [CPU_] |317| 
    4359                      ; branch occurs ; [] |317| 
    4360                      .dwattr $C$DW$120, DW_AT_TI_end_file("../source/DSP2803x_SWPrioritizedDefaultIsr.c")
    4361                      .dwattr $C$DW$120, DW_AT_TI_end_line(0x13f)
    4362                      .dwattr $C$DW$120, DW_AT_TI_end_column(0x01)
    4363                      .dwendentry
    4364                      .dwendtag $C$DW$120
    4365              
    4366 000004ab               .sect   ".text:retain"
    4367                      .retain
    4368                      .retainrefs
    4369                      .global _ADCINT1_ISR
    4370              
    4371              $C$DW$122       .dwtag  DW_TAG_subprogram, DW_AT_name("ADCINT1_ISR")
    4372                      .dwattr $C$DW$122, DW_AT_low_pc(_ADCINT1_ISR)
    4373                      .dwattr $C$DW$122, DW_AT_high_pc(0x00)
    4374                      .dwattr $C$DW$122, DW_AT_TI_symbol_name("_ADCINT1_ISR")
    4375                      .dwattr $C$DW$122, DW_AT_external
    4376                      .dwattr $C$DW$122, DW_AT_TI_begin_file("../source/DSP2803x_SWPrioritizedDefaultIsr.c")
    4377                      .dwattr $C$DW$122, DW_AT_TI_begin_line(0x110)
    4378                      .dwattr $C$DW$122, DW_AT_TI_begin_column(0x12)
    4379                      .dwattr $C$DW$122, DW_AT_TI_interrupt
    4380                      .dwattr $C$DW$122, DW_AT_TI_max_frame_size(-4)
    4381                      .dwpsn  file "../source/DSP2803x_SWPrioritizedDefaultIsr.c",line 273,column 1,is_stmt,address _ADCINT
    4382              
    4383                      .dwfde $C$DW$CIE, _ADCINT1_ISR
    4384              
    4385              ;***************************************************************
    4386              ;* FNAME: _ADCINT1_ISR                  FR SIZE:   2           *
    4387              ;*                                                             *
    4388              ;* FUNCTION ENVIRONMENT                                        *
    4389              ;*                                                             *
    4390              ;* FUNCTION PROPERTIES                                         *
    4391              ;*                            0 Parameter,  1 Auto,  0 SOE     *
    4392              ;***************************************************************
    4393              
    4394              _ADCINT1_ISR:
    4395              $C$DW$123       .dwtag  DW_TAG_variable, DW_AT_name("TempPIEIER")
    4396                      .dwattr $C$DW$123, DW_AT_TI_symbol_name("_TempPIEIER")
    4397                      .dwattr $C$DW$123, DW_AT_type(*$C$DW$T$33)
    4398                      .dwattr $C$DW$123, DW_AT_location[DW_OP_breg20 -1]
TMS320C2000 Assembler PC v6.4.12 Thu Nov 16 10:01:32 2017

Tools Copyright (c) 1996-2017 Texas Instruments Incorporated
C:\Users\Admin\AppData\Local\Temp\0610810                            PAGE   85

    4399                      .dwcfi  cfa_offset, -2
    4400                      .dwcfi  save_reg_to_mem, 26, 0
    4401 000004ab 761B          ASP       ; [CPU_] 
    4402 000004ac FE02          ADDB      SP,#2                 ; [CPU_U] 
    4403                      .dwcfi  cfa_offset, -4
    4404 000004ad 2942          CLRC      PAGE0,OVM             ; [CPU_] 
    4405 000004ae 5616          CLRC      AMODE                 ; [CPU_] 
    4406 000004af 761F!         MOVW      DP,#_PieCtrlRegs+2    ; [CPU_U] 
         000004b0 0000 
    4407                      .dwpsn  file "../source/DSP2803x_SWPrioritizedDefaultIsr.c",line 275,column 29,is_stmt,isa 0
    4408 000004b1 9202!         MOV       AL,@_PieCtrlRegs+2    ; [CPU_] |275| 
    4409 000004b2 9641          MOV       *-SP[1],AL            ; [CPU_] |275| 
    4410                      .dwpsn  file "../source/DSP2803x_SWPrioritizedDefaultIsr.c",line 276,column 2,is_stmt,isa 0
    4411 000004b3 7623          OR        IER,#0x0001           ; [CPU_] |276| 
         000004b4 0001 
    4412                      .dwpsn  file "../source/DSP2803x_SWPrioritizedDefaultIsr.c",line 277,column 2,is_stmt,isa 0
    4413 000004b5 7626          AND       IER,#0x0003           ; [CPU_] |277| 
         000004b6 0003 
    4414                      .dwpsn  file "../source/DSP2803x_SWPrioritizedDefaultIsr.c",line 278,column 2,is_stmt,isa 0
    4415 000004b7 1802!         AND       @_PieCtrlRegs+2,#0x00fa ; [CPU_] |278| 
         000004b8 00FA 
    4416                      .dwpsn  file "../source/DSP2803x_SWPrioritizedDefaultIsr.c",line 279,column 2,is_stmt,isa 0
    4417 000004b9 2801!         MOV       @_PieCtrlRegs+1,#65535 ; [CPU_] |279| 
         000004ba FFFF 
    4418 000004bb 2910   clrc INTM
    4419 000004bc 3B10   setc INTM
    4420                      .dwpsn  file "../source/DSP2803x_SWPrioritizedDefaultIsr.c",line 286,column 2,is_stmt,isa 0
    4421 000004bd 9241          MOV       AL,*-SP[1]            ; [CPU_] |286| 
    4422 000004be 9602!         MOV       @_PieCtrlRegs+2,AL    ; [CPU_] |286| 
    4423 000004bf 7625        ESTOP0
    4424 000004c0       $C$L72:    
    4425                      .dwpsn  file "../source/DSP2803x_SWPrioritizedDefaultIsr.c",line 291,column 5,is_stmt,isa 0
    4426 000004c0 6F00          B         $C$L72,UNC            ; [CPU_] |291| 
    4427                      ; branch occurs ; [] |291| 
    4428                      .dwattr $C$DW$122, DW_AT_TI_end_file("../source/DSP2803x_SWPrioritizedDefaultIsr.c")
    4429                      .dwattr $C$DW$122, DW_AT_TI_end_line(0x125)
    4430                      .dwattr $C$DW$122, DW_AT_TI_end_column(0x01)
    4431                      .dwendentry
    4432                      .dwendtag $C$DW$122
    4433              
    4434              ;**************************************************************
    4435              ;* UNDEFINED EXTERNAL REFERENCES                              *
    4436              ;**************************************************************
    4437                      .global _PieCtrlRegs
    4438              
    4439              ;***************************************************************
    4440              ;* TYPE INFORMATION                                            *
    4441              ;***************************************************************
    4442              
    4443              $C$DW$T$20      .dwtag  DW_TAG_structure_type
    4444                      .dwattr $C$DW$T$20, DW_AT_name("PIEACK_BITS")
    4445                      .dwattr $C$DW$T$20, DW_AT_byte_size(0x01)
    4446              $C$DW$124       .dwtag  DW_TAG_member
    4447                      .dwattr $C$DW$124, DW_AT_type(*$C$DW$T$19)
    4448                      .dwattr $C$DW$124, DW_AT_name("ACK1")
TMS320C2000 Assembler PC v6.4.12 Thu Nov 16 10:01:32 2017

Tools Copyright (c) 1996-2017 Texas Instruments Incorporated
C:\Users\Admin\AppData\Local\Temp\0610810                            PAGE   86

    4449                      .dwattr $C$DW$124, DW_AT_TI_symbol_name("_ACK1")
    4450                      .dwattr $C$DW$124, DW_AT_bit_offset(0x0f), DW_AT_bit_size(0x01)
    4451                      .dwattr $C$DW$124, DW_AT_data_member_location[DW_OP_plus_uconst 0x0]
    4452                      .dwattr $C$DW$124, DW_AT_accessibility(DW_ACCESS_public)
    4453              $C$DW$125       .dwtag  DW_TAG_member
    4454                      .dwattr $C$DW$125, DW_AT_type(*$C$DW$T$19)
    4455                      .dwattr $C$DW$125, DW_AT_name("ACK2")
    4456                      .dwattr $C$DW$125, DW_AT_TI_symbol_name("_ACK2")
    4457                      .dwattr $C$DW$125, DW_AT_bit_offset(0x0e), DW_AT_bit_size(0x01)
    4458                      .dwattr $C$DW$125, DW_AT_data_member_location[DW_OP_plus_uconst 0x0]
    4459                      .dwattr $C$DW$125, DW_AT_accessibility(DW_ACCESS_public)
    4460              $C$DW$126       .dwtag  DW_TAG_member
    4461                      .dwattr $C$DW$126, DW_AT_type(*$C$DW$T$19)
    4462                      .dwattr $C$DW$126, DW_AT_name("ACK3")
    4463                      .dwattr $C$DW$126, DW_AT_TI_symbol_name("_ACK3")
    4464                      .dwattr $C$DW$126, DW_AT_bit_offset(0x0d), DW_AT_bit_size(0x01)
    4465                      .dwattr $C$DW$126, DW_AT_data_member_location[DW_OP_plus_uconst 0x0]
    4466                      .dwattr $C$DW$126, DW_AT_accessibility(DW_ACCESS_public)
    4467              $C$DW$127       .dwtag  DW_TAG_member
    4468                      .dwattr $C$DW$127, DW_AT_type(*$C$DW$T$19)
    4469                      .dwattr $C$DW$127, DW_AT_name("ACK4")
    4470                      .dwattr $C$DW$127, DW_AT_TI_symbol_name("_ACK4")
    4471                      .dwattr $C$DW$127, DW_AT_bit_offset(0x0c), DW_AT_bit_size(0x01)
    4472                      .dwattr $C$DW$127, DW_AT_data_member_location[DW_OP_plus_uconst 0x0]
    4473                      .dwattr $C$DW$127, DW_AT_accessibility(DW_ACCESS_public)
    4474              $C$DW$128       .dwtag  DW_TAG_member
    4475                      .dwattr $C$DW$128, DW_AT_type(*$C$DW$T$19)
    4476                      .dwattr $C$DW$128, DW_AT_name("ACK5")
    4477                      .dwattr $C$DW$128, DW_AT_TI_symbol_name("_ACK5")
    4478                      .dwattr $C$DW$128, DW_AT_bit_offset(0x0b), DW_AT_bit_size(0x01)
    4479                      .dwattr $C$DW$128, DW_AT_data_member_location[DW_OP_plus_uconst 0x0]
    4480                      .dwattr $C$DW$128, DW_AT_accessibility(DW_ACCESS_public)
    4481              $C$DW$129       .dwtag  DW_TAG_member
    4482                      .dwattr $C$DW$129, DW_AT_type(*$C$DW$T$19)
    4483                      .dwattr $C$DW$129, DW_AT_name("ACK6")
    4484                      .dwattr $C$DW$129, DW_AT_TI_symbol_name("_ACK6")
    4485                      .dwattr $C$DW$129, DW_AT_bit_offset(0x0a), DW_AT_bit_size(0x01)
    4486                      .dwattr $C$DW$129, DW_AT_data_member_location[DW_OP_plus_uconst 0x0]
    4487                      .dwattr $C$DW$129, DW_AT_accessibility(DW_ACCESS_public)
    4488              $C$DW$130       .dwtag  DW_TAG_member
    4489                      .dwattr $C$DW$130, DW_AT_type(*$C$DW$T$19)
    4490                      .dwattr $C$DW$130, DW_AT_name("ACK7")
    4491                      .dwattr $C$DW$130, DW_AT_TI_symbol_name("_ACK7")
    4492                      .dwattr $C$DW$130, DW_AT_bit_offset(0x09), DW_AT_bit_size(0x01)
    4493                      .dwattr $C$DW$130, DW_AT_data_member_location[DW_OP_plus_uconst 0x0]
    4494                      .dwattr $C$DW$130, DW_AT_accessibility(DW_ACCESS_public)
    4495              $C$DW$131       .dwtag  DW_TAG_member
    4496                      .dwattr $C$DW$131, DW_AT_type(*$C$DW$T$19)
    4497                      .dwattr $C$DW$131, DW_AT_name("ACK8")
    4498                      .dwattr $C$DW$131, DW_AT_TI_symbol_name("_ACK8")
    4499                      .dwattr $C$DW$131, DW_AT_bit_offset(0x08), DW_AT_bit_size(0x01)
    4500                      .dwattr $C$DW$131, DW_AT_data_member_location[DW_OP_plus_uconst 0x0]
    4501                      .dwattr $C$DW$131, DW_AT_accessibility(DW_ACCESS_public)
    4502              $C$DW$132       .dwtag  DW_TAG_member
    4503                      .dwattr $C$DW$132, DW_AT_type(*$C$DW$T$19)
TMS320C2000 Assembler PC v6.4.12 Thu Nov 16 10:01:32 2017

Tools Copyright (c) 1996-2017 Texas Instruments Incorporated
C:\Users\Admin\AppData\Local\Temp\0610810                            PAGE   87

    4504                      .dwattr $C$DW$132, DW_AT_name("ACK9")
    4505                      .dwattr $C$DW$132, DW_AT_TI_symbol_name("_ACK9")
    4506                      .dwattr $C$DW$132, DW_AT_bit_offset(0x07), DW_AT_bit_size(0x01)
    4507                      .dwattr $C$DW$132, DW_AT_data_member_location[DW_OP_plus_uconst 0x0]
    4508                      .dwattr $C$DW$132, DW_AT_accessibility(DW_ACCESS_public)
    4509              $C$DW$133       .dwtag  DW_TAG_member
    4510                      .dwattr $C$DW$133, DW_AT_type(*$C$DW$T$19)
    4511                      .dwattr $C$DW$133, DW_AT_name("ACK10")
    4512                      .dwattr $C$DW$133, DW_AT_TI_symbol_name("_ACK10")
    4513                      .dwattr $C$DW$133, DW_AT_bit_offset(0x06), DW_AT_bit_size(0x01)
    4514                      .dwattr $C$DW$133, DW_AT_data_member_location[DW_OP_plus_uconst 0x0]
    4515                      .dwattr $C$DW$133, DW_AT_accessibility(DW_ACCESS_public)
    4516              $C$DW$134       .dwtag  DW_TAG_member
    4517                      .dwattr $C$DW$134, DW_AT_type(*$C$DW$T$19)
    4518                      .dwattr $C$DW$134, DW_AT_name("ACK11")
    4519                      .dwattr $C$DW$134, DW_AT_TI_symbol_name("_ACK11")
    4520                      .dwattr $C$DW$134, DW_AT_bit_offset(0x05), DW_AT_bit_size(0x01)
    4521                      .dwattr $C$DW$134, DW_AT_data_member_location[DW_OP_plus_uconst 0x0]
    4522                      .dwattr $C$DW$134, DW_AT_accessibility(DW_ACCESS_public)
    4523              $C$DW$135       .dwtag  DW_TAG_member
    4524                      .dwattr $C$DW$135, DW_AT_type(*$C$DW$T$19)
    4525                      .dwattr $C$DW$135, DW_AT_name("ACK12")
    4526                      .dwattr $C$DW$135, DW_AT_TI_symbol_name("_ACK12")
    4527                      .dwattr $C$DW$135, DW_AT_bit_offset(0x04), DW_AT_bit_size(0x01)
    4528                      .dwattr $C$DW$135, DW_AT_data_member_location[DW_OP_plus_uconst 0x0]
    4529                      .dwattr $C$DW$135, DW_AT_accessibility(DW_ACCESS_public)
    4530              $C$DW$136       .dwtag  DW_TAG_member
    4531                      .dwattr $C$DW$136, DW_AT_type(*$C$DW$T$19)
    4532                      .dwattr $C$DW$136, DW_AT_name("rsvd")
    4533                      .dwattr $C$DW$136, DW_AT_TI_symbol_name("_rsvd")
    4534                      .dwattr $C$DW$136, DW_AT_bit_offset(0x00), DW_AT_bit_size(0x04)
    4535                      .dwattr $C$DW$136, DW_AT_data_member_location[DW_OP_plus_uconst 0x0]
    4536                      .dwattr $C$DW$136, DW_AT_accessibility(DW_ACCESS_public)
    4537                      .dwendtag $C$DW$T$20
    4538              
    4539              
    4540              $C$DW$T$21      .dwtag  DW_TAG_union_type
    4541                      .dwattr $C$DW$T$21, DW_AT_name("PIEACK_REG")
    4542                      .dwattr $C$DW$T$21, DW_AT_byte_size(0x01)
    4543              $C$DW$137       .dwtag  DW_TAG_member
    4544                      .dwattr $C$DW$137, DW_AT_type(*$C$DW$T$19)
    4545                      .dwattr $C$DW$137, DW_AT_name("all")
    4546                      .dwattr $C$DW$137, DW_AT_TI_symbol_name("_all")
    4547                      .dwattr $C$DW$137, DW_AT_data_member_location[DW_OP_plus_uconst 0x0]
    4548                      .dwattr $C$DW$137, DW_AT_accessibility(DW_ACCESS_public)
    4549              $C$DW$138       .dwtag  DW_TAG_member
    4550                      .dwattr $C$DW$138, DW_AT_type(*$C$DW$T$20)
    4551                      .dwattr $C$DW$138, DW_AT_name("bit")
    4552                      .dwattr $C$DW$138, DW_AT_TI_symbol_name("_bit")
    4553                      .dwattr $C$DW$138, DW_AT_data_member_location[DW_OP_plus_uconst 0x0]
    4554                      .dwattr $C$DW$138, DW_AT_accessibility(DW_ACCESS_public)
    4555                      .dwendtag $C$DW$T$21
    4556              
    4557              
    4558              $C$DW$T$22      .dwtag  DW_TAG_structure_type
TMS320C2000 Assembler PC v6.4.12 Thu Nov 16 10:01:32 2017

Tools Copyright (c) 1996-2017 Texas Instruments Incorporated
C:\Users\Admin\AppData\Local\Temp\0610810                            PAGE   88

    4559                      .dwattr $C$DW$T$22, DW_AT_name("PIECTRL_BITS")
    4560                      .dwattr $C$DW$T$22, DW_AT_byte_size(0x01)
    4561              $C$DW$139       .dwtag  DW_TAG_member
    4562                      .dwattr $C$DW$139, DW_AT_type(*$C$DW$T$19)
    4563                      .dwattr $C$DW$139, DW_AT_name("ENPIE")
    4564                      .dwattr $C$DW$139, DW_AT_TI_symbol_name("_ENPIE")
    4565                      .dwattr $C$DW$139, DW_AT_bit_offset(0x0f), DW_AT_bit_size(0x01)
    4566                      .dwattr $C$DW$139, DW_AT_data_member_location[DW_OP_plus_uconst 0x0]
    4567                      .dwattr $C$DW$139, DW_AT_accessibility(DW_ACCESS_public)
    4568              $C$DW$140       .dwtag  DW_TAG_member
    4569                      .dwattr $C$DW$140, DW_AT_type(*$C$DW$T$19)
    4570                      .dwattr $C$DW$140, DW_AT_name("PIEVECT")
    4571                      .dwattr $C$DW$140, DW_AT_TI_symbol_name("_PIEVECT")
    4572                      .dwattr $C$DW$140, DW_AT_bit_offset(0x00), DW_AT_bit_size(0x0f)
    4573                      .dwattr $C$DW$140, DW_AT_data_member_location[DW_OP_plus_uconst 0x0]
    4574                      .dwattr $C$DW$140, DW_AT_accessibility(DW_ACCESS_public)
    4575                      .dwendtag $C$DW$T$22
    4576              
    4577              
    4578              $C$DW$T$23      .dwtag  DW_TAG_union_type
    4579                      .dwattr $C$DW$T$23, DW_AT_name("PIECTRL_REG")
    4580                      .dwattr $C$DW$T$23, DW_AT_byte_size(0x01)
    4581              $C$DW$141       .dwtag  DW_TAG_member
    4582                      .dwattr $C$DW$141, DW_AT_type(*$C$DW$T$19)
    4583                      .dwattr $C$DW$141, DW_AT_name("all")
    4584                      .dwattr $C$DW$141, DW_AT_TI_symbol_name("_all")
    4585                      .dwattr $C$DW$141, DW_AT_data_member_location[DW_OP_plus_uconst 0x0]
    4586                      .dwattr $C$DW$141, DW_AT_accessibility(DW_ACCESS_public)
    4587              $C$DW$142       .dwtag  DW_TAG_member
    4588                      .dwattr $C$DW$142, DW_AT_type(*$C$DW$T$22)
    4589                      .dwattr $C$DW$142, DW_AT_name("bit")
    4590                      .dwattr $C$DW$142, DW_AT_TI_symbol_name("_bit")
    4591                      .dwattr $C$DW$142, DW_AT_data_member_location[DW_OP_plus_uconst 0x0]
    4592                      .dwattr $C$DW$142, DW_AT_accessibility(DW_ACCESS_public)
    4593                      .dwendtag $C$DW$T$23
    4594              
    4595              
    4596              $C$DW$T$24      .dwtag  DW_TAG_structure_type
    4597                      .dwattr $C$DW$T$24, DW_AT_name("PIEIER_BITS")
    4598                      .dwattr $C$DW$T$24, DW_AT_byte_size(0x01)
    4599              $C$DW$143       .dwtag  DW_TAG_member
    4600                      .dwattr $C$DW$143, DW_AT_type(*$C$DW$T$19)
    4601                      .dwattr $C$DW$143, DW_AT_name("INTx1")
    4602                      .dwattr $C$DW$143, DW_AT_TI_symbol_name("_INTx1")
    4603                      .dwattr $C$DW$143, DW_AT_bit_offset(0x0f), DW_AT_bit_size(0x01)
    4604                      .dwattr $C$DW$143, DW_AT_data_member_location[DW_OP_plus_uconst 0x0]
    4605                      .dwattr $C$DW$143, DW_AT_accessibility(DW_ACCESS_public)
    4606              $C$DW$144       .dwtag  DW_TAG_member
    4607                      .dwattr $C$DW$144, DW_AT_type(*$C$DW$T$19)
    4608                      .dwattr $C$DW$144, DW_AT_name("INTx2")
    4609                      .dwattr $C$DW$144, DW_AT_TI_symbol_name("_INTx2")
    4610                      .dwattr $C$DW$144, DW_AT_bit_offset(0x0e), DW_AT_bit_size(0x01)
    4611                      .dwattr $C$DW$144, DW_AT_data_member_location[DW_OP_plus_uconst 0x0]
    4612                      .dwattr $C$DW$144, DW_AT_accessibility(DW_ACCESS_public)
    4613              $C$DW$145       .dwtag  DW_TAG_member
TMS320C2000 Assembler PC v6.4.12 Thu Nov 16 10:01:32 2017

Tools Copyright (c) 1996-2017 Texas Instruments Incorporated
C:\Users\Admin\AppData\Local\Temp\0610810                            PAGE   89

    4614                      .dwattr $C$DW$145, DW_AT_type(*$C$DW$T$19)
    4615                      .dwattr $C$DW$145, DW_AT_name("INTx3")
    4616                      .dwattr $C$DW$145, DW_AT_TI_symbol_name("_INTx3")
    4617                      .dwattr $C$DW$145, DW_AT_bit_offset(0x0d), DW_AT_bit_size(0x01)
    4618                      .dwattr $C$DW$145, DW_AT_data_member_location[DW_OP_plus_uconst 0x0]
    4619                      .dwattr $C$DW$145, DW_AT_accessibility(DW_ACCESS_public)
    4620              $C$DW$146       .dwtag  DW_TAG_member
    4621                      .dwattr $C$DW$146, DW_AT_type(*$C$DW$T$19)
    4622                      .dwattr $C$DW$146, DW_AT_name("INTx4")
    4623                      .dwattr $C$DW$146, DW_AT_TI_symbol_name("_INTx4")
    4624                      .dwattr $C$DW$146, DW_AT_bit_offset(0x0c), DW_AT_bit_size(0x01)
    4625                      .dwattr $C$DW$146, DW_AT_data_member_location[DW_OP_plus_uconst 0x0]
    4626                      .dwattr $C$DW$146, DW_AT_accessibility(DW_ACCESS_public)
    4627              $C$DW$147       .dwtag  DW_TAG_member
    4628                      .dwattr $C$DW$147, DW_AT_type(*$C$DW$T$19)
    4629                      .dwattr $C$DW$147, DW_AT_name("INTx5")
    4630                      .dwattr $C$DW$147, DW_AT_TI_symbol_name("_INTx5")
    4631                      .dwattr $C$DW$147, DW_AT_bit_offset(0x0b), DW_AT_bit_size(0x01)
    4632                      .dwattr $C$DW$147, DW_AT_data_member_location[DW_OP_plus_uconst 0x0]
    4633                      .dwattr $C$DW$147, DW_AT_accessibility(DW_ACCESS_public)
    4634              $C$DW$148       .dwtag  DW_TAG_member
    4635                      .dwattr $C$DW$148, DW_AT_type(*$C$DW$T$19)
    4636                      .dwattr $C$DW$148, DW_AT_name("INTx6")
    4637                      .dwattr $C$DW$148, DW_AT_TI_symbol_name("_INTx6")
    4638                      .dwattr $C$DW$148, DW_AT_bit_offset(0x0a), DW_AT_bit_size(0x01)
    4639                      .dwattr $C$DW$148, DW_AT_data_member_location[DW_OP_plus_uconst 0x0]
    4640                      .dwattr $C$DW$148, DW_AT_accessibility(DW_ACCESS_public)
    4641              $C$DW$149       .dwtag  DW_TAG_member
    4642                      .dwattr $C$DW$149, DW_AT_type(*$C$DW$T$19)
    4643                      .dwattr $C$DW$149, DW_AT_name("INTx7")
    4644                      .dwattr $C$DW$149, DW_AT_TI_symbol_name("_INTx7")
    4645                      .dwattr $C$DW$149, DW_AT_bit_offset(0x09), DW_AT_bit_size(0x01)
    4646                      .dwattr $C$DW$149, DW_AT_data_member_location[DW_OP_plus_uconst 0x0]
    4647                      .dwattr $C$DW$149, DW_AT_accessibility(DW_ACCESS_public)
    4648              $C$DW$150       .dwtag  DW_TAG_member
    4649                      .dwattr $C$DW$150, DW_AT_type(*$C$DW$T$19)
    4650                      .dwattr $C$DW$150, DW_AT_name("INTx8")
    4651                      .dwattr $C$DW$150, DW_AT_TI_symbol_name("_INTx8")
    4652                      .dwattr $C$DW$150, DW_AT_bit_offset(0x08), DW_AT_bit_size(0x01)
    4653                      .dwattr $C$DW$150, DW_AT_data_member_location[DW_OP_plus_uconst 0x0]
    4654                      .dwattr $C$DW$150, DW_AT_accessibility(DW_ACCESS_public)
    4655              $C$DW$151       .dwtag  DW_TAG_member
    4656                      .dwattr $C$DW$151, DW_AT_type(*$C$DW$T$19)
    4657                      .dwattr $C$DW$151, DW_AT_name("rsvd")
    4658                      .dwattr $C$DW$151, DW_AT_TI_symbol_name("_rsvd")
    4659                      .dwattr $C$DW$151, DW_AT_bit_offset(0x00), DW_AT_bit_size(0x08)
    4660                      .dwattr $C$DW$151, DW_AT_data_member_location[DW_OP_plus_uconst 0x0]
    4661                      .dwattr $C$DW$151, DW_AT_accessibility(DW_ACCESS_public)
    4662                      .dwendtag $C$DW$T$24
    4663              
    4664              
    4665              $C$DW$T$25      .dwtag  DW_TAG_union_type
    4666                      .dwattr $C$DW$T$25, DW_AT_name("PIEIER_REG")
    4667                      .dwattr $C$DW$T$25, DW_AT_byte_size(0x01)
    4668              $C$DW$152       .dwtag  DW_TAG_member
TMS320C2000 Assembler PC v6.4.12 Thu Nov 16 10:01:32 2017

Tools Copyright (c) 1996-2017 Texas Instruments Incorporated
C:\Users\Admin\AppData\Local\Temp\0610810                            PAGE   90

    4669                      .dwattr $C$DW$152, DW_AT_type(*$C$DW$T$19)
    4670                      .dwattr $C$DW$152, DW_AT_name("all")
    4671                      .dwattr $C$DW$152, DW_AT_TI_symbol_name("_all")
    4672                      .dwattr $C$DW$152, DW_AT_data_member_location[DW_OP_plus_uconst 0x0]
    4673                      .dwattr $C$DW$152, DW_AT_accessibility(DW_ACCESS_public)
    4674              $C$DW$153       .dwtag  DW_TAG_member
    4675                      .dwattr $C$DW$153, DW_AT_type(*$C$DW$T$24)
    4676                      .dwattr $C$DW$153, DW_AT_name("bit")
    4677                      .dwattr $C$DW$153, DW_AT_TI_symbol_name("_bit")
    4678                      .dwattr $C$DW$153, DW_AT_data_member_location[DW_OP_plus_uconst 0x0]
    4679                      .dwattr $C$DW$153, DW_AT_accessibility(DW_ACCESS_public)
    4680                      .dwendtag $C$DW$T$25
    4681              
    4682              
    4683              $C$DW$T$26      .dwtag  DW_TAG_structure_type
    4684                      .dwattr $C$DW$T$26, DW_AT_name("PIEIFR_BITS")
    4685                      .dwattr $C$DW$T$26, DW_AT_byte_size(0x01)
    4686              $C$DW$154       .dwtag  DW_TAG_member
    4687                      .dwattr $C$DW$154, DW_AT_type(*$C$DW$T$19)
    4688                      .dwattr $C$DW$154, DW_AT_name("INTx1")
    4689                      .dwattr $C$DW$154, DW_AT_TI_symbol_name("_INTx1")
    4690                      .dwattr $C$DW$154, DW_AT_bit_offset(0x0f), DW_AT_bit_size(0x01)
    4691                      .dwattr $C$DW$154, DW_AT_data_member_location[DW_OP_plus_uconst 0x0]
    4692                      .dwattr $C$DW$154, DW_AT_accessibility(DW_ACCESS_public)
    4693              $C$DW$155       .dwtag  DW_TAG_member
    4694                      .dwattr $C$DW$155, DW_AT_type(*$C$DW$T$19)
    4695                      .dwattr $C$DW$155, DW_AT_name("INTx2")
    4696                      .dwattr $C$DW$155, DW_AT_TI_symbol_name("_INTx2")
    4697                      .dwattr $C$DW$155, DW_AT_bit_offset(0x0e), DW_AT_bit_size(0x01)
    4698                      .dwattr $C$DW$155, DW_AT_data_member_location[DW_OP_plus_uconst 0x0]
    4699                      .dwattr $C$DW$155, DW_AT_accessibility(DW_ACCESS_public)
    4700              $C$DW$156       .dwtag  DW_TAG_member
    4701                      .dwattr $C$DW$156, DW_AT_type(*$C$DW$T$19)
    4702                      .dwattr $C$DW$156, DW_AT_name("INTx3")
    4703                      .dwattr $C$DW$156, DW_AT_TI_symbol_name("_INTx3")
    4704                      .dwattr $C$DW$156, DW_AT_bit_offset(0x0d), DW_AT_bit_size(0x01)
    4705                      .dwattr $C$DW$156, DW_AT_data_member_location[DW_OP_plus_uconst 0x0]
    4706                      .dwattr $C$DW$156, DW_AT_accessibility(DW_ACCESS_public)
    4707              $C$DW$157       .dwtag  DW_TAG_member
    4708                      .dwattr $C$DW$157, DW_AT_type(*$C$DW$T$19)
    4709                      .dwattr $C$DW$157, DW_AT_name("INTx4")
    4710                      .dwattr $C$DW$157, DW_AT_TI_symbol_name("_INTx4")
    4711                      .dwattr $C$DW$157, DW_AT_bit_offset(0x0c), DW_AT_bit_size(0x01)
    4712                      .dwattr $C$DW$157, DW_AT_data_member_location[DW_OP_plus_uconst 0x0]
    4713                      .dwattr $C$DW$157, DW_AT_accessibility(DW_ACCESS_public)
    4714              $C$DW$158       .dwtag  DW_TAG_member
    4715                      .dwattr $C$DW$158, DW_AT_type(*$C$DW$T$19)
    4716                      .dwattr $C$DW$158, DW_AT_name("INTx5")
    4717                      .dwattr $C$DW$158, DW_AT_TI_symbol_name("_INTx5")
    4718                      .dwattr $C$DW$158, DW_AT_bit_offset(0x0b), DW_AT_bit_size(0x01)
    4719                      .dwattr $C$DW$158, DW_AT_data_member_location[DW_OP_plus_uconst 0x0]
    4720                      .dwattr $C$DW$158, DW_AT_accessibility(DW_ACCESS_public)
    4721              $C$DW$159       .dwtag  DW_TAG_member
    4722                      .dwattr $C$DW$159, DW_AT_type(*$C$DW$T$19)
    4723                      .dwattr $C$DW$159, DW_AT_name("INTx6")
TMS320C2000 Assembler PC v6.4.12 Thu Nov 16 10:01:32 2017

Tools Copyright (c) 1996-2017 Texas Instruments Incorporated
C:\Users\Admin\AppData\Local\Temp\0610810                            PAGE   91

    4724                      .dwattr $C$DW$159, DW_AT_TI_symbol_name("_INTx6")
    4725                      .dwattr $C$DW$159, DW_AT_bit_offset(0x0a), DW_AT_bit_size(0x01)
    4726                      .dwattr $C$DW$159, DW_AT_data_member_location[DW_OP_plus_uconst 0x0]
    4727                      .dwattr $C$DW$159, DW_AT_accessibility(DW_ACCESS_public)
    4728              $C$DW$160       .dwtag  DW_TAG_member
    4729                      .dwattr $C$DW$160, DW_AT_type(*$C$DW$T$19)
    4730                      .dwattr $C$DW$160, DW_AT_name("INTx7")
    4731                      .dwattr $C$DW$160, DW_AT_TI_symbol_name("_INTx7")
    4732                      .dwattr $C$DW$160, DW_AT_bit_offset(0x09), DW_AT_bit_size(0x01)
    4733                      .dwattr $C$DW$160, DW_AT_data_member_location[DW_OP_plus_uconst 0x0]
    4734                      .dwattr $C$DW$160, DW_AT_accessibility(DW_ACCESS_public)
    4735              $C$DW$161       .dwtag  DW_TAG_member
    4736                      .dwattr $C$DW$161, DW_AT_type(*$C$DW$T$19)
    4737                      .dwattr $C$DW$161, DW_AT_name("INTx8")
    4738                      .dwattr $C$DW$161, DW_AT_TI_symbol_name("_INTx8")
    4739                      .dwattr $C$DW$161, DW_AT_bit_offset(0x08), DW_AT_bit_size(0x01)
    4740                      .dwattr $C$DW$161, DW_AT_data_member_location[DW_OP_plus_uconst 0x0]
    4741                      .dwattr $C$DW$161, DW_AT_accessibility(DW_ACCESS_public)
    4742              $C$DW$162       .dwtag  DW_TAG_member
    4743                      .dwattr $C$DW$162, DW_AT_type(*$C$DW$T$19)
    4744                      .dwattr $C$DW$162, DW_AT_name("rsvd")
    4745                      .dwattr $C$DW$162, DW_AT_TI_symbol_name("_rsvd")
    4746                      .dwattr $C$DW$162, DW_AT_bit_offset(0x00), DW_AT_bit_size(0x08)
    4747                      .dwattr $C$DW$162, DW_AT_data_member_location[DW_OP_plus_uconst 0x0]
    4748                      .dwattr $C$DW$162, DW_AT_accessibility(DW_ACCESS_public)
    4749                      .dwendtag $C$DW$T$26
    4750              
    4751              
    4752              $C$DW$T$27      .dwtag  DW_TAG_union_type
    4753                      .dwattr $C$DW$T$27, DW_AT_name("PIEIFR_REG")
    4754                      .dwattr $C$DW$T$27, DW_AT_byte_size(0x01)
    4755              $C$DW$163       .dwtag  DW_TAG_member
    4756                      .dwattr $C$DW$163, DW_AT_type(*$C$DW$T$19)
    4757                      .dwattr $C$DW$163, DW_AT_name("all")
    4758                      .dwattr $C$DW$163, DW_AT_TI_symbol_name("_all")
    4759                      .dwattr $C$DW$163, DW_AT_data_member_location[DW_OP_plus_uconst 0x0]
    4760                      .dwattr $C$DW$163, DW_AT_accessibility(DW_ACCESS_public)
    4761              $C$DW$164       .dwtag  DW_TAG_member
    4762                      .dwattr $C$DW$164, DW_AT_type(*$C$DW$T$26)
    4763                      .dwattr $C$DW$164, DW_AT_name("bit")
    4764                      .dwattr $C$DW$164, DW_AT_TI_symbol_name("_bit")
    4765                      .dwattr $C$DW$164, DW_AT_data_member_location[DW_OP_plus_uconst 0x0]
    4766                      .dwattr $C$DW$164, DW_AT_accessibility(DW_ACCESS_public)
    4767                      .dwendtag $C$DW$T$27
    4768              
    4769              
    4770              $C$DW$T$28      .dwtag  DW_TAG_structure_type
    4771                      .dwattr $C$DW$T$28, DW_AT_name("PIE_CTRL_REGS")
    4772                      .dwattr $C$DW$T$28, DW_AT_byte_size(0x1a)
    4773              $C$DW$165       .dwtag  DW_TAG_member
    4774                      .dwattr $C$DW$165, DW_AT_type(*$C$DW$T$23)
    4775                      .dwattr $C$DW$165, DW_AT_name("PIECTRL")
    4776                      .dwattr $C$DW$165, DW_AT_TI_symbol_name("_PIECTRL")
    4777                      .dwattr $C$DW$165, DW_AT_data_member_location[DW_OP_plus_uconst 0x0]
    4778                      .dwattr $C$DW$165, DW_AT_accessibility(DW_ACCESS_public)
TMS320C2000 Assembler PC v6.4.12 Thu Nov 16 10:01:32 2017

Tools Copyright (c) 1996-2017 Texas Instruments Incorporated
C:\Users\Admin\AppData\Local\Temp\0610810                            PAGE   92

    4779              $C$DW$166       .dwtag  DW_TAG_member
    4780                      .dwattr $C$DW$166, DW_AT_type(*$C$DW$T$21)
    4781                      .dwattr $C$DW$166, DW_AT_name("PIEACK")
    4782                      .dwattr $C$DW$166, DW_AT_TI_symbol_name("_PIEACK")
    4783                      .dwattr $C$DW$166, DW_AT_data_member_location[DW_OP_plus_uconst 0x1]
    4784                      .dwattr $C$DW$166, DW_AT_accessibility(DW_ACCESS_public)
    4785              $C$DW$167       .dwtag  DW_TAG_member
    4786                      .dwattr $C$DW$167, DW_AT_type(*$C$DW$T$25)
    4787                      .dwattr $C$DW$167, DW_AT_name("PIEIER1")
    4788                      .dwattr $C$DW$167, DW_AT_TI_symbol_name("_PIEIER1")
    4789                      .dwattr $C$DW$167, DW_AT_data_member_location[DW_OP_plus_uconst 0x2]
    4790                      .dwattr $C$DW$167, DW_AT_accessibility(DW_ACCESS_public)
    4791              $C$DW$168       .dwtag  DW_TAG_member
    4792                      .dwattr $C$DW$168, DW_AT_type(*$C$DW$T$27)
    4793                      .dwattr $C$DW$168, DW_AT_name("PIEIFR1")
    4794                      .dwattr $C$DW$168, DW_AT_TI_symbol_name("_PIEIFR1")
    4795                      .dwattr $C$DW$168, DW_AT_data_member_location[DW_OP_plus_uconst 0x3]
    4796                      .dwattr $C$DW$168, DW_AT_accessibility(DW_ACCESS_public)
    4797              $C$DW$169       .dwtag  DW_TAG_member
    4798                      .dwattr $C$DW$169, DW_AT_type(*$C$DW$T$25)
    4799                      .dwattr $C$DW$169, DW_AT_name("PIEIER2")
    4800                      .dwattr $C$DW$169, DW_AT_TI_symbol_name("_PIEIER2")
    4801                      .dwattr $C$DW$169, DW_AT_data_member_location[DW_OP_plus_uconst 0x4]
    4802                      .dwattr $C$DW$169, DW_AT_accessibility(DW_ACCESS_public)
    4803              $C$DW$170       .dwtag  DW_TAG_member
    4804                      .dwattr $C$DW$170, DW_AT_type(*$C$DW$T$27)
    4805                      .dwattr $C$DW$170, DW_AT_name("PIEIFR2")
    4806                      .dwattr $C$DW$170, DW_AT_TI_symbol_name("_PIEIFR2")
    4807                      .dwattr $C$DW$170, DW_AT_data_member_location[DW_OP_plus_uconst 0x5]
    4808                      .dwattr $C$DW$170, DW_AT_accessibility(DW_ACCESS_public)
    4809              $C$DW$171       .dwtag  DW_TAG_member
    4810                      .dwattr $C$DW$171, DW_AT_type(*$C$DW$T$25)
    4811                      .dwattr $C$DW$171, DW_AT_name("PIEIER3")
    4812                      .dwattr $C$DW$171, DW_AT_TI_symbol_name("_PIEIER3")
    4813                      .dwattr $C$DW$171, DW_AT_data_member_location[DW_OP_plus_uconst 0x6]
    4814                      .dwattr $C$DW$171, DW_AT_accessibility(DW_ACCESS_public)
    4815              $C$DW$172       .dwtag  DW_TAG_member
    4816                      .dwattr $C$DW$172, DW_AT_type(*$C$DW$T$27)
    4817                      .dwattr $C$DW$172, DW_AT_name("PIEIFR3")
    4818                      .dwattr $C$DW$172, DW_AT_TI_symbol_name("_PIEIFR3")
    4819                      .dwattr $C$DW$172, DW_AT_data_member_location[DW_OP_plus_uconst 0x7]
    4820                      .dwattr $C$DW$172, DW_AT_accessibility(DW_ACCESS_public)
    4821              $C$DW$173       .dwtag  DW_TAG_member
    4822                      .dwattr $C$DW$173, DW_AT_type(*$C$DW$T$25)
    4823                      .dwattr $C$DW$173, DW_AT_name("PIEIER4")
    4824                      .dwattr $C$DW$173, DW_AT_TI_symbol_name("_PIEIER4")
    4825                      .dwattr $C$DW$173, DW_AT_data_member_location[DW_OP_plus_uconst 0x8]
    4826                      .dwattr $C$DW$173, DW_AT_accessibility(DW_ACCESS_public)
    4827              $C$DW$174       .dwtag  DW_TAG_member
    4828                      .dwattr $C$DW$174, DW_AT_type(*$C$DW$T$27)
    4829                      .dwattr $C$DW$174, DW_AT_name("PIEIFR4")
    4830                      .dwattr $C$DW$174, DW_AT_TI_symbol_name("_PIEIFR4")
    4831                      .dwattr $C$DW$174, DW_AT_data_member_location[DW_OP_plus_uconst 0x9]
    4832                      .dwattr $C$DW$174, DW_AT_accessibility(DW_ACCESS_public)
    4833              $C$DW$175       .dwtag  DW_TAG_member
TMS320C2000 Assembler PC v6.4.12 Thu Nov 16 10:01:32 2017

Tools Copyright (c) 1996-2017 Texas Instruments Incorporated
C:\Users\Admin\AppData\Local\Temp\0610810                            PAGE   93

    4834                      .dwattr $C$DW$175, DW_AT_type(*$C$DW$T$25)
    4835                      .dwattr $C$DW$175, DW_AT_name("PIEIER5")
    4836                      .dwattr $C$DW$175, DW_AT_TI_symbol_name("_PIEIER5")
    4837                      .dwattr $C$DW$175, DW_AT_data_member_location[DW_OP_plus_uconst 0xa]
    4838                      .dwattr $C$DW$175, DW_AT_accessibility(DW_ACCESS_public)
    4839              $C$DW$176       .dwtag  DW_TAG_member
    4840                      .dwattr $C$DW$176, DW_AT_type(*$C$DW$T$27)
    4841                      .dwattr $C$DW$176, DW_AT_name("PIEIFR5")
    4842                      .dwattr $C$DW$176, DW_AT_TI_symbol_name("_PIEIFR5")
    4843                      .dwattr $C$DW$176, DW_AT_data_member_location[DW_OP_plus_uconst 0xb]
    4844                      .dwattr $C$DW$176, DW_AT_accessibility(DW_ACCESS_public)
    4845              $C$DW$177       .dwtag  DW_TAG_member
    4846                      .dwattr $C$DW$177, DW_AT_type(*$C$DW$T$25)
    4847                      .dwattr $C$DW$177, DW_AT_name("PIEIER6")
    4848                      .dwattr $C$DW$177, DW_AT_TI_symbol_name("_PIEIER6")
    4849                      .dwattr $C$DW$177, DW_AT_data_member_location[DW_OP_plus_uconst 0xc]
    4850                      .dwattr $C$DW$177, DW_AT_accessibility(DW_ACCESS_public)
    4851              $C$DW$178       .dwtag  DW_TAG_member
    4852                      .dwattr $C$DW$178, DW_AT_type(*$C$DW$T$27)
    4853                      .dwattr $C$DW$178, DW_AT_name("PIEIFR6")
    4854                      .dwattr $C$DW$178, DW_AT_TI_symbol_name("_PIEIFR6")
    4855                      .dwattr $C$DW$178, DW_AT_data_member_location[DW_OP_plus_uconst 0xd]
    4856                      .dwattr $C$DW$178, DW_AT_accessibility(DW_ACCESS_public)
    4857              $C$DW$179       .dwtag  DW_TAG_member
    4858                      .dwattr $C$DW$179, DW_AT_type(*$C$DW$T$25)
    4859                      .dwattr $C$DW$179, DW_AT_name("PIEIER7")
    4860                      .dwattr $C$DW$179, DW_AT_TI_symbol_name("_PIEIER7")
    4861                      .dwattr $C$DW$179, DW_AT_data_member_location[DW_OP_plus_uconst 0xe]
    4862                      .dwattr $C$DW$179, DW_AT_accessibility(DW_ACCESS_public)
    4863              $C$DW$180       .dwtag  DW_TAG_member
    4864                      .dwattr $C$DW$180, DW_AT_type(*$C$DW$T$27)
    4865                      .dwattr $C$DW$180, DW_AT_name("PIEIFR7")
    4866                      .dwattr $C$DW$180, DW_AT_TI_symbol_name("_PIEIFR7")
    4867                      .dwattr $C$DW$180, DW_AT_data_member_location[DW_OP_plus_uconst 0xf]
    4868                      .dwattr $C$DW$180, DW_AT_accessibility(DW_ACCESS_public)
    4869              $C$DW$181       .dwtag  DW_TAG_member
    4870                      .dwattr $C$DW$181, DW_AT_type(*$C$DW$T$25)
    4871                      .dwattr $C$DW$181, DW_AT_name("PIEIER8")
    4872                      .dwattr $C$DW$181, DW_AT_TI_symbol_name("_PIEIER8")
    4873                      .dwattr $C$DW$181, DW_AT_data_member_location[DW_OP_plus_uconst 0x10]
    4874                      .dwattr $C$DW$181, DW_AT_accessibility(DW_ACCESS_public)
    4875              $C$DW$182       .dwtag  DW_TAG_member
    4876                      .dwattr $C$DW$182, DW_AT_type(*$C$DW$T$27)
    4877                      .dwattr $C$DW$182, DW_AT_name("PIEIFR8")
    4878                      .dwattr $C$DW$182, DW_AT_TI_symbol_name("_PIEIFR8")
    4879                      .dwattr $C$DW$182, DW_AT_data_member_location[DW_OP_plus_uconst 0x11]
    4880                      .dwattr $C$DW$182, DW_AT_accessibility(DW_ACCESS_public)
    4881              $C$DW$183       .dwtag  DW_TAG_member
    4882                      .dwattr $C$DW$183, DW_AT_type(*$C$DW$T$25)
    4883                      .dwattr $C$DW$183, DW_AT_name("PIEIER9")
    4884                      .dwattr $C$DW$183, DW_AT_TI_symbol_name("_PIEIER9")
    4885                      .dwattr $C$DW$183, DW_AT_data_member_location[DW_OP_plus_uconst 0x12]
    4886                      .dwattr $C$DW$183, DW_AT_accessibility(DW_ACCESS_public)
    4887              $C$DW$184       .dwtag  DW_TAG_member
    4888                      .dwattr $C$DW$184, DW_AT_type(*$C$DW$T$27)
TMS320C2000 Assembler PC v6.4.12 Thu Nov 16 10:01:32 2017

Tools Copyright (c) 1996-2017 Texas Instruments Incorporated
C:\Users\Admin\AppData\Local\Temp\0610810                            PAGE   94

    4889                      .dwattr $C$DW$184, DW_AT_name("PIEIFR9")
    4890                      .dwattr $C$DW$184, DW_AT_TI_symbol_name("_PIEIFR9")
    4891                      .dwattr $C$DW$184, DW_AT_data_member_location[DW_OP_plus_uconst 0x13]
    4892                      .dwattr $C$DW$184, DW_AT_accessibility(DW_ACCESS_public)
    4893              $C$DW$185       .dwtag  DW_TAG_member
    4894                      .dwattr $C$DW$185, DW_AT_type(*$C$DW$T$25)
    4895                      .dwattr $C$DW$185, DW_AT_name("PIEIER10")
    4896                      .dwattr $C$DW$185, DW_AT_TI_symbol_name("_PIEIER10")
    4897                      .dwattr $C$DW$185, DW_AT_data_member_location[DW_OP_plus_uconst 0x14]
    4898                      .dwattr $C$DW$185, DW_AT_accessibility(DW_ACCESS_public)
    4899              $C$DW$186       .dwtag  DW_TAG_member
    4900                      .dwattr $C$DW$186, DW_AT_type(*$C$DW$T$27)
    4901                      .dwattr $C$DW$186, DW_AT_name("PIEIFR10")
    4902                      .dwattr $C$DW$186, DW_AT_TI_symbol_name("_PIEIFR10")
    4903                      .dwattr $C$DW$186, DW_AT_data_member_location[DW_OP_plus_uconst 0x15]
    4904                      .dwattr $C$DW$186, DW_AT_accessibility(DW_ACCESS_public)
    4905              $C$DW$187       .dwtag  DW_TAG_member
    4906                      .dwattr $C$DW$187, DW_AT_type(*$C$DW$T$25)
    4907                      .dwattr $C$DW$187, DW_AT_name("PIEIER11")
    4908                      .dwattr $C$DW$187, DW_AT_TI_symbol_name("_PIEIER11")
    4909                      .dwattr $C$DW$187, DW_AT_data_member_location[DW_OP_plus_uconst 0x16]
    4910                      .dwattr $C$DW$187, DW_AT_accessibility(DW_ACCESS_public)
    4911              $C$DW$188       .dwtag  DW_TAG_member
    4912                      .dwattr $C$DW$188, DW_AT_type(*$C$DW$T$27)
    4913                      .dwattr $C$DW$188, DW_AT_name("PIEIFR11")
    4914                      .dwattr $C$DW$188, DW_AT_TI_symbol_name("_PIEIFR11")
    4915                      .dwattr $C$DW$188, DW_AT_data_member_location[DW_OP_plus_uconst 0x17]
    4916                      .dwattr $C$DW$188, DW_AT_accessibility(DW_ACCESS_public)
    4917              $C$DW$189       .dwtag  DW_TAG_member
    4918                      .dwattr $C$DW$189, DW_AT_type(*$C$DW$T$25)
    4919                      .dwattr $C$DW$189, DW_AT_name("PIEIER12")
    4920                      .dwattr $C$DW$189, DW_AT_TI_symbol_name("_PIEIER12")
    4921                      .dwattr $C$DW$189, DW_AT_data_member_location[DW_OP_plus_uconst 0x18]
    4922                      .dwattr $C$DW$189, DW_AT_accessibility(DW_ACCESS_public)
    4923              $C$DW$190       .dwtag  DW_TAG_member
    4924                      .dwattr $C$DW$190, DW_AT_type(*$C$DW$T$27)
    4925                      .dwattr $C$DW$190, DW_AT_name("PIEIFR12")
    4926                      .dwattr $C$DW$190, DW_AT_TI_symbol_name("_PIEIFR12")
    4927                      .dwattr $C$DW$190, DW_AT_data_member_location[DW_OP_plus_uconst 0x19]
    4928                      .dwattr $C$DW$190, DW_AT_accessibility(DW_ACCESS_public)
    4929                      .dwendtag $C$DW$T$28
    4930              
    4931              $C$DW$191       .dwtag  DW_TAG_TI_far_type
    4932                      .dwattr $C$DW$191, DW_AT_type(*$C$DW$T$28)
    4933              $C$DW$T$31      .dwtag  DW_TAG_volatile_type
    4934                      .dwattr $C$DW$T$31, DW_AT_type(*$C$DW$191)
    4935              $C$DW$T$2       .dwtag  DW_TAG_unspecified_type
    4936                      .dwattr $C$DW$T$2, DW_AT_name("void")
    4937              $C$DW$T$4       .dwtag  DW_TAG_base_type
    4938                      .dwattr $C$DW$T$4, DW_AT_encoding(DW_ATE_boolean)
    4939                      .dwattr $C$DW$T$4, DW_AT_name("bool")
    4940                      .dwattr $C$DW$T$4, DW_AT_byte_size(0x01)
    4941              $C$DW$T$5       .dwtag  DW_TAG_base_type
    4942                      .dwattr $C$DW$T$5, DW_AT_encoding(DW_ATE_signed_char)
    4943                      .dwattr $C$DW$T$5, DW_AT_name("signed char")
TMS320C2000 Assembler PC v6.4.12 Thu Nov 16 10:01:32 2017

Tools Copyright (c) 1996-2017 Texas Instruments Incorporated
C:\Users\Admin\AppData\Local\Temp\0610810                            PAGE   95

    4944                      .dwattr $C$DW$T$5, DW_AT_byte_size(0x01)
    4945              $C$DW$T$6       .dwtag  DW_TAG_base_type
    4946                      .dwattr $C$DW$T$6, DW_AT_encoding(DW_ATE_unsigned_char)
    4947                      .dwattr $C$DW$T$6, DW_AT_name("unsigned char")
    4948                      .dwattr $C$DW$T$6, DW_AT_byte_size(0x01)
    4949              $C$DW$T$7       .dwtag  DW_TAG_base_type
    4950                      .dwattr $C$DW$T$7, DW_AT_encoding(DW_ATE_signed_char)
    4951                      .dwattr $C$DW$T$7, DW_AT_name("wchar_t")
    4952                      .dwattr $C$DW$T$7, DW_AT_byte_size(0x01)
    4953              $C$DW$T$8       .dwtag  DW_TAG_base_type
    4954                      .dwattr $C$DW$T$8, DW_AT_encoding(DW_ATE_signed)
    4955                      .dwattr $C$DW$T$8, DW_AT_name("short")
    4956                      .dwattr $C$DW$T$8, DW_AT_byte_size(0x01)
    4957              $C$DW$T$9       .dwtag  DW_TAG_base_type
    4958                      .dwattr $C$DW$T$9, DW_AT_encoding(DW_ATE_unsigned)
    4959                      .dwattr $C$DW$T$9, DW_AT_name("unsigned short")
    4960                      .dwattr $C$DW$T$9, DW_AT_byte_size(0x01)
    4961              $C$DW$T$10      .dwtag  DW_TAG_base_type
    4962                      .dwattr $C$DW$T$10, DW_AT_encoding(DW_ATE_signed)
    4963                      .dwattr $C$DW$T$10, DW_AT_name("int")
    4964                      .dwattr $C$DW$T$10, DW_AT_byte_size(0x01)
    4965              $C$DW$T$11      .dwtag  DW_TAG_base_type
    4966                      .dwattr $C$DW$T$11, DW_AT_encoding(DW_ATE_unsigned)
    4967                      .dwattr $C$DW$T$11, DW_AT_name("unsigned int")
    4968                      .dwattr $C$DW$T$11, DW_AT_byte_size(0x01)
    4969              $C$DW$T$19      .dwtag  DW_TAG_typedef, DW_AT_name("Uint16")
    4970                      .dwattr $C$DW$T$19, DW_AT_type(*$C$DW$T$11)
    4971                      .dwattr $C$DW$T$19, DW_AT_language(DW_LANG_C)
    4972              $C$DW$192       .dwtag  DW_TAG_TI_far_type
    4973                      .dwattr $C$DW$192, DW_AT_type(*$C$DW$T$19)
    4974              $C$DW$T$33      .dwtag  DW_TAG_volatile_type
    4975                      .dwattr $C$DW$T$33, DW_AT_type(*$C$DW$192)
    4976              $C$DW$T$12      .dwtag  DW_TAG_base_type
    4977                      .dwattr $C$DW$T$12, DW_AT_encoding(DW_ATE_signed)
    4978                      .dwattr $C$DW$T$12, DW_AT_name("long")
    4979                      .dwattr $C$DW$T$12, DW_AT_byte_size(0x02)
    4980              $C$DW$T$13      .dwtag  DW_TAG_base_type
    4981                      .dwattr $C$DW$T$13, DW_AT_encoding(DW_ATE_unsigned)
    4982                      .dwattr $C$DW$T$13, DW_AT_name("unsigned long")
    4983                      .dwattr $C$DW$T$13, DW_AT_byte_size(0x02)
    4984              $C$DW$T$14      .dwtag  DW_TAG_base_type
    4985                      .dwattr $C$DW$T$14, DW_AT_encoding(DW_ATE_signed)
    4986                      .dwattr $C$DW$T$14, DW_AT_name("long long")
    4987                      .dwattr $C$DW$T$14, DW_AT_byte_size(0x04)
    4988              $C$DW$T$15      .dwtag  DW_TAG_base_type
    4989                      .dwattr $C$DW$T$15, DW_AT_encoding(DW_ATE_unsigned)
    4990                      .dwattr $C$DW$T$15, DW_AT_name("unsigned long long")
    4991                      .dwattr $C$DW$T$15, DW_AT_byte_size(0x04)
    4992              $C$DW$T$16      .dwtag  DW_TAG_base_type
    4993                      .dwattr $C$DW$T$16, DW_AT_encoding(DW_ATE_float)
    4994                      .dwattr $C$DW$T$16, DW_AT_name("float")
    4995                      .dwattr $C$DW$T$16, DW_AT_byte_size(0x02)
    4996              $C$DW$T$17      .dwtag  DW_TAG_base_type
    4997                      .dwattr $C$DW$T$17, DW_AT_encoding(DW_ATE_float)
    4998                      .dwattr $C$DW$T$17, DW_AT_name("double")
TMS320C2000 Assembler PC v6.4.12 Thu Nov 16 10:01:32 2017

Tools Copyright (c) 1996-2017 Texas Instruments Incorporated
C:\Users\Admin\AppData\Local\Temp\0610810                            PAGE   96

    4999                      .dwattr $C$DW$T$17, DW_AT_byte_size(0x02)
    5000              $C$DW$T$18      .dwtag  DW_TAG_base_type
    5001                      .dwattr $C$DW$T$18, DW_AT_encoding(DW_ATE_float)
    5002                      .dwattr $C$DW$T$18, DW_AT_name("long double")
    5003                      .dwattr $C$DW$T$18, DW_AT_byte_size(0x04)
    5004                      .dwattr $C$DW$CU, DW_AT_language(DW_LANG_C)
    5005              
    5006              ;***************************************************************
    5007              ;* DWARF CIE ENTRIES                                           *
    5008              ;***************************************************************
    5009              
    5010              $C$DW$CIE       .dwcie 26
    5011                      .dwcfi  cfa_register, 20
    5012                      .dwcfi  cfa_offset, 0
    5013                      .dwcfi  undefined, 0
    5014                      .dwcfi  undefined, 1
    5015                      .dwcfi  undefined, 2
    5016                      .dwcfi  undefined, 3
    5017                      .dwcfi  undefined, 20
    5018                      .dwcfi  undefined, 21
    5019                      .dwcfi  undefined, 22
    5020                      .dwcfi  undefined, 23
    5021                      .dwcfi  undefined, 24
    5022                      .dwcfi  undefined, 25
    5023                      .dwcfi  undefined, 26
    5024                      .dwcfi  same_value, 28
    5025                      .dwcfi  undefined, 29
    5026                      .dwcfi  undefined, 30
    5027                      .dwcfi  undefined, 31
    5028                      .dwcfi  undefined, 32
    5029                      .dwcfi  undefined, 33
    5030                      .dwcfi  undefined, 34
    5031                      .dwcfi  undefined, 35
    5032                      .dwcfi  undefined, 36
    5033                      .dwcfi  undefined, 37
    5034                      .dwcfi  undefined, 38
    5035                      .dwcfi  undefined, 75
    5036                      .dwcfi  undefined, 76
    5037                      .dwcfi  undefined, 77
    5038                      .dwcfi  undefined, 4
    5039                      .dwcfi  undefined, 5
    5040                      .dwcfi  same_value, 6
    5041                      .dwcfi  same_value, 7
    5042                      .dwcfi  same_value, 8
    5043                      .dwcfi  same_value, 9
    5044                      .dwcfi  same_value, 10
    5045                      .dwcfi  same_value, 11
    5046                      .dwcfi  undefined, 12
    5047                      .dwcfi  undefined, 13
    5048                      .dwcfi  undefined, 14
    5049                      .dwcfi  undefined, 15
    5050                      .dwcfi  undefined, 16
    5051                      .dwcfi  undefined, 17
    5052                      .dwcfi  undefined, 18
    5053                      .dwcfi  undefined, 19
TMS320C2000 Assembler PC v6.4.12 Thu Nov 16 10:01:32 2017

Tools Copyright (c) 1996-2017 Texas Instruments Incorporated
C:\Users\Admin\AppData\Local\Temp\0610810                            PAGE   97

    5054                      .dwendentry
    5055              
    5056              ;***************************************************************
    5057              ;* DWARF REGISTER MAP                                          *
    5058              ;***************************************************************
    5059              
    5060              $C$DW$193       .dwtag  DW_TAG_TI_assign_register, DW_AT_name("AL")
    5061                      .dwattr $C$DW$193, DW_AT_location[DW_OP_reg0]
    5062              $C$DW$194       .dwtag  DW_TAG_TI_assign_register, DW_AT_name("AH")
    5063                      .dwattr $C$DW$194, DW_AT_location[DW_OP_reg1]
    5064              $C$DW$195       .dwtag  DW_TAG_TI_assign_register, DW_AT_name("PL")
    5065                      .dwattr $C$DW$195, DW_AT_location[DW_OP_reg2]
    5066              $C$DW$196       .dwtag  DW_TAG_TI_assign_register, DW_AT_name("PH")
    5067                      .dwattr $C$DW$196, DW_AT_location[DW_OP_reg3]
    5068              $C$DW$197       .dwtag  DW_TAG_TI_assign_register, DW_AT_name("SP")
    5069                      .dwattr $C$DW$197, DW_AT_location[DW_OP_reg20]
    5070              $C$DW$198       .dwtag  DW_TAG_TI_assign_register, DW_AT_name("XT")
    5071                      .dwattr $C$DW$198, DW_AT_location[DW_OP_reg21]
    5072              $C$DW$199       .dwtag  DW_TAG_TI_assign_register, DW_AT_name("T")
    5073                      .dwattr $C$DW$199, DW_AT_location[DW_OP_reg22]
    5074              $C$DW$200       .dwtag  DW_TAG_TI_assign_register, DW_AT_name("ST0")
    5075                      .dwattr $C$DW$200, DW_AT_location[DW_OP_reg23]
    5076              $C$DW$201       .dwtag  DW_TAG_TI_assign_register, DW_AT_name("ST1")
    5077                      .dwattr $C$DW$201, DW_AT_location[DW_OP_reg24]
    5078              $C$DW$202       .dwtag  DW_TAG_TI_assign_register, DW_AT_name("PC")
    5079                      .dwattr $C$DW$202, DW_AT_location[DW_OP_reg25]
    5080              $C$DW$203       .dwtag  DW_TAG_TI_assign_register, DW_AT_name("RPC")
    5081                      .dwattr $C$DW$203, DW_AT_location[DW_OP_reg26]
    5082              $C$DW$204       .dwtag  DW_TAG_TI_assign_register, DW_AT_name("FP")
    5083                      .dwattr $C$DW$204, DW_AT_location[DW_OP_reg28]
    5084              $C$DW$205       .dwtag  DW_TAG_TI_assign_register, DW_AT_name("DP")
    5085                      .dwattr $C$DW$205, DW_AT_location[DW_OP_reg29]
    5086              $C$DW$206       .dwtag  DW_TAG_TI_assign_register, DW_AT_name("SXM")
    5087                      .dwattr $C$DW$206, DW_AT_location[DW_OP_reg30]
    5088              $C$DW$207       .dwtag  DW_TAG_TI_assign_register, DW_AT_name("PM")
    5089                      .dwattr $C$DW$207, DW_AT_location[DW_OP_reg31]
    5090              $C$DW$208       .dwtag  DW_TAG_TI_assign_register, DW_AT_name("OVM")
    5091                      .dwattr $C$DW$208, DW_AT_location[DW_OP_regx 0x20]
    5092              $C$DW$209       .dwtag  DW_TAG_TI_assign_register, DW_AT_name("PAGE0")
    5093                      .dwattr $C$DW$209, DW_AT_location[DW_OP_regx 0x21]
    5094              $C$DW$210       .dwtag  DW_TAG_TI_assign_register, DW_AT_name("AMODE")
    5095                      .dwattr $C$DW$210, DW_AT_location[DW_OP_regx 0x22]
    5096              $C$DW$211       .dwtag  DW_TAG_TI_assign_register, DW_AT_name("INTM")
    5097                      .dwattr $C$DW$211, DW_AT_location[DW_OP_regx 0x23]
    5098              $C$DW$212       .dwtag  DW_TAG_TI_assign_register, DW_AT_name("IFR")
    5099                      .dwattr $C$DW$212, DW_AT_location[DW_OP_regx 0x24]
    5100              $C$DW$213       .dwtag  DW_TAG_TI_assign_register, DW_AT_name("IER")
    5101                      .dwattr $C$DW$213, DW_AT_location[DW_OP_regx 0x25]
    5102              $C$DW$214       .dwtag  DW_TAG_TI_assign_register, DW_AT_name("V")
    5103                      .dwattr $C$DW$214, DW_AT_location[DW_OP_regx 0x26]
    5104              $C$DW$215       .dwtag  DW_TAG_TI_assign_register, DW_AT_name("PSEUDOH")
    5105                      .dwattr $C$DW$215, DW_AT_location[DW_OP_regx 0x4c]
    5106              $C$DW$216       .dwtag  DW_TAG_TI_assign_register, DW_AT_name("VOL")
    5107                      .dwattr $C$DW$216, DW_AT_location[DW_OP_regx 0x4d]
    5108              $C$DW$217       .dwtag  DW_TAG_TI_assign_register, DW_AT_name("AR0")
TMS320C2000 Assembler PC v6.4.12 Thu Nov 16 10:01:32 2017

Tools Copyright (c) 1996-2017 Texas Instruments Incorporated
C:\Users\Admin\AppData\Local\Temp\0610810                            PAGE   98

    5109                      .dwattr $C$DW$217, DW_AT_location[DW_OP_reg4]
    5110              $C$DW$218       .dwtag  DW_TAG_TI_assign_register, DW_AT_name("XAR0")
    5111                      .dwattr $C$DW$218, DW_AT_location[DW_OP_reg5]
    5112              $C$DW$219       .dwtag  DW_TAG_TI_assign_register, DW_AT_name("AR1")
    5113                      .dwattr $C$DW$219, DW_AT_location[DW_OP_reg6]
    5114              $C$DW$220       .dwtag  DW_TAG_TI_assign_register, DW_AT_name("XAR1")
    5115                      .dwattr $C$DW$220, DW_AT_location[DW_OP_reg7]
    5116              $C$DW$221       .dwtag  DW_TAG_TI_assign_register, DW_AT_name("AR2")
    5117                      .dwattr $C$DW$221, DW_AT_location[DW_OP_reg8]
    5118              $C$DW$222       .dwtag  DW_TAG_TI_assign_register, DW_AT_name("XAR2")
    5119                      .dwattr $C$DW$222, DW_AT_location[DW_OP_reg9]
    5120              $C$DW$223       .dwtag  DW_TAG_TI_assign_register, DW_AT_name("AR3")
    5121                      .dwattr $C$DW$223, DW_AT_location[DW_OP_reg10]
    5122              $C$DW$224       .dwtag  DW_TAG_TI_assign_register, DW_AT_name("XAR3")
    5123                      .dwattr $C$DW$224, DW_AT_location[DW_OP_reg11]
    5124              $C$DW$225       .dwtag  DW_TAG_TI_assign_register, DW_AT_name("AR4")
    5125                      .dwattr $C$DW$225, DW_AT_location[DW_OP_reg12]
    5126              $C$DW$226       .dwtag  DW_TAG_TI_assign_register, DW_AT_name("XAR4")
    5127                      .dwattr $C$DW$226, DW_AT_location[DW_OP_reg13]
    5128              $C$DW$227       .dwtag  DW_TAG_TI_assign_register, DW_AT_name("AR5")
    5129                      .dwattr $C$DW$227, DW_AT_location[DW_OP_reg14]
    5130              $C$DW$228       .dwtag  DW_TAG_TI_assign_register, DW_AT_name("XAR5")
    5131                      .dwattr $C$DW$228, DW_AT_location[DW_OP_reg15]
    5132              $C$DW$229       .dwtag  DW_TAG_TI_assign_register, DW_AT_name("AR6")
    5133                      .dwattr $C$DW$229, DW_AT_location[DW_OP_reg16]
    5134              $C$DW$230       .dwtag  DW_TAG_TI_assign_register, DW_AT_name("XAR6")
    5135                      .dwattr $C$DW$230, DW_AT_location[DW_OP_reg17]
    5136              $C$DW$231       .dwtag  DW_TAG_TI_assign_register, DW_AT_name("AR7")
    5137                      .dwattr $C$DW$231, DW_AT_location[DW_OP_reg18]
    5138              $C$DW$232       .dwtag  DW_TAG_TI_assign_register, DW_AT_name("XAR7")
    5139                      .dwattr $C$DW$232, DW_AT_location[DW_OP_reg19]
    5140                      .dwendtag $C$DW$CU
    5141              

No Assembly Errors, No Assembly Warnings
