TMS320C2000 Assembler PC v6.4.12 Thu Nov 16 10:01:32 2017

Tools Copyright (c) 1996-2017 Texas Instruments Incorporated
C:\Users\Admin\AppData\Local\Temp\0610810                            PAGE    1

       1              ;***************************************************************
       2              ;* TMS320C2000 C/C++ Codegen                        PC v6.4.12 *
       3              ;* Date/Time created: Thu Nov 16 10:01:32 2017                 *
       4              ;***************************************************************
       5                      .compiler_opts --cla_support=cla0 --diag_wrap=off --float_support=softlib --hll_source=on --mem_model
       6        0002  FP      .set    XAR2
       7              
       8              $C$DW$CU        .dwtag  DW_TAG_compile_unit
       9                      .dwattr $C$DW$CU, DW_AT_name("../source/DSP2803x_SWPrioritizedDefaultIsr.c")
      10                      .dwattr $C$DW$CU, DW_AT_producer("TI TMS320C2000 C/C++ Codegen PC v6.4.12 Copyright (c) 1996-2017 Tex
      11                      .dwattr $C$DW$CU, DW_AT_TI_version(0x01)
      12                      .dwattr $C$DW$CU, DW_AT_comp_dir("D:\TI_CCS_Workspace\EPWMSync\KT1205_MGI_V8.5_REVC_MASTER_GPRS_17111
      13              $C$DW$1 .dwtag  DW_TAG_variable, DW_AT_name("PieCtrlRegs")
      14                      .dwattr $C$DW$1, DW_AT_TI_symbol_name("_PieCtrlRegs")
      15                      .dwattr $C$DW$1, DW_AT_type(*$C$DW$T$31)
      16                      .dwattr $C$DW$1, DW_AT_declaration
      17                      .dwattr $C$DW$1, DW_AT_external
      18              ;       C:\ti\ccsv6\tools\compiler\ti-cgt-c2000_6.4.12\bin\opt2000.exe C:\\Users\\Admin\\AppData\\Local\\Temp
      19              ;       C:\ti\ccsv6\tools\compiler\ti-cgt-c2000_6.4.12\bin\ac2000.exe -@C:\\Users\\Admin\\AppData\\Local\\Tem
      20 00000000               .sect   ".text:retain"
      21                      .retain
      22                      .retainrefs
      23                      .global _rsvd_ISR
      24              
      25              $C$DW$2 .dwtag  DW_TAG_subprogram, DW_AT_name("rsvd_ISR")
      26                      .dwattr $C$DW$2, DW_AT_low_pc(_rsvd_ISR)
      27                      .dwattr $C$DW$2, DW_AT_high_pc(0x00)
      28                      .dwattr $C$DW$2, DW_AT_TI_symbol_name("_rsvd_ISR")
      29                      .dwattr $C$DW$2, DW_AT_external
      30                      .dwattr $C$DW$2, DW_AT_TI_begin_file("../source/DSP2803x_SWPrioritizedDefaultIsr.c")
      31                      .dwattr $C$DW$2, DW_AT_TI_begin_line(0x69a)
      32                      .dwattr $C$DW$2, DW_AT_TI_begin_column(0x12)
      33                      .dwattr $C$DW$2, DW_AT_TI_interrupt
      34                      .dwattr $C$DW$2, DW_AT_TI_max_frame_size(-2)
      35                      .dwpsn  file "../source/DSP2803x_SWPrioritizedDefaultIsr.c",line 1691,column 1,is_stmt,address _rsvd_
      36              
      37                      .dwfde $C$DW$CIE, _rsvd_ISR
      38              
      39              ;***************************************************************
      40              ;* FNAME: _rsvd_ISR                     FR SIZE:   0           *
      41              ;*                                                             *
      42              ;* FUNCTION ENVIRONMENT                                        *
      43              ;*                                                             *
      44              ;* FUNCTION PROPERTIES                                         *
      45              ;*                            0 Parameter,  0 Auto,  0 SOE     *
      46              ;***************************************************************
      47              
      48 00000000       _rsvd_ISR:
      49                      .dwcfi  cfa_offset, -2
      50                      .dwcfi  save_reg_to_mem, 26, 0
      51 00000000 761B          ASP       ; [CPU_] 
      52 00000001 2942          CLRC      PAGE0,OVM             ; [CPU_] 
      53 00000002 5616          CLRC      AMODE                 ; [CPU_] 
      54 00000003 7625        ESTOP0
      55 00000004       $C$L1:    
TMS320C2000 Assembler PC v6.4.12 Thu Nov 16 10:01:32 2017

Tools Copyright (c) 1996-2017 Texas Instruments Incorporated
C:\Users\Admin\AppData\Local\Temp\0610810                            PAGE    2

      56                      .dwpsn  file "../source/DSP2803x_SWPrioritizedDefaultIsr.c",line 1693,column 3,is_stmt,isa 0
      57 00000004 6F00          B         $C$L1,UNC             ; [CPU_] |1693| 
      58                      ; branch occurs ; [] |1693| 
      59                      .dwattr $C$DW$2, DW_AT_TI_end_file("../source/DSP2803x_SWPrioritizedDefaultIsr.c")
      60                      .dwattr $C$DW$2, DW_AT_TI_end_line(0x69e)
      61                      .dwattr $C$DW$2, DW_AT_TI_end_column(0x01)
      62                      .dwendentry
      63                      .dwendtag $C$DW$2
      64              
      65 00000005               .sect   ".text:retain"
      66                      .retain
      67                      .retainrefs
      68                      .global _XINT3_ISR
      69              
      70              $C$DW$3 .dwtag  DW_TAG_subprogram, DW_AT_name("XINT3_ISR")
      71                      .dwattr $C$DW$3, DW_AT_low_pc(_XINT3_ISR)
      72                      .dwattr $C$DW$3, DW_AT_high_pc(0x00)
      73                      .dwattr $C$DW$3, DW_AT_TI_symbol_name("_XINT3_ISR")
      74                      .dwattr $C$DW$3, DW_AT_external
      75                      .dwattr $C$DW$3, DW_AT_TI_begin_file("../source/DSP2803x_SWPrioritizedDefaultIsr.c")
      76                      .dwattr $C$DW$3, DW_AT_TI_begin_line(0x63d)
      77                      .dwattr $C$DW$3, DW_AT_TI_begin_column(0x12)
      78                      .dwattr $C$DW$3, DW_AT_TI_interrupt
      79                      .dwattr $C$DW$3, DW_AT_TI_max_frame_size(-4)
      80                      .dwpsn  file "../source/DSP2803x_SWPrioritizedDefaultIsr.c",line 1598,column 1,is_stmt,address _XINT3
      81              
      82                      .dwfde $C$DW$CIE, _XINT3_ISR
      83              
      84              ;***************************************************************
      85              ;* FNAME: _XINT3_ISR                    FR SIZE:   2           *
      86              ;*                                                             *
      87              ;* FUNCTION ENVIRONMENT                                        *
      88              ;*                                                             *
      89              ;* FUNCTION PROPERTIES                                         *
      90              ;*                            0 Parameter,  1 Auto,  0 SOE     *
      91              ;***************************************************************
      92              
      93              _XINT3_ISR:
      94              $C$DW$4 .dwtag  DW_TAG_variable, DW_AT_name("TempPIEIER")
      95                      .dwattr $C$DW$4, DW_AT_TI_symbol_name("_TempPIEIER")
      96                      .dwattr $C$DW$4, DW_AT_type(*$C$DW$T$33)
      97                      .dwattr $C$DW$4, DW_AT_location[DW_OP_breg20 -1]
      98                      .dwcfi  cfa_offset, -2
      99                      .dwcfi  save_reg_to_mem, 26, 0
     100 00000005 761B          ASP       ; [CPU_] 
     101 00000006 FE02          ADDB      SP,#2                 ; [CPU_U] 
     102                      .dwcfi  cfa_offset, -4
     103 00000007 2942          CLRC      PAGE0,OVM             ; [CPU_] 
     104 00000008 5616          CLRC      AMODE                 ; [CPU_] 
     105 00000009 761F!         MOVW      DP,#_PieCtrlRegs+24   ; [CPU_U] 
         0000000a 0000 
     106                      .dwpsn  file "../source/DSP2803x_SWPrioritizedDefaultIsr.c",line 1600,column 29,is_stmt,isa 0
     107 0000000b 9218!         MOV       AL,@_PieCtrlRegs+24   ; [CPU_] |1600| 
     108 0000000c 9641          MOV       *-SP[1],AL            ; [CPU_] |1600| 
     109                      .dwpsn  file "../source/DSP2803x_SWPrioritizedDefaultIsr.c",line 1601,column 2,is_stmt,isa 0
TMS320C2000 Assembler PC v6.4.12 Thu Nov 16 10:01:32 2017

Tools Copyright (c) 1996-2017 Texas Instruments Incorporated
C:\Users\Admin\AppData\Local\Temp\0610810                            PAGE    3

     110 0000000d 7623          OR        IER,#0x0800           ; [CPU_] |1601| 
         0000000e 0800 
     111                      .dwpsn  file "../source/DSP2803x_SWPrioritizedDefaultIsr.c",line 1602,column 2,is_stmt,isa 0
     112 0000000f 7626          AND       IER,#0xffbf           ; [CPU_] |1602| 
         00000010 FFBF 
     113                      .dwpsn  file "../source/DSP2803x_SWPrioritizedDefaultIsr.c",line 1603,column 2,is_stmt,isa 0
     114 00000011 9218!         MOV       AL,@_PieCtrlRegs+24   ; [CPU_] |1603| 
     115 00000012 2B18!         MOV       @_PieCtrlRegs+24,#0   ; [CPU_] |1603| 
     116                      .dwpsn  file "../source/DSP2803x_SWPrioritizedDefaultIsr.c",line 1604,column 2,is_stmt,isa 0
     117 00000013 2801!         MOV       @_PieCtrlRegs+1,#65535 ; [CPU_] |1604| 
         00000014 FFFF 
     118 00000015 2910   clrc INTM
     119 00000016 3B10   setc INTM
     120                      .dwpsn  file "../source/DSP2803x_SWPrioritizedDefaultIsr.c",line 1611,column 2,is_stmt,isa 0
     121 00000017 9241          MOV       AL,*-SP[1]            ; [CPU_] |1611| 
     122 00000018 9618!         MOV       @_PieCtrlRegs+24,AL   ; [CPU_] |1611| 
     123 00000019 7625        ESTOP0
     124 0000001a       $C$L2:    
     125                      .dwpsn  file "../source/DSP2803x_SWPrioritizedDefaultIsr.c",line 1616,column 5,is_stmt,isa 0
     126 0000001a 6F00          B         $C$L2,UNC             ; [CPU_] |1616| 
     127                      ; branch occurs ; [] |1616| 
     128                      .dwattr $C$DW$3, DW_AT_TI_end_file("../source/DSP2803x_SWPrioritizedDefaultIsr.c")
     129                      .dwattr $C$DW$3, DW_AT_TI_end_line(0x652)
     130                      .dwattr $C$DW$3, DW_AT_TI_end_column(0x01)
     131                      .dwendentry
     132                      .dwendtag $C$DW$3
     133              
     134 0000001b               .sect   ".text:retain"
     135                      .retain
     136                      .retainrefs
     137                      .global _XINT2_ISR
     138              
     139              $C$DW$5 .dwtag  DW_TAG_subprogram, DW_AT_name("XINT2_ISR")
     140                      .dwattr $C$DW$5, DW_AT_low_pc(_XINT2_ISR)
     141                      .dwattr $C$DW$5, DW_AT_high_pc(0x00)
     142                      .dwattr $C$DW$5, DW_AT_TI_symbol_name("_XINT2_ISR")
     143                      .dwattr $C$DW$5, DW_AT_external
     144                      .dwattr $C$DW$5, DW_AT_TI_begin_file("../source/DSP2803x_SWPrioritizedDefaultIsr.c")
     145                      .dwattr $C$DW$5, DW_AT_TI_begin_line(0x15a)
     146                      .dwattr $C$DW$5, DW_AT_TI_begin_column(0x13)
     147                      .dwattr $C$DW$5, DW_AT_TI_interrupt
     148                      .dwattr $C$DW$5, DW_AT_TI_max_frame_size(-4)
     149                      .dwpsn  file "../source/DSP2803x_SWPrioritizedDefaultIsr.c",line 347,column 1,is_stmt,address _XINT2_
     150              
     151                      .dwfde $C$DW$CIE, _XINT2_ISR
     152              
     153              ;***************************************************************
     154              ;* FNAME: _XINT2_ISR                    FR SIZE:   2           *
     155              ;*                                                             *
     156              ;* FUNCTION ENVIRONMENT                                        *
     157              ;*                                                             *
     158              ;* FUNCTION PROPERTIES                                         *
     159              ;*                            0 Parameter,  1 Auto,  0 SOE     *
     160              ;***************************************************************
     161              
TMS320C2000 Assembler PC v6.4.12 Thu Nov 16 10:01:32 2017

Tools Copyright (c) 1996-2017 Texas Instruments Incorporated
C:\Users\Admin\AppData\Local\Temp\0610810                            PAGE    4

     162              _XINT2_ISR:
     163              $C$DW$6 .dwtag  DW_TAG_variable, DW_AT_name("TempPIEIER")
     164                      .dwattr $C$DW$6, DW_AT_TI_symbol_name("_TempPIEIER")
     165                      .dwattr $C$DW$6, DW_AT_type(*$C$DW$T$33)
     166                      .dwattr $C$DW$6, DW_AT_location[DW_OP_breg20 -1]
     167                      .dwcfi  cfa_offset, -2
     168                      .dwcfi  save_reg_to_mem, 26, 0
     169 0000001b 761B          ASP       ; [CPU_] 
     170 0000001c FE02          ADDB      SP,#2                 ; [CPU_U] 
     171                      .dwcfi  cfa_offset, -4
     172 0000001d 2942          CLRC      PAGE0,OVM             ; [CPU_] 
     173 0000001e 5616          CLRC      AMODE                 ; [CPU_] 
     174 0000001f 761F!         MOVW      DP,#_PieCtrlRegs+2    ; [CPU_U] 
         00000020 0000 
     175                      .dwpsn  file "../source/DSP2803x_SWPrioritizedDefaultIsr.c",line 349,column 29,is_stmt,isa 0
     176 00000021 9202!         MOV       AL,@_PieCtrlRegs+2    ; [CPU_] |349| 
     177 00000022 9641          MOV       *-SP[1],AL            ; [CPU_] |349| 
     178                      .dwpsn  file "../source/DSP2803x_SWPrioritizedDefaultIsr.c",line 350,column 2,is_stmt,isa 0
     179 00000023 7623          OR        IER,#0x0003           ; [CPU_] |350| 
         00000024 0003 
     180                      .dwpsn  file "../source/DSP2803x_SWPrioritizedDefaultIsr.c",line 351,column 2,is_stmt,isa 0
     181 00000025 1802!         AND       @_PieCtrlRegs+2,#0x0068 ; [CPU_] |351| 
         00000026 0068 
     182                      .dwpsn  file "../source/DSP2803x_SWPrioritizedDefaultIsr.c",line 352,column 2,is_stmt,isa 0
     183 00000027 2801!         MOV       @_PieCtrlRegs+1,#65535 ; [CPU_] |352| 
         00000028 FFFF 
     184 00000029 2910   clrc INTM
     185 0000002a 3B10   setc INTM
     186                      .dwpsn  file "../source/DSP2803x_SWPrioritizedDefaultIsr.c",line 359,column 2,is_stmt,isa 0
     187 0000002b 9241          MOV       AL,*-SP[1]            ; [CPU_] |359| 
     188 0000002c 9602!         MOV       @_PieCtrlRegs+2,AL    ; [CPU_] |359| 
     189 0000002d 7625        ESTOP0
     190 0000002e       $C$L3:    
     191                      .dwpsn  file "../source/DSP2803x_SWPrioritizedDefaultIsr.c",line 364,column 5,is_stmt,isa 0
     192 0000002e 6F00          B         $C$L3,UNC             ; [CPU_] |364| 
     193                      ; branch occurs ; [] |364| 
     194                      .dwattr $C$DW$5, DW_AT_TI_end_file("../source/DSP2803x_SWPrioritizedDefaultIsr.c")
     195                      .dwattr $C$DW$5, DW_AT_TI_end_line(0x16d)
     196                      .dwattr $C$DW$5, DW_AT_TI_end_column(0x01)
     197                      .dwendentry
     198                      .dwendtag $C$DW$5
     199              
     200 0000002f               .sect   ".text:retain"
     201                      .retain
     202                      .retainrefs
     203                      .global _XINT1_ISR
     204              
     205              $C$DW$7 .dwtag  DW_TAG_subprogram, DW_AT_name("XINT1_ISR")
     206                      .dwattr $C$DW$7, DW_AT_low_pc(_XINT1_ISR)
     207                      .dwattr $C$DW$7, DW_AT_high_pc(0x00)
     208                      .dwattr $C$DW$7, DW_AT_TI_symbol_name("_XINT1_ISR")
     209                      .dwattr $C$DW$7, DW_AT_external
     210                      .dwattr $C$DW$7, DW_AT_TI_begin_file("../source/DSP2803x_SWPrioritizedDefaultIsr.c")
     211                      .dwattr $C$DW$7, DW_AT_TI_begin_line(0x144)
     212                      .dwattr $C$DW$7, DW_AT_TI_begin_column(0x13)
TMS320C2000 Assembler PC v6.4.12 Thu Nov 16 10:01:32 2017

Tools Copyright (c) 1996-2017 Texas Instruments Incorporated
C:\Users\Admin\AppData\Local\Temp\0610810                            PAGE    5

     213                      .dwattr $C$DW$7, DW_AT_TI_interrupt
     214                      .dwattr $C$DW$7, DW_AT_TI_max_frame_size(-4)
     215                      .dwpsn  file "../source/DSP2803x_SWPrioritizedDefaultIsr.c",line 325,column 1,is_stmt,address _XINT1_
     216              
     217                      .dwfde $C$DW$CIE, _XINT1_ISR
     218              
     219              ;***************************************************************
     220              ;* FNAME: _XINT1_ISR                    FR SIZE:   2           *
     221              ;*                                                             *
     222              ;* FUNCTION ENVIRONMENT                                        *
     223              ;*                                                             *
     224              ;* FUNCTION PROPERTIES                                         *
     225              ;*                            0 Parameter,  1 Auto,  0 SOE     *
     226              ;***************************************************************
     227              
     228              _XINT1_ISR:
     229              $C$DW$8 .dwtag  DW_TAG_variable, DW_AT_name("TempPIEIER")
     230                      .dwattr $C$DW$8, DW_AT_TI_symbol_name("_TempPIEIER")
     231                      .dwattr $C$DW$8, DW_AT_type(*$C$DW$T$33)
     232                      .dwattr $C$DW$8, DW_AT_location[DW_OP_breg20 -1]
     233                      .dwcfi  cfa_offset, -2
     234                      .dwcfi  save_reg_to_mem, 26, 0
     235 0000002f 761B          ASP       ; [CPU_] 
     236 00000030 FE02          ADDB      SP,#2                 ; [CPU_U] 
     237                      .dwcfi  cfa_offset, -4
     238 00000031 2942          CLRC      PAGE0,OVM             ; [CPU_] 
     239 00000032 5616          CLRC      AMODE                 ; [CPU_] 
     240 00000033 761F!         MOVW      DP,#_PieCtrlRegs+2    ; [CPU_U] 
         00000034 0000 
     241                      .dwpsn  file "../source/DSP2803x_SWPrioritizedDefaultIsr.c",line 327,column 29,is_stmt,isa 0
     242 00000035 9202!         MOV       AL,@_PieCtrlRegs+2    ; [CPU_] |327| 
     243 00000036 9641          MOV       *-SP[1],AL            ; [CPU_] |327| 
     244                      .dwpsn  file "../source/DSP2803x_SWPrioritizedDefaultIsr.c",line 328,column 2,is_stmt,isa 0
     245 00000037 7623          OR        IER,#0x0003           ; [CPU_] |328| 
         00000038 0003 
     246                      .dwpsn  file "../source/DSP2803x_SWPrioritizedDefaultIsr.c",line 329,column 2,is_stmt,isa 0
     247 00000039 9202!         MOV       AL,@_PieCtrlRegs+2    ; [CPU_] |329| 
     248 0000003a 2B02!         MOV       @_PieCtrlRegs+2,#0    ; [CPU_] |329| 
     249                      .dwpsn  file "../source/DSP2803x_SWPrioritizedDefaultIsr.c",line 330,column 2,is_stmt,isa 0
     250 0000003b 2801!         MOV       @_PieCtrlRegs+1,#65535 ; [CPU_] |330| 
         0000003c FFFF 
     251 0000003d 2910   clrc INTM
     252 0000003e 3B10   setc INTM
     253                      .dwpsn  file "../source/DSP2803x_SWPrioritizedDefaultIsr.c",line 335,column 2,is_stmt,isa 0
     254 0000003f 9241          MOV       AL,*-SP[1]            ; [CPU_] |335| 
     255 00000040 9602!         MOV       @_PieCtrlRegs+2,AL    ; [CPU_] |335| 
     256 00000041 7625        ESTOP0
     257 00000042       $C$L4:    
     258                      .dwpsn  file "../source/DSP2803x_SWPrioritizedDefaultIsr.c",line 340,column 5,is_stmt,isa 0
     259 00000042 6F00          B         $C$L4,UNC             ; [CPU_] |340| 
     260                      ; branch occurs ; [] |340| 
     261                      .dwattr $C$DW$7, DW_AT_TI_end_file("../source/DSP2803x_SWPrioritizedDefaultIsr.c")
     262                      .dwattr $C$DW$7, DW_AT_TI_end_line(0x155)
     263                      .dwattr $C$DW$7, DW_AT_TI_end_column(0x01)
     264                      .dwendentry
TMS320C2000 Assembler PC v6.4.12 Thu Nov 16 10:01:32 2017

Tools Copyright (c) 1996-2017 Texas Instruments Incorporated
C:\Users\Admin\AppData\Local\Temp\0610810                            PAGE    6

     265                      .dwendtag $C$DW$7
     266              
     267 00000043               .sect   ".text:retain"
     268                      .retain
     269                      .retainrefs
     270                      .global _WAKEINT_ISR
     271              
     272              $C$DW$9 .dwtag  DW_TAG_subprogram, DW_AT_name("WAKEINT_ISR")
     273                      .dwattr $C$DW$9, DW_AT_low_pc(_WAKEINT_ISR)
     274                      .dwattr $C$DW$9, DW_AT_high_pc(0x00)
     275                      .dwattr $C$DW$9, DW_AT_TI_symbol_name("_WAKEINT_ISR")
     276                      .dwattr $C$DW$9, DW_AT_external
     277                      .dwattr $C$DW$9, DW_AT_TI_begin_file("../source/DSP2803x_SWPrioritizedDefaultIsr.c")
     278                      .dwattr $C$DW$9, DW_AT_TI_begin_line(0x1a5)
     279                      .dwattr $C$DW$9, DW_AT_TI_begin_column(0x13)
     280                      .dwattr $C$DW$9, DW_AT_TI_interrupt
     281                      .dwattr $C$DW$9, DW_AT_TI_max_frame_size(-4)
     282                      .dwpsn  file "../source/DSP2803x_SWPrioritizedDefaultIsr.c",line 422,column 1,is_stmt,address _WAKEIN
     283              
     284                      .dwfde $C$DW$CIE, _WAKEINT_ISR
     285              
     286              ;***************************************************************
     287              ;* FNAME: _WAKEINT_ISR                  FR SIZE:   2           *
     288              ;*                                                             *
     289              ;* FUNCTION ENVIRONMENT                                        *
     290              ;*                                                             *
     291              ;* FUNCTION PROPERTIES                                         *
     292              ;*                            0 Parameter,  1 Auto,  0 SOE     *
     293              ;***************************************************************
     294              
     295              _WAKEINT_ISR:
     296              $C$DW$10        .dwtag  DW_TAG_variable, DW_AT_name("TempPIEIER")
     297                      .dwattr $C$DW$10, DW_AT_TI_symbol_name("_TempPIEIER")
     298                      .dwattr $C$DW$10, DW_AT_type(*$C$DW$T$33)
     299                      .dwattr $C$DW$10, DW_AT_location[DW_OP_breg20 -1]
     300                      .dwcfi  cfa_offset, -2
     301                      .dwcfi  save_reg_to_mem, 26, 0
     302 00000043 761B          ASP       ; [CPU_] 
     303 00000044 FE02          ADDB      SP,#2                 ; [CPU_U] 
     304                      .dwcfi  cfa_offset, -4
     305 00000045 2942          CLRC      PAGE0,OVM             ; [CPU_] 
     306 00000046 5616          CLRC      AMODE                 ; [CPU_] 
     307 00000047 761F!         MOVW      DP,#_PieCtrlRegs+2    ; [CPU_U] 
         00000048 0000 
     308                      .dwpsn  file "../source/DSP2803x_SWPrioritizedDefaultIsr.c",line 424,column 29,is_stmt,isa 0
     309 00000049 9202!         MOV       AL,@_PieCtrlRegs+2    ; [CPU_] |424| 
     310 0000004a 9641          MOV       *-SP[1],AL            ; [CPU_] |424| 
     311                      .dwpsn  file "../source/DSP2803x_SWPrioritizedDefaultIsr.c",line 425,column 2,is_stmt,isa 0
     312 0000004b 7623          OR        IER,#0x0001           ; [CPU_] |425| 
         0000004c 0001 
     313                      .dwpsn  file "../source/DSP2803x_SWPrioritizedDefaultIsr.c",line 426,column 2,is_stmt,isa 0
     314 0000004d 7626          AND       IER,#0x0003           ; [CPU_] |426| 
         0000004e 0003 
     315                      .dwpsn  file "../source/DSP2803x_SWPrioritizedDefaultIsr.c",line 427,column 2,is_stmt,isa 0
     316 0000004f 1802!         AND       @_PieCtrlRegs+2,#0x0078 ; [CPU_] |427| 
TMS320C2000 Assembler PC v6.4.12 Thu Nov 16 10:01:32 2017

Tools Copyright (c) 1996-2017 Texas Instruments Incorporated
C:\Users\Admin\AppData\Local\Temp\0610810                            PAGE    7

         00000050 0078 
     317                      .dwpsn  file "../source/DSP2803x_SWPrioritizedDefaultIsr.c",line 428,column 2,is_stmt,isa 0
     318 00000051 2801!         MOV       @_PieCtrlRegs+1,#65535 ; [CPU_] |428| 
         00000052 FFFF 
     319 00000053 2910   clrc INTM
     320 00000054 3B10   setc INTM
     321                      .dwpsn  file "../source/DSP2803x_SWPrioritizedDefaultIsr.c",line 435,column 2,is_stmt,isa 0
     322 00000055 9241          MOV       AL,*-SP[1]            ; [CPU_] |435| 
     323 00000056 9602!         MOV       @_PieCtrlRegs+2,AL    ; [CPU_] |435| 
     324 00000057 7625        ESTOP0
     325 00000058       $C$L5:    
     326                      .dwpsn  file "../source/DSP2803x_SWPrioritizedDefaultIsr.c",line 440,column 5,is_stmt,isa 0
     327 00000058 6F00          B         $C$L5,UNC             ; [CPU_] |440| 
     328                      ; branch occurs ; [] |440| 
     329                      .dwattr $C$DW$9, DW_AT_TI_end_file("../source/DSP2803x_SWPrioritizedDefaultIsr.c")
     330                      .dwattr $C$DW$9, DW_AT_TI_end_line(0x1b9)
     331                      .dwattr $C$DW$9, DW_AT_TI_end_column(0x01)
     332                      .dwendentry
     333                      .dwendtag $C$DW$9
     334              
     335 00000059               .sect   ".text:retain"
     336                      .retain
     337                      .retainrefs
     338                      .global _USER9_ISR
     339              
     340              $C$DW$11        .dwtag  DW_TAG_subprogram, DW_AT_name("USER9_ISR")
     341                      .dwattr $C$DW$11, DW_AT_low_pc(_USER9_ISR)
     342                      .dwattr $C$DW$11, DW_AT_high_pc(0x00)
     343                      .dwattr $C$DW$11, DW_AT_TI_symbol_name("_USER9_ISR")
     344                      .dwattr $C$DW$11, DW_AT_external
     345                      .dwattr $C$DW$11, DW_AT_TI_begin_file("../source/DSP2803x_SWPrioritizedDefaultIsr.c")
     346                      .dwattr $C$DW$11, DW_AT_TI_begin_line(0xda)
     347                      .dwattr $C$DW$11, DW_AT_TI_begin_column(0x12)
     348                      .dwattr $C$DW$11, DW_AT_TI_interrupt
     349                      .dwattr $C$DW$11, DW_AT_TI_max_frame_size(-2)
     350                      .dwpsn  file "../source/DSP2803x_SWPrioritizedDefaultIsr.c",line 219,column 1,is_stmt,address _USER9_
     351              
     352                      .dwfde $C$DW$CIE, _USER9_ISR
     353              
     354              ;***************************************************************
     355              ;* FNAME: _USER9_ISR                    FR SIZE:   0           *
     356              ;*                                                             *
     357              ;* FUNCTION ENVIRONMENT                                        *
     358              ;*                                                             *
     359              ;* FUNCTION PROPERTIES                                         *
     360              ;*                            0 Parameter,  0 Auto,  0 SOE     *
     361              ;***************************************************************
     362              
     363 00000059       _USER9_ISR:
     364                      .dwcfi  cfa_offset, -2
     365                      .dwcfi  save_reg_to_mem, 26, 0
     366 00000059 761B          ASP       ; [CPU_] 
     367 0000005a 2942          CLRC      PAGE0,OVM             ; [CPU_] 
     368 0000005b 5616          CLRC      AMODE                 ; [CPU_] 
     369 0000005c 2910   clrc INTM
TMS320C2000 Assembler PC v6.4.12 Thu Nov 16 10:01:32 2017

Tools Copyright (c) 1996-2017 Texas Instruments Incorporated
C:\Users\Admin\AppData\Local\Temp\0610810                            PAGE    8

     370 0000005d 7625        ESTOP0
     371 0000005e       $C$L6:    
     372                      .dwpsn  file "../source/DSP2803x_SWPrioritizedDefaultIsr.c",line 227,column 5,is_stmt,isa 0
     373 0000005e 6F00          B         $C$L6,UNC             ; [CPU_] |227| 
     374                      ; branch occurs ; [] |227| 
     375                      .dwattr $C$DW$11, DW_AT_TI_end_file("../source/DSP2803x_SWPrioritizedDefaultIsr.c")
     376                      .dwattr $C$DW$11, DW_AT_TI_end_line(0xe4)
     377                      .dwattr $C$DW$11, DW_AT_TI_end_column(0x01)
     378                      .dwendentry
     379                      .dwendtag $C$DW$11
     380              
     381 0000005f               .sect   ".text:retain"
     382                      .retain
     383                      .retainrefs
     384                      .global _USER8_ISR
     385              
     386              $C$DW$12        .dwtag  DW_TAG_subprogram, DW_AT_name("USER8_ISR")
     387                      .dwattr $C$DW$12, DW_AT_low_pc(_USER8_ISR)
     388                      .dwattr $C$DW$12, DW_AT_high_pc(0x00)
     389                      .dwattr $C$DW$12, DW_AT_TI_symbol_name("_USER8_ISR")
     390                      .dwattr $C$DW$12, DW_AT_external
     391                      .dwattr $C$DW$12, DW_AT_TI_begin_file("../source/DSP2803x_SWPrioritizedDefaultIsr.c")
     392                      .dwattr $C$DW$12, DW_AT_TI_begin_line(0xce)
     393                      .dwattr $C$DW$12, DW_AT_TI_begin_column(0x12)
     394                      .dwattr $C$DW$12, DW_AT_TI_interrupt
     395                      .dwattr $C$DW$12, DW_AT_TI_max_frame_size(-2)
     396                      .dwpsn  file "../source/DSP2803x_SWPrioritizedDefaultIsr.c",line 207,column 1,is_stmt,address _USER8_
     397              
     398                      .dwfde $C$DW$CIE, _USER8_ISR
     399              
     400              ;***************************************************************
     401              ;* FNAME: _USER8_ISR                    FR SIZE:   0           *
     402              ;*                                                             *
     403              ;* FUNCTION ENVIRONMENT                                        *
     404              ;*                                                             *
     405              ;* FUNCTION PROPERTIES                                         *
     406              ;*                            0 Parameter,  0 Auto,  0 SOE     *
     407              ;***************************************************************
     408              
     409 0000005f       _USER8_ISR:
     410                      .dwcfi  cfa_offset, -2
     411                      .dwcfi  save_reg_to_mem, 26, 0
     412 0000005f 761B          ASP       ; [CPU_] 
     413 00000060 2942          CLRC      PAGE0,OVM             ; [CPU_] 
     414 00000061 5616          CLRC      AMODE                 ; [CPU_] 
     415 00000062 2910   clrc INTM
     416 00000063 7625        ESTOP0
     417 00000064       $C$L7:    
     418                      .dwpsn  file "../source/DSP2803x_SWPrioritizedDefaultIsr.c",line 215,column 5,is_stmt,isa 0
     419 00000064 6F00          B         $C$L7,UNC             ; [CPU_] |215| 
     420                      ; branch occurs ; [] |215| 
     421                      .dwattr $C$DW$12, DW_AT_TI_end_file("../source/DSP2803x_SWPrioritizedDefaultIsr.c")
     422                      .dwattr $C$DW$12, DW_AT_TI_end_line(0xd8)
     423                      .dwattr $C$DW$12, DW_AT_TI_end_column(0x01)
     424                      .dwendentry
TMS320C2000 Assembler PC v6.4.12 Thu Nov 16 10:01:32 2017

Tools Copyright (c) 1996-2017 Texas Instruments Incorporated
C:\Users\Admin\AppData\Local\Temp\0610810                            PAGE    9

     425                      .dwendtag $C$DW$12
     426              
     427 00000065               .sect   ".text:retain"
     428                      .retain
     429                      .retainrefs
     430                      .global _USER7_ISR
     431              
     432              $C$DW$13        .dwtag  DW_TAG_subprogram, DW_AT_name("USER7_ISR")
     433                      .dwattr $C$DW$13, DW_AT_low_pc(_USER7_ISR)
     434                      .dwattr $C$DW$13, DW_AT_high_pc(0x00)
     435                      .dwattr $C$DW$13, DW_AT_TI_symbol_name("_USER7_ISR")
     436                      .dwattr $C$DW$13, DW_AT_external
     437                      .dwattr $C$DW$13, DW_AT_TI_begin_file("../source/DSP2803x_SWPrioritizedDefaultIsr.c")
     438                      .dwattr $C$DW$13, DW_AT_TI_begin_line(0xc2)
     439                      .dwattr $C$DW$13, DW_AT_TI_begin_column(0x12)
     440                      .dwattr $C$DW$13, DW_AT_TI_interrupt
     441                      .dwattr $C$DW$13, DW_AT_TI_max_frame_size(-2)
     442                      .dwpsn  file "../source/DSP2803x_SWPrioritizedDefaultIsr.c",line 195,column 1,is_stmt,address _USER7_
     443              
     444                      .dwfde $C$DW$CIE, _USER7_ISR
     445              
     446              ;***************************************************************
     447              ;* FNAME: _USER7_ISR                    FR SIZE:   0           *
     448              ;*                                                             *
     449              ;* FUNCTION ENVIRONMENT                                        *
     450              ;*                                                             *
     451              ;* FUNCTION PROPERTIES                                         *
     452              ;*                            0 Parameter,  0 Auto,  0 SOE     *
     453              ;***************************************************************
     454              
     455 00000065       _USER7_ISR:
     456                      .dwcfi  cfa_offset, -2
     457                      .dwcfi  save_reg_to_mem, 26, 0
     458 00000065 761B          ASP       ; [CPU_] 
     459 00000066 2942          CLRC      PAGE0,OVM             ; [CPU_] 
     460 00000067 5616          CLRC      AMODE                 ; [CPU_] 
     461 00000068 2910   clrc INTM
     462 00000069 7625        ESTOP0
     463 0000006a       $C$L8:    
     464                      .dwpsn  file "../source/DSP2803x_SWPrioritizedDefaultIsr.c",line 203,column 5,is_stmt,isa 0
     465 0000006a 6F00          B         $C$L8,UNC             ; [CPU_] |203| 
     466                      ; branch occurs ; [] |203| 
     467                      .dwattr $C$DW$13, DW_AT_TI_end_file("../source/DSP2803x_SWPrioritizedDefaultIsr.c")
     468                      .dwattr $C$DW$13, DW_AT_TI_end_line(0xcc)
     469                      .dwattr $C$DW$13, DW_AT_TI_end_column(0x01)
     470                      .dwendentry
     471                      .dwendtag $C$DW$13
     472              
     473 0000006b               .sect   ".text:retain"
     474                      .retain
     475                      .retainrefs
     476                      .global _USER6_ISR
     477              
     478              $C$DW$14        .dwtag  DW_TAG_subprogram, DW_AT_name("USER6_ISR")
     479                      .dwattr $C$DW$14, DW_AT_low_pc(_USER6_ISR)
TMS320C2000 Assembler PC v6.4.12 Thu Nov 16 10:01:32 2017

Tools Copyright (c) 1996-2017 Texas Instruments Incorporated
C:\Users\Admin\AppData\Local\Temp\0610810                            PAGE   10

     480                      .dwattr $C$DW$14, DW_AT_high_pc(0x00)
     481                      .dwattr $C$DW$14, DW_AT_TI_symbol_name("_USER6_ISR")
     482                      .dwattr $C$DW$14, DW_AT_external
     483                      .dwattr $C$DW$14, DW_AT_TI_begin_file("../source/DSP2803x_SWPrioritizedDefaultIsr.c")
     484                      .dwattr $C$DW$14, DW_AT_TI_begin_line(0xb6)
     485                      .dwattr $C$DW$14, DW_AT_TI_begin_column(0x12)
     486                      .dwattr $C$DW$14, DW_AT_TI_interrupt
     487                      .dwattr $C$DW$14, DW_AT_TI_max_frame_size(-2)
     488                      .dwpsn  file "../source/DSP2803x_SWPrioritizedDefaultIsr.c",line 183,column 1,is_stmt,address _USER6_
     489              
     490                      .dwfde $C$DW$CIE, _USER6_ISR
     491              
     492              ;***************************************************************
     493              ;* FNAME: _USER6_ISR                    FR SIZE:   0           *
     494              ;*                                                             *
     495              ;* FUNCTION ENVIRONMENT                                        *
     496              ;*                                                             *
     497              ;* FUNCTION PROPERTIES                                         *
     498              ;*                            0 Parameter,  0 Auto,  0 SOE     *
     499              ;***************************************************************
     500              
     501 0000006b       _USER6_ISR:
     502                      .dwcfi  cfa_offset, -2
     503                      .dwcfi  save_reg_to_mem, 26, 0
     504 0000006b 761B          ASP       ; [CPU_] 
     505 0000006c 2942          CLRC      PAGE0,OVM             ; [CPU_] 
     506 0000006d 5616          CLRC      AMODE                 ; [CPU_] 
     507 0000006e 2910   clrc INTM
     508 0000006f 7625        ESTOP0
     509 00000070       $C$L9:    
     510                      .dwpsn  file "../source/DSP2803x_SWPrioritizedDefaultIsr.c",line 191,column 5,is_stmt,isa 0
     511 00000070 6F00          B         $C$L9,UNC             ; [CPU_] |191| 
     512                      ; branch occurs ; [] |191| 
     513                      .dwattr $C$DW$14, DW_AT_TI_end_file("../source/DSP2803x_SWPrioritizedDefaultIsr.c")
     514                      .dwattr $C$DW$14, DW_AT_TI_end_line(0xc0)
     515                      .dwattr $C$DW$14, DW_AT_TI_end_column(0x01)
     516                      .dwendentry
     517                      .dwendtag $C$DW$14
     518              
     519 00000071               .sect   ".text:retain"
     520                      .retain
     521                      .retainrefs
     522                      .global _USER5_ISR
     523              
     524              $C$DW$15        .dwtag  DW_TAG_subprogram, DW_AT_name("USER5_ISR")
     525                      .dwattr $C$DW$15, DW_AT_low_pc(_USER5_ISR)
     526                      .dwattr $C$DW$15, DW_AT_high_pc(0x00)
     527                      .dwattr $C$DW$15, DW_AT_TI_symbol_name("_USER5_ISR")
     528                      .dwattr $C$DW$15, DW_AT_external
     529                      .dwattr $C$DW$15, DW_AT_TI_begin_file("../source/DSP2803x_SWPrioritizedDefaultIsr.c")
     530                      .dwattr $C$DW$15, DW_AT_TI_begin_line(0xaa)
     531                      .dwattr $C$DW$15, DW_AT_TI_begin_column(0x12)
     532                      .dwattr $C$DW$15, DW_AT_TI_interrupt
     533                      .dwattr $C$DW$15, DW_AT_TI_max_frame_size(-2)
     534                      .dwpsn  file "../source/DSP2803x_SWPrioritizedDefaultIsr.c",line 171,column 1,is_stmt,address _USER5_
TMS320C2000 Assembler PC v6.4.12 Thu Nov 16 10:01:32 2017

Tools Copyright (c) 1996-2017 Texas Instruments Incorporated
C:\Users\Admin\AppData\Local\Temp\0610810                            PAGE   11

     535              
     536                      .dwfde $C$DW$CIE, _USER5_ISR
     537              
     538              ;***************************************************************
     539              ;* FNAME: _USER5_ISR                    FR SIZE:   0           *
     540              ;*                                                             *
     541              ;* FUNCTION ENVIRONMENT                                        *
     542              ;*                                                             *
     543              ;* FUNCTION PROPERTIES                                         *
     544              ;*                            0 Parameter,  0 Auto,  0 SOE     *
     545              ;***************************************************************
     546              
     547 00000071       _USER5_ISR:
     548                      .dwcfi  cfa_offset, -2
     549                      .dwcfi  save_reg_to_mem, 26, 0
     550 00000071 761B          ASP       ; [CPU_] 
     551 00000072 2942          CLRC      PAGE0,OVM             ; [CPU_] 
     552 00000073 5616          CLRC      AMODE                 ; [CPU_] 
     553 00000074 2910   clrc INTM
     554 00000075 7625        ESTOP0
     555 00000076       $C$L10:    
     556                      .dwpsn  file "../source/DSP2803x_SWPrioritizedDefaultIsr.c",line 179,column 5,is_stmt,isa 0
     557 00000076 6F00          B         $C$L10,UNC            ; [CPU_] |179| 
     558                      ; branch occurs ; [] |179| 
     559                      .dwattr $C$DW$15, DW_AT_TI_end_file("../source/DSP2803x_SWPrioritizedDefaultIsr.c")
     560                      .dwattr $C$DW$15, DW_AT_TI_end_line(0xb4)
     561                      .dwattr $C$DW$15, DW_AT_TI_end_column(0x01)
     562                      .dwendentry
     563                      .dwendtag $C$DW$15
     564              
     565 00000077               .sect   ".text:retain"
     566                      .retain
     567                      .retainrefs
     568                      .global _USER4_ISR
     569              
     570              $C$DW$16        .dwtag  DW_TAG_subprogram, DW_AT_name("USER4_ISR")
     571                      .dwattr $C$DW$16, DW_AT_low_pc(_USER4_ISR)
     572                      .dwattr $C$DW$16, DW_AT_high_pc(0x00)
     573                      .dwattr $C$DW$16, DW_AT_TI_symbol_name("_USER4_ISR")
     574                      .dwattr $C$DW$16, DW_AT_external
     575                      .dwattr $C$DW$16, DW_AT_TI_begin_file("../source/DSP2803x_SWPrioritizedDefaultIsr.c")
     576                      .dwattr $C$DW$16, DW_AT_TI_begin_line(0x9e)
     577                      .dwattr $C$DW$16, DW_AT_TI_begin_column(0x12)
     578                      .dwattr $C$DW$16, DW_AT_TI_interrupt
     579                      .dwattr $C$DW$16, DW_AT_TI_max_frame_size(-2)
     580                      .dwpsn  file "../source/DSP2803x_SWPrioritizedDefaultIsr.c",line 159,column 1,is_stmt,address _USER4_
     581              
     582                      .dwfde $C$DW$CIE, _USER4_ISR
     583              
     584              ;***************************************************************
     585              ;* FNAME: _USER4_ISR                    FR SIZE:   0           *
     586              ;*                                                             *
     587              ;* FUNCTION ENVIRONMENT                                        *
     588              ;*                                                             *
     589              ;* FUNCTION PROPERTIES                                         *
TMS320C2000 Assembler PC v6.4.12 Thu Nov 16 10:01:32 2017

Tools Copyright (c) 1996-2017 Texas Instruments Incorporated
C:\Users\Admin\AppData\Local\Temp\0610810                            PAGE   12

     590              ;*                            0 Parameter,  0 Auto,  0 SOE     *
     591              ;***************************************************************
     592              
     593 00000077       _USER4_ISR:
     594                      .dwcfi  cfa_offset, -2
     595                      .dwcfi  save_reg_to_mem, 26, 0
     596 00000077 761B          ASP       ; [CPU_] 
     597 00000078 2942          CLRC      PAGE0,OVM             ; [CPU_] 
     598 00000079 5616          CLRC      AMODE                 ; [CPU_] 
     599 0000007a 2910   clrc INTM
     600 0000007b 7625        ESTOP0
     601 0000007c       $C$L11:    
     602                      .dwpsn  file "../source/DSP2803x_SWPrioritizedDefaultIsr.c",line 167,column 5,is_stmt,isa 0
     603 0000007c 6F00          B         $C$L11,UNC            ; [CPU_] |167| 
     604                      ; branch occurs ; [] |167| 
     605                      .dwattr $C$DW$16, DW_AT_TI_end_file("../source/DSP2803x_SWPrioritizedDefaultIsr.c")
     606                      .dwattr $C$DW$16, DW_AT_TI_end_line(0xa8)
     607                      .dwattr $C$DW$16, DW_AT_TI_end_column(0x01)
     608                      .dwendentry
     609                      .dwendtag $C$DW$16
     610              
     611 0000007d               .sect   ".text:retain"
     612                      .retain
     613                      .retainrefs
     614                      .global _USER3_ISR
     615              
     616              $C$DW$17        .dwtag  DW_TAG_subprogram, DW_AT_name("USER3_ISR")
     617                      .dwattr $C$DW$17, DW_AT_low_pc(_USER3_ISR)
     618                      .dwattr $C$DW$17, DW_AT_high_pc(0x00)
     619                      .dwattr $C$DW$17, DW_AT_TI_symbol_name("_USER3_ISR")
     620                      .dwattr $C$DW$17, DW_AT_external
     621                      .dwattr $C$DW$17, DW_AT_TI_begin_file("../source/DSP2803x_SWPrioritizedDefaultIsr.c")
     622                      .dwattr $C$DW$17, DW_AT_TI_begin_line(0x92)
     623                      .dwattr $C$DW$17, DW_AT_TI_begin_column(0x12)
     624                      .dwattr $C$DW$17, DW_AT_TI_interrupt
     625                      .dwattr $C$DW$17, DW_AT_TI_max_frame_size(-2)
     626                      .dwpsn  file "../source/DSP2803x_SWPrioritizedDefaultIsr.c",line 147,column 1,is_stmt,address _USER3_
     627              
     628                      .dwfde $C$DW$CIE, _USER3_ISR
     629              
     630              ;***************************************************************
     631              ;* FNAME: _USER3_ISR                    FR SIZE:   0           *
     632              ;*                                                             *
     633              ;* FUNCTION ENVIRONMENT                                        *
     634              ;*                                                             *
     635              ;* FUNCTION PROPERTIES                                         *
     636              ;*                            0 Parameter,  0 Auto,  0 SOE     *
     637              ;***************************************************************
     638              
     639 0000007d       _USER3_ISR:
     640                      .dwcfi  cfa_offset, -2
     641                      .dwcfi  save_reg_to_mem, 26, 0
     642 0000007d 761B          ASP       ; [CPU_] 
     643 0000007e 2942          CLRC      PAGE0,OVM             ; [CPU_] 
     644 0000007f 5616          CLRC      AMODE                 ; [CPU_] 
TMS320C2000 Assembler PC v6.4.12 Thu Nov 16 10:01:32 2017

Tools Copyright (c) 1996-2017 Texas Instruments Incorporated
C:\Users\Admin\AppData\Local\Temp\0610810                            PAGE   13

     645 00000080 2910   clrc INTM
     646 00000081 7625        ESTOP0
     647 00000082       $C$L12:    
     648                      .dwpsn  file "../source/DSP2803x_SWPrioritizedDefaultIsr.c",line 155,column 5,is_stmt,isa 0
     649 00000082 6F00          B         $C$L12,UNC            ; [CPU_] |155| 
     650                      ; branch occurs ; [] |155| 
     651                      .dwattr $C$DW$17, DW_AT_TI_end_file("../source/DSP2803x_SWPrioritizedDefaultIsr.c")
     652                      .dwattr $C$DW$17, DW_AT_TI_end_line(0x9c)
     653                      .dwattr $C$DW$17, DW_AT_TI_end_column(0x01)
     654                      .dwendentry
     655                      .dwendtag $C$DW$17
     656              
     657 00000083               .sect   ".text:retain"
     658                      .retain
     659                      .retainrefs
     660                      .global _USER2_ISR
     661              
     662              $C$DW$18        .dwtag  DW_TAG_subprogram, DW_AT_name("USER2_ISR")
     663                      .dwattr $C$DW$18, DW_AT_low_pc(_USER2_ISR)
     664                      .dwattr $C$DW$18, DW_AT_high_pc(0x00)
     665                      .dwattr $C$DW$18, DW_AT_TI_symbol_name("_USER2_ISR")
     666                      .dwattr $C$DW$18, DW_AT_external
     667                      .dwattr $C$DW$18, DW_AT_TI_begin_file("../source/DSP2803x_SWPrioritizedDefaultIsr.c")
     668                      .dwattr $C$DW$18, DW_AT_TI_begin_line(0x86)
     669                      .dwattr $C$DW$18, DW_AT_TI_begin_column(0x12)
     670                      .dwattr $C$DW$18, DW_AT_TI_interrupt
     671                      .dwattr $C$DW$18, DW_AT_TI_max_frame_size(-2)
     672                      .dwpsn  file "../source/DSP2803x_SWPrioritizedDefaultIsr.c",line 135,column 1,is_stmt,address _USER2_
     673              
     674                      .dwfde $C$DW$CIE, _USER2_ISR
     675              
     676              ;***************************************************************
     677              ;* FNAME: _USER2_ISR                    FR SIZE:   0           *
     678              ;*                                                             *
     679              ;* FUNCTION ENVIRONMENT                                        *
     680              ;*                                                             *
     681              ;* FUNCTION PROPERTIES                                         *
     682              ;*                            0 Parameter,  0 Auto,  0 SOE     *
     683              ;***************************************************************
     684              
     685 00000083       _USER2_ISR:
     686                      .dwcfi  cfa_offset, -2
     687                      .dwcfi  save_reg_to_mem, 26, 0
     688 00000083 761B          ASP       ; [CPU_] 
     689 00000084 2942          CLRC      PAGE0,OVM             ; [CPU_] 
     690 00000085 5616          CLRC      AMODE                 ; [CPU_] 
     691 00000086 2910   clrc INTM
     692 00000087 7625        ESTOP0
     693 00000088       $C$L13:    
     694                      .dwpsn  file "../source/DSP2803x_SWPrioritizedDefaultIsr.c",line 143,column 5,is_stmt,isa 0
     695 00000088 6F00          B         $C$L13,UNC            ; [CPU_] |143| 
     696                      ; branch occurs ; [] |143| 
     697                      .dwattr $C$DW$18, DW_AT_TI_end_file("../source/DSP2803x_SWPrioritizedDefaultIsr.c")
     698                      .dwattr $C$DW$18, DW_AT_TI_end_line(0x90)
     699                      .dwattr $C$DW$18, DW_AT_TI_end_column(0x01)
TMS320C2000 Assembler PC v6.4.12 Thu Nov 16 10:01:32 2017

Tools Copyright (c) 1996-2017 Texas Instruments Incorporated
C:\Users\Admin\AppData\Local\Temp\0610810                            PAGE   14

     700                      .dwendentry
     701                      .dwendtag $C$DW$18
     702              
     703 00000089               .sect   ".text:retain"
     704                      .retain
     705                      .retainrefs
     706                      .global _USER1_ISR
     707              
     708              $C$DW$19        .dwtag  DW_TAG_subprogram, DW_AT_name("USER1_ISR")
     709                      .dwattr $C$DW$19, DW_AT_low_pc(_USER1_ISR)
     710                      .dwattr $C$DW$19, DW_AT_high_pc(0x00)
     711                      .dwattr $C$DW$19, DW_AT_TI_symbol_name("_USER1_ISR")
     712                      .dwattr $C$DW$19, DW_AT_external
     713                      .dwattr $C$DW$19, DW_AT_TI_begin_file("../source/DSP2803x_SWPrioritizedDefaultIsr.c")
     714                      .dwattr $C$DW$19, DW_AT_TI_begin_line(0x7a)
     715                      .dwattr $C$DW$19, DW_AT_TI_begin_column(0x12)
     716                      .dwattr $C$DW$19, DW_AT_TI_interrupt
     717                      .dwattr $C$DW$19, DW_AT_TI_max_frame_size(-2)
     718                      .dwpsn  file "../source/DSP2803x_SWPrioritizedDefaultIsr.c",line 123,column 1,is_stmt,address _USER1_
     719              
     720                      .dwfde $C$DW$CIE, _USER1_ISR
     721              
     722              ;***************************************************************
     723              ;* FNAME: _USER1_ISR                    FR SIZE:   0           *
     724              ;*                                                             *
     725              ;* FUNCTION ENVIRONMENT                                        *
     726              ;*                                                             *
     727              ;* FUNCTION PROPERTIES                                         *
     728              ;*                            0 Parameter,  0 Auto,  0 SOE     *
     729              ;***************************************************************
     730              
     731 00000089       _USER1_ISR:
     732                      .dwcfi  cfa_offset, -2
     733                      .dwcfi  save_reg_to_mem, 26, 0
     734 00000089 761B          ASP       ; [CPU_] 
     735 0000008a 2942          CLRC      PAGE0,OVM             ; [CPU_] 
     736 0000008b 5616          CLRC      AMODE                 ; [CPU_] 
     737 0000008c 2910   clrc INTM
     738 0000008d 7625        ESTOP0
     739 0000008e       $C$L14:    
     740                      .dwpsn  file "../source/DSP2803x_SWPrioritizedDefaultIsr.c",line 131,column 5,is_stmt,isa 0
     741 0000008e 6F00          B         $C$L14,UNC            ; [CPU_] |131| 
     742                      ; branch occurs ; [] |131| 
     743                      .dwattr $C$DW$19, DW_AT_TI_end_file("../source/DSP2803x_SWPrioritizedDefaultIsr.c")
     744                      .dwattr $C$DW$19, DW_AT_TI_end_line(0x84)
     745                      .dwattr $C$DW$19, DW_AT_TI_end_column(0x01)
     746                      .dwendentry
     747                      .dwendtag $C$DW$19
     748              
     749 0000008f               .sect   ".text:retain"
     750                      .retain
     751                      .retainrefs
     752                      .global _USER12_ISR
     753              
     754              $C$DW$20        .dwtag  DW_TAG_subprogram, DW_AT_name("USER12_ISR")
TMS320C2000 Assembler PC v6.4.12 Thu Nov 16 10:01:32 2017

Tools Copyright (c) 1996-2017 Texas Instruments Incorporated
C:\Users\Admin\AppData\Local\Temp\0610810                            PAGE   15

     755                      .dwattr $C$DW$20, DW_AT_low_pc(_USER12_ISR)
     756                      .dwattr $C$DW$20, DW_AT_high_pc(0x00)
     757                      .dwattr $C$DW$20, DW_AT_TI_symbol_name("_USER12_ISR")
     758                      .dwattr $C$DW$20, DW_AT_external
     759                      .dwattr $C$DW$20, DW_AT_TI_begin_file("../source/DSP2803x_SWPrioritizedDefaultIsr.c")
     760                      .dwattr $C$DW$20, DW_AT_TI_begin_line(0xfe)
     761                      .dwattr $C$DW$20, DW_AT_TI_begin_column(0x12)
     762                      .dwattr $C$DW$20, DW_AT_TI_interrupt
     763                      .dwattr $C$DW$20, DW_AT_TI_max_frame_size(-2)
     764                      .dwpsn  file "../source/DSP2803x_SWPrioritizedDefaultIsr.c",line 255,column 1,is_stmt,address _USER12
     765              
     766                      .dwfde $C$DW$CIE, _USER12_ISR
     767              
     768              ;***************************************************************
     769              ;* FNAME: _USER12_ISR                   FR SIZE:   0           *
     770              ;*                                                             *
     771              ;* FUNCTION ENVIRONMENT                                        *
     772              ;*                                                             *
     773              ;* FUNCTION PROPERTIES                                         *
     774              ;*                            0 Parameter,  0 Auto,  0 SOE     *
     775              ;***************************************************************
     776              
     777 0000008f       _USER12_ISR:
     778                      .dwcfi  cfa_offset, -2
     779                      .dwcfi  save_reg_to_mem, 26, 0
     780 0000008f 761B          ASP       ; [CPU_] 
     781 00000090 2942          CLRC      PAGE0,OVM             ; [CPU_] 
     782 00000091 5616          CLRC      AMODE                 ; [CPU_] 
     783 00000092 2910   clrc INTM
     784 00000093 7625        ESTOP0
     785 00000094       $C$L15:    
     786                      .dwpsn  file "../source/DSP2803x_SWPrioritizedDefaultIsr.c",line 263,column 5,is_stmt,isa 0
     787 00000094 6F00          B         $C$L15,UNC            ; [CPU_] |263| 
     788                      ; branch occurs ; [] |263| 
     789                      .dwattr $C$DW$20, DW_AT_TI_end_file("../source/DSP2803x_SWPrioritizedDefaultIsr.c")
     790                      .dwattr $C$DW$20, DW_AT_TI_end_line(0x108)
     791                      .dwattr $C$DW$20, DW_AT_TI_end_column(0x01)
     792                      .dwendentry
     793                      .dwendtag $C$DW$20
     794              
     795 00000095               .sect   ".text:retain"
     796                      .retain
     797                      .retainrefs
     798                      .global _USER11_ISR
     799              
     800              $C$DW$21        .dwtag  DW_TAG_subprogram, DW_AT_name("USER11_ISR")
     801                      .dwattr $C$DW$21, DW_AT_low_pc(_USER11_ISR)
     802                      .dwattr $C$DW$21, DW_AT_high_pc(0x00)
     803                      .dwattr $C$DW$21, DW_AT_TI_symbol_name("_USER11_ISR")
     804                      .dwattr $C$DW$21, DW_AT_external
     805                      .dwattr $C$DW$21, DW_AT_TI_begin_file("../source/DSP2803x_SWPrioritizedDefaultIsr.c")
     806                      .dwattr $C$DW$21, DW_AT_TI_begin_line(0xf2)
     807                      .dwattr $C$DW$21, DW_AT_TI_begin_column(0x12)
     808                      .dwattr $C$DW$21, DW_AT_TI_interrupt
     809                      .dwattr $C$DW$21, DW_AT_TI_max_frame_size(-2)
TMS320C2000 Assembler PC v6.4.12 Thu Nov 16 10:01:32 2017

Tools Copyright (c) 1996-2017 Texas Instruments Incorporated
C:\Users\Admin\AppData\Local\Temp\0610810                            PAGE   16

     810                      .dwpsn  file "../source/DSP2803x_SWPrioritizedDefaultIsr.c",line 243,column 1,is_stmt,address _USER11
     811              
     812                      .dwfde $C$DW$CIE, _USER11_ISR
     813              
     814              ;***************************************************************
     815              ;* FNAME: _USER11_ISR                   FR SIZE:   0           *
     816              ;*                                                             *
     817              ;* FUNCTION ENVIRONMENT                                        *
     818              ;*                                                             *
     819              ;* FUNCTION PROPERTIES                                         *
     820              ;*                            0 Parameter,  0 Auto,  0 SOE     *
     821              ;***************************************************************
     822              
     823 00000095       _USER11_ISR:
     824                      .dwcfi  cfa_offset, -2
     825                      .dwcfi  save_reg_to_mem, 26, 0
     826 00000095 761B          ASP       ; [CPU_] 
     827 00000096 2942          CLRC      PAGE0,OVM             ; [CPU_] 
     828 00000097 5616          CLRC      AMODE                 ; [CPU_] 
     829 00000098 2910   clrc INTM
     830 00000099 7625        ESTOP0
     831 0000009a       $C$L16:    
     832                      .dwpsn  file "../source/DSP2803x_SWPrioritizedDefaultIsr.c",line 251,column 5,is_stmt,isa 0
     833 0000009a 6F00          B         $C$L16,UNC            ; [CPU_] |251| 
     834                      ; branch occurs ; [] |251| 
     835                      .dwattr $C$DW$21, DW_AT_TI_end_file("../source/DSP2803x_SWPrioritizedDefaultIsr.c")
     836                      .dwattr $C$DW$21, DW_AT_TI_end_line(0xfc)
     837                      .dwattr $C$DW$21, DW_AT_TI_end_column(0x01)
     838                      .dwendentry
     839                      .dwendtag $C$DW$21
     840              
     841 0000009b               .sect   ".text:retain"
     842                      .retain
     843                      .retainrefs
     844                      .global _USER10_ISR
     845              
     846              $C$DW$22        .dwtag  DW_TAG_subprogram, DW_AT_name("USER10_ISR")
     847                      .dwattr $C$DW$22, DW_AT_low_pc(_USER10_ISR)
     848                      .dwattr $C$DW$22, DW_AT_high_pc(0x00)
     849                      .dwattr $C$DW$22, DW_AT_TI_symbol_name("_USER10_ISR")
     850                      .dwattr $C$DW$22, DW_AT_external
     851                      .dwattr $C$DW$22, DW_AT_TI_begin_file("../source/DSP2803x_SWPrioritizedDefaultIsr.c")
     852                      .dwattr $C$DW$22, DW_AT_TI_begin_line(0xe6)
     853                      .dwattr $C$DW$22, DW_AT_TI_begin_column(0x12)
     854                      .dwattr $C$DW$22, DW_AT_TI_interrupt
     855                      .dwattr $C$DW$22, DW_AT_TI_max_frame_size(-2)
     856                      .dwpsn  file "../source/DSP2803x_SWPrioritizedDefaultIsr.c",line 231,column 1,is_stmt,address _USER10
     857              
     858                      .dwfde $C$DW$CIE, _USER10_ISR
     859              
     860              ;***************************************************************
     861              ;* FNAME: _USER10_ISR                   FR SIZE:   0           *
     862              ;*                                                             *
     863              ;* FUNCTION ENVIRONMENT                                        *
     864              ;*                                                             *
TMS320C2000 Assembler PC v6.4.12 Thu Nov 16 10:01:32 2017

Tools Copyright (c) 1996-2017 Texas Instruments Incorporated
C:\Users\Admin\AppData\Local\Temp\0610810                            PAGE   17

     865              ;* FUNCTION PROPERTIES                                         *
     866              ;*                            0 Parameter,  0 Auto,  0 SOE     *
     867              ;***************************************************************
     868              
     869 0000009b       _USER10_ISR:
     870                      .dwcfi  cfa_offset, -2
     871                      .dwcfi  save_reg_to_mem, 26, 0
     872 0000009b 761B          ASP       ; [CPU_] 
     873 0000009c 2942          CLRC      PAGE0,OVM             ; [CPU_] 
     874 0000009d 5616          CLRC      AMODE                 ; [CPU_] 
     875 0000009e 2910   clrc INTM
     876 0000009f 7625        ESTOP0
     877 000000a0       $C$L17:    
     878                      .dwpsn  file "../source/DSP2803x_SWPrioritizedDefaultIsr.c",line 239,column 5,is_stmt,isa 0
     879 000000a0 6F00          B         $C$L17,UNC            ; [CPU_] |239| 
     880                      ; branch occurs ; [] |239| 
     881                      .dwattr $C$DW$22, DW_AT_TI_end_file("../source/DSP2803x_SWPrioritizedDefaultIsr.c")
     882                      .dwattr $C$DW$22, DW_AT_TI_end_line(0xf0)
     883                      .dwattr $C$DW$22, DW_AT_TI_end_column(0x01)
     884                      .dwendentry
     885                      .dwendtag $C$DW$22
     886              
     887 000000a1               .sect   ".text:retain"
     888                      .retain
     889                      .retainrefs
     890                      .global _TINT0_ISR
     891              
     892              $C$DW$23        .dwtag  DW_TAG_subprogram, DW_AT_name("TINT0_ISR")
     893                      .dwattr $C$DW$23, DW_AT_low_pc(_TINT0_ISR)
     894                      .dwattr $C$DW$23, DW_AT_high_pc(0x00)
     895                      .dwattr $C$DW$23, DW_AT_TI_symbol_name("_TINT0_ISR")
     896                      .dwattr $C$DW$23, DW_AT_external
     897                      .dwattr $C$DW$23, DW_AT_TI_begin_file("../source/DSP2803x_SWPrioritizedDefaultIsr.c")
     898                      .dwattr $C$DW$23, DW_AT_TI_begin_line(0x18c)
     899                      .dwattr $C$DW$23, DW_AT_TI_begin_column(0x13)
     900                      .dwattr $C$DW$23, DW_AT_TI_interrupt
     901                      .dwattr $C$DW$23, DW_AT_TI_max_frame_size(-4)
     902                      .dwpsn  file "../source/DSP2803x_SWPrioritizedDefaultIsr.c",line 397,column 1,is_stmt,address _TINT0_
     903              
     904                      .dwfde $C$DW$CIE, _TINT0_ISR
     905              
     906              ;***************************************************************
     907              ;* FNAME: _TINT0_ISR                    FR SIZE:   2           *
     908              ;*                                                             *
     909              ;* FUNCTION ENVIRONMENT                                        *
     910              ;*                                                             *
     911              ;* FUNCTION PROPERTIES                                         *
     912              ;*                            0 Parameter,  1 Auto,  0 SOE     *
     913              ;***************************************************************
     914              
     915              _TINT0_ISR:
     916              $C$DW$24        .dwtag  DW_TAG_variable, DW_AT_name("TempPIEIER")
     917                      .dwattr $C$DW$24, DW_AT_TI_symbol_name("_TempPIEIER")
     918                      .dwattr $C$DW$24, DW_AT_type(*$C$DW$T$33)
     919                      .dwattr $C$DW$24, DW_AT_location[DW_OP_breg20 -1]
TMS320C2000 Assembler PC v6.4.12 Thu Nov 16 10:01:32 2017

Tools Copyright (c) 1996-2017 Texas Instruments Incorporated
C:\Users\Admin\AppData\Local\Temp\0610810                            PAGE   18

     920                      .dwcfi  cfa_offset, -2
     921                      .dwcfi  save_reg_to_mem, 26, 0
     922 000000a1 761B          ASP       ; [CPU_] 
     923 000000a2 FE02          ADDB      SP,#2                 ; [CPU_U] 
     924                      .dwcfi  cfa_offset, -4
     925 000000a3 2942          CLRC      PAGE0,OVM             ; [CPU_] 
     926 000000a4 5616          CLRC      AMODE                 ; [CPU_] 
     927 000000a5 761F!         MOVW      DP,#_PieCtrlRegs+2    ; [CPU_U] 
         000000a6 0000 
     928                      .dwpsn  file "../source/DSP2803x_SWPrioritizedDefaultIsr.c",line 399,column 29,is_stmt,isa 0
     929 000000a7 9202!         MOV       AL,@_PieCtrlRegs+2    ; [CPU_] |399| 
     930 000000a8 9641          MOV       *-SP[1],AL            ; [CPU_] |399| 
     931                      .dwpsn  file "../source/DSP2803x_SWPrioritizedDefaultIsr.c",line 400,column 2,is_stmt,isa 0
     932 000000a9 7623          OR        IER,#0x0001           ; [CPU_] |400| 
         000000aa 0001 
     933                      .dwpsn  file "../source/DSP2803x_SWPrioritizedDefaultIsr.c",line 401,column 2,is_stmt,isa 0
     934 000000ab 7626          AND       IER,#0x0003           ; [CPU_] |401| 
         000000ac 0003 
     935                      .dwpsn  file "../source/DSP2803x_SWPrioritizedDefaultIsr.c",line 402,column 2,is_stmt,isa 0
     936 000000ad 9202!         MOV       AL,@_PieCtrlRegs+2    ; [CPU_] |402| 
     937 000000ae 2B02!         MOV       @_PieCtrlRegs+2,#0    ; [CPU_] |402| 
     938                      .dwpsn  file "../source/DSP2803x_SWPrioritizedDefaultIsr.c",line 403,column 2,is_stmt,isa 0
     939 000000af 2801!         MOV       @_PieCtrlRegs+1,#65535 ; [CPU_] |403| 
         000000b0 FFFF 
     940 000000b1 2910   clrc INTM
     941 000000b2 3B10   setc INTM
     942                      .dwpsn  file "../source/DSP2803x_SWPrioritizedDefaultIsr.c",line 410,column 2,is_stmt,isa 0
     943 000000b3 9241          MOV       AL,*-SP[1]            ; [CPU_] |410| 
     944 000000b4 9602!         MOV       @_PieCtrlRegs+2,AL    ; [CPU_] |410| 
     945 000000b5 7625        ESTOP0
     946 000000b6       $C$L18:    
     947                      .dwpsn  file "../source/DSP2803x_SWPrioritizedDefaultIsr.c",line 415,column 5,is_stmt,isa 0
     948 000000b6 6F00          B         $C$L18,UNC            ; [CPU_] |415| 
     949                      ; branch occurs ; [] |415| 
     950                      .dwattr $C$DW$23, DW_AT_TI_end_file("../source/DSP2803x_SWPrioritizedDefaultIsr.c")
     951                      .dwattr $C$DW$23, DW_AT_TI_end_line(0x1a0)
     952                      .dwattr $C$DW$23, DW_AT_TI_end_column(0x01)
     953                      .dwendentry
     954                      .dwendtag $C$DW$23
     955              
     956 000000b7               .sect   ".text:retain"
     957                      .retain
     958                      .retainrefs
     959                      .global _SPITXINTA_ISR
     960              
     961              $C$DW$25        .dwtag  DW_TAG_subprogram, DW_AT_name("SPITXINTA_ISR")
     962                      .dwattr $C$DW$25, DW_AT_low_pc(_SPITXINTA_ISR)
     963                      .dwattr $C$DW$25, DW_AT_high_pc(0x00)
     964                      .dwattr $C$DW$25, DW_AT_TI_symbol_name("_SPITXINTA_ISR")
     965                      .dwattr $C$DW$25, DW_AT_external
     966                      .dwattr $C$DW$25, DW_AT_TI_begin_file("../source/DSP2803x_SWPrioritizedDefaultIsr.c")
     967                      .dwattr $C$DW$25, DW_AT_TI_begin_line(0x389)
     968                      .dwattr $C$DW$25, DW_AT_TI_begin_column(0x12)
     969                      .dwattr $C$DW$25, DW_AT_TI_interrupt
     970                      .dwattr $C$DW$25, DW_AT_TI_max_frame_size(-4)
TMS320C2000 Assembler PC v6.4.12 Thu Nov 16 10:01:32 2017

Tools Copyright (c) 1996-2017 Texas Instruments Incorporated
C:\Users\Admin\AppData\Local\Temp\0610810                            PAGE   19

     971                      .dwpsn  file "../source/DSP2803x_SWPrioritizedDefaultIsr.c",line 906,column 1,is_stmt,address _SPITXI
     972              
     973                      .dwfde $C$DW$CIE, _SPITXINTA_ISR
     974              
     975              ;***************************************************************
     976              ;* FNAME: _SPITXINTA_ISR                FR SIZE:   2           *
     977              ;*                                                             *
     978              ;* FUNCTION ENVIRONMENT                                        *
     979              ;*                                                             *
     980              ;* FUNCTION PROPERTIES                                         *
     981              ;*                            0 Parameter,  1 Auto,  0 SOE     *
     982              ;***************************************************************
     983              
     984              _SPITXINTA_ISR:
     985              $C$DW$26        .dwtag  DW_TAG_variable, DW_AT_name("TempPIEIER")
     986                      .dwattr $C$DW$26, DW_AT_TI_symbol_name("_TempPIEIER")
     987                      .dwattr $C$DW$26, DW_AT_type(*$C$DW$T$33)
     988                      .dwattr $C$DW$26, DW_AT_location[DW_OP_breg20 -1]
     989                      .dwcfi  cfa_offset, -2
     990                      .dwcfi  save_reg_to_mem, 26, 0
     991 000000b7 761B          ASP       ; [CPU_] 
     992 000000b8 FE02          ADDB      SP,#2                 ; [CPU_U] 
     993                      .dwcfi  cfa_offset, -4
     994 000000b9 2942          CLRC      PAGE0,OVM             ; [CPU_] 
     995 000000ba 5616          CLRC      AMODE                 ; [CPU_] 
     996 000000bb 761F!         MOVW      DP,#_PieCtrlRegs+12   ; [CPU_U] 
         000000bc 0000 
     997                      .dwpsn  file "../source/DSP2803x_SWPrioritizedDefaultIsr.c",line 908,column 29,is_stmt,isa 0
     998 000000bd 920C!         MOV       AL,@_PieCtrlRegs+12   ; [CPU_] |908| 
     999 000000be 9641          MOV       *-SP[1],AL            ; [CPU_] |908| 
    1000                      .dwpsn  file "../source/DSP2803x_SWPrioritizedDefaultIsr.c",line 909,column 2,is_stmt,isa 0
    1001 000000bf 7623          OR        IER,#0x0020           ; [CPU_] |909| 
         000000c0 0020 
    1002                      .dwpsn  file "../source/DSP2803x_SWPrioritizedDefaultIsr.c",line 910,column 2,is_stmt,isa 0
    1003 000000c1 7626          AND       IER,#0x003b           ; [CPU_] |910| 
         000000c2 003B 
    1004                      .dwpsn  file "../source/DSP2803x_SWPrioritizedDefaultIsr.c",line 911,column 2,is_stmt,isa 0
    1005 000000c3 920C!         MOV       AL,@_PieCtrlRegs+12   ; [CPU_] |911| 
    1006 000000c4 2B0C!         MOV       @_PieCtrlRegs+12,#0   ; [CPU_] |911| 
    1007                      .dwpsn  file "../source/DSP2803x_SWPrioritizedDefaultIsr.c",line 912,column 2,is_stmt,isa 0
    1008 000000c5 2801!         MOV       @_PieCtrlRegs+1,#65535 ; [CPU_] |912| 
         000000c6 FFFF 
    1009 000000c7 2910   clrc INTM
    1010 000000c8 3B10   setc INTM
    1011                      .dwpsn  file "../source/DSP2803x_SWPrioritizedDefaultIsr.c",line 919,column 2,is_stmt,isa 0
    1012 000000c9 9241          MOV       AL,*-SP[1]            ; [CPU_] |919| 
    1013 000000ca 960C!         MOV       @_PieCtrlRegs+12,AL   ; [CPU_] |919| 
    1014 000000cb 7625        ESTOP0
    1015 000000cc       $C$L19:    
    1016                      .dwpsn  file "../source/DSP2803x_SWPrioritizedDefaultIsr.c",line 924,column 5,is_stmt,isa 0
    1017 000000cc 6F00          B         $C$L19,UNC            ; [CPU_] |924| 
    1018                      ; branch occurs ; [] |924| 
    1019                      .dwattr $C$DW$25, DW_AT_TI_end_file("../source/DSP2803x_SWPrioritizedDefaultIsr.c")
    1020                      .dwattr $C$DW$25, DW_AT_TI_end_line(0x39d)
    1021                      .dwattr $C$DW$25, DW_AT_TI_end_column(0x01)
TMS320C2000 Assembler PC v6.4.12 Thu Nov 16 10:01:32 2017

Tools Copyright (c) 1996-2017 Texas Instruments Incorporated
C:\Users\Admin\AppData\Local\Temp\0610810                            PAGE   20

    1022                      .dwendentry
    1023                      .dwendtag $C$DW$25
    1024              
    1025 000000cd               .sect   ".text:retain"
    1026                      .retain
    1027                      .retainrefs
    1028                      .global _SPIRXINTA_ISR
    1029              
    1030              $C$DW$27        .dwtag  DW_TAG_subprogram, DW_AT_name("SPIRXINTA_ISR")
    1031                      .dwattr $C$DW$27, DW_AT_low_pc(_SPIRXINTA_ISR)
    1032                      .dwattr $C$DW$27, DW_AT_high_pc(0x00)
    1033                      .dwattr $C$DW$27, DW_AT_TI_symbol_name("_SPIRXINTA_ISR")
    1034                      .dwattr $C$DW$27, DW_AT_external
    1035                      .dwattr $C$DW$27, DW_AT_TI_begin_file("../source/DSP2803x_SWPrioritizedDefaultIsr.c")
    1036                      .dwattr $C$DW$27, DW_AT_TI_begin_line(0x36f)
    1037                      .dwattr $C$DW$27, DW_AT_TI_begin_column(0x12)
    1038                      .dwattr $C$DW$27, DW_AT_TI_interrupt
    1039                      .dwattr $C$DW$27, DW_AT_TI_max_frame_size(-4)
    1040                      .dwpsn  file "../source/DSP2803x_SWPrioritizedDefaultIsr.c",line 880,column 1,is_stmt,address _SPIRXI
    1041              
    1042                      .dwfde $C$DW$CIE, _SPIRXINTA_ISR
    1043              
    1044              ;***************************************************************
    1045              ;* FNAME: _SPIRXINTA_ISR                FR SIZE:   2           *
    1046              ;*                                                             *
    1047              ;* FUNCTION ENVIRONMENT                                        *
    1048              ;*                                                             *
    1049              ;* FUNCTION PROPERTIES                                         *
    1050              ;*                            0 Parameter,  1 Auto,  0 SOE     *
    1051              ;***************************************************************
    1052              
    1053              _SPIRXINTA_ISR:
    1054              $C$DW$28        .dwtag  DW_TAG_variable, DW_AT_name("TempPIEIER")
    1055                      .dwattr $C$DW$28, DW_AT_TI_symbol_name("_TempPIEIER")
    1056                      .dwattr $C$DW$28, DW_AT_type(*$C$DW$T$33)
    1057                      .dwattr $C$DW$28, DW_AT_location[DW_OP_breg20 -1]
    1058                      .dwcfi  cfa_offset, -2
    1059                      .dwcfi  save_reg_to_mem, 26, 0
    1060 000000cd 761B          ASP       ; [CPU_] 
    1061 000000ce FE02          ADDB      SP,#2                 ; [CPU_U] 
    1062                      .dwcfi  cfa_offset, -4
    1063 000000cf 2942          CLRC      PAGE0,OVM             ; [CPU_] 
    1064 000000d0 5616          CLRC      AMODE                 ; [CPU_] 
    1065 000000d1 761F!         MOVW      DP,#_PieCtrlRegs+12   ; [CPU_U] 
         000000d2 0000 
    1066                      .dwpsn  file "../source/DSP2803x_SWPrioritizedDefaultIsr.c",line 882,column 29,is_stmt,isa 0
    1067 000000d3 920C!         MOV       AL,@_PieCtrlRegs+12   ; [CPU_] |882| 
    1068 000000d4 9641          MOV       *-SP[1],AL            ; [CPU_] |882| 
    1069                      .dwpsn  file "../source/DSP2803x_SWPrioritizedDefaultIsr.c",line 883,column 2,is_stmt,isa 0
    1070 000000d5 7623          OR        IER,#0x0020           ; [CPU_] |883| 
         000000d6 0020 
    1071                      .dwpsn  file "../source/DSP2803x_SWPrioritizedDefaultIsr.c",line 884,column 2,is_stmt,isa 0
    1072 000000d7 7626          AND       IER,#0x003b           ; [CPU_] |884| 
         000000d8 003B 
    1073                      .dwpsn  file "../source/DSP2803x_SWPrioritizedDefaultIsr.c",line 885,column 2,is_stmt,isa 0
TMS320C2000 Assembler PC v6.4.12 Thu Nov 16 10:01:32 2017

Tools Copyright (c) 1996-2017 Texas Instruments Incorporated
C:\Users\Admin\AppData\Local\Temp\0610810                            PAGE   21

    1074 000000d9 180C!         AND       @_PieCtrlRegs+12,#0x000a ; [CPU_] |885| 
         000000da 000A 
    1075                      .dwpsn  file "../source/DSP2803x_SWPrioritizedDefaultIsr.c",line 886,column 2,is_stmt,isa 0
    1076 000000db 2801!         MOV       @_PieCtrlRegs+1,#65535 ; [CPU_] |886| 
         000000dc FFFF 
    1077 000000dd 2910   clrc INTM
    1078 000000de 3B10   setc INTM
    1079                      .dwpsn  file "../source/DSP2803x_SWPrioritizedDefaultIsr.c",line 893,column 2,is_stmt,isa 0
    1080 000000df 9241          MOV       AL,*-SP[1]            ; [CPU_] |893| 
    1081 000000e0 960C!         MOV       @_PieCtrlRegs+12,AL   ; [CPU_] |893| 
    1082 000000e1 7625        ESTOP0
    1083 000000e2       $C$L20:    
    1084                      .dwpsn  file "../source/DSP2803x_SWPrioritizedDefaultIsr.c",line 898,column 5,is_stmt,isa 0
    1085 000000e2 6F00          B         $C$L20,UNC            ; [CPU_] |898| 
    1086                      ; branch occurs ; [] |898| 
    1087                      .dwattr $C$DW$27, DW_AT_TI_end_file("../source/DSP2803x_SWPrioritizedDefaultIsr.c")
    1088                      .dwattr $C$DW$27, DW_AT_TI_end_line(0x384)
    1089                      .dwattr $C$DW$27, DW_AT_TI_end_column(0x01)
    1090                      .dwendentry
    1091                      .dwendtag $C$DW$27
    1092              
    1093 000000e3               .sect   ".text:retain"
    1094                      .retain
    1095                      .retainrefs
    1096                      .global _SCITXINTB_ISR
    1097              
    1098              $C$DW$29        .dwtag  DW_TAG_subprogram, DW_AT_name("SCITXINTB_ISR")
    1099                      .dwattr $C$DW$29, DW_AT_low_pc(_SCITXINTB_ISR)
    1100                      .dwattr $C$DW$29, DW_AT_high_pc(0x00)
    1101                      .dwattr $C$DW$29, DW_AT_TI_symbol_name("_SCITXINTB_ISR")
    1102                      .dwattr $C$DW$29, DW_AT_external
    1103                      .dwattr $C$DW$29, DW_AT_TI_begin_file("../source/DSP2803x_SWPrioritizedDefaultIsr.c")
    1104                      .dwattr $C$DW$29, DW_AT_TI_begin_line(0x464)
    1105                      .dwattr $C$DW$29, DW_AT_TI_begin_column(0x12)
    1106                      .dwattr $C$DW$29, DW_AT_TI_interrupt
    1107                      .dwattr $C$DW$29, DW_AT_TI_max_frame_size(-4)
    1108                      .dwpsn  file "../source/DSP2803x_SWPrioritizedDefaultIsr.c",line 1125,column 1,is_stmt,address _SCITX
    1109              
    1110                      .dwfde $C$DW$CIE, _SCITXINTB_ISR
    1111              
    1112              ;***************************************************************
    1113              ;* FNAME: _SCITXINTB_ISR                FR SIZE:   2           *
    1114              ;*                                                             *
    1115              ;* FUNCTION ENVIRONMENT                                        *
    1116              ;*                                                             *
    1117              ;* FUNCTION PROPERTIES                                         *
    1118              ;*                            0 Parameter,  1 Auto,  0 SOE     *
    1119              ;***************************************************************
    1120              
    1121              _SCITXINTB_ISR:
    1122              $C$DW$30        .dwtag  DW_TAG_variable, DW_AT_name("TempPIEIER")
    1123                      .dwattr $C$DW$30, DW_AT_TI_symbol_name("_TempPIEIER")
    1124                      .dwattr $C$DW$30, DW_AT_type(*$C$DW$T$33)
    1125                      .dwattr $C$DW$30, DW_AT_location[DW_OP_breg20 -1]
    1126                      .dwcfi  cfa_offset, -2
TMS320C2000 Assembler PC v6.4.12 Thu Nov 16 10:01:32 2017

Tools Copyright (c) 1996-2017 Texas Instruments Incorporated
C:\Users\Admin\AppData\Local\Temp\0610810                            PAGE   22

    1127                      .dwcfi  save_reg_to_mem, 26, 0
    1128 000000e3 761B          ASP       ; [CPU_] 
    1129 000000e4 FE02          ADDB      SP,#2                 ; [CPU_U] 
    1130                      .dwcfi  cfa_offset, -4
    1131 000000e5 2942          CLRC      PAGE0,OVM             ; [CPU_] 
    1132 000000e6 5616          CLRC      AMODE                 ; [CPU_] 
    1133 000000e7 761F!         MOVW      DP,#_PieCtrlRegs+18   ; [CPU_U] 
         000000e8 0000 
    1134                      .dwpsn  file "../source/DSP2803x_SWPrioritizedDefaultIsr.c",line 1127,column 29,is_stmt,isa 0
    1135 000000e9 9212!         MOV       AL,@_PieCtrlRegs+18   ; [CPU_] |1127| 
    1136 000000ea 9641          MOV       *-SP[1],AL            ; [CPU_] |1127| 
    1137                      .dwpsn  file "../source/DSP2803x_SWPrioritizedDefaultIsr.c",line 1128,column 2,is_stmt,isa 0
    1138 000000eb 7623          OR        IER,#0x0100           ; [CPU_] |1128| 
         000000ec 0100 
    1139                      .dwpsn  file "../source/DSP2803x_SWPrioritizedDefaultIsr.c",line 1129,column 2,is_stmt,isa 0
    1140 000000ed 7626          AND       IER,#0x011b           ; [CPU_] |1129| 
         000000ee 011B 
    1141                      .dwpsn  file "../source/DSP2803x_SWPrioritizedDefaultIsr.c",line 1130,column 2,is_stmt,isa 0
    1142 000000ef 1812!         AND       @_PieCtrlRegs+18,#0x0035 ; [CPU_] |1130| 
         000000f0 0035 
    1143                      .dwpsn  file "../source/DSP2803x_SWPrioritizedDefaultIsr.c",line 1131,column 2,is_stmt,isa 0
    1144 000000f1 2801!         MOV       @_PieCtrlRegs+1,#65535 ; [CPU_] |1131| 
         000000f2 FFFF 
    1145 000000f3 2910   clrc INTM
    1146 000000f4 3B10   setc INTM
    1147                      .dwpsn  file "../source/DSP2803x_SWPrioritizedDefaultIsr.c",line 1138,column 2,is_stmt,isa 0
    1148 000000f5 9241          MOV       AL,*-SP[1]            ; [CPU_] |1138| 
    1149 000000f6 9612!         MOV       @_PieCtrlRegs+18,AL   ; [CPU_] |1138| 
    1150 000000f7 7625        ESTOP0
    1151 000000f8       $C$L21:    
    1152                      .dwpsn  file "../source/DSP2803x_SWPrioritizedDefaultIsr.c",line 1143,column 5,is_stmt,isa 0
    1153 000000f8 6F00          B         $C$L21,UNC            ; [CPU_] |1143| 
    1154                      ; branch occurs ; [] |1143| 
    1155                      .dwattr $C$DW$29, DW_AT_TI_end_file("../source/DSP2803x_SWPrioritizedDefaultIsr.c")
    1156                      .dwattr $C$DW$29, DW_AT_TI_end_line(0x479)
    1157                      .dwattr $C$DW$29, DW_AT_TI_end_column(0x01)
    1158                      .dwendentry
    1159                      .dwendtag $C$DW$29
    1160              
    1161 000000f9               .sect   ".text:retain"
    1162                      .retain
    1163                      .retainrefs
    1164                      .global _SCITXINTA_ISR
    1165              
    1166              $C$DW$31        .dwtag  DW_TAG_subprogram, DW_AT_name("SCITXINTA_ISR")
    1167                      .dwattr $C$DW$31, DW_AT_low_pc(_SCITXINTA_ISR)
    1168                      .dwattr $C$DW$31, DW_AT_high_pc(0x00)
    1169                      .dwattr $C$DW$31, DW_AT_TI_symbol_name("_SCITXINTA_ISR")
    1170                      .dwattr $C$DW$31, DW_AT_external
    1171                      .dwattr $C$DW$31, DW_AT_TI_begin_file("../source/DSP2803x_SWPrioritizedDefaultIsr.c")
    1172                      .dwattr $C$DW$31, DW_AT_TI_begin_line(0x430)
    1173                      .dwattr $C$DW$31, DW_AT_TI_begin_column(0x12)
    1174                      .dwattr $C$DW$31, DW_AT_TI_interrupt
    1175                      .dwattr $C$DW$31, DW_AT_TI_max_frame_size(-4)
    1176                      .dwpsn  file "../source/DSP2803x_SWPrioritizedDefaultIsr.c",line 1073,column 1,is_stmt,address _SCITX
TMS320C2000 Assembler PC v6.4.12 Thu Nov 16 10:01:32 2017

Tools Copyright (c) 1996-2017 Texas Instruments Incorporated
C:\Users\Admin\AppData\Local\Temp\0610810                            PAGE   23

    1177              
    1178                      .dwfde $C$DW$CIE, _SCITXINTA_ISR
    1179              
    1180              ;***************************************************************
    1181              ;* FNAME: _SCITXINTA_ISR                FR SIZE:   2           *
    1182              ;*                                                             *
    1183              ;* FUNCTION ENVIRONMENT                                        *
    1184              ;*                                                             *
    1185              ;* FUNCTION PROPERTIES                                         *
    1186              ;*                            0 Parameter,  1 Auto,  0 SOE     *
    1187              ;***************************************************************
    1188              
    1189              _SCITXINTA_ISR:
    1190              $C$DW$32        .dwtag  DW_TAG_variable, DW_AT_name("TempPIEIER")
    1191                      .dwattr $C$DW$32, DW_AT_TI_symbol_name("_TempPIEIER")
    1192                      .dwattr $C$DW$32, DW_AT_type(*$C$DW$T$33)
    1193                      .dwattr $C$DW$32, DW_AT_location[DW_OP_breg20 -1]
    1194                      .dwcfi  cfa_offset, -2
    1195                      .dwcfi  save_reg_to_mem, 26, 0
    1196 000000f9 761B          ASP       ; [CPU_] 
    1197 000000fa FE02          ADDB      SP,#2                 ; [CPU_U] 
    1198                      .dwcfi  cfa_offset, -4
    1199 000000fb 2942          CLRC      PAGE0,OVM             ; [CPU_] 
    1200 000000fc 5616          CLRC      AMODE                 ; [CPU_] 
    1201 000000fd 761F!         MOVW      DP,#_PieCtrlRegs+18   ; [CPU_U] 
         000000fe 0000 
    1202                      .dwpsn  file "../source/DSP2803x_SWPrioritizedDefaultIsr.c",line 1075,column 29,is_stmt,isa 0
    1203 000000ff 9212!         MOV       AL,@_PieCtrlRegs+18   ; [CPU_] |1075| 
    1204 00000100 9641          MOV       *-SP[1],AL            ; [CPU_] |1075| 
    1205                      .dwpsn  file "../source/DSP2803x_SWPrioritizedDefaultIsr.c",line 1076,column 2,is_stmt,isa 0
    1206 00000101 7623          OR        IER,#0x0100           ; [CPU_] |1076| 
         00000102 0100 
    1207                      .dwpsn  file "../source/DSP2803x_SWPrioritizedDefaultIsr.c",line 1077,column 2,is_stmt,isa 0
    1208 00000103 7626          AND       IER,#0x011b           ; [CPU_] |1077| 
         00000104 011B 
    1209                      .dwpsn  file "../source/DSP2803x_SWPrioritizedDefaultIsr.c",line 1078,column 2,is_stmt,isa 0
    1210 00000105 1812!         AND       @_PieCtrlRegs+18,#0x003d ; [CPU_] |1078| 
         00000106 003D 
    1211                      .dwpsn  file "../source/DSP2803x_SWPrioritizedDefaultIsr.c",line 1079,column 2,is_stmt,isa 0
    1212 00000107 2801!         MOV       @_PieCtrlRegs+1,#65535 ; [CPU_] |1079| 
         00000108 FFFF 
    1213 00000109 2910   clrc INTM
    1214 0000010a 3B10   setc INTM
    1215                      .dwpsn  file "../source/DSP2803x_SWPrioritizedDefaultIsr.c",line 1086,column 2,is_stmt,isa 0
    1216 0000010b 9241          MOV       AL,*-SP[1]            ; [CPU_] |1086| 
    1217 0000010c 9612!         MOV       @_PieCtrlRegs+18,AL   ; [CPU_] |1086| 
    1218 0000010d 7625        ESTOP0
    1219 0000010e       $C$L22:    
    1220                      .dwpsn  file "../source/DSP2803x_SWPrioritizedDefaultIsr.c",line 1091,column 5,is_stmt,isa 0
    1221 0000010e 6F00          B         $C$L22,UNC            ; [CPU_] |1091| 
    1222                      ; branch occurs ; [] |1091| 
    1223                      .dwattr $C$DW$31, DW_AT_TI_end_file("../source/DSP2803x_SWPrioritizedDefaultIsr.c")
    1224                      .dwattr $C$DW$31, DW_AT_TI_end_line(0x445)
    1225                      .dwattr $C$DW$31, DW_AT_TI_end_column(0x01)
    1226                      .dwendentry
TMS320C2000 Assembler PC v6.4.12 Thu Nov 16 10:01:32 2017

Tools Copyright (c) 1996-2017 Texas Instruments Incorporated
C:\Users\Admin\AppData\Local\Temp\0610810                            PAGE   24

    1227                      .dwendtag $C$DW$31
    1228              
    1229 0000010f               .sect   ".text:retain"
    1230                      .retain
    1231                      .retainrefs
    1232                      .global _SCIRXINTA_ISR
    1233              
    1234              $C$DW$33        .dwtag  DW_TAG_subprogram, DW_AT_name("SCIRXINTA_ISR")
    1235                      .dwattr $C$DW$33, DW_AT_low_pc(_SCIRXINTA_ISR)
    1236                      .dwattr $C$DW$33, DW_AT_high_pc(0x00)
    1237                      .dwattr $C$DW$33, DW_AT_TI_symbol_name("_SCIRXINTA_ISR")
    1238                      .dwattr $C$DW$33, DW_AT_external
    1239                      .dwattr $C$DW$33, DW_AT_TI_begin_file("../source/DSP2803x_SWPrioritizedDefaultIsr.c")
    1240                      .dwattr $C$DW$33, DW_AT_TI_begin_line(0x416)
    1241                      .dwattr $C$DW$33, DW_AT_TI_begin_column(0x12)
    1242                      .dwattr $C$DW$33, DW_AT_TI_interrupt
    1243                      .dwattr $C$DW$33, DW_AT_TI_max_frame_size(-4)
    1244                      .dwpsn  file "../source/DSP2803x_SWPrioritizedDefaultIsr.c",line 1047,column 1,is_stmt,address _SCIRX
    1245              
    1246                      .dwfde $C$DW$CIE, _SCIRXINTA_ISR
    1247              
    1248              ;***************************************************************
    1249              ;* FNAME: _SCIRXINTA_ISR                FR SIZE:   2           *
    1250              ;*                                                             *
    1251              ;* FUNCTION ENVIRONMENT                                        *
    1252              ;*                                                             *
    1253              ;* FUNCTION PROPERTIES                                         *
    1254              ;*                            0 Parameter,  1 Auto,  0 SOE     *
    1255              ;***************************************************************
    1256              
    1257              _SCIRXINTA_ISR:
    1258              $C$DW$34        .dwtag  DW_TAG_variable, DW_AT_name("TempPIEIER")
    1259                      .dwattr $C$DW$34, DW_AT_TI_symbol_name("_TempPIEIER")
    1260                      .dwattr $C$DW$34, DW_AT_type(*$C$DW$T$33)
    1261                      .dwattr $C$DW$34, DW_AT_location[DW_OP_breg20 -1]
    1262                      .dwcfi  cfa_offset, -2
    1263                      .dwcfi  save_reg_to_mem, 26, 0
    1264 0000010f 761B          ASP       ; [CPU_] 
    1265 00000110 FE02          ADDB      SP,#2                 ; [CPU_U] 
    1266                      .dwcfi  cfa_offset, -4
    1267 00000111 2942          CLRC      PAGE0,OVM             ; [CPU_] 
    1268 00000112 5616          CLRC      AMODE                 ; [CPU_] 
    1269 00000113 761F!         MOVW      DP,#_PieCtrlRegs+18   ; [CPU_U] 
         00000114 0000 
    1270                      .dwpsn  file "../source/DSP2803x_SWPrioritizedDefaultIsr.c",line 1049,column 29,is_stmt,isa 0
    1271 00000115 9212!         MOV       AL,@_PieCtrlRegs+18   ; [CPU_] |1049| 
    1272 00000116 9641          MOV       *-SP[1],AL            ; [CPU_] |1049| 
    1273                      .dwpsn  file "../source/DSP2803x_SWPrioritizedDefaultIsr.c",line 1050,column 2,is_stmt,isa 0
    1274 00000117 7623          OR        IER,#0x0100           ; [CPU_] |1050| 
         00000118 0100 
    1275                      .dwpsn  file "../source/DSP2803x_SWPrioritizedDefaultIsr.c",line 1051,column 2,is_stmt,isa 0
    1276 00000119 7626          AND       IER,#0x011b           ; [CPU_] |1051| 
         0000011a 011B 
    1277                      .dwpsn  file "../source/DSP2803x_SWPrioritizedDefaultIsr.c",line 1052,column 2,is_stmt,isa 0
    1278 0000011b 9212!         MOV       AL,@_PieCtrlRegs+18   ; [CPU_] |1052| 
TMS320C2000 Assembler PC v6.4.12 Thu Nov 16 10:01:32 2017

Tools Copyright (c) 1996-2017 Texas Instruments Incorporated
C:\Users\Admin\AppData\Local\Temp\0610810                            PAGE   25

    1279 0000011c 2B12!         MOV       @_PieCtrlRegs+18,#0   ; [CPU_] |1052| 
    1280                      .dwpsn  file "../source/DSP2803x_SWPrioritizedDefaultIsr.c",line 1053,column 2,is_stmt,isa 0
    1281 0000011d 2801!         MOV       @_PieCtrlRegs+1,#65535 ; [CPU_] |1053| 
         0000011e FFFF 
    1282 0000011f 2910   clrc INTM
    1283 00000120 3B10   setc INTM
    1284                      .dwpsn  file "../source/DSP2803x_SWPrioritizedDefaultIsr.c",line 1060,column 2,is_stmt,isa 0
    1285 00000121 9241          MOV       AL,*-SP[1]            ; [CPU_] |1060| 
    1286 00000122 9612!         MOV       @_PieCtrlRegs+18,AL   ; [CPU_] |1060| 
    1287 00000123 7625        ESTOP0
    1288 00000124       $C$L23:    
    1289                      .dwpsn  file "../source/DSP2803x_SWPrioritizedDefaultIsr.c",line 1065,column 5,is_stmt,isa 0
    1290 00000124 6F00          B         $C$L23,UNC            ; [CPU_] |1065| 
    1291                      ; branch occurs ; [] |1065| 
    1292                      .dwattr $C$DW$33, DW_AT_TI_end_file("../source/DSP2803x_SWPrioritizedDefaultIsr.c")
    1293                      .dwattr $C$DW$33, DW_AT_TI_end_line(0x42b)
    1294                      .dwattr $C$DW$33, DW_AT_TI_end_column(0x01)
    1295                      .dwendentry
    1296                      .dwendtag $C$DW$33
    1297              
    1298 00000125               .sect   ".text:retain"
    1299                      .retain
    1300                      .retainrefs
    1301                      .global _RTOSINT_ISR
    1302              
    1303              $C$DW$35        .dwtag  DW_TAG_subprogram, DW_AT_name("RTOSINT_ISR")
    1304                      .dwattr $C$DW$35, DW_AT_low_pc(_RTOSINT_ISR)
    1305                      .dwattr $C$DW$35, DW_AT_high_pc(0x00)
    1306                      .dwattr $C$DW$35, DW_AT_TI_symbol_name("_RTOSINT_ISR")
    1307                      .dwattr $C$DW$35, DW_AT_external
    1308                      .dwattr $C$DW$35, DW_AT_TI_begin_file("../source/DSP2803x_SWPrioritizedDefaultIsr.c")
    1309                      .dwattr $C$DW$35, DW_AT_TI_begin_line(0x46)
    1310                      .dwattr $C$DW$35, DW_AT_TI_begin_column(0x12)
    1311                      .dwattr $C$DW$35, DW_AT_TI_interrupt
    1312                      .dwattr $C$DW$35, DW_AT_TI_max_frame_size(-2)
    1313                      .dwpsn  file "../source/DSP2803x_SWPrioritizedDefaultIsr.c",line 71,column 1,is_stmt,address _RTOSINT
    1314              
    1315                      .dwfde $C$DW$CIE, _RTOSINT_ISR
    1316              
    1317              ;***************************************************************
    1318              ;* FNAME: _RTOSINT_ISR                  FR SIZE:   0           *
    1319              ;*                                                             *
    1320              ;* FUNCTION ENVIRONMENT                                        *
    1321              ;*                                                             *
    1322              ;* FUNCTION PROPERTIES                                         *
    1323              ;*                            0 Parameter,  0 Auto,  0 SOE     *
    1324              ;***************************************************************
    1325              
    1326 00000125       _RTOSINT_ISR:
    1327                      .dwcfi  cfa_offset, -2
    1328                      .dwcfi  save_reg_to_mem, 26, 0
    1329 00000125 761B          ASP       ; [CPU_] 
    1330 00000126 2942          CLRC      PAGE0,OVM             ; [CPU_] 
    1331 00000127 5616          CLRC      AMODE                 ; [CPU_] 
    1332                      .dwpsn  file "../source/DSP2803x_SWPrioritizedDefaultIsr.c",line 72,column 2,is_stmt,isa 0
TMS320C2000 Assembler PC v6.4.12 Thu Nov 16 10:01:32 2017

Tools Copyright (c) 1996-2017 Texas Instruments Incorporated
C:\Users\Admin\AppData\Local\Temp\0610810                            PAGE   26

    1333 00000128 7623          OR        IER,#0x013b           ; [CPU_] |72| 
         00000129 013B 
    1334 0000012a 2910   clrc INTM
    1335 0000012b 7625        ESTOP0
    1336 0000012c       $C$L24:    
    1337                      .dwpsn  file "../source/DSP2803x_SWPrioritizedDefaultIsr.c",line 80,column 5,is_stmt,isa 0
    1338 0000012c 6F00          B         $C$L24,UNC            ; [CPU_] |80| 
    1339                      ; branch occurs ; [] |80| 
    1340                      .dwattr $C$DW$35, DW_AT_TI_end_file("../source/DSP2803x_SWPrioritizedDefaultIsr.c")
    1341                      .dwattr $C$DW$35, DW_AT_TI_end_line(0x51)
    1342                      .dwattr $C$DW$35, DW_AT_TI_end_column(0x01)
    1343                      .dwendentry
    1344                      .dwendtag $C$DW$35
    1345              
    1346 0000012d               .sect   ".text:retain"
    1347                      .retain
    1348                      .retainrefs
    1349                      .global _PIE_RESERVED
    1350              
    1351              $C$DW$36        .dwtag  DW_TAG_subprogram, DW_AT_name("PIE_RESERVED")
    1352                      .dwattr $C$DW$36, DW_AT_low_pc(_PIE_RESERVED)
    1353                      .dwattr $C$DW$36, DW_AT_high_pc(0x00)
    1354                      .dwattr $C$DW$36, DW_AT_TI_symbol_name("_PIE_RESERVED")
    1355                      .dwattr $C$DW$36, DW_AT_external
    1356                      .dwattr $C$DW$36, DW_AT_TI_begin_file("../source/DSP2803x_SWPrioritizedDefaultIsr.c")
    1357                      .dwattr $C$DW$36, DW_AT_TI_begin_line(0x68e)
    1358                      .dwattr $C$DW$36, DW_AT_TI_begin_column(0x12)
    1359                      .dwattr $C$DW$36, DW_AT_TI_interrupt
    1360                      .dwattr $C$DW$36, DW_AT_TI_max_frame_size(-2)
    1361                      .dwpsn  file "../source/DSP2803x_SWPrioritizedDefaultIsr.c",line 1679,column 1,is_stmt,address _PIE_R
    1362              
    1363                      .dwfde $C$DW$CIE, _PIE_RESERVED
    1364              
    1365              ;***************************************************************
    1366              ;* FNAME: _PIE_RESERVED                 FR SIZE:   0           *
    1367              ;*                                                             *
    1368              ;* FUNCTION ENVIRONMENT                                        *
    1369              ;*                                                             *
    1370              ;* FUNCTION PROPERTIES                                         *
    1371              ;*                            0 Parameter,  0 Auto,  0 SOE     *
    1372              ;***************************************************************
    1373              
    1374 0000012d       _PIE_RESERVED:
    1375                      .dwcfi  cfa_offset, -2
    1376                      .dwcfi  save_reg_to_mem, 26, 0
    1377 0000012d 761B          ASP       ; [CPU_] 
    1378 0000012e 2942          CLRC      PAGE0,OVM             ; [CPU_] 
    1379 0000012f 5616          CLRC      AMODE                 ; [CPU_] 
    1380 00000130 7625        ESTOP0
    1381 00000131       $C$L25:    
    1382                      .dwpsn  file "../source/DSP2803x_SWPrioritizedDefaultIsr.c",line 1681,column 3,is_stmt,isa 0
    1383 00000131 6F00          B         $C$L25,UNC            ; [CPU_] |1681| 
    1384                      ; branch occurs ; [] |1681| 
    1385                      .dwattr $C$DW$36, DW_AT_TI_end_file("../source/DSP2803x_SWPrioritizedDefaultIsr.c")
    1386                      .dwattr $C$DW$36, DW_AT_TI_end_line(0x692)
TMS320C2000 Assembler PC v6.4.12 Thu Nov 16 10:01:32 2017

Tools Copyright (c) 1996-2017 Texas Instruments Incorporated
C:\Users\Admin\AppData\Local\Temp\0610810                            PAGE   27

    1387                      .dwattr $C$DW$36, DW_AT_TI_end_column(0x01)
    1388                      .dwendentry
    1389                      .dwendtag $C$DW$36
    1390              
    1391 00000132               .sect   ".text:retain"
    1392                      .retain
    1393                      .retainrefs
    1394                      .global _NMI_ISR
    1395              
    1396              $C$DW$37        .dwtag  DW_TAG_subprogram, DW_AT_name("NMI_ISR")
    1397                      .dwattr $C$DW$37, DW_AT_low_pc(_NMI_ISR)
    1398                      .dwattr $C$DW$37, DW_AT_high_pc(0x00)
    1399                      .dwattr $C$DW$37, DW_AT_TI_symbol_name("_NMI_ISR")
    1400                      .dwattr $C$DW$37, DW_AT_external
    1401                      .dwattr $C$DW$37, DW_AT_TI_begin_file("../source/DSP2803x_SWPrioritizedDefaultIsr.c")
    1402                      .dwattr $C$DW$37, DW_AT_TI_begin_line(0x62)
    1403                      .dwattr $C$DW$37, DW_AT_TI_begin_column(0x12)
    1404                      .dwattr $C$DW$37, DW_AT_TI_interrupt
    1405                      .dwattr $C$DW$37, DW_AT_TI_max_frame_size(-2)
    1406                      .dwpsn  file "../source/DSP2803x_SWPrioritizedDefaultIsr.c",line 99,column 1,is_stmt,address _NMI_ISR
    1407              
    1408                      .dwfde $C$DW$CIE, _NMI_ISR
    1409              
    1410              ;***************************************************************
    1411              ;* FNAME: _NMI_ISR                      FR SIZE:   0           *
    1412              ;*                                                             *
    1413              ;* FUNCTION ENVIRONMENT                                        *
    1414              ;*                                                             *
    1415              ;* FUNCTION PROPERTIES                                         *
    1416              ;*                            0 Parameter,  0 Auto,  0 SOE     *
    1417              ;***************************************************************
    1418              
    1419 00000132       _NMI_ISR:
    1420                      .dwcfi  cfa_offset, -2
    1421                      .dwcfi  save_reg_to_mem, 26, 0
    1422 00000132 761B          ASP       ; [CPU_] 
    1423 00000133 2942          CLRC      PAGE0,OVM             ; [CPU_] 
    1424 00000134 5616          CLRC      AMODE                 ; [CPU_] 
    1425 00000135 2910   clrc INTM
    1426 00000136 7625        ESTOP0
    1427 00000137       $C$L26:    
    1428                      .dwpsn  file "../source/DSP2803x_SWPrioritizedDefaultIsr.c",line 107,column 5,is_stmt,isa 0
    1429 00000137 6F00          B         $C$L26,UNC            ; [CPU_] |107| 
    1430                      ; branch occurs ; [] |107| 
    1431                      .dwattr $C$DW$37, DW_AT_TI_end_file("../source/DSP2803x_SWPrioritizedDefaultIsr.c")
    1432                      .dwattr $C$DW$37, DW_AT_TI_end_line(0x6c)
    1433                      .dwattr $C$DW$37, DW_AT_TI_end_column(0x01)
    1434                      .dwendentry
    1435                      .dwendtag $C$DW$37
    1436              
    1437 00000138               .sect   ".text:retain"
    1438                      .retain
    1439                      .retainrefs
    1440                      .global _LVF_ISR
    1441              
TMS320C2000 Assembler PC v6.4.12 Thu Nov 16 10:01:32 2017

Tools Copyright (c) 1996-2017 Texas Instruments Incorporated
C:\Users\Admin\AppData\Local\Temp\0610810                            PAGE   28

    1442              $C$DW$38        .dwtag  DW_TAG_subprogram, DW_AT_name("LVF_ISR")
    1443                      .dwattr $C$DW$38, DW_AT_low_pc(_LVF_ISR)
    1444                      .dwattr $C$DW$38, DW_AT_high_pc(0x00)
    1445                      .dwattr $C$DW$38, DW_AT_TI_symbol_name("_LVF_ISR")
    1446                      .dwattr $C$DW$38, DW_AT_external
    1447                      .dwattr $C$DW$38, DW_AT_TI_begin_file("../source/DSP2803x_SWPrioritizedDefaultIsr.c")
    1448                      .dwattr $C$DW$38, DW_AT_TI_begin_line(0x657)
    1449                      .dwattr $C$DW$38, DW_AT_TI_begin_column(0x12)
    1450                      .dwattr $C$DW$38, DW_AT_TI_interrupt
    1451                      .dwattr $C$DW$38, DW_AT_TI_max_frame_size(-4)
    1452                      .dwpsn  file "../source/DSP2803x_SWPrioritizedDefaultIsr.c",line 1624,column 1,is_stmt,address _LVF_I
    1453              
    1454                      .dwfde $C$DW$CIE, _LVF_ISR
    1455              
    1456              ;***************************************************************
    1457              ;* FNAME: _LVF_ISR                      FR SIZE:   2           *
    1458              ;*                                                             *
    1459              ;* FUNCTION ENVIRONMENT                                        *
    1460              ;*                                                             *
    1461              ;* FUNCTION PROPERTIES                                         *
    1462              ;*                            0 Parameter,  1 Auto,  0 SOE     *
    1463              ;***************************************************************
    1464              
    1465              _LVF_ISR:
    1466              $C$DW$39        .dwtag  DW_TAG_variable, DW_AT_name("TempPIEIER")
    1467                      .dwattr $C$DW$39, DW_AT_TI_symbol_name("_TempPIEIER")
    1468                      .dwattr $C$DW$39, DW_AT_type(*$C$DW$T$33)
    1469                      .dwattr $C$DW$39, DW_AT_location[DW_OP_breg20 -1]
    1470                      .dwcfi  cfa_offset, -2
    1471                      .dwcfi  save_reg_to_mem, 26, 0
    1472 00000138 761B          ASP       ; [CPU_] 
    1473 00000139 FE02          ADDB      SP,#2                 ; [CPU_U] 
    1474                      .dwcfi  cfa_offset, -4
    1475 0000013a 2942          CLRC      PAGE0,OVM             ; [CPU_] 
    1476 0000013b 5616          CLRC      AMODE                 ; [CPU_] 
    1477 0000013c 761F!         MOVW      DP,#_PieCtrlRegs+24   ; [CPU_U] 
         0000013d 0000 
    1478                      .dwpsn  file "../source/DSP2803x_SWPrioritizedDefaultIsr.c",line 1626,column 29,is_stmt,isa 0
    1479 0000013e 9218!         MOV       AL,@_PieCtrlRegs+24   ; [CPU_] |1626| 
    1480 0000013f 9641          MOV       *-SP[1],AL            ; [CPU_] |1626| 
    1481                      .dwpsn  file "../source/DSP2803x_SWPrioritizedDefaultIsr.c",line 1627,column 2,is_stmt,isa 0
    1482 00000140 7623          OR        IER,#0x0800           ; [CPU_] |1627| 
         00000141 0800 
    1483                      .dwpsn  file "../source/DSP2803x_SWPrioritizedDefaultIsr.c",line 1628,column 2,is_stmt,isa 0
    1484 00000142 7626          AND       IER,#0xffbf           ; [CPU_] |1628| 
         00000143 FFBF 
    1485                      .dwpsn  file "../source/DSP2803x_SWPrioritizedDefaultIsr.c",line 1629,column 2,is_stmt,isa 0
    1486 00000144 1818!         AND       @_PieCtrlRegs+24,#0x0081 ; [CPU_] |1629| 
         00000145 0081 
    1487                      .dwpsn  file "../source/DSP2803x_SWPrioritizedDefaultIsr.c",line 1630,column 2,is_stmt,isa 0
    1488 00000146 2801!         MOV       @_PieCtrlRegs+1,#65535 ; [CPU_] |1630| 
         00000147 FFFF 
    1489 00000148 2910   clrc INTM
    1490 00000149 3B10   setc INTM
    1491                      .dwpsn  file "../source/DSP2803x_SWPrioritizedDefaultIsr.c",line 1637,column 2,is_stmt,isa 0
TMS320C2000 Assembler PC v6.4.12 Thu Nov 16 10:01:32 2017

Tools Copyright (c) 1996-2017 Texas Instruments Incorporated
C:\Users\Admin\AppData\Local\Temp\0610810                            PAGE   29

    1492 0000014a 9241          MOV       AL,*-SP[1]            ; [CPU_] |1637| 
    1493 0000014b 9618!         MOV       @_PieCtrlRegs+24,AL   ; [CPU_] |1637| 
    1494 0000014c 7625        ESTOP0
    1495 0000014d       $C$L27:    
    1496                      .dwpsn  file "../source/DSP2803x_SWPrioritizedDefaultIsr.c",line 1642,column 5,is_stmt,isa 0
    1497 0000014d 6F00          B         $C$L27,UNC            ; [CPU_] |1642| 
    1498                      ; branch occurs ; [] |1642| 
    1499                      .dwattr $C$DW$38, DW_AT_TI_end_file("../source/DSP2803x_SWPrioritizedDefaultIsr.c")
    1500                      .dwattr $C$DW$38, DW_AT_TI_end_line(0x66c)
    1501                      .dwattr $C$DW$38, DW_AT_TI_end_column(0x01)
    1502                      .dwendentry
    1503                      .dwendtag $C$DW$38
    1504              
    1505 0000014e               .sect   ".text:retain"
    1506                      .retain
    1507                      .retainrefs
    1508                      .global _LUF_ISR
    1509              
    1510              $C$DW$40        .dwtag  DW_TAG_subprogram, DW_AT_name("LUF_ISR")
    1511                      .dwattr $C$DW$40, DW_AT_low_pc(_LUF_ISR)
    1512                      .dwattr $C$DW$40, DW_AT_high_pc(0x00)
    1513                      .dwattr $C$DW$40, DW_AT_TI_symbol_name("_LUF_ISR")
    1514                      .dwattr $C$DW$40, DW_AT_external
    1515                      .dwattr $C$DW$40, DW_AT_TI_begin_file("../source/DSP2803x_SWPrioritizedDefaultIsr.c")
    1516                      .dwattr $C$DW$40, DW_AT_TI_begin_line(0x671)
    1517                      .dwattr $C$DW$40, DW_AT_TI_begin_column(0x12)
    1518                      .dwattr $C$DW$40, DW_AT_TI_interrupt
    1519                      .dwattr $C$DW$40, DW_AT_TI_max_frame_size(-4)
    1520                      .dwpsn  file "../source/DSP2803x_SWPrioritizedDefaultIsr.c",line 1650,column 1,is_stmt,address _LUF_I
    1521              
    1522                      .dwfde $C$DW$CIE, _LUF_ISR
    1523              
    1524              ;***************************************************************
    1525              ;* FNAME: _LUF_ISR                      FR SIZE:   2           *
    1526              ;*                                                             *
    1527              ;* FUNCTION ENVIRONMENT                                        *
    1528              ;*                                                             *
    1529              ;* FUNCTION PROPERTIES                                         *
    1530              ;*                            0 Parameter,  1 Auto,  0 SOE     *
    1531              ;***************************************************************
    1532              
    1533              _LUF_ISR:
    1534              $C$DW$41        .dwtag  DW_TAG_variable, DW_AT_name("TempPIEIER")
    1535                      .dwattr $C$DW$41, DW_AT_TI_symbol_name("_TempPIEIER")
    1536                      .dwattr $C$DW$41, DW_AT_type(*$C$DW$T$33)
    1537                      .dwattr $C$DW$41, DW_AT_location[DW_OP_breg20 -1]
    1538                      .dwcfi  cfa_offset, -2
    1539                      .dwcfi  save_reg_to_mem, 26, 0
    1540 0000014e 761B          ASP       ; [CPU_] 
    1541 0000014f FE02          ADDB      SP,#2                 ; [CPU_U] 
    1542                      .dwcfi  cfa_offset, -4
    1543 00000150 2942          CLRC      PAGE0,OVM             ; [CPU_] 
    1544 00000151 5616          CLRC      AMODE                 ; [CPU_] 
    1545 00000152 761F!         MOVW      DP,#_PieCtrlRegs+24   ; [CPU_U] 
         00000153 0000 
TMS320C2000 Assembler PC v6.4.12 Thu Nov 16 10:01:32 2017

Tools Copyright (c) 1996-2017 Texas Instruments Incorporated
C:\Users\Admin\AppData\Local\Temp\0610810                            PAGE   30

    1546                      .dwpsn  file "../source/DSP2803x_SWPrioritizedDefaultIsr.c",line 1652,column 29,is_stmt,isa 0
    1547 00000154 9218!         MOV       AL,@_PieCtrlRegs+24   ; [CPU_] |1652| 
    1548 00000155 9641          MOV       *-SP[1],AL            ; [CPU_] |1652| 
    1549                      .dwpsn  file "../source/DSP2803x_SWPrioritizedDefaultIsr.c",line 1653,column 2,is_stmt,isa 0
    1550 00000156 7623          OR        IER,#0x0800           ; [CPU_] |1653| 
         00000157 0800 
    1551                      .dwpsn  file "../source/DSP2803x_SWPrioritizedDefaultIsr.c",line 1654,column 2,is_stmt,isa 0
    1552 00000158 7626          AND       IER,#0xffbf           ; [CPU_] |1654| 
         00000159 FFBF 
    1553                      .dwpsn  file "../source/DSP2803x_SWPrioritizedDefaultIsr.c",line 1655,column 2,is_stmt,isa 0
    1554 0000015a 1818!         AND       @_PieCtrlRegs+24,#0x0001 ; [CPU_] |1655| 
         0000015b 0001 
    1555                      .dwpsn  file "../source/DSP2803x_SWPrioritizedDefaultIsr.c",line 1656,column 2,is_stmt,isa 0
    1556 0000015c 2801!         MOV       @_PieCtrlRegs+1,#65535 ; [CPU_] |1656| 
         0000015d FFFF 
    1557 0000015e 2910   clrc INTM
    1558 0000015f 3B10   setc INTM
    1559                      .dwpsn  file "../source/DSP2803x_SWPrioritizedDefaultIsr.c",line 1663,column 2,is_stmt,isa 0
    1560 00000160 9241          MOV       AL,*-SP[1]            ; [CPU_] |1663| 
    1561 00000161 9618!         MOV       @_PieCtrlRegs+24,AL   ; [CPU_] |1663| 
    1562 00000162 7625        ESTOP0
    1563 00000163       $C$L28:    
    1564                      .dwpsn  file "../source/DSP2803x_SWPrioritizedDefaultIsr.c",line 1668,column 5,is_stmt,isa 0
    1565 00000163 6F00          B         $C$L28,UNC            ; [CPU_] |1668| 
    1566                      ; branch occurs ; [] |1668| 
    1567                      .dwattr $C$DW$40, DW_AT_TI_end_file("../source/DSP2803x_SWPrioritizedDefaultIsr.c")
    1568                      .dwattr $C$DW$40, DW_AT_TI_end_line(0x686)
    1569                      .dwattr $C$DW$40, DW_AT_TI_end_column(0x01)
    1570                      .dwendentry
    1571                      .dwendtag $C$DW$40
    1572              
    1573 00000164               .sect   ".text:retain"
    1574                      .retain
    1575                      .retainrefs
    1576                      .global _LIN0INTA_ISR
    1577              
    1578              $C$DW$42        .dwtag  DW_TAG_subprogram, DW_AT_name("LIN0INTA_ISR")
    1579                      .dwattr $C$DW$42, DW_AT_low_pc(_LIN0INTA_ISR)
    1580                      .dwattr $C$DW$42, DW_AT_high_pc(0x00)
    1581                      .dwattr $C$DW$42, DW_AT_TI_symbol_name("_LIN0INTA_ISR")
    1582                      .dwattr $C$DW$42, DW_AT_external
    1583                      .dwattr $C$DW$42, DW_AT_TI_begin_file("../source/DSP2803x_SWPrioritizedDefaultIsr.c")
    1584                      .dwattr $C$DW$42, DW_AT_TI_begin_line(0x44a)
    1585                      .dwattr $C$DW$42, DW_AT_TI_begin_column(0x12)
    1586                      .dwattr $C$DW$42, DW_AT_TI_interrupt
    1587                      .dwattr $C$DW$42, DW_AT_TI_max_frame_size(-4)
    1588                      .dwpsn  file "../source/DSP2803x_SWPrioritizedDefaultIsr.c",line 1099,column 1,is_stmt,address _LIN0I
    1589              
    1590                      .dwfde $C$DW$CIE, _LIN0INTA_ISR
    1591              
    1592              ;***************************************************************
    1593              ;* FNAME: _LIN0INTA_ISR                 FR SIZE:   2           *
    1594              ;*                                                             *
    1595              ;* FUNCTION ENVIRONMENT                                        *
    1596              ;*                                                             *
TMS320C2000 Assembler PC v6.4.12 Thu Nov 16 10:01:32 2017

Tools Copyright (c) 1996-2017 Texas Instruments Incorporated
C:\Users\Admin\AppData\Local\Temp\0610810                            PAGE   31

    1597              ;* FUNCTION PROPERTIES                                         *
    1598              ;*                            0 Parameter,  1 Auto,  0 SOE     *
    1599              ;***************************************************************
    1600              
    1601              _LIN0INTA_ISR:
    1602              $C$DW$43        .dwtag  DW_TAG_variable, DW_AT_name("TempPIEIER")
    1603                      .dwattr $C$DW$43, DW_AT_TI_symbol_name("_TempPIEIER")
    1604                      .dwattr $C$DW$43, DW_AT_type(*$C$DW$T$33)
    1605                      .dwattr $C$DW$43, DW_AT_location[DW_OP_breg20 -1]
    1606                      .dwcfi  cfa_offset, -2
    1607                      .dwcfi  save_reg_to_mem, 26, 0
    1608 00000164 761B          ASP       ; [CPU_] 
    1609 00000165 FE02          ADDB      SP,#2                 ; [CPU_U] 
    1610                      .dwcfi  cfa_offset, -4
    1611 00000166 2942          CLRC      PAGE0,OVM             ; [CPU_] 
    1612 00000167 5616          CLRC      AMODE                 ; [CPU_] 
    1613 00000168 761F!         MOVW      DP,#_PieCtrlRegs+18   ; [CPU_U] 
         00000169 0000 
    1614                      .dwpsn  file "../source/DSP2803x_SWPrioritizedDefaultIsr.c",line 1101,column 29,is_stmt,isa 0
    1615 0000016a 9212!         MOV       AL,@_PieCtrlRegs+18   ; [CPU_] |1101| 
    1616 0000016b 9641          MOV       *-SP[1],AL            ; [CPU_] |1101| 
    1617                      .dwpsn  file "../source/DSP2803x_SWPrioritizedDefaultIsr.c",line 1102,column 2,is_stmt,isa 0
    1618 0000016c 7623          OR        IER,#0x0100           ; [CPU_] |1102| 
         0000016d 0100 
    1619                      .dwpsn  file "../source/DSP2803x_SWPrioritizedDefaultIsr.c",line 1103,column 2,is_stmt,isa 0
    1620 0000016e 7626          AND       IER,#0x011b           ; [CPU_] |1103| 
         0000016f 011B 
    1621                      .dwpsn  file "../source/DSP2803x_SWPrioritizedDefaultIsr.c",line 1104,column 2,is_stmt,isa 0
    1622 00000170 1812!         AND       @_PieCtrlRegs+18,#0x0031 ; [CPU_] |1104| 
         00000171 0031 
    1623                      .dwpsn  file "../source/DSP2803x_SWPrioritizedDefaultIsr.c",line 1105,column 2,is_stmt,isa 0
    1624 00000172 2801!         MOV       @_PieCtrlRegs+1,#65535 ; [CPU_] |1105| 
         00000173 FFFF 
    1625 00000174 2910   clrc INTM
    1626 00000175 3B10   setc INTM
    1627                      .dwpsn  file "../source/DSP2803x_SWPrioritizedDefaultIsr.c",line 1112,column 2,is_stmt,isa 0
    1628 00000176 9241          MOV       AL,*-SP[1]            ; [CPU_] |1112| 
    1629 00000177 9612!         MOV       @_PieCtrlRegs+18,AL   ; [CPU_] |1112| 
    1630 00000178 7625        ESTOP0
    1631 00000179       $C$L29:    
    1632                      .dwpsn  file "../source/DSP2803x_SWPrioritizedDefaultIsr.c",line 1117,column 5,is_stmt,isa 0
    1633 00000179 6F00          B         $C$L29,UNC            ; [CPU_] |1117| 
    1634                      ; branch occurs ; [] |1117| 
    1635                      .dwattr $C$DW$42, DW_AT_TI_end_file("../source/DSP2803x_SWPrioritizedDefaultIsr.c")
    1636                      .dwattr $C$DW$42, DW_AT_TI_end_line(0x45f)
    1637                      .dwattr $C$DW$42, DW_AT_TI_end_column(0x01)
    1638                      .dwendentry
    1639                      .dwendtag $C$DW$42
    1640              
    1641 0000017a               .sect   ".text:retain"
    1642                      .retain
    1643                      .retainrefs
    1644                      .global _INT_NOTUSED_ISR
    1645              
    1646              $C$DW$44        .dwtag  DW_TAG_subprogram, DW_AT_name("INT_NOTUSED_ISR")
TMS320C2000 Assembler PC v6.4.12 Thu Nov 16 10:01:32 2017

Tools Copyright (c) 1996-2017 Texas Instruments Incorporated
C:\Users\Admin\AppData\Local\Temp\0610810                            PAGE   32

    1647                      .dwattr $C$DW$44, DW_AT_low_pc(_INT_NOTUSED_ISR)
    1648                      .dwattr $C$DW$44, DW_AT_high_pc(0x00)
    1649                      .dwattr $C$DW$44, DW_AT_TI_symbol_name("_INT_NOTUSED_ISR")
    1650                      .dwattr $C$DW$44, DW_AT_external
    1651                      .dwattr $C$DW$44, DW_AT_TI_begin_file("../source/DSP2803x_SWPrioritizedDefaultIsr.c")
    1652                      .dwattr $C$DW$44, DW_AT_TI_begin_line(0x694)
    1653                      .dwattr $C$DW$44, DW_AT_TI_begin_column(0x12)
    1654                      .dwattr $C$DW$44, DW_AT_TI_interrupt
    1655                      .dwattr $C$DW$44, DW_AT_TI_max_frame_size(-2)
    1656                      .dwpsn  file "../source/DSP2803x_SWPrioritizedDefaultIsr.c",line 1685,column 1,is_stmt,address _INT_N
    1657              
    1658                      .dwfde $C$DW$CIE, _INT_NOTUSED_ISR
    1659              
    1660              ;***************************************************************
    1661              ;* FNAME: _INT_NOTUSED_ISR              FR SIZE:   0           *
    1662              ;*                                                             *
    1663              ;* FUNCTION ENVIRONMENT                                        *
    1664              ;*                                                             *
    1665              ;* FUNCTION PROPERTIES                                         *
    1666              ;*                            0 Parameter,  0 Auto,  0 SOE     *
    1667              ;***************************************************************
    1668              
    1669 0000017a       _INT_NOTUSED_ISR:
    1670                      .dwcfi  cfa_offset, -2
    1671                      .dwcfi  save_reg_to_mem, 26, 0
    1672 0000017a 761B          ASP       ; [CPU_] 
    1673 0000017b 2942          CLRC      PAGE0,OVM             ; [CPU_] 
    1674 0000017c 5616          CLRC      AMODE                 ; [CPU_] 
    1675 0000017d 7625        ESTOP0
    1676 0000017e       $C$L30:    
    1677                      .dwpsn  file "../source/DSP2803x_SWPrioritizedDefaultIsr.c",line 1687,column 3,is_stmt,isa 0
    1678 0000017e 6F00          B         $C$L30,UNC            ; [CPU_] |1687| 
    1679                      ; branch occurs ; [] |1687| 
    1680                      .dwattr $C$DW$44, DW_AT_TI_end_file("../source/DSP2803x_SWPrioritizedDefaultIsr.c")
    1681                      .dwattr $C$DW$44, DW_AT_TI_end_line(0x698)
    1682                      .dwattr $C$DW$44, DW_AT_TI_end_column(0x01)
    1683                      .dwendentry
    1684                      .dwendtag $C$DW$44
    1685              
    1686 0000017f               .sect   ".text:retain"
    1687                      .retain
    1688                      .retainrefs
    1689                      .global _INT14_ISR
    1690              
    1691              $C$DW$45        .dwtag  DW_TAG_subprogram, DW_AT_name("INT14_ISR")
    1692                      .dwattr $C$DW$45, DW_AT_low_pc(_INT14_ISR)
    1693                      .dwattr $C$DW$45, DW_AT_high_pc(0x00)
    1694                      .dwattr $C$DW$45, DW_AT_TI_symbol_name("_INT14_ISR")
    1695                      .dwattr $C$DW$45, DW_AT_external
    1696                      .dwattr $C$DW$45, DW_AT_TI_begin_file("../source/DSP2803x_SWPrioritizedDefaultIsr.c")
    1697                      .dwattr $C$DW$45, DW_AT_TI_begin_line(0x26)
    1698                      .dwattr $C$DW$45, DW_AT_TI_begin_column(0x12)
    1699                      .dwattr $C$DW$45, DW_AT_TI_interrupt
    1700                      .dwattr $C$DW$45, DW_AT_TI_max_frame_size(-2)
    1701                      .dwpsn  file "../source/DSP2803x_SWPrioritizedDefaultIsr.c",line 39,column 1,is_stmt,address _INT14_I
TMS320C2000 Assembler PC v6.4.12 Thu Nov 16 10:01:32 2017

Tools Copyright (c) 1996-2017 Texas Instruments Incorporated
C:\Users\Admin\AppData\Local\Temp\0610810                            PAGE   33

    1702              
    1703                      .dwfde $C$DW$CIE, _INT14_ISR
    1704              
    1705              ;***************************************************************
    1706              ;* FNAME: _INT14_ISR                    FR SIZE:   0           *
    1707              ;*                                                             *
    1708              ;* FUNCTION ENVIRONMENT                                        *
    1709              ;*                                                             *
    1710              ;* FUNCTION PROPERTIES                                         *
    1711              ;*                            0 Parameter,  0 Auto,  0 SOE     *
    1712              ;***************************************************************
    1713              
    1714 0000017f       _INT14_ISR:
    1715                      .dwcfi  cfa_offset, -2
    1716                      .dwcfi  save_reg_to_mem, 26, 0
    1717 0000017f 761B          ASP       ; [CPU_] 
    1718 00000180 2942          CLRC      PAGE0,OVM             ; [CPU_] 
    1719 00000181 5616          CLRC      AMODE                 ; [CPU_] 
    1720                      .dwpsn  file "../source/DSP2803x_SWPrioritizedDefaultIsr.c",line 40,column 4,is_stmt,isa 0
    1721 00000182 7623          OR        IER,#0x013b           ; [CPU_] |40| 
         00000183 013B 
    1722 00000184 2910   clrc INTM
    1723 00000185 7625        ESTOP0
    1724 00000186       $C$L31:    
    1725                      .dwpsn  file "../source/DSP2803x_SWPrioritizedDefaultIsr.c",line 48,column 4,is_stmt,isa 0
    1726 00000186 6F00          B         $C$L31,UNC            ; [CPU_] |48| 
    1727                      ; branch occurs ; [] |48| 
    1728                      .dwattr $C$DW$45, DW_AT_TI_end_file("../source/DSP2803x_SWPrioritizedDefaultIsr.c")
    1729                      .dwattr $C$DW$45, DW_AT_TI_end_line(0x31)
    1730                      .dwattr $C$DW$45, DW_AT_TI_end_column(0x01)
    1731                      .dwendentry
    1732                      .dwendtag $C$DW$45
    1733              
    1734 00000187               .sect   ".text:retain"
    1735                      .retain
    1736                      .retainrefs
    1737                      .global _INT13_ISR
    1738              
    1739              $C$DW$46        .dwtag  DW_TAG_subprogram, DW_AT_name("INT13_ISR")
    1740                      .dwattr $C$DW$46, DW_AT_low_pc(_INT13_ISR)
    1741                      .dwattr $C$DW$46, DW_AT_high_pc(0x00)
    1742                      .dwattr $C$DW$46, DW_AT_TI_symbol_name("_INT13_ISR")
    1743                      .dwattr $C$DW$46, DW_AT_external
    1744                      .dwattr $C$DW$46, DW_AT_TI_begin_file("../source/DSP2803x_SWPrioritizedDefaultIsr.c")
    1745                      .dwattr $C$DW$46, DW_AT_TI_begin_line(0x16)
    1746                      .dwattr $C$DW$46, DW_AT_TI_begin_column(0x12)
    1747                      .dwattr $C$DW$46, DW_AT_TI_interrupt
    1748                      .dwattr $C$DW$46, DW_AT_TI_max_frame_size(-2)
    1749                      .dwpsn  file "../source/DSP2803x_SWPrioritizedDefaultIsr.c",line 23,column 1,is_stmt,address _INT13_I
    1750              
    1751                      .dwfde $C$DW$CIE, _INT13_ISR
    1752              
    1753              ;***************************************************************
    1754              ;* FNAME: _INT13_ISR                    FR SIZE:   0           *
    1755              ;*                                                             *
TMS320C2000 Assembler PC v6.4.12 Thu Nov 16 10:01:32 2017

Tools Copyright (c) 1996-2017 Texas Instruments Incorporated
C:\Users\Admin\AppData\Local\Temp\0610810                            PAGE   34

    1756              ;* FUNCTION ENVIRONMENT                                        *
    1757              ;*                                                             *
    1758              ;* FUNCTION PROPERTIES                                         *
    1759              ;*                            0 Parameter,  0 Auto,  0 SOE     *
    1760              ;***************************************************************
    1761              
    1762 00000187       _INT13_ISR:
    1763                      .dwcfi  cfa_offset, -2
    1764                      .dwcfi  save_reg_to_mem, 26, 0
    1765 00000187 761B          ASP       ; [CPU_] 
    1766 00000188 2942          CLRC      PAGE0,OVM             ; [CPU_] 
    1767 00000189 5616          CLRC      AMODE                 ; [CPU_] 
    1768                      .dwpsn  file "../source/DSP2803x_SWPrioritizedDefaultIsr.c",line 24,column 3,is_stmt,isa 0
    1769 0000018a 7623          OR        IER,#0x113b           ; [CPU_] |24| 
         0000018b 113B 
    1770 0000018c 2910   clrc INTM
    1771 0000018d 7625        ESTOP0
    1772 0000018e       $C$L32:    
    1773                      .dwpsn  file "../source/DSP2803x_SWPrioritizedDefaultIsr.c",line 32,column 6,is_stmt,isa 0
    1774 0000018e 6F00          B         $C$L32,UNC            ; [CPU_] |32| 
    1775                      ; branch occurs ; [] |32| 
    1776                      .dwattr $C$DW$46, DW_AT_TI_end_file("../source/DSP2803x_SWPrioritizedDefaultIsr.c")
    1777                      .dwattr $C$DW$46, DW_AT_TI_end_line(0x21)
    1778                      .dwattr $C$DW$46, DW_AT_TI_end_column(0x01)
    1779                      .dwendentry
    1780                      .dwendtag $C$DW$46
    1781              
    1782 0000018f               .sect   ".text:retain"
    1783                      .retain
    1784                      .retainrefs
    1785                      .global _ILLEGAL_ISR
    1786              
    1787              $C$DW$47        .dwtag  DW_TAG_subprogram, DW_AT_name("ILLEGAL_ISR")
    1788                      .dwattr $C$DW$47, DW_AT_low_pc(_ILLEGAL_ISR)
    1789                      .dwattr $C$DW$47, DW_AT_high_pc(0x00)
    1790                      .dwattr $C$DW$47, DW_AT_TI_symbol_name("_ILLEGAL_ISR")
    1791                      .dwattr $C$DW$47, DW_AT_external
    1792                      .dwattr $C$DW$47, DW_AT_TI_begin_file("../source/DSP2803x_SWPrioritizedDefaultIsr.c")
    1793                      .dwattr $C$DW$47, DW_AT_TI_begin_line(0x6e)
    1794                      .dwattr $C$DW$47, DW_AT_TI_begin_column(0x12)
    1795                      .dwattr $C$DW$47, DW_AT_TI_interrupt
    1796                      .dwattr $C$DW$47, DW_AT_TI_max_frame_size(-2)
    1797                      .dwpsn  file "../source/DSP2803x_SWPrioritizedDefaultIsr.c",line 111,column 1,is_stmt,address _ILLEGA
    1798              
    1799                      .dwfde $C$DW$CIE, _ILLEGAL_ISR
    1800              
    1801              ;***************************************************************
    1802              ;* FNAME: _ILLEGAL_ISR                  FR SIZE:   0           *
    1803              ;*                                                             *
    1804              ;* FUNCTION ENVIRONMENT                                        *
    1805              ;*                                                             *
    1806              ;* FUNCTION PROPERTIES                                         *
    1807              ;*                            0 Parameter,  0 Auto,  0 SOE     *
    1808              ;***************************************************************
    1809              
TMS320C2000 Assembler PC v6.4.12 Thu Nov 16 10:01:32 2017

Tools Copyright (c) 1996-2017 Texas Instruments Incorporated
C:\Users\Admin\AppData\Local\Temp\0610810                            PAGE   35

    1810 0000018f       _ILLEGAL_ISR:
    1811                      .dwcfi  cfa_offset, -2
    1812                      .dwcfi  save_reg_to_mem, 26, 0
    1813 0000018f 761B          ASP       ; [CPU_] 
    1814 00000190 2942          CLRC      PAGE0,OVM             ; [CPU_] 
    1815 00000191 5616          CLRC      AMODE                 ; [CPU_] 
    1816 00000192 2910   clrc INTM
    1817 00000193 7625        ESTOP0
    1818 00000194       $C$L33:    
    1819                      .dwpsn  file "../source/DSP2803x_SWPrioritizedDefaultIsr.c",line 119,column 5,is_stmt,isa 0
    1820 00000194 6F00          B         $C$L33,UNC            ; [CPU_] |119| 
    1821                      ; branch occurs ; [] |119| 
    1822                      .dwattr $C$DW$47, DW_AT_TI_end_file("../source/DSP2803x_SWPrioritizedDefaultIsr.c")
    1823                      .dwattr $C$DW$47, DW_AT_TI_end_line(0x78)
    1824                      .dwattr $C$DW$47, DW_AT_TI_end_column(0x01)
    1825                      .dwendentry
    1826                      .dwendtag $C$DW$47
    1827              
    1828 00000195               .sect   ".text:retain"
    1829                      .retain
    1830                      .retainrefs
    1831                      .global _I2CINT2A_ISR
    1832              
    1833              $C$DW$48        .dwtag  DW_TAG_subprogram, DW_AT_name("I2CINT2A_ISR")
    1834                      .dwattr $C$DW$48, DW_AT_low_pc(_I2CINT2A_ISR)
    1835                      .dwattr $C$DW$48, DW_AT_high_pc(0x00)
    1836                      .dwattr $C$DW$48, DW_AT_TI_symbol_name("_I2CINT2A_ISR")
    1837                      .dwattr $C$DW$48, DW_AT_external
    1838                      .dwattr $C$DW$48, DW_AT_TI_begin_file("../source/DSP2803x_SWPrioritizedDefaultIsr.c")
    1839                      .dwattr $C$DW$48, DW_AT_TI_begin_line(0x3c4)
    1840                      .dwattr $C$DW$48, DW_AT_TI_begin_column(0x12)
    1841                      .dwattr $C$DW$48, DW_AT_TI_interrupt
    1842                      .dwattr $C$DW$48, DW_AT_TI_max_frame_size(-4)
    1843                      .dwpsn  file "../source/DSP2803x_SWPrioritizedDefaultIsr.c",line 965,column 1,is_stmt,address _I2CINT
    1844              
    1845                      .dwfde $C$DW$CIE, _I2CINT2A_ISR
    1846              
    1847              ;***************************************************************
    1848              ;* FNAME: _I2CINT2A_ISR                 FR SIZE:   2           *
    1849              ;*                                                             *
    1850              ;* FUNCTION ENVIRONMENT                                        *
    1851              ;*                                                             *
    1852              ;* FUNCTION PROPERTIES                                         *
    1853              ;*                            0 Parameter,  1 Auto,  0 SOE     *
    1854              ;***************************************************************
    1855              
    1856              _I2CINT2A_ISR:
    1857              $C$DW$49        .dwtag  DW_TAG_variable, DW_AT_name("TempPIEIER")
    1858                      .dwattr $C$DW$49, DW_AT_TI_symbol_name("_TempPIEIER")
    1859                      .dwattr $C$DW$49, DW_AT_type(*$C$DW$T$33)
    1860                      .dwattr $C$DW$49, DW_AT_location[DW_OP_breg20 -1]
    1861                      .dwcfi  cfa_offset, -2
    1862                      .dwcfi  save_reg_to_mem, 26, 0
    1863 00000195 761B          ASP       ; [CPU_] 
    1864 00000196 FE02          ADDB      SP,#2                 ; [CPU_U] 
TMS320C2000 Assembler PC v6.4.12 Thu Nov 16 10:01:32 2017

Tools Copyright (c) 1996-2017 Texas Instruments Incorporated
C:\Users\Admin\AppData\Local\Temp\0610810                            PAGE   36

    1865                      .dwcfi  cfa_offset, -4
    1866 00000197 2942          CLRC      PAGE0,OVM             ; [CPU_] 
    1867 00000198 5616          CLRC      AMODE                 ; [CPU_] 
    1868 00000199 761F!         MOVW      DP,#_PieCtrlRegs+16   ; [CPU_U] 
         0000019a 0000 
    1869                      .dwpsn  file "../source/DSP2803x_SWPrioritizedDefaultIsr.c",line 967,column 29,is_stmt,isa 0
    1870 0000019b 9210!         MOV       AL,@_PieCtrlRegs+16   ; [CPU_] |967| 
    1871 0000019c 9641          MOV       *-SP[1],AL            ; [CPU_] |967| 
    1872                      .dwpsn  file "../source/DSP2803x_SWPrioritizedDefaultIsr.c",line 968,column 2,is_stmt,isa 0
    1873 0000019d 7623          OR        IER,#0x0080           ; [CPU_] |968| 
         0000019e 0080 
    1874                      .dwpsn  file "../source/DSP2803x_SWPrioritizedDefaultIsr.c",line 969,column 2,is_stmt,isa 0
    1875 0000019f 7626          AND       IER,#0xf1bf           ; [CPU_] |969| 
         000001a0 F1BF 
    1876                      .dwpsn  file "../source/DSP2803x_SWPrioritizedDefaultIsr.c",line 970,column 2,is_stmt,isa 0
    1877 000001a1 1810!         AND       @_PieCtrlRegs+16,#0x0001 ; [CPU_] |970| 
         000001a2 0001 
    1878                      .dwpsn  file "../source/DSP2803x_SWPrioritizedDefaultIsr.c",line 971,column 2,is_stmt,isa 0
    1879 000001a3 2801!         MOV       @_PieCtrlRegs+1,#65535 ; [CPU_] |971| 
         000001a4 FFFF 
    1880 000001a5 2910   clrc INTM
    1881 000001a6 3B10   setc INTM
    1882                      .dwpsn  file "../source/DSP2803x_SWPrioritizedDefaultIsr.c",line 978,column 2,is_stmt,isa 0
    1883 000001a7 9241          MOV       AL,*-SP[1]            ; [CPU_] |978| 
    1884 000001a8 9610!         MOV       @_PieCtrlRegs+16,AL   ; [CPU_] |978| 
    1885 000001a9 7625        ESTOP0
    1886 000001aa       $C$L34:    
    1887                      .dwpsn  file "../source/DSP2803x_SWPrioritizedDefaultIsr.c",line 983,column 5,is_stmt,isa 0
    1888 000001aa 6F00          B         $C$L34,UNC            ; [CPU_] |983| 
    1889                      ; branch occurs ; [] |983| 
    1890                      .dwattr $C$DW$48, DW_AT_TI_end_file("../source/DSP2803x_SWPrioritizedDefaultIsr.c")
    1891                      .dwattr $C$DW$48, DW_AT_TI_end_line(0x3d9)
    1892                      .dwattr $C$DW$48, DW_AT_TI_end_column(0x01)
    1893                      .dwendentry
    1894                      .dwendtag $C$DW$48
    1895              
    1896 000001ab               .sect   ".text:retain"
    1897                      .retain
    1898                      .retainrefs
    1899                      .global _I2CINT1A_ISR
    1900              
    1901              $C$DW$50        .dwtag  DW_TAG_subprogram, DW_AT_name("I2CINT1A_ISR")
    1902                      .dwattr $C$DW$50, DW_AT_low_pc(_I2CINT1A_ISR)
    1903                      .dwattr $C$DW$50, DW_AT_high_pc(0x00)
    1904                      .dwattr $C$DW$50, DW_AT_TI_symbol_name("_I2CINT1A_ISR")
    1905                      .dwattr $C$DW$50, DW_AT_external
    1906                      .dwattr $C$DW$50, DW_AT_TI_begin_file("../source/DSP2803x_SWPrioritizedDefaultIsr.c")
    1907                      .dwattr $C$DW$50, DW_AT_TI_begin_line(0x3aa)
    1908                      .dwattr $C$DW$50, DW_AT_TI_begin_column(0x12)
    1909                      .dwattr $C$DW$50, DW_AT_TI_interrupt
    1910                      .dwattr $C$DW$50, DW_AT_TI_max_frame_size(-4)
    1911                      .dwpsn  file "../source/DSP2803x_SWPrioritizedDefaultIsr.c",line 939,column 1,is_stmt,address _I2CINT
    1912              
    1913                      .dwfde $C$DW$CIE, _I2CINT1A_ISR
    1914              
TMS320C2000 Assembler PC v6.4.12 Thu Nov 16 10:01:32 2017

Tools Copyright (c) 1996-2017 Texas Instruments Incorporated
C:\Users\Admin\AppData\Local\Temp\0610810                            PAGE   37

    1915              ;***************************************************************
    1916              ;* FNAME: _I2CINT1A_ISR                 FR SIZE:   2           *
    1917              ;*                                                             *
    1918              ;* FUNCTION ENVIRONMENT                                        *
    1919              ;*                                                             *
    1920              ;* FUNCTION PROPERTIES                                         *
    1921              ;*                            0 Parameter,  1 Auto,  0 SOE     *
    1922              ;***************************************************************
    1923              
    1924              _I2CINT1A_ISR:
    1925              $C$DW$51        .dwtag  DW_TAG_variable, DW_AT_name("TempPIEIER")
    1926                      .dwattr $C$DW$51, DW_AT_TI_symbol_name("_TempPIEIER")
    1927                      .dwattr $C$DW$51, DW_AT_type(*$C$DW$T$33)
    1928                      .dwattr $C$DW$51, DW_AT_location[DW_OP_breg20 -1]
    1929                      .dwcfi  cfa_offset, -2
    1930                      .dwcfi  save_reg_to_mem, 26, 0
    1931 000001ab 761B          ASP       ; [CPU_] 
    1932 000001ac FE02          ADDB      SP,#2                 ; [CPU_U] 
    1933                      .dwcfi  cfa_offset, -4
    1934 000001ad 2942          CLRC      PAGE0,OVM             ; [CPU_] 
    1935 000001ae 5616          CLRC      AMODE                 ; [CPU_] 
    1936 000001af 761F!         MOVW      DP,#_PieCtrlRegs+16   ; [CPU_U] 
         000001b0 0000 
    1937                      .dwpsn  file "../source/DSP2803x_SWPrioritizedDefaultIsr.c",line 941,column 29,is_stmt,isa 0
    1938 000001b1 9210!         MOV       AL,@_PieCtrlRegs+16   ; [CPU_] |941| 
    1939 000001b2 9641          MOV       *-SP[1],AL            ; [CPU_] |941| 
    1940                      .dwpsn  file "../source/DSP2803x_SWPrioritizedDefaultIsr.c",line 942,column 2,is_stmt,isa 0
    1941 000001b3 7623          OR        IER,#0x0080           ; [CPU_] |942| 
         000001b4 0080 
    1942                      .dwpsn  file "../source/DSP2803x_SWPrioritizedDefaultIsr.c",line 943,column 2,is_stmt,isa 0
    1943 000001b5 7626          AND       IER,#0xf1bf           ; [CPU_] |943| 
         000001b6 F1BF 
    1944                      .dwpsn  file "../source/DSP2803x_SWPrioritizedDefaultIsr.c",line 944,column 2,is_stmt,isa 0
    1945 000001b7 9210!         MOV       AL,@_PieCtrlRegs+16   ; [CPU_] |944| 
    1946 000001b8 2B10!         MOV       @_PieCtrlRegs+16,#0   ; [CPU_] |944| 
    1947                      .dwpsn  file "../source/DSP2803x_SWPrioritizedDefaultIsr.c",line 945,column 2,is_stmt,isa 0
    1948 000001b9 2801!         MOV       @_PieCtrlRegs+1,#65535 ; [CPU_] |945| 
         000001ba FFFF 
    1949 000001bb 2910   clrc INTM
    1950 000001bc 3B10   setc INTM
    1951                      .dwpsn  file "../source/DSP2803x_SWPrioritizedDefaultIsr.c",line 952,column 2,is_stmt,isa 0
    1952 000001bd 9241          MOV       AL,*-SP[1]            ; [CPU_] |952| 
    1953 000001be 9610!         MOV       @_PieCtrlRegs+16,AL   ; [CPU_] |952| 
    1954 000001bf 7625        ESTOP0
    1955 000001c0       $C$L35:    
    1956                      .dwpsn  file "../source/DSP2803x_SWPrioritizedDefaultIsr.c",line 957,column 5,is_stmt,isa 0
    1957 000001c0 6F00          B         $C$L35,UNC            ; [CPU_] |957| 
    1958                      ; branch occurs ; [] |957| 
    1959                      .dwattr $C$DW$50, DW_AT_TI_end_file("../source/DSP2803x_SWPrioritizedDefaultIsr.c")
    1960                      .dwattr $C$DW$50, DW_AT_TI_end_line(0x3bf)
    1961                      .dwattr $C$DW$50, DW_AT_TI_end_column(0x01)
    1962                      .dwendentry
    1963                      .dwendtag $C$DW$50
    1964              
    1965 000001c1               .sect   ".text:retain"
TMS320C2000 Assembler PC v6.4.12 Thu Nov 16 10:01:32 2017

Tools Copyright (c) 1996-2017 Texas Instruments Incorporated
C:\Users\Admin\AppData\Local\Temp\0610810                            PAGE   38

    1966                      .retain
    1967                      .retainrefs
    1968                      .global _EQEP1_INT_ISR
    1969              
    1970              $C$DW$52        .dwtag  DW_TAG_subprogram, DW_AT_name("EQEP1_INT_ISR")
    1971                      .dwattr $C$DW$52, DW_AT_low_pc(_EQEP1_INT_ISR)
    1972                      .dwattr $C$DW$52, DW_AT_high_pc(0x00)
    1973                      .dwattr $C$DW$52, DW_AT_TI_symbol_name("_EQEP1_INT_ISR")
    1974                      .dwattr $C$DW$52, DW_AT_external
    1975                      .dwattr $C$DW$52, DW_AT_TI_begin_file("../source/DSP2803x_SWPrioritizedDefaultIsr.c")
    1976                      .dwattr $C$DW$52, DW_AT_TI_begin_line(0x351)
    1977                      .dwattr $C$DW$52, DW_AT_TI_begin_column(0x12)
    1978                      .dwattr $C$DW$52, DW_AT_TI_interrupt
    1979                      .dwattr $C$DW$52, DW_AT_TI_max_frame_size(-4)
    1980                      .dwpsn  file "../source/DSP2803x_SWPrioritizedDefaultIsr.c",line 850,column 1,is_stmt,address _EQEP1_
    1981              
    1982                      .dwfde $C$DW$CIE, _EQEP1_INT_ISR
    1983              
    1984              ;***************************************************************
    1985              ;* FNAME: _EQEP1_INT_ISR                FR SIZE:   2           *
    1986              ;*                                                             *
    1987              ;* FUNCTION ENVIRONMENT                                        *
    1988              ;*                                                             *
    1989              ;* FUNCTION PROPERTIES                                         *
    1990              ;*                            0 Parameter,  1 Auto,  0 SOE     *
    1991              ;***************************************************************
    1992              
    1993              _EQEP1_INT_ISR:
    1994              $C$DW$53        .dwtag  DW_TAG_variable, DW_AT_name("TempPIEIER")
    1995                      .dwattr $C$DW$53, DW_AT_TI_symbol_name("_TempPIEIER")
    1996                      .dwattr $C$DW$53, DW_AT_type(*$C$DW$T$33)
    1997                      .dwattr $C$DW$53, DW_AT_location[DW_OP_breg20 -1]
    1998                      .dwcfi  cfa_offset, -2
    1999                      .dwcfi  save_reg_to_mem, 26, 0
    2000 000001c1 761B          ASP       ; [CPU_] 
    2001 000001c2 FE02          ADDB      SP,#2                 ; [CPU_U] 
    2002                      .dwcfi  cfa_offset, -4
    2003 000001c3 2942          CLRC      PAGE0,OVM             ; [CPU_] 
    2004 000001c4 5616          CLRC      AMODE                 ; [CPU_] 
    2005 000001c5 761F!         MOVW      DP,#_PieCtrlRegs+10   ; [CPU_U] 
         000001c6 0000 
    2006                      .dwpsn  file "../source/DSP2803x_SWPrioritizedDefaultIsr.c",line 852,column 29,is_stmt,isa 0
    2007 000001c7 920A!         MOV       AL,@_PieCtrlRegs+10   ; [CPU_] |852| 
    2008 000001c8 9641          MOV       *-SP[1],AL            ; [CPU_] |852| 
    2009                      .dwpsn  file "../source/DSP2803x_SWPrioritizedDefaultIsr.c",line 853,column 2,is_stmt,isa 0
    2010 000001c9 7623          OR        IER,#0x0010           ; [CPU_] |853| 
         000001ca 0010 
    2011                      .dwpsn  file "../source/DSP2803x_SWPrioritizedDefaultIsr.c",line 854,column 2,is_stmt,isa 0
    2012 000001cb 7626          AND       IER,#0x0012           ; [CPU_] |854| 
         000001cc 0012 
    2013                      .dwpsn  file "../source/DSP2803x_SWPrioritizedDefaultIsr.c",line 855,column 2,is_stmt,isa 0
    2014 000001cd 920A!         MOV       AL,@_PieCtrlRegs+10   ; [CPU_] |855| 
    2015 000001ce 2B0A!         MOV       @_PieCtrlRegs+10,#0   ; [CPU_] |855| 
    2016                      .dwpsn  file "../source/DSP2803x_SWPrioritizedDefaultIsr.c",line 856,column 2,is_stmt,isa 0
    2017 000001cf 2801!         MOV       @_PieCtrlRegs+1,#65535 ; [CPU_] |856| 
TMS320C2000 Assembler PC v6.4.12 Thu Nov 16 10:01:32 2017

Tools Copyright (c) 1996-2017 Texas Instruments Incorporated
C:\Users\Admin\AppData\Local\Temp\0610810                            PAGE   39

         000001d0 FFFF 
    2018 000001d1 2910   clrc INTM
    2019 000001d2 3B10   setc INTM
    2020                      .dwpsn  file "../source/DSP2803x_SWPrioritizedDefaultIsr.c",line 863,column 2,is_stmt,isa 0
    2021 000001d3 9241          MOV       AL,*-SP[1]            ; [CPU_] |863| 
    2022 000001d4 960A!         MOV       @_PieCtrlRegs+10,AL   ; [CPU_] |863| 
    2023 000001d5 7625        ESTOP0
    2024 000001d6       $C$L36:    
    2025                      .dwpsn  file "../source/DSP2803x_SWPrioritizedDefaultIsr.c",line 868,column 5,is_stmt,isa 0
    2026 000001d6 6F00          B         $C$L36,UNC            ; [CPU_] |868| 
    2027                      ; branch occurs ; [] |868| 
    2028                      .dwattr $C$DW$52, DW_AT_TI_end_file("../source/DSP2803x_SWPrioritizedDefaultIsr.c")
    2029                      .dwattr $C$DW$52, DW_AT_TI_end_line(0x366)
    2030                      .dwattr $C$DW$52, DW_AT_TI_end_column(0x01)
    2031                      .dwendentry
    2032                      .dwendtag $C$DW$52
    2033              
    2034 000001d7               .sect   ".text:retain"
    2035                      .retain
    2036                      .retainrefs
    2037                      .global _EPWM7_TZINT_ISR
    2038              
    2039              $C$DW$54        .dwtag  DW_TAG_subprogram, DW_AT_name("EPWM7_TZINT_ISR")
    2040                      .dwattr $C$DW$54, DW_AT_low_pc(_EPWM7_TZINT_ISR)
    2041                      .dwattr $C$DW$54, DW_AT_high_pc(0x00)
    2042                      .dwattr $C$DW$54, DW_AT_TI_symbol_name("_EPWM7_TZINT_ISR")
    2043                      .dwattr $C$DW$54, DW_AT_external
    2044                      .dwattr $C$DW$54, DW_AT_TI_begin_file("../source/DSP2803x_SWPrioritizedDefaultIsr.c")
    2045                      .dwattr $C$DW$54, DW_AT_TI_begin_line(0x25c)
    2046                      .dwattr $C$DW$54, DW_AT_TI_begin_column(0x12)
    2047                      .dwattr $C$DW$54, DW_AT_TI_interrupt
    2048                      .dwattr $C$DW$54, DW_AT_TI_max_frame_size(-4)
    2049                      .dwpsn  file "../source/DSP2803x_SWPrioritizedDefaultIsr.c",line 605,column 1,is_stmt,address _EPWM7_
    2050              
    2051                      .dwfde $C$DW$CIE, _EPWM7_TZINT_ISR
    2052              
    2053              ;***************************************************************
    2054              ;* FNAME: _EPWM7_TZINT_ISR              FR SIZE:   2           *
    2055              ;*                                                             *
    2056              ;* FUNCTION ENVIRONMENT                                        *
    2057              ;*                                                             *
    2058              ;* FUNCTION PROPERTIES                                         *
    2059              ;*                            0 Parameter,  1 Auto,  0 SOE     *
    2060              ;***************************************************************
    2061              
    2062              _EPWM7_TZINT_ISR:
    2063              $C$DW$55        .dwtag  DW_TAG_variable, DW_AT_name("TempPIEIER")
    2064                      .dwattr $C$DW$55, DW_AT_TI_symbol_name("_TempPIEIER")
    2065                      .dwattr $C$DW$55, DW_AT_type(*$C$DW$T$33)
    2066                      .dwattr $C$DW$55, DW_AT_location[DW_OP_breg20 -1]
    2067                      .dwcfi  cfa_offset, -2
    2068                      .dwcfi  save_reg_to_mem, 26, 0
    2069 000001d7 761B          ASP       ; [CPU_] 
    2070 000001d8 FE02          ADDB      SP,#2                 ; [CPU_U] 
    2071                      .dwcfi  cfa_offset, -4
TMS320C2000 Assembler PC v6.4.12 Thu Nov 16 10:01:32 2017

Tools Copyright (c) 1996-2017 Texas Instruments Incorporated
C:\Users\Admin\AppData\Local\Temp\0610810                            PAGE   40

    2072 000001d9 2942          CLRC      PAGE0,OVM             ; [CPU_] 
    2073 000001da 5616          CLRC      AMODE                 ; [CPU_] 
    2074 000001db 761F!         MOVW      DP,#_PieCtrlRegs+4    ; [CPU_U] 
         000001dc 0000 
    2075                      .dwpsn  file "../source/DSP2803x_SWPrioritizedDefaultIsr.c",line 607,column 29,is_stmt,isa 0
    2076 000001dd 9204!         MOV       AL,@_PieCtrlRegs+4    ; [CPU_] |607| 
    2077 000001de 9641          MOV       *-SP[1],AL            ; [CPU_] |607| 
    2078                      .dwpsn  file "../source/DSP2803x_SWPrioritizedDefaultIsr.c",line 608,column 2,is_stmt,isa 0
    2079 000001df 7623          OR        IER,#0x0002           ; [CPU_] |608| 
         000001e0 0002 
    2080                      .dwpsn  file "../source/DSP2803x_SWPrioritizedDefaultIsr.c",line 609,column 2,is_stmt,isa 0
    2081 000001e1 7626          AND       IER,#0x0002           ; [CPU_] |609| 
         000001e2 0002 
    2082                      .dwpsn  file "../source/DSP2803x_SWPrioritizedDefaultIsr.c",line 610,column 2,is_stmt,isa 0
    2083 000001e3 1804!         AND       @_PieCtrlRegs+4,#0x0008 ; [CPU_] |610| 
         000001e4 0008 
    2084                      .dwpsn  file "../source/DSP2803x_SWPrioritizedDefaultIsr.c",line 611,column 2,is_stmt,isa 0
    2085 000001e5 2801!         MOV       @_PieCtrlRegs+1,#65535 ; [CPU_] |611| 
         000001e6 FFFF 
    2086 000001e7 2910   clrc INTM
    2087 000001e8 3B10   setc INTM
    2088                      .dwpsn  file "../source/DSP2803x_SWPrioritizedDefaultIsr.c",line 618,column 2,is_stmt,isa 0
    2089 000001e9 9241          MOV       AL,*-SP[1]            ; [CPU_] |618| 
    2090 000001ea 9604!         MOV       @_PieCtrlRegs+4,AL    ; [CPU_] |618| 
    2091 000001eb 7625        ESTOP0
    2092 000001ec       $C$L37:    
    2093                      .dwpsn  file "../source/DSP2803x_SWPrioritizedDefaultIsr.c",line 623,column 5,is_stmt,isa 0
    2094 000001ec 6F00          B         $C$L37,UNC            ; [CPU_] |623| 
    2095                      ; branch occurs ; [] |623| 
    2096                      .dwattr $C$DW$54, DW_AT_TI_end_file("../source/DSP2803x_SWPrioritizedDefaultIsr.c")
    2097                      .dwattr $C$DW$54, DW_AT_TI_end_line(0x271)
    2098                      .dwattr $C$DW$54, DW_AT_TI_end_column(0x01)
    2099                      .dwendentry
    2100                      .dwendtag $C$DW$54
    2101              
    2102 000001ed               .sect   ".text:retain"
    2103                      .retain
    2104                      .retainrefs
    2105                      .global _EPWM7_INT_ISR
    2106              
    2107              $C$DW$56        .dwtag  DW_TAG_subprogram, DW_AT_name("EPWM7_INT_ISR")
    2108                      .dwattr $C$DW$56, DW_AT_low_pc(_EPWM7_INT_ISR)
    2109                      .dwattr $C$DW$56, DW_AT_high_pc(0x00)
    2110                      .dwattr $C$DW$56, DW_AT_TI_symbol_name("_EPWM7_INT_ISR")
    2111                      .dwattr $C$DW$56, DW_AT_external
    2112                      .dwattr $C$DW$56, DW_AT_TI_begin_file("../source/DSP2803x_SWPrioritizedDefaultIsr.c")
    2113                      .dwattr $C$DW$56, DW_AT_TI_begin_line(0x315)
    2114                      .dwattr $C$DW$56, DW_AT_TI_begin_column(0x12)
    2115                      .dwattr $C$DW$56, DW_AT_TI_interrupt
    2116                      .dwattr $C$DW$56, DW_AT_TI_max_frame_size(-4)
    2117                      .dwpsn  file "../source/DSP2803x_SWPrioritizedDefaultIsr.c",line 790,column 1,is_stmt,address _EPWM7_
    2118              
    2119                      .dwfde $C$DW$CIE, _EPWM7_INT_ISR
    2120              
    2121              ;***************************************************************
TMS320C2000 Assembler PC v6.4.12 Thu Nov 16 10:01:32 2017

Tools Copyright (c) 1996-2017 Texas Instruments Incorporated
C:\Users\Admin\AppData\Local\Temp\0610810                            PAGE   41

    2122              ;* FNAME: _EPWM7_INT_ISR                FR SIZE:   2           *
    2123              ;*                                                             *
    2124              ;* FUNCTION ENVIRONMENT                                        *
    2125              ;*                                                             *
    2126              ;* FUNCTION PROPERTIES                                         *
    2127              ;*                            0 Parameter,  1 Auto,  0 SOE     *
    2128              ;***************************************************************
    2129              
    2130              _EPWM7_INT_ISR:
    2131              $C$DW$57        .dwtag  DW_TAG_variable, DW_AT_name("TempPIEIER")
    2132                      .dwattr $C$DW$57, DW_AT_TI_symbol_name("_TempPIEIER")
    2133                      .dwattr $C$DW$57, DW_AT_type(*$C$DW$T$33)
    2134                      .dwattr $C$DW$57, DW_AT_location[DW_OP_breg20 -1]
    2135                      .dwcfi  cfa_offset, -2
    2136                      .dwcfi  save_reg_to_mem, 26, 0
    2137 000001ed 761B          ASP       ; [CPU_] 
    2138 000001ee FE02          ADDB      SP,#2                 ; [CPU_U] 
    2139                      .dwcfi  cfa_offset, -4
    2140 000001ef 2942          CLRC      PAGE0,OVM             ; [CPU_] 
    2141 000001f0 5616          CLRC      AMODE                 ; [CPU_] 
    2142 000001f1 761F!         MOVW      DP,#_PieCtrlRegs+6    ; [CPU_U] 
         000001f2 0000 
    2143                      .dwpsn  file "../source/DSP2803x_SWPrioritizedDefaultIsr.c",line 792,column 29,is_stmt,isa 0
    2144 000001f3 9206!         MOV       AL,@_PieCtrlRegs+6    ; [CPU_] |792| 
    2145 000001f4 9641          MOV       *-SP[1],AL            ; [CPU_] |792| 
    2146                      .dwpsn  file "../source/DSP2803x_SWPrioritizedDefaultIsr.c",line 793,column 2,is_stmt,isa 0
    2147 000001f5 7623          OR        IER,#0x0004           ; [CPU_] |793| 
         000001f6 0004 
    2148                      .dwpsn  file "../source/DSP2803x_SWPrioritizedDefaultIsr.c",line 794,column 2,is_stmt,isa 0
    2149 000001f7 7626          AND       IER,#0x013f           ; [CPU_] |794| 
         000001f8 013F 
    2150                      .dwpsn  file "../source/DSP2803x_SWPrioritizedDefaultIsr.c",line 795,column 2,is_stmt,isa 0
    2151 000001f9 1806!         AND       @_PieCtrlRegs+6,#0x001f ; [CPU_] |795| 
         000001fa 001F 
    2152                      .dwpsn  file "../source/DSP2803x_SWPrioritizedDefaultIsr.c",line 796,column 2,is_stmt,isa 0
    2153 000001fb 2801!         MOV       @_PieCtrlRegs+1,#65535 ; [CPU_] |796| 
         000001fc FFFF 
    2154 000001fd 2910   clrc INTM
    2155 000001fe 3B10   setc INTM
    2156                      .dwpsn  file "../source/DSP2803x_SWPrioritizedDefaultIsr.c",line 803,column 2,is_stmt,isa 0
    2157 000001ff 9241          MOV       AL,*-SP[1]            ; [CPU_] |803| 
    2158 00000200 9606!         MOV       @_PieCtrlRegs+6,AL    ; [CPU_] |803| 
    2159 00000201 7625        ESTOP0
    2160 00000202       $C$L38:    
    2161                      .dwpsn  file "../source/DSP2803x_SWPrioritizedDefaultIsr.c",line 808,column 5,is_stmt,isa 0
    2162 00000202 6F00          B         $C$L38,UNC            ; [CPU_] |808| 
    2163                      ; branch occurs ; [] |808| 
    2164                      .dwattr $C$DW$56, DW_AT_TI_end_file("../source/DSP2803x_SWPrioritizedDefaultIsr.c")
    2165                      .dwattr $C$DW$56, DW_AT_TI_end_line(0x32a)
    2166                      .dwattr $C$DW$56, DW_AT_TI_end_column(0x01)
    2167                      .dwendentry
    2168                      .dwendtag $C$DW$56
    2169              
    2170 00000203               .sect   ".text:retain"
    2171                      .retain
TMS320C2000 Assembler PC v6.4.12 Thu Nov 16 10:01:32 2017

Tools Copyright (c) 1996-2017 Texas Instruments Incorporated
C:\Users\Admin\AppData\Local\Temp\0610810                            PAGE   42

    2172                      .retainrefs
    2173                      .global _EPWM6_TZINT_ISR
    2174              
    2175              $C$DW$58        .dwtag  DW_TAG_subprogram, DW_AT_name("EPWM6_TZINT_ISR")
    2176                      .dwattr $C$DW$58, DW_AT_low_pc(_EPWM6_TZINT_ISR)
    2177                      .dwattr $C$DW$58, DW_AT_high_pc(0x00)
    2178                      .dwattr $C$DW$58, DW_AT_TI_symbol_name("_EPWM6_TZINT_ISR")
    2179                      .dwattr $C$DW$58, DW_AT_external
    2180                      .dwattr $C$DW$58, DW_AT_TI_begin_file("../source/DSP2803x_SWPrioritizedDefaultIsr.c")
    2181                      .dwattr $C$DW$58, DW_AT_TI_begin_line(0x242)
    2182                      .dwattr $C$DW$58, DW_AT_TI_begin_column(0x12)
    2183                      .dwattr $C$DW$58, DW_AT_TI_interrupt
    2184                      .dwattr $C$DW$58, DW_AT_TI_max_frame_size(-4)
    2185                      .dwpsn  file "../source/DSP2803x_SWPrioritizedDefaultIsr.c",line 579,column 1,is_stmt,address _EPWM6_
    2186              
    2187                      .dwfde $C$DW$CIE, _EPWM6_TZINT_ISR
    2188              
    2189              ;***************************************************************
    2190              ;* FNAME: _EPWM6_TZINT_ISR              FR SIZE:   2           *
    2191              ;*                                                             *
    2192              ;* FUNCTION ENVIRONMENT                                        *
    2193              ;*                                                             *
    2194              ;* FUNCTION PROPERTIES                                         *
    2195              ;*                            0 Parameter,  1 Auto,  0 SOE     *
    2196              ;***************************************************************
    2197              
    2198              _EPWM6_TZINT_ISR:
    2199              $C$DW$59        .dwtag  DW_TAG_variable, DW_AT_name("TempPIEIER")
    2200                      .dwattr $C$DW$59, DW_AT_TI_symbol_name("_TempPIEIER")
    2201                      .dwattr $C$DW$59, DW_AT_type(*$C$DW$T$33)
    2202                      .dwattr $C$DW$59, DW_AT_location[DW_OP_breg20 -1]
    2203                      .dwcfi  cfa_offset, -2
    2204                      .dwcfi  save_reg_to_mem, 26, 0
    2205 00000203 761B          ASP       ; [CPU_] 
    2206 00000204 FE02          ADDB      SP,#2                 ; [CPU_U] 
    2207                      .dwcfi  cfa_offset, -4
    2208 00000205 2942          CLRC      PAGE0,OVM             ; [CPU_] 
    2209 00000206 5616          CLRC      AMODE                 ; [CPU_] 
    2210 00000207 761F!         MOVW      DP,#_PieCtrlRegs+4    ; [CPU_U] 
         00000208 0000 
    2211                      .dwpsn  file "../source/DSP2803x_SWPrioritizedDefaultIsr.c",line 581,column 29,is_stmt,isa 0
    2212 00000209 9204!         MOV       AL,@_PieCtrlRegs+4    ; [CPU_] |581| 
    2213 0000020a 9641          MOV       *-SP[1],AL            ; [CPU_] |581| 
    2214                      .dwpsn  file "../source/DSP2803x_SWPrioritizedDefaultIsr.c",line 582,column 2,is_stmt,isa 0
    2215 0000020b 7623          OR        IER,#0x0002           ; [CPU_] |582| 
         0000020c 0002 
    2216                      .dwpsn  file "../source/DSP2803x_SWPrioritizedDefaultIsr.c",line 583,column 2,is_stmt,isa 0
    2217 0000020d 7626          AND       IER,#0x0002           ; [CPU_] |583| 
         0000020e 0002 
    2218                      .dwpsn  file "../source/DSP2803x_SWPrioritizedDefaultIsr.c",line 584,column 2,is_stmt,isa 0
    2219 0000020f 1804!         AND       @_PieCtrlRegs+4,#0x005f ; [CPU_] |584| 
         00000210 005F 
    2220                      .dwpsn  file "../source/DSP2803x_SWPrioritizedDefaultIsr.c",line 585,column 2,is_stmt,isa 0
    2221 00000211 2801!         MOV       @_PieCtrlRegs+1,#65535 ; [CPU_] |585| 
         00000212 FFFF 
TMS320C2000 Assembler PC v6.4.12 Thu Nov 16 10:01:32 2017

Tools Copyright (c) 1996-2017 Texas Instruments Incorporated
C:\Users\Admin\AppData\Local\Temp\0610810                            PAGE   43

    2222 00000213 2910   clrc INTM
    2223 00000214 3B10   setc INTM
    2224                      .dwpsn  file "../source/DSP2803x_SWPrioritizedDefaultIsr.c",line 592,column 2,is_stmt,isa 0
    2225 00000215 9241          MOV       AL,*-SP[1]            ; [CPU_] |592| 
    2226 00000216 9604!         MOV       @_PieCtrlRegs+4,AL    ; [CPU_] |592| 
    2227 00000217 7625        ESTOP0
    2228 00000218       $C$L39:    
    2229                      .dwpsn  file "../source/DSP2803x_SWPrioritizedDefaultIsr.c",line 597,column 5,is_stmt,isa 0
    2230 00000218 6F00          B         $C$L39,UNC            ; [CPU_] |597| 
    2231                      ; branch occurs ; [] |597| 
    2232                      .dwattr $C$DW$58, DW_AT_TI_end_file("../source/DSP2803x_SWPrioritizedDefaultIsr.c")
    2233                      .dwattr $C$DW$58, DW_AT_TI_end_line(0x257)
    2234                      .dwattr $C$DW$58, DW_AT_TI_end_column(0x01)
    2235                      .dwendentry
    2236                      .dwendtag $C$DW$58
    2237              
    2238 00000219               .sect   ".text:retain"
    2239                      .retain
    2240                      .retainrefs
    2241                      .global _EPWM6_INT_ISR
    2242              
    2243              $C$DW$60        .dwtag  DW_TAG_subprogram, DW_AT_name("EPWM6_INT_ISR")
    2244                      .dwattr $C$DW$60, DW_AT_low_pc(_EPWM6_INT_ISR)
    2245                      .dwattr $C$DW$60, DW_AT_high_pc(0x00)
    2246                      .dwattr $C$DW$60, DW_AT_TI_symbol_name("_EPWM6_INT_ISR")
    2247                      .dwattr $C$DW$60, DW_AT_external
    2248                      .dwattr $C$DW$60, DW_AT_TI_begin_file("../source/DSP2803x_SWPrioritizedDefaultIsr.c")
    2249                      .dwattr $C$DW$60, DW_AT_TI_begin_line(0x2fb)
    2250                      .dwattr $C$DW$60, DW_AT_TI_begin_column(0x12)
    2251                      .dwattr $C$DW$60, DW_AT_TI_interrupt
    2252                      .dwattr $C$DW$60, DW_AT_TI_max_frame_size(-4)
    2253                      .dwpsn  file "../source/DSP2803x_SWPrioritizedDefaultIsr.c",line 764,column 1,is_stmt,address _EPWM6_
    2254              
    2255                      .dwfde $C$DW$CIE, _EPWM6_INT_ISR
    2256              
    2257              ;***************************************************************
    2258              ;* FNAME: _EPWM6_INT_ISR                FR SIZE:   2           *
    2259              ;*                                                             *
    2260              ;* FUNCTION ENVIRONMENT                                        *
    2261              ;*                                                             *
    2262              ;* FUNCTION PROPERTIES                                         *
    2263              ;*                            0 Parameter,  1 Auto,  0 SOE     *
    2264              ;***************************************************************
    2265              
    2266              _EPWM6_INT_ISR:
    2267              $C$DW$61        .dwtag  DW_TAG_variable, DW_AT_name("TempPIEIER")
    2268                      .dwattr $C$DW$61, DW_AT_TI_symbol_name("_TempPIEIER")
    2269                      .dwattr $C$DW$61, DW_AT_type(*$C$DW$T$33)
    2270                      .dwattr $C$DW$61, DW_AT_location[DW_OP_breg20 -1]
    2271                      .dwcfi  cfa_offset, -2
    2272                      .dwcfi  save_reg_to_mem, 26, 0
    2273 00000219 761B          ASP       ; [CPU_] 
    2274 0000021a FE02          ADDB      SP,#2                 ; [CPU_U] 
    2275                      .dwcfi  cfa_offset, -4
    2276 0000021b 2942          CLRC      PAGE0,OVM             ; [CPU_] 
TMS320C2000 Assembler PC v6.4.12 Thu Nov 16 10:01:32 2017

Tools Copyright (c) 1996-2017 Texas Instruments Incorporated
C:\Users\Admin\AppData\Local\Temp\0610810                            PAGE   44

    2277 0000021c 5616          CLRC      AMODE                 ; [CPU_] 
    2278 0000021d 761F!         MOVW      DP,#_PieCtrlRegs+6    ; [CPU_U] 
         0000021e 0000 
    2279                      .dwpsn  file "../source/DSP2803x_SWPrioritizedDefaultIsr.c",line 766,column 29,is_stmt,isa 0
    2280 0000021f 9206!         MOV       AL,@_PieCtrlRegs+6    ; [CPU_] |766| 
    2281 00000220 9641          MOV       *-SP[1],AL            ; [CPU_] |766| 
    2282                      .dwpsn  file "../source/DSP2803x_SWPrioritizedDefaultIsr.c",line 767,column 2,is_stmt,isa 0
    2283 00000221 7623          OR        IER,#0x0004           ; [CPU_] |767| 
         00000222 0004 
    2284                      .dwpsn  file "../source/DSP2803x_SWPrioritizedDefaultIsr.c",line 768,column 2,is_stmt,isa 0
    2285 00000223 7626          AND       IER,#0x013f           ; [CPU_] |768| 
         00000224 013F 
    2286                      .dwpsn  file "../source/DSP2803x_SWPrioritizedDefaultIsr.c",line 769,column 2,is_stmt,isa 0
    2287 00000225 1806!         AND       @_PieCtrlRegs+6,#0x005f ; [CPU_] |769| 
         00000226 005F 
    2288                      .dwpsn  file "../source/DSP2803x_SWPrioritizedDefaultIsr.c",line 770,column 2,is_stmt,isa 0
    2289 00000227 2801!         MOV       @_PieCtrlRegs+1,#65535 ; [CPU_] |770| 
         00000228 FFFF 
    2290 00000229 2910   clrc INTM
    2291 0000022a 3B10   setc INTM
    2292                      .dwpsn  file "../source/DSP2803x_SWPrioritizedDefaultIsr.c",line 777,column 2,is_stmt,isa 0
    2293 0000022b 9241          MOV       AL,*-SP[1]            ; [CPU_] |777| 
    2294 0000022c 9606!         MOV       @_PieCtrlRegs+6,AL    ; [CPU_] |777| 
    2295 0000022d 7625        ESTOP0
    2296 0000022e       $C$L40:    
    2297                      .dwpsn  file "../source/DSP2803x_SWPrioritizedDefaultIsr.c",line 782,column 5,is_stmt,isa 0
    2298 0000022e 6F00          B         $C$L40,UNC            ; [CPU_] |782| 
    2299                      ; branch occurs ; [] |782| 
    2300                      .dwattr $C$DW$60, DW_AT_TI_end_file("../source/DSP2803x_SWPrioritizedDefaultIsr.c")
    2301                      .dwattr $C$DW$60, DW_AT_TI_end_line(0x310)
    2302                      .dwattr $C$DW$60, DW_AT_TI_end_column(0x01)
    2303                      .dwendentry
    2304                      .dwendtag $C$DW$60
    2305              
    2306 0000022f               .sect   ".text:retain"
    2307                      .retain
    2308                      .retainrefs
    2309                      .global _EPWM5_TZINT_ISR
    2310              
    2311              $C$DW$62        .dwtag  DW_TAG_subprogram, DW_AT_name("EPWM5_TZINT_ISR")
    2312                      .dwattr $C$DW$62, DW_AT_low_pc(_EPWM5_TZINT_ISR)
    2313                      .dwattr $C$DW$62, DW_AT_high_pc(0x00)
    2314                      .dwattr $C$DW$62, DW_AT_TI_symbol_name("_EPWM5_TZINT_ISR")
    2315                      .dwattr $C$DW$62, DW_AT_external
    2316                      .dwattr $C$DW$62, DW_AT_TI_begin_file("../source/DSP2803x_SWPrioritizedDefaultIsr.c")
    2317                      .dwattr $C$DW$62, DW_AT_TI_begin_line(0x228)
    2318                      .dwattr $C$DW$62, DW_AT_TI_begin_column(0x12)
    2319                      .dwattr $C$DW$62, DW_AT_TI_interrupt
    2320                      .dwattr $C$DW$62, DW_AT_TI_max_frame_size(-4)
    2321                      .dwpsn  file "../source/DSP2803x_SWPrioritizedDefaultIsr.c",line 553,column 1,is_stmt,address _EPWM5_
    2322              
    2323                      .dwfde $C$DW$CIE, _EPWM5_TZINT_ISR
    2324              
    2325              ;***************************************************************
    2326              ;* FNAME: _EPWM5_TZINT_ISR              FR SIZE:   2           *
TMS320C2000 Assembler PC v6.4.12 Thu Nov 16 10:01:32 2017

Tools Copyright (c) 1996-2017 Texas Instruments Incorporated
C:\Users\Admin\AppData\Local\Temp\0610810                            PAGE   45

    2327              ;*                                                             *
    2328              ;* FUNCTION ENVIRONMENT                                        *
    2329              ;*                                                             *
    2330              ;* FUNCTION PROPERTIES                                         *
    2331              ;*                            0 Parameter,  1 Auto,  0 SOE     *
    2332              ;***************************************************************
    2333              
    2334              _EPWM5_TZINT_ISR:
    2335              $C$DW$63        .dwtag  DW_TAG_variable, DW_AT_name("TempPIEIER")
    2336                      .dwattr $C$DW$63, DW_AT_TI_symbol_name("_TempPIEIER")
    2337                      .dwattr $C$DW$63, DW_AT_type(*$C$DW$T$33)
    2338                      .dwattr $C$DW$63, DW_AT_location[DW_OP_breg20 -1]
    2339                      .dwcfi  cfa_offset, -2
    2340                      .dwcfi  save_reg_to_mem, 26, 0
    2341 0000022f 761B          ASP       ; [CPU_] 
    2342 00000230 FE02          ADDB      SP,#2                 ; [CPU_U] 
    2343                      .dwcfi  cfa_offset, -4
    2344 00000231 2942          CLRC      PAGE0,OVM             ; [CPU_] 
    2345 00000232 5616          CLRC      AMODE                 ; [CPU_] 
    2346 00000233 761F!         MOVW      DP,#_PieCtrlRegs+4    ; [CPU_U] 
         00000234 0000 
    2347                      .dwpsn  file "../source/DSP2803x_SWPrioritizedDefaultIsr.c",line 555,column 29,is_stmt,isa 0
    2348 00000235 9204!         MOV       AL,@_PieCtrlRegs+4    ; [CPU_] |555| 
    2349 00000236 9641          MOV       *-SP[1],AL            ; [CPU_] |555| 
    2350                      .dwpsn  file "../source/DSP2803x_SWPrioritizedDefaultIsr.c",line 556,column 2,is_stmt,isa 0
    2351 00000237 7623          OR        IER,#0x0002           ; [CPU_] |556| 
         00000238 0002 
    2352                      .dwpsn  file "../source/DSP2803x_SWPrioritizedDefaultIsr.c",line 557,column 2,is_stmt,isa 0
    2353 00000239 7626          AND       IER,#0x0002           ; [CPU_] |557| 
         0000023a 0002 
    2354                      .dwpsn  file "../source/DSP2803x_SWPrioritizedDefaultIsr.c",line 558,column 2,is_stmt,isa 0
    2355 0000023b 1804!         AND       @_PieCtrlRegs+4,#0x004c ; [CPU_] |558| 
         0000023c 004C 
    2356                      .dwpsn  file "../source/DSP2803x_SWPrioritizedDefaultIsr.c",line 559,column 2,is_stmt,isa 0
    2357 0000023d 2801!         MOV       @_PieCtrlRegs+1,#65535 ; [CPU_] |559| 
         0000023e FFFF 
    2358 0000023f 2910   clrc INTM
    2359 00000240 3B10   setc INTM
    2360                      .dwpsn  file "../source/DSP2803x_SWPrioritizedDefaultIsr.c",line 566,column 2,is_stmt,isa 0
    2361 00000241 9241          MOV       AL,*-SP[1]            ; [CPU_] |566| 
    2362 00000242 9604!         MOV       @_PieCtrlRegs+4,AL    ; [CPU_] |566| 
    2363 00000243 7625        ESTOP0
    2364 00000244       $C$L41:    
    2365                      .dwpsn  file "../source/DSP2803x_SWPrioritizedDefaultIsr.c",line 571,column 5,is_stmt,isa 0
    2366 00000244 6F00          B         $C$L41,UNC            ; [CPU_] |571| 
    2367                      ; branch occurs ; [] |571| 
    2368                      .dwattr $C$DW$62, DW_AT_TI_end_file("../source/DSP2803x_SWPrioritizedDefaultIsr.c")
    2369                      .dwattr $C$DW$62, DW_AT_TI_end_line(0x23d)
    2370                      .dwattr $C$DW$62, DW_AT_TI_end_column(0x01)
    2371                      .dwendentry
    2372                      .dwendtag $C$DW$62
    2373              
    2374 00000245               .sect   ".text:retain"
    2375                      .retain
    2376                      .retainrefs
TMS320C2000 Assembler PC v6.4.12 Thu Nov 16 10:01:32 2017

Tools Copyright (c) 1996-2017 Texas Instruments Incorporated
C:\Users\Admin\AppData\Local\Temp\0610810                            PAGE   46

    2377                      .global _EPWM5_INT_ISR
    2378              
    2379              $C$DW$64        .dwtag  DW_TAG_subprogram, DW_AT_name("EPWM5_INT_ISR")
    2380                      .dwattr $C$DW$64, DW_AT_low_pc(_EPWM5_INT_ISR)
    2381                      .dwattr $C$DW$64, DW_AT_high_pc(0x00)
    2382                      .dwattr $C$DW$64, DW_AT_TI_symbol_name("_EPWM5_INT_ISR")
    2383                      .dwattr $C$DW$64, DW_AT_external
    2384                      .dwattr $C$DW$64, DW_AT_TI_begin_file("../source/DSP2803x_SWPrioritizedDefaultIsr.c")
    2385                      .dwattr $C$DW$64, DW_AT_TI_begin_line(0x2e1)
    2386                      .dwattr $C$DW$64, DW_AT_TI_begin_column(0x12)
    2387                      .dwattr $C$DW$64, DW_AT_TI_interrupt
    2388                      .dwattr $C$DW$64, DW_AT_TI_max_frame_size(-4)
    2389                      .dwpsn  file "../source/DSP2803x_SWPrioritizedDefaultIsr.c",line 738,column 1,is_stmt,address _EPWM5_
    2390              
    2391                      .dwfde $C$DW$CIE, _EPWM5_INT_ISR
    2392              
    2393              ;***************************************************************
    2394              ;* FNAME: _EPWM5_INT_ISR                FR SIZE:   2           *
    2395              ;*                                                             *
    2396              ;* FUNCTION ENVIRONMENT                                        *
    2397              ;*                                                             *
    2398              ;* FUNCTION PROPERTIES                                         *
    2399              ;*                            0 Parameter,  1 Auto,  0 SOE     *
    2400              ;***************************************************************
    2401              
    2402              _EPWM5_INT_ISR:
    2403              $C$DW$65        .dwtag  DW_TAG_variable, DW_AT_name("TempPIEIER")
    2404                      .dwattr $C$DW$65, DW_AT_TI_symbol_name("_TempPIEIER")
    2405                      .dwattr $C$DW$65, DW_AT_type(*$C$DW$T$33)
    2406                      .dwattr $C$DW$65, DW_AT_location[DW_OP_breg20 -1]
    2407                      .dwcfi  cfa_offset, -2
    2408                      .dwcfi  save_reg_to_mem, 26, 0
    2409 00000245 761B          ASP       ; [CPU_] 
    2410 00000246 FE02          ADDB      SP,#2                 ; [CPU_U] 
    2411                      .dwcfi  cfa_offset, -4
    2412 00000247 2942          CLRC      PAGE0,OVM             ; [CPU_] 
    2413 00000248 5616          CLRC      AMODE                 ; [CPU_] 
    2414 00000249 761F!         MOVW      DP,#_PieCtrlRegs+6    ; [CPU_U] 
         0000024a 0000 
    2415                      .dwpsn  file "../source/DSP2803x_SWPrioritizedDefaultIsr.c",line 740,column 29,is_stmt,isa 0
    2416 0000024b 9206!         MOV       AL,@_PieCtrlRegs+6    ; [CPU_] |740| 
    2417 0000024c 9641          MOV       *-SP[1],AL            ; [CPU_] |740| 
    2418                      .dwpsn  file "../source/DSP2803x_SWPrioritizedDefaultIsr.c",line 741,column 2,is_stmt,isa 0
    2419 0000024d 7623          OR        IER,#0x0004           ; [CPU_] |741| 
         0000024e 0004 
    2420                      .dwpsn  file "../source/DSP2803x_SWPrioritizedDefaultIsr.c",line 742,column 2,is_stmt,isa 0
    2421 0000024f 7626          AND       IER,#0x013f           ; [CPU_] |742| 
         00000250 013F 
    2422                      .dwpsn  file "../source/DSP2803x_SWPrioritizedDefaultIsr.c",line 743,column 2,is_stmt,isa 0
    2423 00000251 1806!         AND       @_PieCtrlRegs+6,#0x000e ; [CPU_] |743| 
         00000252 000E 
    2424                      .dwpsn  file "../source/DSP2803x_SWPrioritizedDefaultIsr.c",line 744,column 2,is_stmt,isa 0
    2425 00000253 2801!         MOV       @_PieCtrlRegs+1,#65535 ; [CPU_] |744| 
         00000254 FFFF 
    2426 00000255 2910   clrc INTM
TMS320C2000 Assembler PC v6.4.12 Thu Nov 16 10:01:32 2017

Tools Copyright (c) 1996-2017 Texas Instruments Incorporated
C:\Users\Admin\AppData\Local\Temp\0610810                            PAGE   47

    2427 00000256 3B10   setc INTM
    2428                      .dwpsn  file "../source/DSP2803x_SWPrioritizedDefaultIsr.c",line 751,column 2,is_stmt,isa 0
    2429 00000257 9241          MOV       AL,*-SP[1]            ; [CPU_] |751| 
    2430 00000258 9606!         MOV       @_PieCtrlRegs+6,AL    ; [CPU_] |751| 
    2431 00000259 7625        ESTOP0
    2432 0000025a       $C$L42:    
    2433                      .dwpsn  file "../source/DSP2803x_SWPrioritizedDefaultIsr.c",line 756,column 5,is_stmt,isa 0
    2434 0000025a 6F00          B         $C$L42,UNC            ; [CPU_] |756| 
    2435                      ; branch occurs ; [] |756| 
    2436                      .dwattr $C$DW$64, DW_AT_TI_end_file("../source/DSP2803x_SWPrioritizedDefaultIsr.c")
    2437                      .dwattr $C$DW$64, DW_AT_TI_end_line(0x2f6)
    2438                      .dwattr $C$DW$64, DW_AT_TI_end_column(0x01)
    2439                      .dwendentry
    2440                      .dwendtag $C$DW$64
    2441              
    2442 0000025b               .sect   ".text:retain"
    2443                      .retain
    2444                      .retainrefs
    2445                      .global _EPWM4_TZINT_ISR
    2446              
    2447              $C$DW$66        .dwtag  DW_TAG_subprogram, DW_AT_name("EPWM4_TZINT_ISR")
    2448                      .dwattr $C$DW$66, DW_AT_low_pc(_EPWM4_TZINT_ISR)
    2449                      .dwattr $C$DW$66, DW_AT_high_pc(0x00)
    2450                      .dwattr $C$DW$66, DW_AT_TI_symbol_name("_EPWM4_TZINT_ISR")
    2451                      .dwattr $C$DW$66, DW_AT_external
    2452                      .dwattr $C$DW$66, DW_AT_TI_begin_file("../source/DSP2803x_SWPrioritizedDefaultIsr.c")
    2453                      .dwattr $C$DW$66, DW_AT_TI_begin_line(0x20e)
    2454                      .dwattr $C$DW$66, DW_AT_TI_begin_column(0x12)
    2455                      .dwattr $C$DW$66, DW_AT_TI_interrupt
    2456                      .dwattr $C$DW$66, DW_AT_TI_max_frame_size(-4)
    2457                      .dwpsn  file "../source/DSP2803x_SWPrioritizedDefaultIsr.c",line 527,column 1,is_stmt,address _EPWM4_
    2458              
    2459                      .dwfde $C$DW$CIE, _EPWM4_TZINT_ISR
    2460              
    2461              ;***************************************************************
    2462              ;* FNAME: _EPWM4_TZINT_ISR              FR SIZE:   2           *
    2463              ;*                                                             *
    2464              ;* FUNCTION ENVIRONMENT                                        *
    2465              ;*                                                             *
    2466              ;* FUNCTION PROPERTIES                                         *
    2467              ;*                            0 Parameter,  1 Auto,  0 SOE     *
    2468              ;***************************************************************
    2469              
    2470              _EPWM4_TZINT_ISR:
    2471              $C$DW$67        .dwtag  DW_TAG_variable, DW_AT_name("TempPIEIER")
    2472                      .dwattr $C$DW$67, DW_AT_TI_symbol_name("_TempPIEIER")
    2473                      .dwattr $C$DW$67, DW_AT_type(*$C$DW$T$33)
    2474                      .dwattr $C$DW$67, DW_AT_location[DW_OP_breg20 -1]
    2475                      .dwcfi  cfa_offset, -2
    2476                      .dwcfi  save_reg_to_mem, 26, 0
    2477 0000025b 761B          ASP       ; [CPU_] 
    2478 0000025c FE02          ADDB      SP,#2                 ; [CPU_U] 
    2479                      .dwcfi  cfa_offset, -4
    2480 0000025d 2942          CLRC      PAGE0,OVM             ; [CPU_] 
    2481 0000025e 5616          CLRC      AMODE                 ; [CPU_] 
TMS320C2000 Assembler PC v6.4.12 Thu Nov 16 10:01:32 2017

Tools Copyright (c) 1996-2017 Texas Instruments Incorporated
C:\Users\Admin\AppData\Local\Temp\0610810                            PAGE   48

    2482 0000025f 761F!         MOVW      DP,#_PieCtrlRegs+4    ; [CPU_U] 
         00000260 0000 
    2483                      .dwpsn  file "../source/DSP2803x_SWPrioritizedDefaultIsr.c",line 529,column 29,is_stmt,isa 0
    2484 00000261 9204!         MOV       AL,@_PieCtrlRegs+4    ; [CPU_] |529| 
    2485 00000262 9641          MOV       *-SP[1],AL            ; [CPU_] |529| 
    2486                      .dwpsn  file "../source/DSP2803x_SWPrioritizedDefaultIsr.c",line 530,column 2,is_stmt,isa 0
    2487 00000263 7623          OR        IER,#0x0002           ; [CPU_] |530| 
         00000264 0002 
    2488                      .dwpsn  file "../source/DSP2803x_SWPrioritizedDefaultIsr.c",line 531,column 2,is_stmt,isa 0
    2489 00000265 7626          AND       IER,#0x0002           ; [CPU_] |531| 
         00000266 0002 
    2490                      .dwpsn  file "../source/DSP2803x_SWPrioritizedDefaultIsr.c",line 532,column 2,is_stmt,isa 0
    2491 00000267 9204!         MOV       AL,@_PieCtrlRegs+4    ; [CPU_] |532| 
    2492 00000268 2B04!         MOV       @_PieCtrlRegs+4,#0    ; [CPU_] |532| 
    2493                      .dwpsn  file "../source/DSP2803x_SWPrioritizedDefaultIsr.c",line 533,column 2,is_stmt,isa 0
    2494 00000269 2801!         MOV       @_PieCtrlRegs+1,#65535 ; [CPU_] |533| 
         0000026a FFFF 
    2495 0000026b 2910   clrc INTM
    2496 0000026c 3B10   setc INTM
    2497                      .dwpsn  file "../source/DSP2803x_SWPrioritizedDefaultIsr.c",line 540,column 2,is_stmt,isa 0
    2498 0000026d 9241          MOV       AL,*-SP[1]            ; [CPU_] |540| 
    2499 0000026e 9604!         MOV       @_PieCtrlRegs+4,AL    ; [CPU_] |540| 
    2500 0000026f 7625        ESTOP0
    2501 00000270       $C$L43:    
    2502                      .dwpsn  file "../source/DSP2803x_SWPrioritizedDefaultIsr.c",line 545,column 5,is_stmt,isa 0
    2503 00000270 6F00          B         $C$L43,UNC            ; [CPU_] |545| 
    2504                      ; branch occurs ; [] |545| 
    2505                      .dwattr $C$DW$66, DW_AT_TI_end_file("../source/DSP2803x_SWPrioritizedDefaultIsr.c")
    2506                      .dwattr $C$DW$66, DW_AT_TI_end_line(0x223)
    2507                      .dwattr $C$DW$66, DW_AT_TI_end_column(0x01)
    2508                      .dwendentry
    2509                      .dwendtag $C$DW$66
    2510              
    2511 00000271               .sect   ".text:retain"
    2512                      .retain
    2513                      .retainrefs
    2514                      .global _EPWM4_INT_ISR
    2515              
    2516              $C$DW$68        .dwtag  DW_TAG_subprogram, DW_AT_name("EPWM4_INT_ISR")
    2517                      .dwattr $C$DW$68, DW_AT_low_pc(_EPWM4_INT_ISR)
    2518                      .dwattr $C$DW$68, DW_AT_high_pc(0x00)
    2519                      .dwattr $C$DW$68, DW_AT_TI_symbol_name("_EPWM4_INT_ISR")
    2520                      .dwattr $C$DW$68, DW_AT_external
    2521                      .dwattr $C$DW$68, DW_AT_TI_begin_file("../source/DSP2803x_SWPrioritizedDefaultIsr.c")
    2522                      .dwattr $C$DW$68, DW_AT_TI_begin_line(0x2c7)
    2523                      .dwattr $C$DW$68, DW_AT_TI_begin_column(0x12)
    2524                      .dwattr $C$DW$68, DW_AT_TI_interrupt
    2525                      .dwattr $C$DW$68, DW_AT_TI_max_frame_size(-4)
    2526                      .dwpsn  file "../source/DSP2803x_SWPrioritizedDefaultIsr.c",line 712,column 1,is_stmt,address _EPWM4_
    2527              
    2528                      .dwfde $C$DW$CIE, _EPWM4_INT_ISR
    2529              
    2530              ;***************************************************************
    2531              ;* FNAME: _EPWM4_INT_ISR                FR SIZE:   2           *
    2532              ;*                                                             *
TMS320C2000 Assembler PC v6.4.12 Thu Nov 16 10:01:32 2017

Tools Copyright (c) 1996-2017 Texas Instruments Incorporated
C:\Users\Admin\AppData\Local\Temp\0610810                            PAGE   49

    2533              ;* FUNCTION ENVIRONMENT                                        *
    2534              ;*                                                             *
    2535              ;* FUNCTION PROPERTIES                                         *
    2536              ;*                            0 Parameter,  1 Auto,  0 SOE     *
    2537              ;***************************************************************
    2538              
    2539              _EPWM4_INT_ISR:
    2540              $C$DW$69        .dwtag  DW_TAG_variable, DW_AT_name("TempPIEIER")
    2541                      .dwattr $C$DW$69, DW_AT_TI_symbol_name("_TempPIEIER")
    2542                      .dwattr $C$DW$69, DW_AT_type(*$C$DW$T$33)
    2543                      .dwattr $C$DW$69, DW_AT_location[DW_OP_breg20 -1]
    2544                      .dwcfi  cfa_offset, -2
    2545                      .dwcfi  save_reg_to_mem, 26, 0
    2546 00000271 761B          ASP       ; [CPU_] 
    2547 00000272 FE02          ADDB      SP,#2                 ; [CPU_U] 
    2548                      .dwcfi  cfa_offset, -4
    2549 00000273 2942          CLRC      PAGE0,OVM             ; [CPU_] 
    2550 00000274 5616          CLRC      AMODE                 ; [CPU_] 
    2551 00000275 761F!         MOVW      DP,#_PieCtrlRegs+6    ; [CPU_U] 
         00000276 0000 
    2552                      .dwpsn  file "../source/DSP2803x_SWPrioritizedDefaultIsr.c",line 714,column 29,is_stmt,isa 0
    2553 00000277 9206!         MOV       AL,@_PieCtrlRegs+6    ; [CPU_] |714| 
    2554 00000278 9641          MOV       *-SP[1],AL            ; [CPU_] |714| 
    2555                      .dwpsn  file "../source/DSP2803x_SWPrioritizedDefaultIsr.c",line 715,column 2,is_stmt,isa 0
    2556 00000279 7623          OR        IER,#0x0004           ; [CPU_] |715| 
         0000027a 0004 
    2557                      .dwpsn  file "../source/DSP2803x_SWPrioritizedDefaultIsr.c",line 716,column 2,is_stmt,isa 0
    2558 0000027b 7626          AND       IER,#0x013f           ; [CPU_] |716| 
         0000027c 013F 
    2559                      .dwpsn  file "../source/DSP2803x_SWPrioritizedDefaultIsr.c",line 717,column 2,is_stmt,isa 0
    2560 0000027d 1806!         AND       @_PieCtrlRegs+6,#0x0006 ; [CPU_] |717| 
         0000027e 0006 
    2561                      .dwpsn  file "../source/DSP2803x_SWPrioritizedDefaultIsr.c",line 718,column 2,is_stmt,isa 0
    2562 0000027f 2801!         MOV       @_PieCtrlRegs+1,#65535 ; [CPU_] |718| 
         00000280 FFFF 
    2563 00000281 2910   clrc INTM
    2564 00000282 3B10   setc INTM
    2565                      .dwpsn  file "../source/DSP2803x_SWPrioritizedDefaultIsr.c",line 725,column 2,is_stmt,isa 0
    2566 00000283 9241          MOV       AL,*-SP[1]            ; [CPU_] |725| 
    2567 00000284 9606!         MOV       @_PieCtrlRegs+6,AL    ; [CPU_] |725| 
    2568 00000285 7625        ESTOP0
    2569 00000286       $C$L44:    
    2570                      .dwpsn  file "../source/DSP2803x_SWPrioritizedDefaultIsr.c",line 730,column 5,is_stmt,isa 0
    2571 00000286 6F00          B         $C$L44,UNC            ; [CPU_] |730| 
    2572                      ; branch occurs ; [] |730| 
    2573                      .dwattr $C$DW$68, DW_AT_TI_end_file("../source/DSP2803x_SWPrioritizedDefaultIsr.c")
    2574                      .dwattr $C$DW$68, DW_AT_TI_end_line(0x2dc)
    2575                      .dwattr $C$DW$68, DW_AT_TI_end_column(0x01)
    2576                      .dwendentry
    2577                      .dwendtag $C$DW$68
    2578              
    2579 00000287               .sect   ".text:retain"
    2580                      .retain
    2581                      .retainrefs
    2582                      .global _EPWM3_TZINT_ISR
TMS320C2000 Assembler PC v6.4.12 Thu Nov 16 10:01:32 2017

Tools Copyright (c) 1996-2017 Texas Instruments Incorporated
C:\Users\Admin\AppData\Local\Temp\0610810                            PAGE   50

    2583              
    2584              $C$DW$70        .dwtag  DW_TAG_subprogram, DW_AT_name("EPWM3_TZINT_ISR")
    2585                      .dwattr $C$DW$70, DW_AT_low_pc(_EPWM3_TZINT_ISR)
    2586                      .dwattr $C$DW$70, DW_AT_high_pc(0x00)
    2587                      .dwattr $C$DW$70, DW_AT_TI_symbol_name("_EPWM3_TZINT_ISR")
    2588                      .dwattr $C$DW$70, DW_AT_external
    2589                      .dwattr $C$DW$70, DW_AT_TI_begin_file("../source/DSP2803x_SWPrioritizedDefaultIsr.c")
    2590                      .dwattr $C$DW$70, DW_AT_TI_begin_line(0x1f4)
    2591                      .dwattr $C$DW$70, DW_AT_TI_begin_column(0x12)
    2592                      .dwattr $C$DW$70, DW_AT_TI_interrupt
    2593                      .dwattr $C$DW$70, DW_AT_TI_max_frame_size(-4)
    2594                      .dwpsn  file "../source/DSP2803x_SWPrioritizedDefaultIsr.c",line 501,column 1,is_stmt,address _EPWM3_
    2595              
    2596                      .dwfde $C$DW$CIE, _EPWM3_TZINT_ISR
    2597              
    2598              ;***************************************************************
    2599              ;* FNAME: _EPWM3_TZINT_ISR              FR SIZE:   2           *
    2600              ;*                                                             *
    2601              ;* FUNCTION ENVIRONMENT                                        *
    2602              ;*                                                             *
    2603              ;* FUNCTION PROPERTIES                                         *
    2604              ;*                            0 Parameter,  1 Auto,  0 SOE     *
    2605              ;***************************************************************
    2606              
    2607              _EPWM3_TZINT_ISR:
    2608              $C$DW$71        .dwtag  DW_TAG_variable, DW_AT_name("TempPIEIER")
    2609                      .dwattr $C$DW$71, DW_AT_TI_symbol_name("_TempPIEIER")
    2610                      .dwattr $C$DW$71, DW_AT_type(*$C$DW$T$33)
    2611                      .dwattr $C$DW$71, DW_AT_location[DW_OP_breg20 -1]
    2612                      .dwcfi  cfa_offset, -2
    2613                      .dwcfi  save_reg_to_mem, 26, 0
    2614 00000287 761B          ASP       ; [CPU_] 
    2615 00000288 FE02          ADDB      SP,#2                 ; [CPU_U] 
    2616                      .dwcfi  cfa_offset, -4
    2617 00000289 2942          CLRC      PAGE0,OVM             ; [CPU_] 
    2618 0000028a 5616          CLRC      AMODE                 ; [CPU_] 
    2619 0000028b 761F!         MOVW      DP,#_PieCtrlRegs+4    ; [CPU_U] 
         0000028c 0000 
    2620                      .dwpsn  file "../source/DSP2803x_SWPrioritizedDefaultIsr.c",line 503,column 29,is_stmt,isa 0
    2621 0000028d 9204!         MOV       AL,@_PieCtrlRegs+4    ; [CPU_] |503| 
    2622 0000028e 9641          MOV       *-SP[1],AL            ; [CPU_] |503| 
    2623                      .dwpsn  file "../source/DSP2803x_SWPrioritizedDefaultIsr.c",line 504,column 2,is_stmt,isa 0
    2624 0000028f 7623          OR        IER,#0x0002           ; [CPU_] |504| 
         00000290 0002 
    2625                      .dwpsn  file "../source/DSP2803x_SWPrioritizedDefaultIsr.c",line 505,column 2,is_stmt,isa 0
    2626 00000291 7626          AND       IER,#0x0002           ; [CPU_] |505| 
         00000292 0002 
    2627                      .dwpsn  file "../source/DSP2803x_SWPrioritizedDefaultIsr.c",line 506,column 2,is_stmt,isa 0
    2628 00000293 1804!         AND       @_PieCtrlRegs+4,#0x0008 ; [CPU_] |506| 
         00000294 0008 
    2629                      .dwpsn  file "../source/DSP2803x_SWPrioritizedDefaultIsr.c",line 507,column 2,is_stmt,isa 0
    2630 00000295 2801!         MOV       @_PieCtrlRegs+1,#65535 ; [CPU_] |507| 
         00000296 FFFF 
    2631 00000297 2910   clrc INTM
    2632 00000298 3B10   setc INTM
TMS320C2000 Assembler PC v6.4.12 Thu Nov 16 10:01:32 2017

Tools Copyright (c) 1996-2017 Texas Instruments Incorporated
C:\Users\Admin\AppData\Local\Temp\0610810                            PAGE   51

    2633                      .dwpsn  file "../source/DSP2803x_SWPrioritizedDefaultIsr.c",line 514,column 2,is_stmt,isa 0
    2634 00000299 9241          MOV       AL,*-SP[1]            ; [CPU_] |514| 
    2635 0000029a 9604!         MOV       @_PieCtrlRegs+4,AL    ; [CPU_] |514| 
    2636 0000029b 7625        ESTOP0
    2637 0000029c       $C$L45:    
    2638                      .dwpsn  file "../source/DSP2803x_SWPrioritizedDefaultIsr.c",line 519,column 5,is_stmt,isa 0
    2639 0000029c 6F00          B         $C$L45,UNC            ; [CPU_] |519| 
    2640                      ; branch occurs ; [] |519| 
    2641                      .dwattr $C$DW$70, DW_AT_TI_end_file("../source/DSP2803x_SWPrioritizedDefaultIsr.c")
    2642                      .dwattr $C$DW$70, DW_AT_TI_end_line(0x209)
    2643                      .dwattr $C$DW$70, DW_AT_TI_end_column(0x01)
    2644                      .dwendentry
    2645                      .dwendtag $C$DW$70
    2646              
    2647 0000029d               .sect   ".text:retain"
    2648                      .retain
    2649                      .retainrefs
    2650                      .global _EPWM3_INT_ISR
    2651              
    2652              $C$DW$72        .dwtag  DW_TAG_subprogram, DW_AT_name("EPWM3_INT_ISR")
    2653                      .dwattr $C$DW$72, DW_AT_low_pc(_EPWM3_INT_ISR)
    2654                      .dwattr $C$DW$72, DW_AT_high_pc(0x00)
    2655                      .dwattr $C$DW$72, DW_AT_TI_symbol_name("_EPWM3_INT_ISR")
    2656                      .dwattr $C$DW$72, DW_AT_external
    2657                      .dwattr $C$DW$72, DW_AT_TI_begin_file("../source/DSP2803x_SWPrioritizedDefaultIsr.c")
    2658                      .dwattr $C$DW$72, DW_AT_TI_begin_line(0x2ad)
    2659                      .dwattr $C$DW$72, DW_AT_TI_begin_column(0x12)
    2660                      .dwattr $C$DW$72, DW_AT_TI_interrupt
    2661                      .dwattr $C$DW$72, DW_AT_TI_max_frame_size(-4)
    2662                      .dwpsn  file "../source/DSP2803x_SWPrioritizedDefaultIsr.c",line 686,column 1,is_stmt,address _EPWM3_
    2663              
    2664                      .dwfde $C$DW$CIE, _EPWM3_INT_ISR
    2665              
    2666              ;***************************************************************
    2667              ;* FNAME: _EPWM3_INT_ISR                FR SIZE:   2           *
    2668              ;*                                                             *
    2669              ;* FUNCTION ENVIRONMENT                                        *
    2670              ;*                                                             *
    2671              ;* FUNCTION PROPERTIES                                         *
    2672              ;*                            0 Parameter,  1 Auto,  0 SOE     *
    2673              ;***************************************************************
    2674              
    2675              _EPWM3_INT_ISR:
    2676              $C$DW$73        .dwtag  DW_TAG_variable, DW_AT_name("TempPIEIER")
    2677                      .dwattr $C$DW$73, DW_AT_TI_symbol_name("_TempPIEIER")
    2678                      .dwattr $C$DW$73, DW_AT_type(*$C$DW$T$33)
    2679                      .dwattr $C$DW$73, DW_AT_location[DW_OP_breg20 -1]
    2680                      .dwcfi  cfa_offset, -2
    2681                      .dwcfi  save_reg_to_mem, 26, 0
    2682 0000029d 761B          ASP       ; [CPU_] 
    2683 0000029e FE02          ADDB      SP,#2                 ; [CPU_U] 
    2684                      .dwcfi  cfa_offset, -4
    2685 0000029f 2942          CLRC      PAGE0,OVM             ; [CPU_] 
    2686 000002a0 5616          CLRC      AMODE                 ; [CPU_] 
    2687 000002a1 761F!         MOVW      DP,#_PieCtrlRegs+6    ; [CPU_U] 
TMS320C2000 Assembler PC v6.4.12 Thu Nov 16 10:01:32 2017

Tools Copyright (c) 1996-2017 Texas Instruments Incorporated
C:\Users\Admin\AppData\Local\Temp\0610810                            PAGE   52

         000002a2 0000 
    2688                      .dwpsn  file "../source/DSP2803x_SWPrioritizedDefaultIsr.c",line 688,column 29,is_stmt,isa 0
    2689 000002a3 9206!         MOV       AL,@_PieCtrlRegs+6    ; [CPU_] |688| 
    2690 000002a4 9641          MOV       *-SP[1],AL            ; [CPU_] |688| 
    2691                      .dwpsn  file "../source/DSP2803x_SWPrioritizedDefaultIsr.c",line 689,column 2,is_stmt,isa 0
    2692 000002a5 7623          OR        IER,#0x0004           ; [CPU_] |689| 
         000002a6 0004 
    2693                      .dwpsn  file "../source/DSP2803x_SWPrioritizedDefaultIsr.c",line 690,column 2,is_stmt,isa 0
    2694 000002a7 7626          AND       IER,#0x013f           ; [CPU_] |690| 
         000002a8 013F 
    2695                      .dwpsn  file "../source/DSP2803x_SWPrioritizedDefaultIsr.c",line 691,column 2,is_stmt,isa 0
    2696 000002a9 9206!         MOV       AL,@_PieCtrlRegs+6    ; [CPU_] |691| 
    2697 000002aa 2B06!         MOV       @_PieCtrlRegs+6,#0    ; [CPU_] |691| 
    2698                      .dwpsn  file "../source/DSP2803x_SWPrioritizedDefaultIsr.c",line 692,column 2,is_stmt,isa 0
    2699 000002ab 2801!         MOV       @_PieCtrlRegs+1,#65535 ; [CPU_] |692| 
         000002ac FFFF 
    2700 000002ad 2910   clrc INTM
    2701 000002ae 3B10   setc INTM
    2702                      .dwpsn  file "../source/DSP2803x_SWPrioritizedDefaultIsr.c",line 699,column 2,is_stmt,isa 0
    2703 000002af 9241          MOV       AL,*-SP[1]            ; [CPU_] |699| 
    2704 000002b0 9606!         MOV       @_PieCtrlRegs+6,AL    ; [CPU_] |699| 
    2705 000002b1 7625        ESTOP0
    2706 000002b2       $C$L46:    
    2707                      .dwpsn  file "../source/DSP2803x_SWPrioritizedDefaultIsr.c",line 704,column 5,is_stmt,isa 0
    2708 000002b2 6F00          B         $C$L46,UNC            ; [CPU_] |704| 
    2709                      ; branch occurs ; [] |704| 
    2710                      .dwattr $C$DW$72, DW_AT_TI_end_file("../source/DSP2803x_SWPrioritizedDefaultIsr.c")
    2711                      .dwattr $C$DW$72, DW_AT_TI_end_line(0x2c2)
    2712                      .dwattr $C$DW$72, DW_AT_TI_end_column(0x01)
    2713                      .dwendentry
    2714                      .dwendtag $C$DW$72
    2715              
    2716 000002b3               .sect   ".text:retain"
    2717                      .retain
    2718                      .retainrefs
    2719                      .global _EPWM2_TZINT_ISR
    2720              
    2721              $C$DW$74        .dwtag  DW_TAG_subprogram, DW_AT_name("EPWM2_TZINT_ISR")
    2722                      .dwattr $C$DW$74, DW_AT_low_pc(_EPWM2_TZINT_ISR)
    2723                      .dwattr $C$DW$74, DW_AT_high_pc(0x00)
    2724                      .dwattr $C$DW$74, DW_AT_TI_symbol_name("_EPWM2_TZINT_ISR")
    2725                      .dwattr $C$DW$74, DW_AT_external
    2726                      .dwattr $C$DW$74, DW_AT_TI_begin_file("../source/DSP2803x_SWPrioritizedDefaultIsr.c")
    2727                      .dwattr $C$DW$74, DW_AT_TI_begin_line(0x1db)
    2728                      .dwattr $C$DW$74, DW_AT_TI_begin_column(0x12)
    2729                      .dwattr $C$DW$74, DW_AT_TI_interrupt
    2730                      .dwattr $C$DW$74, DW_AT_TI_max_frame_size(-4)
    2731                      .dwpsn  file "../source/DSP2803x_SWPrioritizedDefaultIsr.c",line 476,column 1,is_stmt,address _EPWM2_
    2732              
    2733                      .dwfde $C$DW$CIE, _EPWM2_TZINT_ISR
    2734              
    2735              ;***************************************************************
    2736              ;* FNAME: _EPWM2_TZINT_ISR              FR SIZE:   2           *
    2737              ;*                                                             *
    2738              ;* FUNCTION ENVIRONMENT                                        *
TMS320C2000 Assembler PC v6.4.12 Thu Nov 16 10:01:32 2017

Tools Copyright (c) 1996-2017 Texas Instruments Incorporated
C:\Users\Admin\AppData\Local\Temp\0610810                            PAGE   53

    2739              ;*                                                             *
    2740              ;* FUNCTION PROPERTIES                                         *
    2741              ;*                            0 Parameter,  1 Auto,  0 SOE     *
    2742              ;***************************************************************
    2743              
    2744              _EPWM2_TZINT_ISR:
    2745              $C$DW$75        .dwtag  DW_TAG_variable, DW_AT_name("TempPIEIER")
    2746                      .dwattr $C$DW$75, DW_AT_TI_symbol_name("_TempPIEIER")
    2747                      .dwattr $C$DW$75, DW_AT_type(*$C$DW$T$33)
    2748                      .dwattr $C$DW$75, DW_AT_location[DW_OP_breg20 -1]
    2749                      .dwcfi  cfa_offset, -2
    2750                      .dwcfi  save_reg_to_mem, 26, 0
    2751 000002b3 761B          ASP       ; [CPU_] 
    2752 000002b4 FE02          ADDB      SP,#2                 ; [CPU_U] 
    2753                      .dwcfi  cfa_offset, -4
    2754 000002b5 2942          CLRC      PAGE0,OVM             ; [CPU_] 
    2755 000002b6 5616          CLRC      AMODE                 ; [CPU_] 
    2756 000002b7 761F!         MOVW      DP,#_PieCtrlRegs+4    ; [CPU_U] 
         000002b8 0000 
    2757                      .dwpsn  file "../source/DSP2803x_SWPrioritizedDefaultIsr.c",line 478,column 29,is_stmt,isa 0
    2758 000002b9 9204!         MOV       AL,@_PieCtrlRegs+4    ; [CPU_] |478| 
    2759 000002ba 9641          MOV       *-SP[1],AL            ; [CPU_] |478| 
    2760                      .dwpsn  file "../source/DSP2803x_SWPrioritizedDefaultIsr.c",line 479,column 2,is_stmt,isa 0
    2761 000002bb 7623          OR        IER,#0x0002           ; [CPU_] |479| 
         000002bc 0002 
    2762                      .dwpsn  file "../source/DSP2803x_SWPrioritizedDefaultIsr.c",line 480,column 2,is_stmt,isa 0
    2763 000002bd 7626          AND       IER,#0x0002           ; [CPU_] |480| 
         000002be 0002 
    2764                      .dwpsn  file "../source/DSP2803x_SWPrioritizedDefaultIsr.c",line 481,column 2,is_stmt,isa 0
    2765 000002bf 1804!         AND       @_PieCtrlRegs+4,#0x004c ; [CPU_] |481| 
         000002c0 004C 
    2766                      .dwpsn  file "../source/DSP2803x_SWPrioritizedDefaultIsr.c",line 482,column 2,is_stmt,isa 0
    2767 000002c1 2801!         MOV       @_PieCtrlRegs+1,#65535 ; [CPU_] |482| 
         000002c2 FFFF 
    2768 000002c3 2910   clrc INTM
    2769 000002c4 3B10   setc INTM
    2770                      .dwpsn  file "../source/DSP2803x_SWPrioritizedDefaultIsr.c",line 489,column 2,is_stmt,isa 0
    2771 000002c5 9241          MOV       AL,*-SP[1]            ; [CPU_] |489| 
    2772 000002c6 9604!         MOV       @_PieCtrlRegs+4,AL    ; [CPU_] |489| 
    2773 000002c7 7625        ESTOP0
    2774 000002c8       $C$L47:    
    2775                      .dwpsn  file "../source/DSP2803x_SWPrioritizedDefaultIsr.c",line 494,column 5,is_stmt,isa 0
    2776 000002c8 6F00          B         $C$L47,UNC            ; [CPU_] |494| 
    2777                      ; branch occurs ; [] |494| 
    2778                      .dwattr $C$DW$74, DW_AT_TI_end_file("../source/DSP2803x_SWPrioritizedDefaultIsr.c")
    2779                      .dwattr $C$DW$74, DW_AT_TI_end_line(0x1ef)
    2780                      .dwattr $C$DW$74, DW_AT_TI_end_column(0x01)
    2781                      .dwendentry
    2782                      .dwendtag $C$DW$74
    2783              
    2784 000002c9               .sect   ".text:retain"
    2785                      .retain
    2786                      .retainrefs
    2787                      .global _EPWM2_INT_ISR
    2788              
TMS320C2000 Assembler PC v6.4.12 Thu Nov 16 10:01:32 2017

Tools Copyright (c) 1996-2017 Texas Instruments Incorporated
C:\Users\Admin\AppData\Local\Temp\0610810                            PAGE   54

    2789              $C$DW$76        .dwtag  DW_TAG_subprogram, DW_AT_name("EPWM2_INT_ISR")
    2790                      .dwattr $C$DW$76, DW_AT_low_pc(_EPWM2_INT_ISR)
    2791                      .dwattr $C$DW$76, DW_AT_high_pc(0x00)
    2792                      .dwattr $C$DW$76, DW_AT_TI_symbol_name("_EPWM2_INT_ISR")
    2793                      .dwattr $C$DW$76, DW_AT_external
    2794                      .dwattr $C$DW$76, DW_AT_TI_begin_file("../source/DSP2803x_SWPrioritizedDefaultIsr.c")
    2795                      .dwattr $C$DW$76, DW_AT_TI_begin_line(0x293)
    2796                      .dwattr $C$DW$76, DW_AT_TI_begin_column(0x12)
    2797                      .dwattr $C$DW$76, DW_AT_TI_interrupt
    2798                      .dwattr $C$DW$76, DW_AT_TI_max_frame_size(-4)
    2799                      .dwpsn  file "../source/DSP2803x_SWPrioritizedDefaultIsr.c",line 660,column 1,is_stmt,address _EPWM2_
    2800              
    2801                      .dwfde $C$DW$CIE, _EPWM2_INT_ISR
    2802              
    2803              ;***************************************************************
    2804              ;* FNAME: _EPWM2_INT_ISR                FR SIZE:   2           *
    2805              ;*                                                             *
    2806              ;* FUNCTION ENVIRONMENT                                        *
    2807              ;*                                                             *
    2808              ;* FUNCTION PROPERTIES                                         *
    2809              ;*                            0 Parameter,  1 Auto,  0 SOE     *
    2810              ;***************************************************************
    2811              
    2812              _EPWM2_INT_ISR:
    2813              $C$DW$77        .dwtag  DW_TAG_variable, DW_AT_name("TempPIEIER")
    2814                      .dwattr $C$DW$77, DW_AT_TI_symbol_name("_TempPIEIER")
    2815                      .dwattr $C$DW$77, DW_AT_type(*$C$DW$T$33)
    2816                      .dwattr $C$DW$77, DW_AT_location[DW_OP_breg20 -1]
    2817                      .dwcfi  cfa_offset, -2
    2818                      .dwcfi  save_reg_to_mem, 26, 0
    2819 000002c9 761B          ASP       ; [CPU_] 
    2820 000002ca FE02          ADDB      SP,#2                 ; [CPU_U] 
    2821                      .dwcfi  cfa_offset, -4
    2822 000002cb 2942          CLRC      PAGE0,OVM             ; [CPU_] 
    2823 000002cc 5616          CLRC      AMODE                 ; [CPU_] 
    2824 000002cd 761F!         MOVW      DP,#_PieCtrlRegs+6    ; [CPU_U] 
         000002ce 0000 
    2825                      .dwpsn  file "../source/DSP2803x_SWPrioritizedDefaultIsr.c",line 662,column 29,is_stmt,isa 0
    2826 000002cf 9206!         MOV       AL,@_PieCtrlRegs+6    ; [CPU_] |662| 
    2827 000002d0 9641          MOV       *-SP[1],AL            ; [CPU_] |662| 
    2828                      .dwpsn  file "../source/DSP2803x_SWPrioritizedDefaultIsr.c",line 663,column 2,is_stmt,isa 0
    2829 000002d1 7623          OR        IER,#0x0004           ; [CPU_] |663| 
         000002d2 0004 
    2830                      .dwpsn  file "../source/DSP2803x_SWPrioritizedDefaultIsr.c",line 664,column 2,is_stmt,isa 0
    2831 000002d3 7626          AND       IER,#0x013f           ; [CPU_] |664| 
         000002d4 013F 
    2832                      .dwpsn  file "../source/DSP2803x_SWPrioritizedDefaultIsr.c",line 665,column 2,is_stmt,isa 0
    2833 000002d5 9206!         MOV       AL,@_PieCtrlRegs+6    ; [CPU_] |665| 
    2834 000002d6 2B06!         MOV       @_PieCtrlRegs+6,#0    ; [CPU_] |665| 
    2835                      .dwpsn  file "../source/DSP2803x_SWPrioritizedDefaultIsr.c",line 666,column 2,is_stmt,isa 0
    2836 000002d7 2801!         MOV       @_PieCtrlRegs+1,#65535 ; [CPU_] |666| 
         000002d8 FFFF 
    2837 000002d9 2910   clrc INTM
    2838 000002da 3B10   setc INTM
    2839                      .dwpsn  file "../source/DSP2803x_SWPrioritizedDefaultIsr.c",line 673,column 2,is_stmt,isa 0
TMS320C2000 Assembler PC v6.4.12 Thu Nov 16 10:01:32 2017

Tools Copyright (c) 1996-2017 Texas Instruments Incorporated
C:\Users\Admin\AppData\Local\Temp\0610810                            PAGE   55

    2840 000002db 9241          MOV       AL,*-SP[1]            ; [CPU_] |673| 
    2841 000002dc 9606!         MOV       @_PieCtrlRegs+6,AL    ; [CPU_] |673| 
    2842 000002dd 7625        ESTOP0
    2843 000002de       $C$L48:    
    2844                      .dwpsn  file "../source/DSP2803x_SWPrioritizedDefaultIsr.c",line 678,column 5,is_stmt,isa 0
    2845 000002de 6F00          B         $C$L48,UNC            ; [CPU_] |678| 
    2846                      ; branch occurs ; [] |678| 
    2847                      .dwattr $C$DW$76, DW_AT_TI_end_file("../source/DSP2803x_SWPrioritizedDefaultIsr.c")
    2848                      .dwattr $C$DW$76, DW_AT_TI_end_line(0x2a8)
    2849                      .dwattr $C$DW$76, DW_AT_TI_end_column(0x01)
    2850                      .dwendentry
    2851                      .dwendtag $C$DW$76
    2852              
    2853 000002df               .sect   ".text:retain"
    2854                      .retain
    2855                      .retainrefs
    2856                      .global _EPWM1_TZINT_ISR
    2857              
    2858              $C$DW$78        .dwtag  DW_TAG_subprogram, DW_AT_name("EPWM1_TZINT_ISR")
    2859                      .dwattr $C$DW$78, DW_AT_low_pc(_EPWM1_TZINT_ISR)
    2860                      .dwattr $C$DW$78, DW_AT_high_pc(0x00)
    2861                      .dwattr $C$DW$78, DW_AT_TI_symbol_name("_EPWM1_TZINT_ISR")
    2862                      .dwattr $C$DW$78, DW_AT_external
    2863                      .dwattr $C$DW$78, DW_AT_TI_begin_file("../source/DSP2803x_SWPrioritizedDefaultIsr.c")
    2864                      .dwattr $C$DW$78, DW_AT_TI_begin_line(0x1c2)
    2865                      .dwattr $C$DW$78, DW_AT_TI_begin_column(0x12)
    2866                      .dwattr $C$DW$78, DW_AT_TI_interrupt
    2867                      .dwattr $C$DW$78, DW_AT_TI_max_frame_size(-4)
    2868                      .dwpsn  file "../source/DSP2803x_SWPrioritizedDefaultIsr.c",line 451,column 1,is_stmt,address _EPWM1_
    2869              
    2870                      .dwfde $C$DW$CIE, _EPWM1_TZINT_ISR
    2871              
    2872              ;***************************************************************
    2873              ;* FNAME: _EPWM1_TZINT_ISR              FR SIZE:   2           *
    2874              ;*                                                             *
    2875              ;* FUNCTION ENVIRONMENT                                        *
    2876              ;*                                                             *
    2877              ;* FUNCTION PROPERTIES                                         *
    2878              ;*                            0 Parameter,  1 Auto,  0 SOE     *
    2879              ;***************************************************************
    2880              
    2881              _EPWM1_TZINT_ISR:
    2882              $C$DW$79        .dwtag  DW_TAG_variable, DW_AT_name("TempPIEIER")
    2883                      .dwattr $C$DW$79, DW_AT_TI_symbol_name("_TempPIEIER")
    2884                      .dwattr $C$DW$79, DW_AT_type(*$C$DW$T$33)
    2885                      .dwattr $C$DW$79, DW_AT_location[DW_OP_breg20 -1]
    2886                      .dwcfi  cfa_offset, -2
    2887                      .dwcfi  save_reg_to_mem, 26, 0
    2888 000002df 761B          ASP       ; [CPU_] 
    2889 000002e0 FE02          ADDB      SP,#2                 ; [CPU_U] 
    2890                      .dwcfi  cfa_offset, -4
    2891 000002e1 2942          CLRC      PAGE0,OVM             ; [CPU_] 
    2892 000002e2 5616          CLRC      AMODE                 ; [CPU_] 
    2893 000002e3 761F!         MOVW      DP,#_PieCtrlRegs+4    ; [CPU_U] 
         000002e4 0000 
TMS320C2000 Assembler PC v6.4.12 Thu Nov 16 10:01:32 2017

Tools Copyright (c) 1996-2017 Texas Instruments Incorporated
C:\Users\Admin\AppData\Local\Temp\0610810                            PAGE   56

    2894                      .dwpsn  file "../source/DSP2803x_SWPrioritizedDefaultIsr.c",line 453,column 29,is_stmt,isa 0
    2895 000002e5 9204!         MOV       AL,@_PieCtrlRegs+4    ; [CPU_] |453| 
    2896 000002e6 9641          MOV       *-SP[1],AL            ; [CPU_] |453| 
    2897                      .dwpsn  file "../source/DSP2803x_SWPrioritizedDefaultIsr.c",line 454,column 2,is_stmt,isa 0
    2898 000002e7 7623          OR        IER,#0x0002           ; [CPU_] |454| 
         000002e8 0002 
    2899                      .dwpsn  file "../source/DSP2803x_SWPrioritizedDefaultIsr.c",line 455,column 2,is_stmt,isa 0
    2900 000002e9 7626          AND       IER,#0x0002           ; [CPU_] |455| 
         000002ea 0002 
    2901                      .dwpsn  file "../source/DSP2803x_SWPrioritizedDefaultIsr.c",line 456,column 2,is_stmt,isa 0
    2902 000002eb 1804!         AND       @_PieCtrlRegs+4,#0x005e ; [CPU_] |456| 
         000002ec 005E 
    2903                      .dwpsn  file "../source/DSP2803x_SWPrioritizedDefaultIsr.c",line 457,column 2,is_stmt,isa 0
    2904 000002ed 2801!         MOV       @_PieCtrlRegs+1,#65535 ; [CPU_] |457| 
         000002ee FFFF 
    2905 000002ef 2910   clrc INTM
    2906 000002f0 3B10   setc INTM
    2907                      .dwpsn  file "../source/DSP2803x_SWPrioritizedDefaultIsr.c",line 464,column 2,is_stmt,isa 0
    2908 000002f1 9241          MOV       AL,*-SP[1]            ; [CPU_] |464| 
    2909 000002f2 9604!         MOV       @_PieCtrlRegs+4,AL    ; [CPU_] |464| 
    2910 000002f3 7625        ESTOP0
    2911 000002f4       $C$L49:    
    2912                      .dwpsn  file "../source/DSP2803x_SWPrioritizedDefaultIsr.c",line 469,column 5,is_stmt,isa 0
    2913 000002f4 6F00          B         $C$L49,UNC            ; [CPU_] |469| 
    2914                      ; branch occurs ; [] |469| 
    2915                      .dwattr $C$DW$78, DW_AT_TI_end_file("../source/DSP2803x_SWPrioritizedDefaultIsr.c")
    2916                      .dwattr $C$DW$78, DW_AT_TI_end_line(0x1d6)
    2917                      .dwattr $C$DW$78, DW_AT_TI_end_column(0x01)
    2918                      .dwendentry
    2919                      .dwendtag $C$DW$78
    2920              
    2921 000002f5               .sect   ".text:retain"
    2922                      .retain
    2923                      .retainrefs
    2924                      .global _EPWM1_INT_ISR
    2925              
    2926              $C$DW$80        .dwtag  DW_TAG_subprogram, DW_AT_name("EPWM1_INT_ISR")
    2927                      .dwattr $C$DW$80, DW_AT_low_pc(_EPWM1_INT_ISR)
    2928                      .dwattr $C$DW$80, DW_AT_high_pc(0x00)
    2929                      .dwattr $C$DW$80, DW_AT_TI_symbol_name("_EPWM1_INT_ISR")
    2930                      .dwattr $C$DW$80, DW_AT_external
    2931                      .dwattr $C$DW$80, DW_AT_TI_begin_file("../source/DSP2803x_SWPrioritizedDefaultIsr.c")
    2932                      .dwattr $C$DW$80, DW_AT_TI_begin_line(0x27a)
    2933                      .dwattr $C$DW$80, DW_AT_TI_begin_column(0x12)
    2934                      .dwattr $C$DW$80, DW_AT_TI_interrupt
    2935                      .dwattr $C$DW$80, DW_AT_TI_max_frame_size(-4)
    2936                      .dwpsn  file "../source/DSP2803x_SWPrioritizedDefaultIsr.c",line 635,column 1,is_stmt,address _EPWM1_
    2937              
    2938                      .dwfde $C$DW$CIE, _EPWM1_INT_ISR
    2939              
    2940              ;***************************************************************
    2941              ;* FNAME: _EPWM1_INT_ISR                FR SIZE:   2           *
    2942              ;*                                                             *
    2943              ;* FUNCTION ENVIRONMENT                                        *
    2944              ;*                                                             *
TMS320C2000 Assembler PC v6.4.12 Thu Nov 16 10:01:32 2017

Tools Copyright (c) 1996-2017 Texas Instruments Incorporated
C:\Users\Admin\AppData\Local\Temp\0610810                            PAGE   57

    2945              ;* FUNCTION PROPERTIES                                         *
    2946              ;*                            0 Parameter,  1 Auto,  0 SOE     *
    2947              ;***************************************************************
    2948              
    2949              _EPWM1_INT_ISR:
    2950              $C$DW$81        .dwtag  DW_TAG_variable, DW_AT_name("TempPIEIER")
    2951                      .dwattr $C$DW$81, DW_AT_TI_symbol_name("_TempPIEIER")
    2952                      .dwattr $C$DW$81, DW_AT_type(*$C$DW$T$33)
    2953                      .dwattr $C$DW$81, DW_AT_location[DW_OP_breg20 -1]
    2954                      .dwcfi  cfa_offset, -2
    2955                      .dwcfi  save_reg_to_mem, 26, 0
    2956 000002f5 761B          ASP       ; [CPU_] 
    2957 000002f6 FE02          ADDB      SP,#2                 ; [CPU_U] 
    2958                      .dwcfi  cfa_offset, -4
    2959 000002f7 2942          CLRC      PAGE0,OVM             ; [CPU_] 
    2960 000002f8 5616          CLRC      AMODE                 ; [CPU_] 
    2961 000002f9 761F!         MOVW      DP,#_PieCtrlRegs+6    ; [CPU_U] 
         000002fa 0000 
    2962                      .dwpsn  file "../source/DSP2803x_SWPrioritizedDefaultIsr.c",line 637,column 29,is_stmt,isa 0
    2963 000002fb 9206!         MOV       AL,@_PieCtrlRegs+6    ; [CPU_] |637| 
    2964 000002fc 9641          MOV       *-SP[1],AL            ; [CPU_] |637| 
    2965                      .dwpsn  file "../source/DSP2803x_SWPrioritizedDefaultIsr.c",line 638,column 2,is_stmt,isa 0
    2966 000002fd 7623          OR        IER,#0x0004           ; [CPU_] |638| 
         000002fe 0004 
    2967                      .dwpsn  file "../source/DSP2803x_SWPrioritizedDefaultIsr.c",line 639,column 2,is_stmt,isa 0
    2968 000002ff 7626          AND       IER,#0x013f           ; [CPU_] |639| 
         00000300 013F 
    2969                      .dwpsn  file "../source/DSP2803x_SWPrioritizedDefaultIsr.c",line 640,column 2,is_stmt,isa 0
    2970 00000301 1806!         AND       @_PieCtrlRegs+6,#0x001e ; [CPU_] |640| 
         00000302 001E 
    2971                      .dwpsn  file "../source/DSP2803x_SWPrioritizedDefaultIsr.c",line 641,column 2,is_stmt,isa 0
    2972 00000303 2801!         MOV       @_PieCtrlRegs+1,#65535 ; [CPU_] |641| 
         00000304 FFFF 
    2973 00000305 2910   clrc INTM
    2974 00000306 3B10   setc INTM
    2975                      .dwpsn  file "../source/DSP2803x_SWPrioritizedDefaultIsr.c",line 648,column 2,is_stmt,isa 0
    2976 00000307 9241          MOV       AL,*-SP[1]            ; [CPU_] |648| 
    2977 00000308 9606!         MOV       @_PieCtrlRegs+6,AL    ; [CPU_] |648| 
    2978 00000309 7625        ESTOP0
    2979 0000030a       $C$L50:    
    2980                      .dwpsn  file "../source/DSP2803x_SWPrioritizedDefaultIsr.c",line 653,column 5,is_stmt,isa 0
    2981 0000030a 6F00          B         $C$L50,UNC            ; [CPU_] |653| 
    2982                      ; branch occurs ; [] |653| 
    2983                      .dwattr $C$DW$80, DW_AT_TI_end_file("../source/DSP2803x_SWPrioritizedDefaultIsr.c")
    2984                      .dwattr $C$DW$80, DW_AT_TI_end_line(0x28e)
    2985                      .dwattr $C$DW$80, DW_AT_TI_end_column(0x01)
    2986                      .dwendentry
    2987                      .dwendtag $C$DW$80
    2988              
    2989 0000030b               .sect   ".text:retain"
    2990                      .retain
    2991                      .retainrefs
    2992                      .global _EMUINT_ISR
    2993              
    2994              $C$DW$82        .dwtag  DW_TAG_subprogram, DW_AT_name("EMUINT_ISR")
TMS320C2000 Assembler PC v6.4.12 Thu Nov 16 10:01:32 2017

Tools Copyright (c) 1996-2017 Texas Instruments Incorporated
C:\Users\Admin\AppData\Local\Temp\0610810                            PAGE   58

    2995                      .dwattr $C$DW$82, DW_AT_low_pc(_EMUINT_ISR)
    2996                      .dwattr $C$DW$82, DW_AT_high_pc(0x00)
    2997                      .dwattr $C$DW$82, DW_AT_TI_symbol_name("_EMUINT_ISR")
    2998                      .dwattr $C$DW$82, DW_AT_external
    2999                      .dwattr $C$DW$82, DW_AT_TI_begin_file("../source/DSP2803x_SWPrioritizedDefaultIsr.c")
    3000                      .dwattr $C$DW$82, DW_AT_TI_begin_line(0x55)
    3001                      .dwattr $C$DW$82, DW_AT_TI_begin_column(0x12)
    3002                      .dwattr $C$DW$82, DW_AT_TI_interrupt
    3003                      .dwattr $C$DW$82, DW_AT_TI_max_frame_size(-2)
    3004                      .dwpsn  file "../source/DSP2803x_SWPrioritizedDefaultIsr.c",line 86,column 1,is_stmt,address _EMUINT_
    3005              
    3006                      .dwfde $C$DW$CIE, _EMUINT_ISR
    3007              
    3008              ;***************************************************************
    3009              ;* FNAME: _EMUINT_ISR                   FR SIZE:   0           *
    3010              ;*                                                             *
    3011              ;* FUNCTION ENVIRONMENT                                        *
    3012              ;*                                                             *
    3013              ;* FUNCTION PROPERTIES                                         *
    3014              ;*                            0 Parameter,  0 Auto,  0 SOE     *
    3015              ;***************************************************************
    3016              
    3017 0000030b       _EMUINT_ISR:
    3018                      .dwcfi  cfa_offset, -2
    3019                      .dwcfi  save_reg_to_mem, 26, 0
    3020 0000030b 761B          ASP       ; [CPU_] 
    3021 0000030c 2942          CLRC      PAGE0,OVM             ; [CPU_] 
    3022 0000030d 5616          CLRC      AMODE                 ; [CPU_] 
    3023 0000030e 2910   clrc INTM
    3024 0000030f 7625        ESTOP0
    3025 00000310       $C$L51:    
    3026                      .dwpsn  file "../source/DSP2803x_SWPrioritizedDefaultIsr.c",line 94,column 5,is_stmt,isa 0
    3027 00000310 6F00          B         $C$L51,UNC            ; [CPU_] |94| 
    3028                      ; branch occurs ; [] |94| 
    3029                      .dwattr $C$DW$82, DW_AT_TI_end_file("../source/DSP2803x_SWPrioritizedDefaultIsr.c")
    3030                      .dwattr $C$DW$82, DW_AT_TI_end_line(0x5f)
    3031                      .dwattr $C$DW$82, DW_AT_TI_end_column(0x01)
    3032                      .dwendentry
    3033                      .dwendtag $C$DW$82
    3034              
    3035 00000311               .sect   ".text:retain"
    3036                      .retain
    3037                      .retainrefs
    3038                      .global _ECAP1_INT_ISR
    3039              
    3040              $C$DW$83        .dwtag  DW_TAG_subprogram, DW_AT_name("ECAP1_INT_ISR")
    3041                      .dwattr $C$DW$83, DW_AT_low_pc(_ECAP1_INT_ISR)
    3042                      .dwattr $C$DW$83, DW_AT_high_pc(0x00)
    3043                      .dwattr $C$DW$83, DW_AT_TI_symbol_name("_ECAP1_INT_ISR")
    3044                      .dwattr $C$DW$83, DW_AT_external
    3045                      .dwattr $C$DW$83, DW_AT_TI_begin_file("../source/DSP2803x_SWPrioritizedDefaultIsr.c")
    3046                      .dwattr $C$DW$83, DW_AT_TI_begin_line(0x333)
    3047                      .dwattr $C$DW$83, DW_AT_TI_begin_column(0x12)
    3048                      .dwattr $C$DW$83, DW_AT_TI_interrupt
    3049                      .dwattr $C$DW$83, DW_AT_TI_max_frame_size(-4)
TMS320C2000 Assembler PC v6.4.12 Thu Nov 16 10:01:32 2017

Tools Copyright (c) 1996-2017 Texas Instruments Incorporated
C:\Users\Admin\AppData\Local\Temp\0610810                            PAGE   59

    3050                      .dwpsn  file "../source/DSP2803x_SWPrioritizedDefaultIsr.c",line 820,column 1,is_stmt,address _ECAP1_
    3051              
    3052                      .dwfde $C$DW$CIE, _ECAP1_INT_ISR
    3053              
    3054              ;***************************************************************
    3055              ;* FNAME: _ECAP1_INT_ISR                FR SIZE:   2           *
    3056              ;*                                                             *
    3057              ;* FUNCTION ENVIRONMENT                                        *
    3058              ;*                                                             *
    3059              ;* FUNCTION PROPERTIES                                         *
    3060              ;*                            0 Parameter,  1 Auto,  0 SOE     *
    3061              ;***************************************************************
    3062              
    3063              _ECAP1_INT_ISR:
    3064              $C$DW$84        .dwtag  DW_TAG_variable, DW_AT_name("TempPIEIER")
    3065                      .dwattr $C$DW$84, DW_AT_TI_symbol_name("_TempPIEIER")
    3066                      .dwattr $C$DW$84, DW_AT_type(*$C$DW$T$33)
    3067                      .dwattr $C$DW$84, DW_AT_location[DW_OP_breg20 -1]
    3068                      .dwcfi  cfa_offset, -2
    3069                      .dwcfi  save_reg_to_mem, 26, 0
    3070 00000311 761B          ASP       ; [CPU_] 
    3071 00000312 FE02          ADDB      SP,#2                 ; [CPU_U] 
    3072                      .dwcfi  cfa_offset, -4
    3073 00000313 2942          CLRC      PAGE0,OVM             ; [CPU_] 
    3074 00000314 5616          CLRC      AMODE                 ; [CPU_] 
    3075 00000315 761F!         MOVW      DP,#_PieCtrlRegs+8    ; [CPU_U] 
         00000316 0000 
    3076                      .dwpsn  file "../source/DSP2803x_SWPrioritizedDefaultIsr.c",line 822,column 29,is_stmt,isa 0
    3077 00000317 9208!         MOV       AL,@_PieCtrlRegs+8    ; [CPU_] |822| 
    3078 00000318 9641          MOV       *-SP[1],AL            ; [CPU_] |822| 
    3079                      .dwpsn  file "../source/DSP2803x_SWPrioritizedDefaultIsr.c",line 823,column 2,is_stmt,isa 0
    3080 00000319 7623          OR        IER,#0x0008           ; [CPU_] |823| 
         0000031a 0008 
    3081                      .dwpsn  file "../source/DSP2803x_SWPrioritizedDefaultIsr.c",line 824,column 2,is_stmt,isa 0
    3082 0000031b 7626          AND       IER,#0x000a           ; [CPU_] |824| 
         0000031c 000A 
    3083                      .dwpsn  file "../source/DSP2803x_SWPrioritizedDefaultIsr.c",line 825,column 2,is_stmt,isa 0
    3084 0000031d 9208!         MOV       AL,@_PieCtrlRegs+8    ; [CPU_] |825| 
    3085 0000031e 2B08!         MOV       @_PieCtrlRegs+8,#0    ; [CPU_] |825| 
    3086                      .dwpsn  file "../source/DSP2803x_SWPrioritizedDefaultIsr.c",line 826,column 2,is_stmt,isa 0
    3087 0000031f 2801!         MOV       @_PieCtrlRegs+1,#65535 ; [CPU_] |826| 
         00000320 FFFF 
    3088 00000321 2910   clrc INTM
    3089 00000322 3B10   setc INTM
    3090                      .dwpsn  file "../source/DSP2803x_SWPrioritizedDefaultIsr.c",line 833,column 2,is_stmt,isa 0
    3091 00000323 9241          MOV       AL,*-SP[1]            ; [CPU_] |833| 
    3092 00000324 9608!         MOV       @_PieCtrlRegs+8,AL    ; [CPU_] |833| 
    3093 00000325 7625        ESTOP0
    3094 00000326       $C$L52:    
    3095                      .dwpsn  file "../source/DSP2803x_SWPrioritizedDefaultIsr.c",line 838,column 5,is_stmt,isa 0
    3096 00000326 6F00          B         $C$L52,UNC            ; [CPU_] |838| 
    3097                      ; branch occurs ; [] |838| 
    3098                      .dwattr $C$DW$83, DW_AT_TI_end_file("../source/DSP2803x_SWPrioritizedDefaultIsr.c")
    3099                      .dwattr $C$DW$83, DW_AT_TI_end_line(0x348)
    3100                      .dwattr $C$DW$83, DW_AT_TI_end_column(0x01)
TMS320C2000 Assembler PC v6.4.12 Thu Nov 16 10:01:32 2017

Tools Copyright (c) 1996-2017 Texas Instruments Incorporated
C:\Users\Admin\AppData\Local\Temp\0610810                            PAGE   60

    3101                      .dwendentry
    3102                      .dwendtag $C$DW$83
    3103              
    3104 00000327               .sect   ".text:retain"
    3105                      .retain
    3106                      .retainrefs
    3107                      .global _ECAN1INTA_ISR
    3108              
    3109              $C$DW$85        .dwtag  DW_TAG_subprogram, DW_AT_name("ECAN1INTA_ISR")
    3110                      .dwattr $C$DW$85, DW_AT_low_pc(_ECAN1INTA_ISR)
    3111                      .dwattr $C$DW$85, DW_AT_high_pc(0x00)
    3112                      .dwattr $C$DW$85, DW_AT_TI_symbol_name("_ECAN1INTA_ISR")
    3113                      .dwattr $C$DW$85, DW_AT_external
    3114                      .dwattr $C$DW$85, DW_AT_TI_begin_file("../source/DSP2803x_SWPrioritizedDefaultIsr.c")
    3115                      .dwattr $C$DW$85, DW_AT_TI_begin_line(0x498)
    3116                      .dwattr $C$DW$85, DW_AT_TI_begin_column(0x12)
    3117                      .dwattr $C$DW$85, DW_AT_TI_interrupt
    3118                      .dwattr $C$DW$85, DW_AT_TI_max_frame_size(-4)
    3119                      .dwpsn  file "../source/DSP2803x_SWPrioritizedDefaultIsr.c",line 1177,column 1,is_stmt,address _ECAN1
    3120              
    3121                      .dwfde $C$DW$CIE, _ECAN1INTA_ISR
    3122              
    3123              ;***************************************************************
    3124              ;* FNAME: _ECAN1INTA_ISR                FR SIZE:   2           *
    3125              ;*                                                             *
    3126              ;* FUNCTION ENVIRONMENT                                        *
    3127              ;*                                                             *
    3128              ;* FUNCTION PROPERTIES                                         *
    3129              ;*                            0 Parameter,  1 Auto,  0 SOE     *
    3130              ;***************************************************************
    3131              
    3132              _ECAN1INTA_ISR:
    3133              $C$DW$86        .dwtag  DW_TAG_variable, DW_AT_name("TempPIEIER")
    3134                      .dwattr $C$DW$86, DW_AT_TI_symbol_name("_TempPIEIER")
    3135                      .dwattr $C$DW$86, DW_AT_type(*$C$DW$T$33)
    3136                      .dwattr $C$DW$86, DW_AT_location[DW_OP_breg20 -1]
    3137                      .dwcfi  cfa_offset, -2
    3138                      .dwcfi  save_reg_to_mem, 26, 0
    3139 00000327 761B          ASP       ; [CPU_] 
    3140 00000328 FE02          ADDB      SP,#2                 ; [CPU_U] 
    3141                      .dwcfi  cfa_offset, -4
    3142 00000329 2942          CLRC      PAGE0,OVM             ; [CPU_] 
    3143 0000032a 5616          CLRC      AMODE                 ; [CPU_] 
    3144 0000032b 761F!         MOVW      DP,#_PieCtrlRegs+18   ; [CPU_U] 
         0000032c 0000 
    3145                      .dwpsn  file "../source/DSP2803x_SWPrioritizedDefaultIsr.c",line 1179,column 29,is_stmt,isa 0
    3146 0000032d 9212!         MOV       AL,@_PieCtrlRegs+18   ; [CPU_] |1179| 
    3147 0000032e 9641          MOV       *-SP[1],AL            ; [CPU_] |1179| 
    3148                      .dwpsn  file "../source/DSP2803x_SWPrioritizedDefaultIsr.c",line 1180,column 2,is_stmt,isa 0
    3149 0000032f 7623          OR        IER,#0x0100           ; [CPU_] |1180| 
         00000330 0100 
    3150                      .dwpsn  file "../source/DSP2803x_SWPrioritizedDefaultIsr.c",line 1181,column 2,is_stmt,isa 0
    3151 00000331 7626          AND       IER,#0x011b           ; [CPU_] |1181| 
         00000332 011B 
    3152                      .dwpsn  file "../source/DSP2803x_SWPrioritizedDefaultIsr.c",line 1182,column 2,is_stmt,isa 0
TMS320C2000 Assembler PC v6.4.12 Thu Nov 16 10:01:32 2017

Tools Copyright (c) 1996-2017 Texas Instruments Incorporated
C:\Users\Admin\AppData\Local\Temp\0610810                            PAGE   61

    3153 00000333 9212!         MOV       AL,@_PieCtrlRegs+18   ; [CPU_] |1182| 
    3154 00000334 2B12!         MOV       @_PieCtrlRegs+18,#0   ; [CPU_] |1182| 
    3155                      .dwpsn  file "../source/DSP2803x_SWPrioritizedDefaultIsr.c",line 1183,column 2,is_stmt,isa 0
    3156 00000335 2801!         MOV       @_PieCtrlRegs+1,#65535 ; [CPU_] |1183| 
         00000336 FFFF 
    3157 00000337 2910   clrc INTM
    3158 00000338 3B10   setc INTM
    3159                      .dwpsn  file "../source/DSP2803x_SWPrioritizedDefaultIsr.c",line 1190,column 2,is_stmt,isa 0
    3160 00000339 9241          MOV       AL,*-SP[1]            ; [CPU_] |1190| 
    3161 0000033a 9612!         MOV       @_PieCtrlRegs+18,AL   ; [CPU_] |1190| 
    3162 0000033b 7625        ESTOP0
    3163 0000033c       $C$L53:    
    3164                      .dwpsn  file "../source/DSP2803x_SWPrioritizedDefaultIsr.c",line 1195,column 5,is_stmt,isa 0
    3165 0000033c 6F00          B         $C$L53,UNC            ; [CPU_] |1195| 
    3166                      ; branch occurs ; [] |1195| 
    3167                      .dwattr $C$DW$85, DW_AT_TI_end_file("../source/DSP2803x_SWPrioritizedDefaultIsr.c")
    3168                      .dwattr $C$DW$85, DW_AT_TI_end_line(0x4ad)
    3169                      .dwattr $C$DW$85, DW_AT_TI_end_column(0x01)
    3170                      .dwendentry
    3171                      .dwendtag $C$DW$85
    3172              
    3173 0000033d               .sect   ".text:retain"
    3174                      .retain
    3175                      .retainrefs
    3176                      .global _ECAN0INTA_ISR
    3177              
    3178              $C$DW$87        .dwtag  DW_TAG_subprogram, DW_AT_name("ECAN0INTA_ISR")
    3179                      .dwattr $C$DW$87, DW_AT_low_pc(_ECAN0INTA_ISR)
    3180                      .dwattr $C$DW$87, DW_AT_high_pc(0x00)
    3181                      .dwattr $C$DW$87, DW_AT_TI_symbol_name("_ECAN0INTA_ISR")
    3182                      .dwattr $C$DW$87, DW_AT_external
    3183                      .dwattr $C$DW$87, DW_AT_TI_begin_file("../source/DSP2803x_SWPrioritizedDefaultIsr.c")
    3184                      .dwattr $C$DW$87, DW_AT_TI_begin_line(0x47e)
    3185                      .dwattr $C$DW$87, DW_AT_TI_begin_column(0x12)
    3186                      .dwattr $C$DW$87, DW_AT_TI_interrupt
    3187                      .dwattr $C$DW$87, DW_AT_TI_max_frame_size(-4)
    3188                      .dwpsn  file "../source/DSP2803x_SWPrioritizedDefaultIsr.c",line 1151,column 1,is_stmt,address _ECAN0
    3189              
    3190                      .dwfde $C$DW$CIE, _ECAN0INTA_ISR
    3191              
    3192              ;***************************************************************
    3193              ;* FNAME: _ECAN0INTA_ISR                FR SIZE:   2           *
    3194              ;*                                                             *
    3195              ;* FUNCTION ENVIRONMENT                                        *
    3196              ;*                                                             *
    3197              ;* FUNCTION PROPERTIES                                         *
    3198              ;*                            0 Parameter,  1 Auto,  0 SOE     *
    3199              ;***************************************************************
    3200              
    3201              _ECAN0INTA_ISR:
    3202              $C$DW$88        .dwtag  DW_TAG_variable, DW_AT_name("TempPIEIER")
    3203                      .dwattr $C$DW$88, DW_AT_TI_symbol_name("_TempPIEIER")
    3204                      .dwattr $C$DW$88, DW_AT_type(*$C$DW$T$33)
    3205                      .dwattr $C$DW$88, DW_AT_location[DW_OP_breg20 -1]
    3206                      .dwcfi  cfa_offset, -2
TMS320C2000 Assembler PC v6.4.12 Thu Nov 16 10:01:32 2017

Tools Copyright (c) 1996-2017 Texas Instruments Incorporated
C:\Users\Admin\AppData\Local\Temp\0610810                            PAGE   62

    3207                      .dwcfi  save_reg_to_mem, 26, 0
    3208 0000033d 761B          ASP       ; [CPU_] 
    3209 0000033e FE02          ADDB      SP,#2                 ; [CPU_U] 
    3210                      .dwcfi  cfa_offset, -4
    3211 0000033f 2942          CLRC      PAGE0,OVM             ; [CPU_] 
    3212 00000340 5616          CLRC      AMODE                 ; [CPU_] 
    3213 00000341 761F!         MOVW      DP,#_PieCtrlRegs+18   ; [CPU_U] 
         00000342 0000 
    3214                      .dwpsn  file "../source/DSP2803x_SWPrioritizedDefaultIsr.c",line 1153,column 29,is_stmt,isa 0
    3215 00000343 9212!         MOV       AL,@_PieCtrlRegs+18   ; [CPU_] |1153| 
    3216 00000344 9641          MOV       *-SP[1],AL            ; [CPU_] |1153| 
    3217                      .dwpsn  file "../source/DSP2803x_SWPrioritizedDefaultIsr.c",line 1154,column 2,is_stmt,isa 0
    3218 00000345 7623          OR        IER,#0x0100           ; [CPU_] |1154| 
         00000346 0100 
    3219                      .dwpsn  file "../source/DSP2803x_SWPrioritizedDefaultIsr.c",line 1155,column 2,is_stmt,isa 0
    3220 00000347 7626          AND       IER,#0x011b           ; [CPU_] |1155| 
         00000348 011B 
    3221                      .dwpsn  file "../source/DSP2803x_SWPrioritizedDefaultIsr.c",line 1156,column 2,is_stmt,isa 0
    3222 00000349 9212!         MOV       AL,@_PieCtrlRegs+18   ; [CPU_] |1156| 
    3223 0000034a 2B12!         MOV       @_PieCtrlRegs+18,#0   ; [CPU_] |1156| 
    3224                      .dwpsn  file "../source/DSP2803x_SWPrioritizedDefaultIsr.c",line 1157,column 2,is_stmt,isa 0
    3225 0000034b 2801!         MOV       @_PieCtrlRegs+1,#65535 ; [CPU_] |1157| 
         0000034c FFFF 
    3226 0000034d 2910   clrc INTM
    3227 0000034e 3B10   setc INTM
    3228                      .dwpsn  file "../source/DSP2803x_SWPrioritizedDefaultIsr.c",line 1164,column 2,is_stmt,isa 0
    3229 0000034f 9241          MOV       AL,*-SP[1]            ; [CPU_] |1164| 
    3230 00000350 9612!         MOV       @_PieCtrlRegs+18,AL   ; [CPU_] |1164| 
    3231 00000351 7625        ESTOP0
    3232 00000352       $C$L54:    
    3233                      .dwpsn  file "../source/DSP2803x_SWPrioritizedDefaultIsr.c",line 1169,column 5,is_stmt,isa 0
    3234 00000352 6F00          B         $C$L54,UNC            ; [CPU_] |1169| 
    3235                      ; branch occurs ; [] |1169| 
    3236                      .dwattr $C$DW$87, DW_AT_TI_end_file("../source/DSP2803x_SWPrioritizedDefaultIsr.c")
    3237                      .dwattr $C$DW$87, DW_AT_TI_end_line(0x493)
    3238                      .dwattr $C$DW$87, DW_AT_TI_end_column(0x01)
    3239                      .dwendentry
    3240                      .dwendtag $C$DW$87
    3241              
    3242 00000353               .sect   ".text:retain"
    3243                      .retain
    3244                      .retainrefs
    3245                      .global _DATALOG_ISR
    3246              
    3247              $C$DW$89        .dwtag  DW_TAG_subprogram, DW_AT_name("DATALOG_ISR")
    3248                      .dwattr $C$DW$89, DW_AT_low_pc(_DATALOG_ISR)
    3249                      .dwattr $C$DW$89, DW_AT_high_pc(0x00)
    3250                      .dwattr $C$DW$89, DW_AT_TI_symbol_name("_DATALOG_ISR")
    3251                      .dwattr $C$DW$89, DW_AT_external
    3252                      .dwattr $C$DW$89, DW_AT_TI_begin_file("../source/DSP2803x_SWPrioritizedDefaultIsr.c")
    3253                      .dwattr $C$DW$89, DW_AT_TI_begin_line(0x36)
    3254                      .dwattr $C$DW$89, DW_AT_TI_begin_column(0x12)
    3255                      .dwattr $C$DW$89, DW_AT_TI_interrupt
    3256                      .dwattr $C$DW$89, DW_AT_TI_max_frame_size(-2)
    3257                      .dwpsn  file "../source/DSP2803x_SWPrioritizedDefaultIsr.c",line 55,column 1,is_stmt,address _DATALOG
TMS320C2000 Assembler PC v6.4.12 Thu Nov 16 10:01:32 2017

Tools Copyright (c) 1996-2017 Texas Instruments Incorporated
C:\Users\Admin\AppData\Local\Temp\0610810                            PAGE   63

    3258              
    3259                      .dwfde $C$DW$CIE, _DATALOG_ISR
    3260              
    3261              ;***************************************************************
    3262              ;* FNAME: _DATALOG_ISR                  FR SIZE:   0           *
    3263              ;*                                                             *
    3264              ;* FUNCTION ENVIRONMENT                                        *
    3265              ;*                                                             *
    3266              ;* FUNCTION PROPERTIES                                         *
    3267              ;*                            0 Parameter,  0 Auto,  0 SOE     *
    3268              ;***************************************************************
    3269              
