TMS320C2000 Assembler PC v16.9.6 Tue Mar 06 18:34:36 2018

Tools Copyright (c) 1996-2017 Texas Instruments Incorporated
C:\Users\Admin\AppData\Local\Temp\{DC34D9F1-072D-4B77-A784-928B1DD31EC1} PAGE    1

       1              ;***************************************************************
       2              ;* TMS320C2000 C/C++ Codegen                    PC v16.9.6.LTS *
       3              ;* Date/Time created: Tue Mar 06 18:34:36 2018                 *
       4              ;***************************************************************
       5                      .compiler_opts --abi=coffabi --cla_support=cla0 --diag_wrap=off --float_support=softlib --hll_source=
       6                      .asg    XAR2, FP
       7              
       8              $C$DW$CU        .dwtag  DW_TAG_compile_unit
       9                      .dwattr $C$DW$CU, DW_AT_name("../source/DSP2803x_DefaultIsr.c")
      10                      .dwattr $C$DW$CU, DW_AT_producer("TI TMS320C2000 C/C++ Codegen PC v16.9.6.LTS Copyright (c) 1996-2017
      11                      .dwattr $C$DW$CU, DW_AT_TI_version(0x01)
      12                      .dwattr $C$DW$CU, DW_AT_comp_dir("C:\Users\Admin\workspace_v7\KT1205_MGI_V7.2_REVC_MASTER_GPRS_180301
      13              ;       C:\ti\ccsv7\tools\compiler\ti-cgt-c2000_16.9.6.LTS\bin\opt2000.exe C:\\Users\\Admin\\AppData\\Local\\
      14              ;       C:\ti\ccsv7\tools\compiler\ti-cgt-c2000_16.9.6.LTS\bin\ac2000.exe -@C:\\Users\\Admin\\AppData\\Local\
      15 00000000               .sect   ".text:retain"
      16                      .retain
      17                      .retainrefs
      18                      .global _rsvd_ISR
      19              
      20              $C$DW$1 .dwtag  DW_TAG_subprogram
      21                      .dwattr $C$DW$1, DW_AT_name("rsvd_ISR")
      22                      .dwattr $C$DW$1, DW_AT_low_pc(_rsvd_ISR)
      23                      .dwattr $C$DW$1, DW_AT_high_pc(0x00)
      24                      .dwattr $C$DW$1, DW_AT_TI_symbol_name("_rsvd_ISR")
      25                      .dwattr $C$DW$1, DW_AT_external
      26                      .dwattr $C$DW$1, DW_AT_TI_begin_file("../source/DSP2803x_DefaultIsr.c")
      27                      .dwattr $C$DW$1, DW_AT_TI_begin_line(0x438)
      28                      .dwattr $C$DW$1, DW_AT_TI_begin_column(0x10)
      29                      .dwattr $C$DW$1, DW_AT_TI_interrupt
      30                      .dwattr $C$DW$1, DW_AT_TI_max_frame_size(-2)
      31                      .dwpsn  file "../source/DSP2803x_DefaultIsr.c",line 1081,column 1,is_stmt,address _rsvd_ISR,isa 0
      32              
      33                      .dwfde $C$DW$CIE, _rsvd_ISR
      34              
      35              ;***************************************************************
      36              ;* FNAME: _rsvd_ISR                     FR SIZE:   0           *
      37              ;*                                                             *
      38              ;* FUNCTION ENVIRONMENT                                        *
      39              ;*                                                             *
      40              ;* FUNCTION PROPERTIES                                         *
      41              ;*                            0 Parameter,  0 Auto,  0 SOE     *
      42              ;***************************************************************
      43              
      44 00000000       _rsvd_ISR:
      45                      .dwcfi  cfa_offset, -2
      46                      .dwcfi  save_reg_to_mem, 26, 0
      47 00000000 761B          ASP       ; [CPU_] 
      48 00000001 2942          CLRC      PAGE0,OVM             ; [CPU_] 
      49 00000002 5616          CLRC      AMODE                 ; [CPU_] 
      50 00000003 7625        ESTOP0
      51 00000004       $C$L1:    
      52                      .dwpsn  file "../source/DSP2803x_DefaultIsr.c",line 1083,column 3,is_stmt,isa 0
      53 00000004 6F00          B         $C$L1,UNC             ; [CPU_] |1083| 
      54                      ; branch occurs ; [] |1083| 
      55                      .dwattr $C$DW$1, DW_AT_TI_end_file("../source/DSP2803x_DefaultIsr.c")
TMS320C2000 Assembler PC v16.9.6 Tue Mar 06 18:34:36 2018

Tools Copyright (c) 1996-2017 Texas Instruments Incorporated
C:\Users\Admin\AppData\Local\Temp\{DC34D9F1-072D-4B77-A784-928B1DD31EC1} PAGE    2

      56                      .dwattr $C$DW$1, DW_AT_TI_end_line(0x43c)
      57                      .dwattr $C$DW$1, DW_AT_TI_end_column(0x01)
      58                      .dwendentry
      59                      .dwendtag $C$DW$1
      60              
      61 00000005               .sect   ".text:retain"
      62                      .retain
      63                      .retainrefs
      64                      .global _XINT3_ISR
      65              
      66              $C$DW$2 .dwtag  DW_TAG_subprogram
      67                      .dwattr $C$DW$2, DW_AT_name("XINT3_ISR")
      68                      .dwattr $C$DW$2, DW_AT_low_pc(_XINT3_ISR)
      69                      .dwattr $C$DW$2, DW_AT_high_pc(0x00)
      70                      .dwattr $C$DW$2, DW_AT_TI_symbol_name("_XINT3_ISR")
      71                      .dwattr $C$DW$2, DW_AT_external
      72                      .dwattr $C$DW$2, DW_AT_TI_begin_file("../source/DSP2803x_DefaultIsr.c")
      73                      .dwattr $C$DW$2, DW_AT_TI_begin_line(0x3f8)
      74                      .dwattr $C$DW$2, DW_AT_TI_begin_column(0x10)
      75                      .dwattr $C$DW$2, DW_AT_TI_interrupt
      76                      .dwattr $C$DW$2, DW_AT_TI_max_frame_size(-2)
      77                      .dwpsn  file "../source/DSP2803x_DefaultIsr.c",line 1017,column 1,is_stmt,address _XINT3_ISR,isa 0
      78              
      79                      .dwfde $C$DW$CIE, _XINT3_ISR
      80              
      81              ;***************************************************************
      82              ;* FNAME: _XINT3_ISR                    FR SIZE:   0           *
      83              ;*                                                             *
      84              ;* FUNCTION ENVIRONMENT                                        *
      85              ;*                                                             *
      86              ;* FUNCTION PROPERTIES                                         *
      87              ;*                            0 Parameter,  0 Auto,  0 SOE     *
      88              ;***************************************************************
      89              
      90 00000005       _XINT3_ISR:
      91                      .dwcfi  cfa_offset, -2
      92                      .dwcfi  save_reg_to_mem, 26, 0
      93 00000005 761B          ASP       ; [CPU_] 
      94 00000006 2942          CLRC      PAGE0,OVM             ; [CPU_] 
      95 00000007 5616          CLRC      AMODE                 ; [CPU_] 
      96 00000008 7625        ESTOP0
      97 00000009       $C$L2:    
      98                      .dwpsn  file "../source/DSP2803x_DefaultIsr.c",line 1026,column 3,is_stmt,isa 0
      99 00000009 6F00          B         $C$L2,UNC             ; [CPU_] |1026| 
     100                      ; branch occurs ; [] |1026| 
     101                      .dwattr $C$DW$2, DW_AT_TI_end_file("../source/DSP2803x_DefaultIsr.c")
     102                      .dwattr $C$DW$2, DW_AT_TI_end_line(0x404)
     103                      .dwattr $C$DW$2, DW_AT_TI_end_column(0x01)
     104                      .dwendentry
     105                      .dwendtag $C$DW$2
     106              
     107 0000000a               .sect   ".text:retain"
     108                      .retain
     109                      .retainrefs
     110                      .global _XINT2_ISR
TMS320C2000 Assembler PC v16.9.6 Tue Mar 06 18:34:36 2018

Tools Copyright (c) 1996-2017 Texas Instruments Incorporated
C:\Users\Admin\AppData\Local\Temp\{DC34D9F1-072D-4B77-A784-928B1DD31EC1} PAGE    3

     111              
     112              $C$DW$3 .dwtag  DW_TAG_subprogram
     113                      .dwattr $C$DW$3, DW_AT_name("XINT2_ISR")
     114                      .dwattr $C$DW$3, DW_AT_low_pc(_XINT2_ISR)
     115                      .dwattr $C$DW$3, DW_AT_high_pc(0x00)
     116                      .dwattr $C$DW$3, DW_AT_TI_symbol_name("_XINT2_ISR")
     117                      .dwattr $C$DW$3, DW_AT_external
     118                      .dwattr $C$DW$3, DW_AT_TI_begin_file("../source/DSP2803x_DefaultIsr.c")
     119                      .dwattr $C$DW$3, DW_AT_TI_begin_line(0x115)
     120                      .dwattr $C$DW$3, DW_AT_TI_begin_column(0x11)
     121                      .dwattr $C$DW$3, DW_AT_TI_interrupt
     122                      .dwattr $C$DW$3, DW_AT_TI_max_frame_size(-2)
     123                      .dwpsn  file "../source/DSP2803x_DefaultIsr.c",line 278,column 1,is_stmt,address _XINT2_ISR,isa 0
     124              
     125                      .dwfde $C$DW$CIE, _XINT2_ISR
     126              
     127              ;***************************************************************
     128              ;* FNAME: _XINT2_ISR                    FR SIZE:   0           *
     129              ;*                                                             *
     130              ;* FUNCTION ENVIRONMENT                                        *
     131              ;*                                                             *
     132              ;* FUNCTION PROPERTIES                                         *
     133              ;*                            0 Parameter,  0 Auto,  0 SOE     *
     134              ;***************************************************************
     135              
     136 0000000a       _XINT2_ISR:
     137                      .dwcfi  cfa_offset, -2
     138                      .dwcfi  save_reg_to_mem, 26, 0
     139 0000000a 761B          ASP       ; [CPU_] 
     140 0000000b 2942          CLRC      PAGE0,OVM             ; [CPU_] 
     141 0000000c 5616          CLRC      AMODE                 ; [CPU_] 
     142 0000000d 7625        ESTOP0
     143 0000000e       $C$L3:    
     144                      .dwpsn  file "../source/DSP2803x_DefaultIsr.c",line 287,column 3,is_stmt,isa 0
     145 0000000e 6F00          B         $C$L3,UNC             ; [CPU_] |287| 
     146                      ; branch occurs ; [] |287| 
     147                      .dwattr $C$DW$3, DW_AT_TI_end_file("../source/DSP2803x_DefaultIsr.c")
     148                      .dwattr $C$DW$3, DW_AT_TI_end_line(0x121)
     149                      .dwattr $C$DW$3, DW_AT_TI_end_column(0x01)
     150                      .dwendentry
     151                      .dwendtag $C$DW$3
     152              
     153 0000000f               .sect   ".text:retain"
     154                      .retain
     155                      .retainrefs
     156                      .global _XINT1_ISR
     157              
     158              $C$DW$4 .dwtag  DW_TAG_subprogram
     159                      .dwattr $C$DW$4, DW_AT_name("XINT1_ISR")
     160                      .dwattr $C$DW$4, DW_AT_low_pc(_XINT1_ISR)
     161                      .dwattr $C$DW$4, DW_AT_high_pc(0x00)
     162                      .dwattr $C$DW$4, DW_AT_TI_symbol_name("_XINT1_ISR")
     163                      .dwattr $C$DW$4, DW_AT_external
     164                      .dwattr $C$DW$4, DW_AT_TI_begin_file("../source/DSP2803x_DefaultIsr.c")
     165                      .dwattr $C$DW$4, DW_AT_TI_begin_line(0x106)
TMS320C2000 Assembler PC v16.9.6 Tue Mar 06 18:34:36 2018

Tools Copyright (c) 1996-2017 Texas Instruments Incorporated
C:\Users\Admin\AppData\Local\Temp\{DC34D9F1-072D-4B77-A784-928B1DD31EC1} PAGE    4

     166                      .dwattr $C$DW$4, DW_AT_TI_begin_column(0x11)
     167                      .dwattr $C$DW$4, DW_AT_TI_interrupt
     168                      .dwattr $C$DW$4, DW_AT_TI_max_frame_size(-2)
     169                      .dwpsn  file "../source/DSP2803x_DefaultIsr.c",line 263,column 1,is_stmt,address _XINT1_ISR,isa 0
     170              
     171                      .dwfde $C$DW$CIE, _XINT1_ISR
     172              
     173              ;***************************************************************
     174              ;* FNAME: _XINT1_ISR                    FR SIZE:   0           *
     175              ;*                                                             *
     176              ;* FUNCTION ENVIRONMENT                                        *
     177              ;*                                                             *
     178              ;* FUNCTION PROPERTIES                                         *
     179              ;*                            0 Parameter,  0 Auto,  0 SOE     *
     180              ;***************************************************************
     181              
     182 0000000f       _XINT1_ISR:
     183                      .dwcfi  cfa_offset, -2
     184                      .dwcfi  save_reg_to_mem, 26, 0
     185 0000000f 761B          ASP       ; [CPU_] 
     186 00000010 2942          CLRC      PAGE0,OVM             ; [CPU_] 
     187 00000011 5616          CLRC      AMODE                 ; [CPU_] 
     188 00000012 7625        ESTOP0
     189 00000013       $C$L4:    
     190                      .dwpsn  file "../source/DSP2803x_DefaultIsr.c",line 272,column 3,is_stmt,isa 0
     191 00000013 6F00          B         $C$L4,UNC             ; [CPU_] |272| 
     192                      ; branch occurs ; [] |272| 
     193                      .dwattr $C$DW$4, DW_AT_TI_end_file("../source/DSP2803x_DefaultIsr.c")
     194                      .dwattr $C$DW$4, DW_AT_TI_end_line(0x112)
     195                      .dwattr $C$DW$4, DW_AT_TI_end_column(0x01)
     196                      .dwendentry
     197                      .dwendtag $C$DW$4
     198              
     199 00000014               .sect   ".text:retain"
     200                      .retain
     201                      .retainrefs
     202                      .global _WAKEINT_ISR
     203              
     204              $C$DW$5 .dwtag  DW_TAG_subprogram
     205                      .dwattr $C$DW$5, DW_AT_name("WAKEINT_ISR")
     206                      .dwattr $C$DW$5, DW_AT_low_pc(_WAKEINT_ISR)
     207                      .dwattr $C$DW$5, DW_AT_high_pc(0x00)
     208                      .dwattr $C$DW$5, DW_AT_TI_symbol_name("_WAKEINT_ISR")
     209                      .dwattr $C$DW$5, DW_AT_external
     210                      .dwattr $C$DW$5, DW_AT_TI_begin_file("../source/DSP2803x_DefaultIsr.c")
     211                      .dwattr $C$DW$5, DW_AT_TI_begin_line(0x140)
     212                      .dwattr $C$DW$5, DW_AT_TI_begin_column(0x11)
     213                      .dwattr $C$DW$5, DW_AT_TI_interrupt
     214                      .dwattr $C$DW$5, DW_AT_TI_max_frame_size(-2)
     215                      .dwpsn  file "../source/DSP2803x_DefaultIsr.c",line 321,column 1,is_stmt,address _WAKEINT_ISR,isa 0
     216              
     217                      .dwfde $C$DW$CIE, _WAKEINT_ISR
     218              
     219              ;***************************************************************
     220              ;* FNAME: _WAKEINT_ISR                  FR SIZE:   0           *
TMS320C2000 Assembler PC v16.9.6 Tue Mar 06 18:34:36 2018

Tools Copyright (c) 1996-2017 Texas Instruments Incorporated
C:\Users\Admin\AppData\Local\Temp\{DC34D9F1-072D-4B77-A784-928B1DD31EC1} PAGE    5

     221              ;*                                                             *
     222              ;* FUNCTION ENVIRONMENT                                        *
     223              ;*                                                             *
     224              ;* FUNCTION PROPERTIES                                         *
     225              ;*                            0 Parameter,  0 Auto,  0 SOE     *
     226              ;***************************************************************
     227              
     228 00000014       _WAKEINT_ISR:
     229                      .dwcfi  cfa_offset, -2
     230                      .dwcfi  save_reg_to_mem, 26, 0
     231 00000014 761B          ASP       ; [CPU_] 
     232 00000015 2942          CLRC      PAGE0,OVM             ; [CPU_] 
     233 00000016 5616          CLRC      AMODE                 ; [CPU_] 
     234 00000017 7625        ESTOP0
     235 00000018       $C$L5:    
     236                      .dwpsn  file "../source/DSP2803x_DefaultIsr.c",line 330,column 3,is_stmt,isa 0
     237 00000018 6F00          B         $C$L5,UNC             ; [CPU_] |330| 
     238                      ; branch occurs ; [] |330| 
     239                      .dwattr $C$DW$5, DW_AT_TI_end_file("../source/DSP2803x_DefaultIsr.c")
     240                      .dwattr $C$DW$5, DW_AT_TI_end_line(0x14b)
     241                      .dwattr $C$DW$5, DW_AT_TI_end_column(0x01)
     242                      .dwendentry
     243                      .dwendtag $C$DW$5
     244              
     245 00000019               .sect   ".text:retain"
     246                      .retain
     247                      .retainrefs
     248                      .global _USER9_ISR
     249              
     250              $C$DW$6 .dwtag  DW_TAG_subprogram
     251                      .dwattr $C$DW$6, DW_AT_name("USER9_ISR")
     252                      .dwattr $C$DW$6, DW_AT_low_pc(_USER9_ISR)
     253                      .dwattr $C$DW$6, DW_AT_high_pc(0x00)
     254                      .dwattr $C$DW$6, DW_AT_TI_symbol_name("_USER9_ISR")
     255                      .dwattr $C$DW$6, DW_AT_external
     256                      .dwattr $C$DW$6, DW_AT_TI_begin_file("../source/DSP2803x_DefaultIsr.c")
     257                      .dwattr $C$DW$6, DW_AT_TI_begin_line(0xb6)
     258                      .dwattr $C$DW$6, DW_AT_TI_begin_column(0x10)
     259                      .dwattr $C$DW$6, DW_AT_TI_interrupt
     260                      .dwattr $C$DW$6, DW_AT_TI_max_frame_size(-2)
     261                      .dwpsn  file "../source/DSP2803x_DefaultIsr.c",line 183,column 1,is_stmt,address _USER9_ISR,isa 0
     262              
     263                      .dwfde $C$DW$CIE, _USER9_ISR
     264              
     265              ;***************************************************************
     266              ;* FNAME: _USER9_ISR                    FR SIZE:   0           *
     267              ;*                                                             *
     268              ;* FUNCTION ENVIRONMENT                                        *
     269              ;*                                                             *
     270              ;* FUNCTION PROPERTIES                                         *
     271              ;*                            0 Parameter,  0 Auto,  0 SOE     *
     272              ;***************************************************************
     273              
     274 00000019       _USER9_ISR:
     275                      .dwcfi  cfa_offset, -2
TMS320C2000 Assembler PC v16.9.6 Tue Mar 06 18:34:36 2018

Tools Copyright (c) 1996-2017 Texas Instruments Incorporated
C:\Users\Admin\AppData\Local\Temp\{DC34D9F1-072D-4B77-A784-928B1DD31EC1} PAGE    6

     276                      .dwcfi  save_reg_to_mem, 26, 0
     277 00000019 761B          ASP       ; [CPU_] 
     278 0000001a 2942          CLRC      PAGE0,OVM             ; [CPU_] 
     279 0000001b 5616          CLRC      AMODE                 ; [CPU_] 
     280 0000001c 7625        ESTOP0
     281 0000001d       $C$L6:    
     282                      .dwpsn  file "../source/DSP2803x_DefaultIsr.c",line 189,column 3,is_stmt,isa 0
     283 0000001d 6F00          B         $C$L6,UNC             ; [CPU_] |189| 
     284                      ; branch occurs ; [] |189| 
     285                      .dwattr $C$DW$6, DW_AT_TI_end_file("../source/DSP2803x_DefaultIsr.c")
     286                      .dwattr $C$DW$6, DW_AT_TI_end_line(0xbe)
     287                      .dwattr $C$DW$6, DW_AT_TI_end_column(0x01)
     288                      .dwendentry
     289                      .dwendtag $C$DW$6
     290              
     291 0000001e               .sect   ".text:retain"
     292                      .retain
     293                      .retainrefs
     294                      .global _USER8_ISR
     295              
     296              $C$DW$7 .dwtag  DW_TAG_subprogram
     297                      .dwattr $C$DW$7, DW_AT_name("USER8_ISR")
     298                      .dwattr $C$DW$7, DW_AT_low_pc(_USER8_ISR)
     299                      .dwattr $C$DW$7, DW_AT_high_pc(0x00)
     300                      .dwattr $C$DW$7, DW_AT_TI_symbol_name("_USER8_ISR")
     301                      .dwattr $C$DW$7, DW_AT_external
     302                      .dwattr $C$DW$7, DW_AT_TI_begin_file("../source/DSP2803x_DefaultIsr.c")
     303                      .dwattr $C$DW$7, DW_AT_TI_begin_line(0xac)
     304                      .dwattr $C$DW$7, DW_AT_TI_begin_column(0x10)
     305                      .dwattr $C$DW$7, DW_AT_TI_interrupt
     306                      .dwattr $C$DW$7, DW_AT_TI_max_frame_size(-2)
     307                      .dwpsn  file "../source/DSP2803x_DefaultIsr.c",line 173,column 1,is_stmt,address _USER8_ISR,isa 0
     308              
     309                      .dwfde $C$DW$CIE, _USER8_ISR
     310              
     311              ;***************************************************************
     312              ;* FNAME: _USER8_ISR                    FR SIZE:   0           *
     313              ;*                                                             *
     314              ;* FUNCTION ENVIRONMENT                                        *
     315              ;*                                                             *
     316              ;* FUNCTION PROPERTIES                                         *
     317              ;*                            0 Parameter,  0 Auto,  0 SOE     *
     318              ;***************************************************************
     319              
     320 0000001e       _USER8_ISR:
     321                      .dwcfi  cfa_offset, -2
     322                      .dwcfi  save_reg_to_mem, 26, 0
     323 0000001e 761B          ASP       ; [CPU_] 
     324 0000001f 2942          CLRC      PAGE0,OVM             ; [CPU_] 
     325 00000020 5616          CLRC      AMODE                 ; [CPU_] 
     326 00000021 7625        ESTOP0
     327 00000022       $C$L7:    
     328                      .dwpsn  file "../source/DSP2803x_DefaultIsr.c",line 179,column 3,is_stmt,isa 0
     329 00000022 6F00          B         $C$L7,UNC             ; [CPU_] |179| 
     330                      ; branch occurs ; [] |179| 
TMS320C2000 Assembler PC v16.9.6 Tue Mar 06 18:34:36 2018

Tools Copyright (c) 1996-2017 Texas Instruments Incorporated
C:\Users\Admin\AppData\Local\Temp\{DC34D9F1-072D-4B77-A784-928B1DD31EC1} PAGE    7

     331                      .dwattr $C$DW$7, DW_AT_TI_end_file("../source/DSP2803x_DefaultIsr.c")
     332                      .dwattr $C$DW$7, DW_AT_TI_end_line(0xb4)
     333                      .dwattr $C$DW$7, DW_AT_TI_end_column(0x01)
     334                      .dwendentry
     335                      .dwendtag $C$DW$7
     336              
     337 00000023               .sect   ".text:retain"
     338                      .retain
     339                      .retainrefs
     340                      .global _USER7_ISR
     341              
     342              $C$DW$8 .dwtag  DW_TAG_subprogram
     343                      .dwattr $C$DW$8, DW_AT_name("USER7_ISR")
     344                      .dwattr $C$DW$8, DW_AT_low_pc(_USER7_ISR)
     345                      .dwattr $C$DW$8, DW_AT_high_pc(0x00)
     346                      .dwattr $C$DW$8, DW_AT_TI_symbol_name("_USER7_ISR")
     347                      .dwattr $C$DW$8, DW_AT_external
     348                      .dwattr $C$DW$8, DW_AT_TI_begin_file("../source/DSP2803x_DefaultIsr.c")
     349                      .dwattr $C$DW$8, DW_AT_TI_begin_line(0xa2)
     350                      .dwattr $C$DW$8, DW_AT_TI_begin_column(0x10)
     351                      .dwattr $C$DW$8, DW_AT_TI_interrupt
     352                      .dwattr $C$DW$8, DW_AT_TI_max_frame_size(-2)
     353                      .dwpsn  file "../source/DSP2803x_DefaultIsr.c",line 163,column 1,is_stmt,address _USER7_ISR,isa 0
     354              
     355                      .dwfde $C$DW$CIE, _USER7_ISR
     356              
     357              ;***************************************************************
     358              ;* FNAME: _USER7_ISR                    FR SIZE:   0           *
     359              ;*                                                             *
     360              ;* FUNCTION ENVIRONMENT                                        *
     361              ;*                                                             *
     362              ;* FUNCTION PROPERTIES                                         *
     363              ;*                            0 Parameter,  0 Auto,  0 SOE     *
     364              ;***************************************************************
     365              
     366 00000023       _USER7_ISR:
     367                      .dwcfi  cfa_offset, -2
     368                      .dwcfi  save_reg_to_mem, 26, 0
     369 00000023 761B          ASP       ; [CPU_] 
     370 00000024 2942          CLRC      PAGE0,OVM             ; [CPU_] 
     371 00000025 5616          CLRC      AMODE                 ; [CPU_] 
     372 00000026 7625        ESTOP0
     373 00000027       $C$L8:    
     374                      .dwpsn  file "../source/DSP2803x_DefaultIsr.c",line 169,column 3,is_stmt,isa 0
     375 00000027 6F00          B         $C$L8,UNC             ; [CPU_] |169| 
     376                      ; branch occurs ; [] |169| 
     377                      .dwattr $C$DW$8, DW_AT_TI_end_file("../source/DSP2803x_DefaultIsr.c")
     378                      .dwattr $C$DW$8, DW_AT_TI_end_line(0xaa)
     379                      .dwattr $C$DW$8, DW_AT_TI_end_column(0x01)
     380                      .dwendentry
     381                      .dwendtag $C$DW$8
     382              
     383 00000028               .sect   ".text:retain"
     384                      .retain
     385                      .retainrefs
TMS320C2000 Assembler PC v16.9.6 Tue Mar 06 18:34:36 2018

Tools Copyright (c) 1996-2017 Texas Instruments Incorporated
C:\Users\Admin\AppData\Local\Temp\{DC34D9F1-072D-4B77-A784-928B1DD31EC1} PAGE    8

     386                      .global _USER6_ISR
     387              
     388              $C$DW$9 .dwtag  DW_TAG_subprogram
     389                      .dwattr $C$DW$9, DW_AT_name("USER6_ISR")
     390                      .dwattr $C$DW$9, DW_AT_low_pc(_USER6_ISR)
     391                      .dwattr $C$DW$9, DW_AT_high_pc(0x00)
     392                      .dwattr $C$DW$9, DW_AT_TI_symbol_name("_USER6_ISR")
     393                      .dwattr $C$DW$9, DW_AT_external
     394                      .dwattr $C$DW$9, DW_AT_TI_begin_file("../source/DSP2803x_DefaultIsr.c")
     395                      .dwattr $C$DW$9, DW_AT_TI_begin_line(0x98)
     396                      .dwattr $C$DW$9, DW_AT_TI_begin_column(0x10)
     397                      .dwattr $C$DW$9, DW_AT_TI_interrupt
     398                      .dwattr $C$DW$9, DW_AT_TI_max_frame_size(-2)
     399                      .dwpsn  file "../source/DSP2803x_DefaultIsr.c",line 153,column 1,is_stmt,address _USER6_ISR,isa 0
     400              
     401                      .dwfde $C$DW$CIE, _USER6_ISR
     402              
     403              ;***************************************************************
     404              ;* FNAME: _USER6_ISR                    FR SIZE:   0           *
     405              ;*                                                             *
     406              ;* FUNCTION ENVIRONMENT                                        *
     407              ;*                                                             *
     408              ;* FUNCTION PROPERTIES                                         *
     409              ;*                            0 Parameter,  0 Auto,  0 SOE     *
     410              ;***************************************************************
     411              
     412 00000028       _USER6_ISR:
     413                      .dwcfi  cfa_offset, -2
     414                      .dwcfi  save_reg_to_mem, 26, 0
     415 00000028 761B          ASP       ; [CPU_] 
     416 00000029 2942          CLRC      PAGE0,OVM             ; [CPU_] 
     417 0000002a 5616          CLRC      AMODE                 ; [CPU_] 
     418 0000002b 7625        ESTOP0
     419 0000002c       $C$L9:    
     420                      .dwpsn  file "../source/DSP2803x_DefaultIsr.c",line 159,column 3,is_stmt,isa 0
     421 0000002c 6F00          B         $C$L9,UNC             ; [CPU_] |159| 
     422                      ; branch occurs ; [] |159| 
     423                      .dwattr $C$DW$9, DW_AT_TI_end_file("../source/DSP2803x_DefaultIsr.c")
     424                      .dwattr $C$DW$9, DW_AT_TI_end_line(0xa0)
     425                      .dwattr $C$DW$9, DW_AT_TI_end_column(0x01)
     426                      .dwendentry
     427                      .dwendtag $C$DW$9
     428              
     429 0000002d               .sect   ".text:retain"
     430                      .retain
     431                      .retainrefs
     432                      .global _USER5_ISR
     433              
     434              $C$DW$10        .dwtag  DW_TAG_subprogram
     435                      .dwattr $C$DW$10, DW_AT_name("USER5_ISR")
     436                      .dwattr $C$DW$10, DW_AT_low_pc(_USER5_ISR)
     437                      .dwattr $C$DW$10, DW_AT_high_pc(0x00)
     438                      .dwattr $C$DW$10, DW_AT_TI_symbol_name("_USER5_ISR")
     439                      .dwattr $C$DW$10, DW_AT_external
     440                      .dwattr $C$DW$10, DW_AT_TI_begin_file("../source/DSP2803x_DefaultIsr.c")
TMS320C2000 Assembler PC v16.9.6 Tue Mar 06 18:34:36 2018

Tools Copyright (c) 1996-2017 Texas Instruments Incorporated
C:\Users\Admin\AppData\Local\Temp\{DC34D9F1-072D-4B77-A784-928B1DD31EC1} PAGE    9

     441                      .dwattr $C$DW$10, DW_AT_TI_begin_line(0x8e)
     442                      .dwattr $C$DW$10, DW_AT_TI_begin_column(0x10)
     443                      .dwattr $C$DW$10, DW_AT_TI_interrupt
     444                      .dwattr $C$DW$10, DW_AT_TI_max_frame_size(-2)
     445                      .dwpsn  file "../source/DSP2803x_DefaultIsr.c",line 143,column 1,is_stmt,address _USER5_ISR,isa 0
     446              
     447                      .dwfde $C$DW$CIE, _USER5_ISR
     448              
     449              ;***************************************************************
     450              ;* FNAME: _USER5_ISR                    FR SIZE:   0           *
     451              ;*                                                             *
     452              ;* FUNCTION ENVIRONMENT                                        *
     453              ;*                                                             *
     454              ;* FUNCTION PROPERTIES                                         *
     455              ;*                            0 Parameter,  0 Auto,  0 SOE     *
     456              ;***************************************************************
     457              
     458 0000002d       _USER5_ISR:
     459                      .dwcfi  cfa_offset, -2
     460                      .dwcfi  save_reg_to_mem, 26, 0
     461 0000002d 761B          ASP       ; [CPU_] 
     462 0000002e 2942          CLRC      PAGE0,OVM             ; [CPU_] 
     463 0000002f 5616          CLRC      AMODE                 ; [CPU_] 
     464 00000030 7625        ESTOP0
     465 00000031       $C$L10:    
     466                      .dwpsn  file "../source/DSP2803x_DefaultIsr.c",line 149,column 3,is_stmt,isa 0
     467 00000031 6F00          B         $C$L10,UNC            ; [CPU_] |149| 
     468                      ; branch occurs ; [] |149| 
     469                      .dwattr $C$DW$10, DW_AT_TI_end_file("../source/DSP2803x_DefaultIsr.c")
     470                      .dwattr $C$DW$10, DW_AT_TI_end_line(0x96)
     471                      .dwattr $C$DW$10, DW_AT_TI_end_column(0x01)
     472                      .dwendentry
     473                      .dwendtag $C$DW$10
     474              
     475 00000032               .sect   ".text:retain"
     476                      .retain
     477                      .retainrefs
     478                      .global _USER4_ISR
     479              
     480              $C$DW$11        .dwtag  DW_TAG_subprogram
     481                      .dwattr $C$DW$11, DW_AT_name("USER4_ISR")
     482                      .dwattr $C$DW$11, DW_AT_low_pc(_USER4_ISR)
     483                      .dwattr $C$DW$11, DW_AT_high_pc(0x00)
     484                      .dwattr $C$DW$11, DW_AT_TI_symbol_name("_USER4_ISR")
     485                      .dwattr $C$DW$11, DW_AT_external
     486                      .dwattr $C$DW$11, DW_AT_TI_begin_file("../source/DSP2803x_DefaultIsr.c")
     487                      .dwattr $C$DW$11, DW_AT_TI_begin_line(0x84)
     488                      .dwattr $C$DW$11, DW_AT_TI_begin_column(0x10)
     489                      .dwattr $C$DW$11, DW_AT_TI_interrupt
     490                      .dwattr $C$DW$11, DW_AT_TI_max_frame_size(-2)
     491                      .dwpsn  file "../source/DSP2803x_DefaultIsr.c",line 133,column 1,is_stmt,address _USER4_ISR,isa 0
     492              
     493                      .dwfde $C$DW$CIE, _USER4_ISR
     494              
     495              ;***************************************************************
TMS320C2000 Assembler PC v16.9.6 Tue Mar 06 18:34:36 2018

Tools Copyright (c) 1996-2017 Texas Instruments Incorporated
C:\Users\Admin\AppData\Local\Temp\{DC34D9F1-072D-4B77-A784-928B1DD31EC1} PAGE   10

     496              ;* FNAME: _USER4_ISR                    FR SIZE:   0           *
     497              ;*                                                             *
     498              ;* FUNCTION ENVIRONMENT                                        *
     499              ;*                                                             *
     500              ;* FUNCTION PROPERTIES                                         *
     501              ;*                            0 Parameter,  0 Auto,  0 SOE     *
     502              ;***************************************************************
     503              
     504 00000032       _USER4_ISR:
     505                      .dwcfi  cfa_offset, -2
     506                      .dwcfi  save_reg_to_mem, 26, 0
     507 00000032 761B          ASP       ; [CPU_] 
     508 00000033 2942          CLRC      PAGE0,OVM             ; [CPU_] 
     509 00000034 5616          CLRC      AMODE                 ; [CPU_] 
     510 00000035 7625        ESTOP0
     511 00000036       $C$L11:    
     512                      .dwpsn  file "../source/DSP2803x_DefaultIsr.c",line 139,column 3,is_stmt,isa 0
     513 00000036 6F00          B         $C$L11,UNC            ; [CPU_] |139| 
     514                      ; branch occurs ; [] |139| 
     515                      .dwattr $C$DW$11, DW_AT_TI_end_file("../source/DSP2803x_DefaultIsr.c")
     516                      .dwattr $C$DW$11, DW_AT_TI_end_line(0x8c)
     517                      .dwattr $C$DW$11, DW_AT_TI_end_column(0x01)
     518                      .dwendentry
     519                      .dwendtag $C$DW$11
     520              
     521 00000037               .sect   ".text:retain"
     522                      .retain
     523                      .retainrefs
     524                      .global _USER3_ISR
     525              
     526              $C$DW$12        .dwtag  DW_TAG_subprogram
     527                      .dwattr $C$DW$12, DW_AT_name("USER3_ISR")
     528                      .dwattr $C$DW$12, DW_AT_low_pc(_USER3_ISR)
     529                      .dwattr $C$DW$12, DW_AT_high_pc(0x00)
     530                      .dwattr $C$DW$12, DW_AT_TI_symbol_name("_USER3_ISR")
     531                      .dwattr $C$DW$12, DW_AT_external
     532                      .dwattr $C$DW$12, DW_AT_TI_begin_file("../source/DSP2803x_DefaultIsr.c")
     533                      .dwattr $C$DW$12, DW_AT_TI_begin_line(0x7a)
     534                      .dwattr $C$DW$12, DW_AT_TI_begin_column(0x10)
     535                      .dwattr $C$DW$12, DW_AT_TI_interrupt
     536                      .dwattr $C$DW$12, DW_AT_TI_max_frame_size(-2)
     537                      .dwpsn  file "../source/DSP2803x_DefaultIsr.c",line 123,column 1,is_stmt,address _USER3_ISR,isa 0
     538              
     539                      .dwfde $C$DW$CIE, _USER3_ISR
     540              
     541              ;***************************************************************
     542              ;* FNAME: _USER3_ISR                    FR SIZE:   0           *
     543              ;*                                                             *
     544              ;* FUNCTION ENVIRONMENT                                        *
     545              ;*                                                             *
     546              ;* FUNCTION PROPERTIES                                         *
     547              ;*                            0 Parameter,  0 Auto,  0 SOE     *
     548              ;***************************************************************
     549              
     550 00000037       _USER3_ISR:
TMS320C2000 Assembler PC v16.9.6 Tue Mar 06 18:34:36 2018

Tools Copyright (c) 1996-2017 Texas Instruments Incorporated
C:\Users\Admin\AppData\Local\Temp\{DC34D9F1-072D-4B77-A784-928B1DD31EC1} PAGE   11

     551                      .dwcfi  cfa_offset, -2
     552                      .dwcfi  save_reg_to_mem, 26, 0
     553 00000037 761B          ASP       ; [CPU_] 
     554 00000038 2942          CLRC      PAGE0,OVM             ; [CPU_] 
     555 00000039 5616          CLRC      AMODE                 ; [CPU_] 
     556 0000003a 7625        ESTOP0
     557 0000003b       $C$L12:    
     558                      .dwpsn  file "../source/DSP2803x_DefaultIsr.c",line 129,column 3,is_stmt,isa 0
     559 0000003b 6F00          B         $C$L12,UNC            ; [CPU_] |129| 
     560                      ; branch occurs ; [] |129| 
     561                      .dwattr $C$DW$12, DW_AT_TI_end_file("../source/DSP2803x_DefaultIsr.c")
     562                      .dwattr $C$DW$12, DW_AT_TI_end_line(0x82)
     563                      .dwattr $C$DW$12, DW_AT_TI_end_column(0x01)
     564                      .dwendentry
     565                      .dwendtag $C$DW$12
     566              
     567 0000003c               .sect   ".text:retain"
     568                      .retain
     569                      .retainrefs
     570                      .global _USER2_ISR
     571              
     572              $C$DW$13        .dwtag  DW_TAG_subprogram
     573                      .dwattr $C$DW$13, DW_AT_name("USER2_ISR")
     574                      .dwattr $C$DW$13, DW_AT_low_pc(_USER2_ISR)
     575                      .dwattr $C$DW$13, DW_AT_high_pc(0x00)
     576                      .dwattr $C$DW$13, DW_AT_TI_symbol_name("_USER2_ISR")
     577                      .dwattr $C$DW$13, DW_AT_external
     578                      .dwattr $C$DW$13, DW_AT_TI_begin_file("../source/DSP2803x_DefaultIsr.c")
     579                      .dwattr $C$DW$13, DW_AT_TI_begin_line(0x6f)
     580                      .dwattr $C$DW$13, DW_AT_TI_begin_column(0x10)
     581                      .dwattr $C$DW$13, DW_AT_TI_interrupt
     582                      .dwattr $C$DW$13, DW_AT_TI_max_frame_size(-2)
     583                      .dwpsn  file "../source/DSP2803x_DefaultIsr.c",line 112,column 1,is_stmt,address _USER2_ISR,isa 0
     584              
     585                      .dwfde $C$DW$CIE, _USER2_ISR
     586              
     587              ;***************************************************************
     588              ;* FNAME: _USER2_ISR                    FR SIZE:   0           *
     589              ;*                                                             *
     590              ;* FUNCTION ENVIRONMENT                                        *
     591              ;*                                                             *
     592              ;* FUNCTION PROPERTIES                                         *
     593              ;*                            0 Parameter,  0 Auto,  0 SOE     *
     594              ;***************************************************************
     595              
     596 0000003c       _USER2_ISR:
     597                      .dwcfi  cfa_offset, -2
     598                      .dwcfi  save_reg_to_mem, 26, 0
     599 0000003c 761B          ASP       ; [CPU_] 
     600 0000003d 2942          CLRC      PAGE0,OVM             ; [CPU_] 
     601 0000003e 5616          CLRC      AMODE                 ; [CPU_] 
     602 0000003f 7625        ESTOP0
     603 00000040       $C$L13:    
     604                      .dwpsn  file "../source/DSP2803x_DefaultIsr.c",line 118,column 3,is_stmt,isa 0
     605 00000040 6F00          B         $C$L13,UNC            ; [CPU_] |118| 
TMS320C2000 Assembler PC v16.9.6 Tue Mar 06 18:34:36 2018

Tools Copyright (c) 1996-2017 Texas Instruments Incorporated
C:\Users\Admin\AppData\Local\Temp\{DC34D9F1-072D-4B77-A784-928B1DD31EC1} PAGE   12

     606                      ; branch occurs ; [] |118| 
     607                      .dwattr $C$DW$13, DW_AT_TI_end_file("../source/DSP2803x_DefaultIsr.c")
     608                      .dwattr $C$DW$13, DW_AT_TI_end_line(0x78)
     609                      .dwattr $C$DW$13, DW_AT_TI_end_column(0x01)
     610                      .dwendentry
     611                      .dwendtag $C$DW$13
     612              
     613 00000041               .sect   ".text:retain"
     614                      .retain
     615                      .retainrefs
     616                      .global _USER1_ISR
     617              
     618              $C$DW$14        .dwtag  DW_TAG_subprogram
     619                      .dwattr $C$DW$14, DW_AT_name("USER1_ISR")
     620                      .dwattr $C$DW$14, DW_AT_low_pc(_USER1_ISR)
     621                      .dwattr $C$DW$14, DW_AT_high_pc(0x00)
     622                      .dwattr $C$DW$14, DW_AT_TI_symbol_name("_USER1_ISR")
     623                      .dwattr $C$DW$14, DW_AT_external
     624                      .dwattr $C$DW$14, DW_AT_TI_begin_file("../source/DSP2803x_DefaultIsr.c")
     625                      .dwattr $C$DW$14, DW_AT_TI_begin_line(0x64)
     626                      .dwattr $C$DW$14, DW_AT_TI_begin_column(0x10)
     627                      .dwattr $C$DW$14, DW_AT_TI_interrupt
     628                      .dwattr $C$DW$14, DW_AT_TI_max_frame_size(-2)
     629                      .dwpsn  file "../source/DSP2803x_DefaultIsr.c",line 101,column 1,is_stmt,address _USER1_ISR,isa 0
     630              
     631                      .dwfde $C$DW$CIE, _USER1_ISR
     632              
     633              ;***************************************************************
     634              ;* FNAME: _USER1_ISR                    FR SIZE:   0           *
     635              ;*                                                             *
     636              ;* FUNCTION ENVIRONMENT                                        *
     637              ;*                                                             *
     638              ;* FUNCTION PROPERTIES                                         *
     639              ;*                            0 Parameter,  0 Auto,  0 SOE     *
     640              ;***************************************************************
     641              
     642 00000041       _USER1_ISR:
     643                      .dwcfi  cfa_offset, -2
     644                      .dwcfi  save_reg_to_mem, 26, 0
     645 00000041 761B          ASP       ; [CPU_] 
     646 00000042 2942          CLRC      PAGE0,OVM             ; [CPU_] 
     647 00000043 5616          CLRC      AMODE                 ; [CPU_] 
     648 00000044 7625        ESTOP0
     649 00000045       $C$L14:    
     650                      .dwpsn  file "../source/DSP2803x_DefaultIsr.c",line 107,column 3,is_stmt,isa 0
     651 00000045 6F00          B         $C$L14,UNC            ; [CPU_] |107| 
     652                      ; branch occurs ; [] |107| 
     653                      .dwattr $C$DW$14, DW_AT_TI_end_file("../source/DSP2803x_DefaultIsr.c")
     654                      .dwattr $C$DW$14, DW_AT_TI_end_line(0x6d)
     655                      .dwattr $C$DW$14, DW_AT_TI_end_column(0x01)
     656                      .dwendentry
     657                      .dwendtag $C$DW$14
     658              
     659 00000046               .sect   ".text:retain"
     660                      .retain
TMS320C2000 Assembler PC v16.9.6 Tue Mar 06 18:34:36 2018

Tools Copyright (c) 1996-2017 Texas Instruments Incorporated
C:\Users\Admin\AppData\Local\Temp\{DC34D9F1-072D-4B77-A784-928B1DD31EC1} PAGE   13

     661                      .retainrefs
     662                      .global _USER12_ISR
     663              
     664              $C$DW$15        .dwtag  DW_TAG_subprogram
     665                      .dwattr $C$DW$15, DW_AT_name("USER12_ISR")
     666                      .dwattr $C$DW$15, DW_AT_low_pc(_USER12_ISR)
     667                      .dwattr $C$DW$15, DW_AT_high_pc(0x00)
     668                      .dwattr $C$DW$15, DW_AT_TI_symbol_name("_USER12_ISR")
     669                      .dwattr $C$DW$15, DW_AT_external
     670                      .dwattr $C$DW$15, DW_AT_TI_begin_file("../source/DSP2803x_DefaultIsr.c")
     671                      .dwattr $C$DW$15, DW_AT_TI_begin_line(0xd4)
     672                      .dwattr $C$DW$15, DW_AT_TI_begin_column(0x10)
     673                      .dwattr $C$DW$15, DW_AT_TI_interrupt
     674                      .dwattr $C$DW$15, DW_AT_TI_max_frame_size(-2)
     675                      .dwpsn  file "../source/DSP2803x_DefaultIsr.c",line 213,column 1,is_stmt,address _USER12_ISR,isa 0
     676              
     677                      .dwfde $C$DW$CIE, _USER12_ISR
     678              
     679              ;***************************************************************
     680              ;* FNAME: _USER12_ISR                   FR SIZE:   0           *
     681              ;*                                                             *
     682              ;* FUNCTION ENVIRONMENT                                        *
     683              ;*                                                             *
     684              ;* FUNCTION PROPERTIES                                         *
     685              ;*                            0 Parameter,  0 Auto,  0 SOE     *
     686              ;***************************************************************
     687              
     688 00000046       _USER12_ISR:
     689                      .dwcfi  cfa_offset, -2
     690                      .dwcfi  save_reg_to_mem, 26, 0
     691 00000046 761B          ASP       ; [CPU_] 
     692 00000047 2942          CLRC      PAGE0,OVM             ; [CPU_] 
     693 00000048 5616          CLRC      AMODE                 ; [CPU_] 
     694 00000049 7625        ESTOP0
     695 0000004a       $C$L15:    
     696                      .dwpsn  file "../source/DSP2803x_DefaultIsr.c",line 219,column 3,is_stmt,isa 0
     697 0000004a 6F00          B         $C$L15,UNC            ; [CPU_] |219| 
     698                      ; branch occurs ; [] |219| 
     699                      .dwattr $C$DW$15, DW_AT_TI_end_file("../source/DSP2803x_DefaultIsr.c")
     700                      .dwattr $C$DW$15, DW_AT_TI_end_line(0xdd)
     701                      .dwattr $C$DW$15, DW_AT_TI_end_column(0x01)
     702                      .dwendentry
     703                      .dwendtag $C$DW$15
     704              
     705 0000004b               .sect   ".text:retain"
     706                      .retain
     707                      .retainrefs
     708                      .global _USER11_ISR
     709              
     710              $C$DW$16        .dwtag  DW_TAG_subprogram
     711                      .dwattr $C$DW$16, DW_AT_name("USER11_ISR")
     712                      .dwattr $C$DW$16, DW_AT_low_pc(_USER11_ISR)
     713                      .dwattr $C$DW$16, DW_AT_high_pc(0x00)
     714                      .dwattr $C$DW$16, DW_AT_TI_symbol_name("_USER11_ISR")
     715                      .dwattr $C$DW$16, DW_AT_external
TMS320C2000 Assembler PC v16.9.6 Tue Mar 06 18:34:36 2018

Tools Copyright (c) 1996-2017 Texas Instruments Incorporated
C:\Users\Admin\AppData\Local\Temp\{DC34D9F1-072D-4B77-A784-928B1DD31EC1} PAGE   14

     716                      .dwattr $C$DW$16, DW_AT_TI_begin_file("../source/DSP2803x_DefaultIsr.c")
     717                      .dwattr $C$DW$16, DW_AT_TI_begin_line(0xca)
     718                      .dwattr $C$DW$16, DW_AT_TI_begin_column(0x10)
     719                      .dwattr $C$DW$16, DW_AT_TI_interrupt
     720                      .dwattr $C$DW$16, DW_AT_TI_max_frame_size(-2)
     721                      .dwpsn  file "../source/DSP2803x_DefaultIsr.c",line 203,column 1,is_stmt,address _USER11_ISR,isa 0
     722              
     723                      .dwfde $C$DW$CIE, _USER11_ISR
     724              
     725              ;***************************************************************
     726              ;* FNAME: _USER11_ISR                   FR SIZE:   0           *
     727              ;*                                                             *
     728              ;* FUNCTION ENVIRONMENT                                        *
     729              ;*                                                             *
     730              ;* FUNCTION PROPERTIES                                         *
     731              ;*                            0 Parameter,  0 Auto,  0 SOE     *
     732              ;***************************************************************
     733              
     734 0000004b       _USER11_ISR:
     735                      .dwcfi  cfa_offset, -2
     736                      .dwcfi  save_reg_to_mem, 26, 0
     737 0000004b 761B          ASP       ; [CPU_] 
     738 0000004c 2942          CLRC      PAGE0,OVM             ; [CPU_] 
     739 0000004d 5616          CLRC      AMODE                 ; [CPU_] 
     740 0000004e 7625        ESTOP0
     741 0000004f       $C$L16:    
     742                      .dwpsn  file "../source/DSP2803x_DefaultIsr.c",line 209,column 3,is_stmt,isa 0
     743 0000004f 6F00          B         $C$L16,UNC            ; [CPU_] |209| 
     744                      ; branch occurs ; [] |209| 
     745                      .dwattr $C$DW$16, DW_AT_TI_end_file("../source/DSP2803x_DefaultIsr.c")
     746                      .dwattr $C$DW$16, DW_AT_TI_end_line(0xd2)
     747                      .dwattr $C$DW$16, DW_AT_TI_end_column(0x01)
     748                      .dwendentry
     749                      .dwendtag $C$DW$16
     750              
     751 00000050               .sect   ".text:retain"
     752                      .retain
     753                      .retainrefs
     754                      .global _USER10_ISR
     755              
     756              $C$DW$17        .dwtag  DW_TAG_subprogram
     757                      .dwattr $C$DW$17, DW_AT_name("USER10_ISR")
     758                      .dwattr $C$DW$17, DW_AT_low_pc(_USER10_ISR)
     759                      .dwattr $C$DW$17, DW_AT_high_pc(0x00)
     760                      .dwattr $C$DW$17, DW_AT_TI_symbol_name("_USER10_ISR")
     761                      .dwattr $C$DW$17, DW_AT_external
     762                      .dwattr $C$DW$17, DW_AT_TI_begin_file("../source/DSP2803x_DefaultIsr.c")
     763                      .dwattr $C$DW$17, DW_AT_TI_begin_line(0xc0)
     764                      .dwattr $C$DW$17, DW_AT_TI_begin_column(0x10)
     765                      .dwattr $C$DW$17, DW_AT_TI_interrupt
     766                      .dwattr $C$DW$17, DW_AT_TI_max_frame_size(-2)
     767                      .dwpsn  file "../source/DSP2803x_DefaultIsr.c",line 193,column 1,is_stmt,address _USER10_ISR,isa 0
     768              
     769                      .dwfde $C$DW$CIE, _USER10_ISR
     770              
TMS320C2000 Assembler PC v16.9.6 Tue Mar 06 18:34:36 2018

Tools Copyright (c) 1996-2017 Texas Instruments Incorporated
C:\Users\Admin\AppData\Local\Temp\{DC34D9F1-072D-4B77-A784-928B1DD31EC1} PAGE   15

     771              ;***************************************************************
     772              ;* FNAME: _USER10_ISR                   FR SIZE:   0           *
     773              ;*                                                             *
     774              ;* FUNCTION ENVIRONMENT                                        *
     775              ;*                                                             *
     776              ;* FUNCTION PROPERTIES                                         *
     777              ;*                            0 Parameter,  0 Auto,  0 SOE     *
     778              ;***************************************************************
     779              
     780 00000050       _USER10_ISR:
     781                      .dwcfi  cfa_offset, -2
     782                      .dwcfi  save_reg_to_mem, 26, 0
     783 00000050 761B          ASP       ; [CPU_] 
     784 00000051 2942          CLRC      PAGE0,OVM             ; [CPU_] 
     785 00000052 5616          CLRC      AMODE                 ; [CPU_] 
     786 00000053 7625        ESTOP0
     787 00000054       $C$L17:    
     788                      .dwpsn  file "../source/DSP2803x_DefaultIsr.c",line 199,column 3,is_stmt,isa 0
     789 00000054 6F00          B         $C$L17,UNC            ; [CPU_] |199| 
     790                      ; branch occurs ; [] |199| 
     791                      .dwattr $C$DW$17, DW_AT_TI_end_file("../source/DSP2803x_DefaultIsr.c")
     792                      .dwattr $C$DW$17, DW_AT_TI_end_line(0xc8)
     793                      .dwattr $C$DW$17, DW_AT_TI_end_column(0x01)
     794                      .dwendentry
     795                      .dwendtag $C$DW$17
     796              
     797 00000055               .sect   ".text:retain"
     798                      .retain
     799                      .retainrefs
     800                      .global _TINT0_ISR
     801              
     802              $C$DW$18        .dwtag  DW_TAG_subprogram
     803                      .dwattr $C$DW$18, DW_AT_name("TINT0_ISR")
     804                      .dwattr $C$DW$18, DW_AT_low_pc(_TINT0_ISR)
     805                      .dwattr $C$DW$18, DW_AT_high_pc(0x00)
     806                      .dwattr $C$DW$18, DW_AT_TI_symbol_name("_TINT0_ISR")
     807                      .dwattr $C$DW$18, DW_AT_external
     808                      .dwattr $C$DW$18, DW_AT_TI_begin_file("../source/DSP2803x_DefaultIsr.c")
     809                      .dwattr $C$DW$18, DW_AT_TI_begin_line(0x132)
     810                      .dwattr $C$DW$18, DW_AT_TI_begin_column(0x11)
     811                      .dwattr $C$DW$18, DW_AT_TI_interrupt
     812                      .dwattr $C$DW$18, DW_AT_TI_max_frame_size(-2)
     813                      .dwpsn  file "../source/DSP2803x_DefaultIsr.c",line 307,column 1,is_stmt,address _TINT0_ISR,isa 0
     814              
     815                      .dwfde $C$DW$CIE, _TINT0_ISR
     816              
     817              ;***************************************************************
     818              ;* FNAME: _TINT0_ISR                    FR SIZE:   0           *
     819              ;*                                                             *
     820              ;* FUNCTION ENVIRONMENT                                        *
     821              ;*                                                             *
     822              ;* FUNCTION PROPERTIES                                         *
     823              ;*                            0 Parameter,  0 Auto,  0 SOE     *
     824              ;***************************************************************
     825              
TMS320C2000 Assembler PC v16.9.6 Tue Mar 06 18:34:36 2018

Tools Copyright (c) 1996-2017 Texas Instruments Incorporated
C:\Users\Admin\AppData\Local\Temp\{DC34D9F1-072D-4B77-A784-928B1DD31EC1} PAGE   16

     826 00000055       _TINT0_ISR:
     827                      .dwcfi  cfa_offset, -2
     828                      .dwcfi  save_reg_to_mem, 26, 0
     829 00000055 761B          ASP       ; [CPU_] 
     830 00000056 2942          CLRC      PAGE0,OVM             ; [CPU_] 
     831 00000057 5616          CLRC      AMODE                 ; [CPU_] 
     832 00000058 7625        ESTOP0
     833 00000059       $C$L18:    
     834                      .dwpsn  file "../source/DSP2803x_DefaultIsr.c",line 316,column 3,is_stmt,isa 0
     835 00000059 6F00          B         $C$L18,UNC            ; [CPU_] |316| 
     836                      ; branch occurs ; [] |316| 
     837                      .dwattr $C$DW$18, DW_AT_TI_end_file("../source/DSP2803x_DefaultIsr.c")
     838                      .dwattr $C$DW$18, DW_AT_TI_end_line(0x13d)
     839                      .dwattr $C$DW$18, DW_AT_TI_end_column(0x01)
     840                      .dwendentry
     841                      .dwendtag $C$DW$18
     842              
     843 0000005a               .sect   ".text:retain"
     844                      .retain
     845                      .retainrefs
     846                      .global _SPITXINTB_ISR
     847              
     848              $C$DW$19        .dwtag  DW_TAG_subprogram
     849                      .dwattr $C$DW$19, DW_AT_name("SPITXINTB_ISR")
     850                      .dwattr $C$DW$19, DW_AT_low_pc(_SPITXINTB_ISR)
     851                      .dwattr $C$DW$19, DW_AT_high_pc(0x00)
     852                      .dwattr $C$DW$19, DW_AT_TI_symbol_name("_SPITXINTB_ISR")
     853                      .dwattr $C$DW$19, DW_AT_external
     854                      .dwattr $C$DW$19, DW_AT_TI_begin_file("../source/DSP2803x_DefaultIsr.c")
     855                      .dwattr $C$DW$19, DW_AT_TI_begin_line(0x280)
     856                      .dwattr $C$DW$19, DW_AT_TI_begin_column(0x10)
     857                      .dwattr $C$DW$19, DW_AT_TI_interrupt
     858                      .dwattr $C$DW$19, DW_AT_TI_max_frame_size(-2)
     859                      .dwpsn  file "../source/DSP2803x_DefaultIsr.c",line 641,column 1,is_stmt,address _SPITXINTB_ISR,isa 0
     860              
     861                      .dwfde $C$DW$CIE, _SPITXINTB_ISR
     862              
     863              ;***************************************************************
     864              ;* FNAME: _SPITXINTB_ISR                FR SIZE:   0           *
     865              ;*                                                             *
     866              ;* FUNCTION ENVIRONMENT                                        *
     867              ;*                                                             *
     868              ;* FUNCTION PROPERTIES                                         *
     869              ;*                            0 Parameter,  0 Auto,  0 SOE     *
     870              ;***************************************************************
     871              
     872 0000005a       _SPITXINTB_ISR:
     873                      .dwcfi  cfa_offset, -2
     874                      .dwcfi  save_reg_to_mem, 26, 0
     875 0000005a 761B          ASP       ; [CPU_] 
     876 0000005b 2942          CLRC      PAGE0,OVM             ; [CPU_] 
     877 0000005c 5616          CLRC      AMODE                 ; [CPU_] 
     878 0000005d 7625        ESTOP0
     879 0000005e       $C$L19:    
     880                      .dwpsn  file "../source/DSP2803x_DefaultIsr.c",line 650,column 3,is_stmt,isa 0
TMS320C2000 Assembler PC v16.9.6 Tue Mar 06 18:34:36 2018

Tools Copyright (c) 1996-2017 Texas Instruments Incorporated
C:\Users\Admin\AppData\Local\Temp\{DC34D9F1-072D-4B77-A784-928B1DD31EC1} PAGE   17

     881 0000005e 6F00          B         $C$L19,UNC            ; [CPU_] |650| 
     882                      ; branch occurs ; [] |650| 
     883                      .dwattr $C$DW$19, DW_AT_TI_end_file("../source/DSP2803x_DefaultIsr.c")
     884                      .dwattr $C$DW$19, DW_AT_TI_end_line(0x28b)
     885                      .dwattr $C$DW$19, DW_AT_TI_end_column(0x01)
     886                      .dwendentry
     887                      .dwendtag $C$DW$19
     888              
     889 0000005f               .sect   ".text:retain"
     890                      .retain
     891                      .retainrefs
     892                      .global _SPITXINTA_ISR
     893              
     894              $C$DW$20        .dwtag  DW_TAG_subprogram
     895                      .dwattr $C$DW$20, DW_AT_name("SPITXINTA_ISR")
     896                      .dwattr $C$DW$20, DW_AT_low_pc(_SPITXINTA_ISR)
     897                      .dwattr $C$DW$20, DW_AT_high_pc(0x00)
     898                      .dwattr $C$DW$20, DW_AT_TI_symbol_name("_SPITXINTA_ISR")
     899                      .dwattr $C$DW$20, DW_AT_external
     900                      .dwattr $C$DW$20, DW_AT_TI_begin_file("../source/DSP2803x_DefaultIsr.c")
     901                      .dwattr $C$DW$20, DW_AT_TI_begin_line(0x264)
     902                      .dwattr $C$DW$20, DW_AT_TI_begin_column(0x10)
     903                      .dwattr $C$DW$20, DW_AT_TI_interrupt
     904                      .dwattr $C$DW$20, DW_AT_TI_max_frame_size(-2)
     905                      .dwpsn  file "../source/DSP2803x_DefaultIsr.c",line 613,column 1,is_stmt,address _SPITXINTA_ISR,isa 0
     906              
     907                      .dwfde $C$DW$CIE, _SPITXINTA_ISR
     908              
     909              ;***************************************************************
     910              ;* FNAME: _SPITXINTA_ISR                FR SIZE:   0           *
     911              ;*                                                             *
     912              ;* FUNCTION ENVIRONMENT                                        *
     913              ;*                                                             *
     914              ;* FUNCTION PROPERTIES                                         *
     915              ;*                            0 Parameter,  0 Auto,  0 SOE     *
     916              ;***************************************************************
     917              
     918 0000005f       _SPITXINTA_ISR:
     919                      .dwcfi  cfa_offset, -2
     920                      .dwcfi  save_reg_to_mem, 26, 0
     921 0000005f 761B          ASP       ; [CPU_] 
     922 00000060 2942          CLRC      PAGE0,OVM             ; [CPU_] 
     923 00000061 5616          CLRC      AMODE                 ; [CPU_] 
     924 00000062 7625        ESTOP0
     925 00000063       $C$L20:    
     926                      .dwpsn  file "../source/DSP2803x_DefaultIsr.c",line 622,column 3,is_stmt,isa 0
     927 00000063 6F00          B         $C$L20,UNC            ; [CPU_] |622| 
     928                      ; branch occurs ; [] |622| 
     929                      .dwattr $C$DW$20, DW_AT_TI_end_file("../source/DSP2803x_DefaultIsr.c")
     930                      .dwattr $C$DW$20, DW_AT_TI_end_line(0x26f)
     931                      .dwattr $C$DW$20, DW_AT_TI_end_column(0x01)
     932                      .dwendentry
     933                      .dwendtag $C$DW$20
     934              
     935 00000064               .sect   ".text:retain"
TMS320C2000 Assembler PC v16.9.6 Tue Mar 06 18:34:36 2018

Tools Copyright (c) 1996-2017 Texas Instruments Incorporated
C:\Users\Admin\AppData\Local\Temp\{DC34D9F1-072D-4B77-A784-928B1DD31EC1} PAGE   18

     936                      .retain
     937                      .retainrefs
     938                      .global _SPIRXINTB_ISR
     939              
     940              $C$DW$21        .dwtag  DW_TAG_subprogram
     941                      .dwattr $C$DW$21, DW_AT_name("SPIRXINTB_ISR")
     942                      .dwattr $C$DW$21, DW_AT_low_pc(_SPIRXINTB_ISR)
     943                      .dwattr $C$DW$21, DW_AT_high_pc(0x00)
     944                      .dwattr $C$DW$21, DW_AT_TI_symbol_name("_SPIRXINTB_ISR")
     945                      .dwattr $C$DW$21, DW_AT_external
     946                      .dwattr $C$DW$21, DW_AT_TI_begin_file("../source/DSP2803x_DefaultIsr.c")
     947                      .dwattr $C$DW$21, DW_AT_TI_begin_line(0x272)
     948                      .dwattr $C$DW$21, DW_AT_TI_begin_column(0x10)
     949                      .dwattr $C$DW$21, DW_AT_TI_interrupt
     950                      .dwattr $C$DW$21, DW_AT_TI_max_frame_size(-2)
     951                      .dwpsn  file "../source/DSP2803x_DefaultIsr.c",line 627,column 1,is_stmt,address _SPIRXINTB_ISR,isa 0
     952              
     953                      .dwfde $C$DW$CIE, _SPIRXINTB_ISR
     954              
     955              ;***************************************************************
     956              ;* FNAME: _SPIRXINTB_ISR                FR SIZE:   0           *
     957              ;*                                                             *
     958              ;* FUNCTION ENVIRONMENT                                        *
     959              ;*                                                             *
     960              ;* FUNCTION PROPERTIES                                         *
     961              ;*                            0 Parameter,  0 Auto,  0 SOE     *
     962              ;***************************************************************
     963              
     964 00000064       _SPIRXINTB_ISR:
     965                      .dwcfi  cfa_offset, -2
     966                      .dwcfi  save_reg_to_mem, 26, 0
     967 00000064 761B          ASP       ; [CPU_] 
     968 00000065 2942          CLRC      PAGE0,OVM             ; [CPU_] 
     969 00000066 5616          CLRC      AMODE                 ; [CPU_] 
     970 00000067 7625        ESTOP0
     971 00000068       $C$L21:    
     972                      .dwpsn  file "../source/DSP2803x_DefaultIsr.c",line 636,column 3,is_stmt,isa 0
     973 00000068 6F00          B         $C$L21,UNC            ; [CPU_] |636| 
     974                      ; branch occurs ; [] |636| 
     975                      .dwattr $C$DW$21, DW_AT_TI_end_file("../source/DSP2803x_DefaultIsr.c")
     976                      .dwattr $C$DW$21, DW_AT_TI_end_line(0x27d)
     977                      .dwattr $C$DW$21, DW_AT_TI_end_column(0x01)
     978                      .dwendentry
     979                      .dwendtag $C$DW$21
     980              
     981 00000069               .sect   ".text:retain"
     982                      .retain
     983                      .retainrefs
     984                      .global _SPIRXINTA_ISR
     985              
     986              $C$DW$22        .dwtag  DW_TAG_subprogram
     987                      .dwattr $C$DW$22, DW_AT_name("SPIRXINTA_ISR")
     988                      .dwattr $C$DW$22, DW_AT_low_pc(_SPIRXINTA_ISR)
     989                      .dwattr $C$DW$22, DW_AT_high_pc(0x00)
     990                      .dwattr $C$DW$22, DW_AT_TI_symbol_name("_SPIRXINTA_ISR")
TMS320C2000 Assembler PC v16.9.6 Tue Mar 06 18:34:36 2018

Tools Copyright (c) 1996-2017 Texas Instruments Incorporated
C:\Users\Admin\AppData\Local\Temp\{DC34D9F1-072D-4B77-A784-928B1DD31EC1} PAGE   19

     991                      .dwattr $C$DW$22, DW_AT_external
     992                      .dwattr $C$DW$22, DW_AT_TI_begin_file("../source/DSP2803x_DefaultIsr.c")
     993                      .dwattr $C$DW$22, DW_AT_TI_begin_line(0x256)
     994                      .dwattr $C$DW$22, DW_AT_TI_begin_column(0x10)
     995                      .dwattr $C$DW$22, DW_AT_TI_interrupt
     996                      .dwattr $C$DW$22, DW_AT_TI_max_frame_size(-2)
     997                      .dwpsn  file "../source/DSP2803x_DefaultIsr.c",line 599,column 1,is_stmt,address _SPIRXINTA_ISR,isa 0
     998              
     999                      .dwfde $C$DW$CIE, _SPIRXINTA_ISR
    1000              
    1001              ;***************************************************************
    1002              ;* FNAME: _SPIRXINTA_ISR                FR SIZE:   0           *
    1003              ;*                                                             *
    1004              ;* FUNCTION ENVIRONMENT                                        *
    1005              ;*                                                             *
    1006              ;* FUNCTION PROPERTIES                                         *
    1007              ;*                            0 Parameter,  0 Auto,  0 SOE     *
    1008              ;***************************************************************
    1009              
    1010 00000069       _SPIRXINTA_ISR:
    1011                      .dwcfi  cfa_offset, -2
    1012                      .dwcfi  save_reg_to_mem, 26, 0
    1013 00000069 761B          ASP       ; [CPU_] 
    1014 0000006a 2942          CLRC      PAGE0,OVM             ; [CPU_] 
    1015 0000006b 5616          CLRC      AMODE                 ; [CPU_] 
    1016 0000006c 7625        ESTOP0
    1017 0000006d       $C$L22:    
    1018                      .dwpsn  file "../source/DSP2803x_DefaultIsr.c",line 608,column 3,is_stmt,isa 0
    1019 0000006d 6F00          B         $C$L22,UNC            ; [CPU_] |608| 
    1020                      ; branch occurs ; [] |608| 
    1021                      .dwattr $C$DW$22, DW_AT_TI_end_file("../source/DSP2803x_DefaultIsr.c")
    1022                      .dwattr $C$DW$22, DW_AT_TI_end_line(0x261)
    1023                      .dwattr $C$DW$22, DW_AT_TI_end_column(0x01)
    1024                      .dwendentry
    1025                      .dwendtag $C$DW$22
    1026              
    1027 0000006e               .sect   ".text:retain"
    1028                      .retain
    1029                      .retainrefs
    1030                      .global _SCITXINTA_ISR
    1031              
    1032              $C$DW$23        .dwtag  DW_TAG_subprogram
    1033                      .dwattr $C$DW$23, DW_AT_name("SCITXINTA_ISR")
    1034                      .dwattr $C$DW$23, DW_AT_low_pc(_SCITXINTA_ISR)
    1035                      .dwattr $C$DW$23, DW_AT_high_pc(0x00)
    1036                      .dwattr $C$DW$23, DW_AT_TI_symbol_name("_SCITXINTA_ISR")
    1037                      .dwattr $C$DW$23, DW_AT_external
    1038                      .dwattr $C$DW$23, DW_AT_TI_begin_file("../source/DSP2803x_DefaultIsr.c")
    1039                      .dwattr $C$DW$23, DW_AT_TI_begin_line(0x2d1)
    1040                      .dwattr $C$DW$23, DW_AT_TI_begin_column(0x10)
    1041                      .dwattr $C$DW$23, DW_AT_TI_interrupt
    1042                      .dwattr $C$DW$23, DW_AT_TI_max_frame_size(-2)
    1043                      .dwpsn  file "../source/DSP2803x_DefaultIsr.c",line 722,column 1,is_stmt,address _SCITXINTA_ISR,isa 0
    1044              
    1045                      .dwfde $C$DW$CIE, _SCITXINTA_ISR
TMS320C2000 Assembler PC v16.9.6 Tue Mar 06 18:34:36 2018

Tools Copyright (c) 1996-2017 Texas Instruments Incorporated
C:\Users\Admin\AppData\Local\Temp\{DC34D9F1-072D-4B77-A784-928B1DD31EC1} PAGE   20

    1046              
    1047              ;***************************************************************
    1048              ;* FNAME: _SCITXINTA_ISR                FR SIZE:   0           *
    1049              ;*                                                             *
    1050              ;* FUNCTION ENVIRONMENT                                        *
    1051              ;*                                                             *
    1052              ;* FUNCTION PROPERTIES                                         *
    1053              ;*                            0 Parameter,  0 Auto,  0 SOE     *
    1054              ;***************************************************************
    1055              
    1056 0000006e       _SCITXINTA_ISR:
    1057                      .dwcfi  cfa_offset, -2
    1058                      .dwcfi  save_reg_to_mem, 26, 0
    1059 0000006e 761B          ASP       ; [CPU_] 
    1060 0000006f 2942          CLRC      PAGE0,OVM             ; [CPU_] 
    1061 00000070 5616          CLRC      AMODE                 ; [CPU_] 
    1062 00000071 7625        ESTOP0
    1063 00000072       $C$L23:    
    1064                      .dwpsn  file "../source/DSP2803x_DefaultIsr.c",line 731,column 3,is_stmt,isa 0
    1065 00000072 6F00          B         $C$L23,UNC            ; [CPU_] |731| 
    1066                      ; branch occurs ; [] |731| 
    1067                      .dwattr $C$DW$23, DW_AT_TI_end_file("../source/DSP2803x_DefaultIsr.c")
    1068                      .dwattr $C$DW$23, DW_AT_TI_end_line(0x2dd)
    1069                      .dwattr $C$DW$23, DW_AT_TI_end_column(0x01)
    1070                      .dwendentry
    1071                      .dwendtag $C$DW$23
    1072              
    1073 00000073               .sect   ".text:retain"
    1074                      .retain
    1075                      .retainrefs
    1076                      .global _SCIRXINTA_ISR
    1077              
    1078              $C$DW$24        .dwtag  DW_TAG_subprogram
    1079                      .dwattr $C$DW$24, DW_AT_name("SCIRXINTA_ISR")
    1080                      .dwattr $C$DW$24, DW_AT_low_pc(_SCIRXINTA_ISR)
    1081                      .dwattr $C$DW$24, DW_AT_high_pc(0x00)
    1082                      .dwattr $C$DW$24, DW_AT_TI_symbol_name("_SCIRXINTA_ISR")
    1083                      .dwattr $C$DW$24, DW_AT_external
    1084                      .dwattr $C$DW$24, DW_AT_TI_begin_file("../source/DSP2803x_DefaultIsr.c")
    1085                      .dwattr $C$DW$24, DW_AT_TI_begin_line(0x2c2)
    1086                      .dwattr $C$DW$24, DW_AT_TI_begin_column(0x10)
    1087                      .dwattr $C$DW$24, DW_AT_TI_interrupt
    1088                      .dwattr $C$DW$24, DW_AT_TI_max_frame_size(-2)
    1089                      .dwpsn  file "../source/DSP2803x_DefaultIsr.c",line 707,column 1,is_stmt,address _SCIRXINTA_ISR,isa 0
    1090              
    1091                      .dwfde $C$DW$CIE, _SCIRXINTA_ISR
    1092              
    1093              ;***************************************************************
    1094              ;* FNAME: _SCIRXINTA_ISR                FR SIZE:   0           *
    1095              ;*                                                             *
    1096              ;* FUNCTION ENVIRONMENT                                        *
    1097              ;*                                                             *
    1098              ;* FUNCTION PROPERTIES                                         *
    1099              ;*                            0 Parameter,  0 Auto,  0 SOE     *
    1100              ;***************************************************************
TMS320C2000 Assembler PC v16.9.6 Tue Mar 06 18:34:36 2018

Tools Copyright (c) 1996-2017 Texas Instruments Incorporated
C:\Users\Admin\AppData\Local\Temp\{DC34D9F1-072D-4B77-A784-928B1DD31EC1} PAGE   21

    1101              
    1102 00000073       _SCIRXINTA_ISR:
    1103                      .dwcfi  cfa_offset, -2
    1104                      .dwcfi  save_reg_to_mem, 26, 0
    1105 00000073 761B          ASP       ; [CPU_] 
    1106 00000074 2942          CLRC      PAGE0,OVM             ; [CPU_] 
    1107 00000075 5616          CLRC      AMODE                 ; [CPU_] 
    1108 00000076 7625        ESTOP0
    1109 00000077       $C$L24:    
    1110                      .dwpsn  file "../source/DSP2803x_DefaultIsr.c",line 716,column 3,is_stmt,isa 0
    1111 00000077 6F00          B         $C$L24,UNC            ; [CPU_] |716| 
    1112                      ; branch occurs ; [] |716| 
    1113                      .dwattr $C$DW$24, DW_AT_TI_end_file("../source/DSP2803x_DefaultIsr.c")
    1114                      .dwattr $C$DW$24, DW_AT_TI_end_line(0x2ce)
    1115                      .dwattr $C$DW$24, DW_AT_TI_end_column(0x01)
    1116                      .dwendentry
    1117                      .dwendtag $C$DW$24
    1118              
    1119 00000078               .sect   ".text:retain"
    1120                      .retain
    1121                      .retainrefs
    1122                      .global _RTOSINT_ISR
    1123              
    1124              $C$DW$25        .dwtag  DW_TAG_subprogram
    1125                      .dwattr $C$DW$25, DW_AT_name("RTOSINT_ISR")
    1126                      .dwattr $C$DW$25, DW_AT_low_pc(_RTOSINT_ISR)
    1127                      .dwattr $C$DW$25, DW_AT_high_pc(0x00)
    1128                      .dwattr $C$DW$25, DW_AT_TI_symbol_name("_RTOSINT_ISR")
    1129                      .dwattr $C$DW$25, DW_AT_external
    1130                      .dwattr $C$DW$25, DW_AT_TI_begin_file("../source/DSP2803x_DefaultIsr.c")
    1131                      .dwattr $C$DW$25, DW_AT_TI_begin_line(0x3b)
    1132                      .dwattr $C$DW$25, DW_AT_TI_begin_column(0x10)
    1133                      .dwattr $C$DW$25, DW_AT_TI_interrupt
    1134                      .dwattr $C$DW$25, DW_AT_TI_max_frame_size(-2)
    1135                      .dwpsn  file "../source/DSP2803x_DefaultIsr.c",line 60,column 1,is_stmt,address _RTOSINT_ISR,isa 0
    1136              
    1137                      .dwfde $C$DW$CIE, _RTOSINT_ISR
    1138              
    1139              ;***************************************************************
    1140              ;* FNAME: _RTOSINT_ISR                  FR SIZE:   0           *
    1141              ;*                                                             *
    1142              ;* FUNCTION ENVIRONMENT                                        *
    1143              ;*                                                             *
    1144              ;* FUNCTION PROPERTIES                                         *
    1145              ;*                            0 Parameter,  0 Auto,  0 SOE     *
    1146              ;***************************************************************
    1147              
    1148 00000078       _RTOSINT_ISR:
    1149                      .dwcfi  cfa_offset, -2
    1150                      .dwcfi  save_reg_to_mem, 26, 0
    1151 00000078 761B          ASP       ; [CPU_] 
    1152 00000079 2942          CLRC      PAGE0,OVM             ; [CPU_] 
    1153 0000007a 5616          CLRC      AMODE                 ; [CPU_] 
    1154 0000007b 7625        ESTOP0
    1155 0000007c       $C$L25:    
TMS320C2000 Assembler PC v16.9.6 Tue Mar 06 18:34:36 2018

Tools Copyright (c) 1996-2017 Texas Instruments Incorporated
C:\Users\Admin\AppData\Local\Temp\{DC34D9F1-072D-4B77-A784-928B1DD31EC1} PAGE   22

    1156                      .dwpsn  file "../source/DSP2803x_DefaultIsr.c",line 66,column 3,is_stmt,isa 0
    1157 0000007c 6F00          B         $C$L25,UNC            ; [CPU_] |66| 
    1158                      ; branch occurs ; [] |66| 
    1159                      .dwattr $C$DW$25, DW_AT_TI_end_file("../source/DSP2803x_DefaultIsr.c")
    1160                      .dwattr $C$DW$25, DW_AT_TI_end_line(0x43)
    1161                      .dwattr $C$DW$25, DW_AT_TI_end_column(0x01)
    1162                      .dwendentry
    1163                      .dwendtag $C$DW$25
    1164              
    1165 0000007d               .sect   ".text:retain"
    1166                      .retain
    1167                      .retainrefs
    1168                      .global _PIE_RESERVED
    1169              
    1170              $C$DW$26        .dwtag  DW_TAG_subprogram
    1171                      .dwattr $C$DW$26, DW_AT_name("PIE_RESERVED")
    1172                      .dwattr $C$DW$26, DW_AT_low_pc(_PIE_RESERVED)
    1173                      .dwattr $C$DW$26, DW_AT_high_pc(0x00)
    1174                      .dwattr $C$DW$26, DW_AT_TI_symbol_name("_PIE_RESERVED")
    1175                      .dwattr $C$DW$26, DW_AT_external
    1176                      .dwattr $C$DW$26, DW_AT_TI_begin_file("../source/DSP2803x_DefaultIsr.c")
    1177                      .dwattr $C$DW$26, DW_AT_TI_begin_line(0x432)
    1178                      .dwattr $C$DW$26, DW_AT_TI_begin_column(0x10)
    1179                      .dwattr $C$DW$26, DW_AT_TI_interrupt
    1180                      .dwattr $C$DW$26, DW_AT_TI_max_frame_size(-2)
    1181                      .dwpsn  file "../source/DSP2803x_DefaultIsr.c",line 1075,column 1,is_stmt,address _PIE_RESERVED,isa 0
    1182              
    1183                      .dwfde $C$DW$CIE, _PIE_RESERVED
    1184              
    1185              ;***************************************************************
    1186              ;* FNAME: _PIE_RESERVED                 FR SIZE:   0           *
    1187              ;*                                                             *
    1188              ;* FUNCTION ENVIRONMENT                                        *
    1189              ;*                                                             *
    1190              ;* FUNCTION PROPERTIES                                         *
    1191              ;*                            0 Parameter,  0 Auto,  0 SOE     *
    1192              ;***************************************************************
    1193              
    1194 0000007d       _PIE_RESERVED:
    1195                      .dwcfi  cfa_offset, -2
    1196                      .dwcfi  save_reg_to_mem, 26, 0
    1197 0000007d 761B          ASP       ; [CPU_] 
    1198 0000007e 2942          CLRC      PAGE0,OVM             ; [CPU_] 
    1199 0000007f 5616          CLRC      AMODE                 ; [CPU_] 
    1200 00000080 7625        ESTOP0
    1201 00000081       $C$L26:    
    1202                      .dwpsn  file "../source/DSP2803x_DefaultIsr.c",line 1077,column 3,is_stmt,isa 0
    1203 00000081 6F00          B         $C$L26,UNC            ; [CPU_] |1077| 
    1204                      ; branch occurs ; [] |1077| 
    1205                      .dwattr $C$DW$26, DW_AT_TI_end_file("../source/DSP2803x_DefaultIsr.c")
    1206                      .dwattr $C$DW$26, DW_AT_TI_end_line(0x436)
    1207                      .dwattr $C$DW$26, DW_AT_TI_end_column(0x01)
    1208                      .dwendentry
    1209                      .dwendtag $C$DW$26
    1210              
TMS320C2000 Assembler PC v16.9.6 Tue Mar 06 18:34:36 2018

Tools Copyright (c) 1996-2017 Texas Instruments Incorporated
C:\Users\Admin\AppData\Local\Temp\{DC34D9F1-072D-4B77-A784-928B1DD31EC1} PAGE   23

    1211 00000082               .sect   ".text:retain"
    1212                      .retain
    1213                      .retainrefs
    1214                      .global _NMI_ISR
    1215              
    1216              $C$DW$27        .dwtag  DW_TAG_subprogram
    1217                      .dwattr $C$DW$27, DW_AT_name("NMI_ISR")
    1218                      .dwattr $C$DW$27, DW_AT_low_pc(_NMI_ISR)
    1219                      .dwattr $C$DW$27, DW_AT_high_pc(0x00)
    1220                      .dwattr $C$DW$27, DW_AT_TI_symbol_name("_NMI_ISR")
    1221                      .dwattr $C$DW$27, DW_AT_external
    1222                      .dwattr $C$DW$27, DW_AT_TI_begin_file("../source/DSP2803x_DefaultIsr.c")
    1223                      .dwattr $C$DW$27, DW_AT_TI_begin_line(0x4f)
    1224                      .dwattr $C$DW$27, DW_AT_TI_begin_column(0x10)
    1225                      .dwattr $C$DW$27, DW_AT_TI_interrupt
    1226                      .dwattr $C$DW$27, DW_AT_TI_max_frame_size(-2)
    1227                      .dwpsn  file "../source/DSP2803x_DefaultIsr.c",line 80,column 1,is_stmt,address _NMI_ISR,isa 0
    1228              
    1229                      .dwfde $C$DW$CIE, _NMI_ISR
    1230              
    1231              ;***************************************************************
    1232              ;* FNAME: _NMI_ISR                      FR SIZE:   0           *
    1233              ;*                                                             *
    1234              ;* FUNCTION ENVIRONMENT                                        *
    1235              ;*                                                             *
    1236              ;* FUNCTION PROPERTIES                                         *
    1237              ;*                            0 Parameter,  0 Auto,  0 SOE     *
    1238              ;***************************************************************
    1239              
    1240 00000082       _NMI_ISR:
    1241                      .dwcfi  cfa_offset, -2
    1242                      .dwcfi  save_reg_to_mem, 26, 0
    1243 00000082 761B          ASP       ; [CPU_] 
    1244 00000083 2942          CLRC      PAGE0,OVM             ; [CPU_] 
    1245 00000084 5616          CLRC      AMODE                 ; [CPU_] 
    1246 00000085 7625        ESTOP0
    1247 00000086       $C$L27:    
    1248                      .dwpsn  file "../source/DSP2803x_DefaultIsr.c",line 86,column 3,is_stmt,isa 0
    1249 00000086 6F00          B         $C$L27,UNC            ; [CPU_] |86| 
    1250                      ; branch occurs ; [] |86| 
    1251                      .dwattr $C$DW$27, DW_AT_TI_end_file("../source/DSP2803x_DefaultIsr.c")
    1252                      .dwattr $C$DW$27, DW_AT_TI_end_line(0x57)
    1253                      .dwattr $C$DW$27, DW_AT_TI_end_column(0x01)
    1254                      .dwendentry
    1255                      .dwendtag $C$DW$27
    1256              
    1257 00000087               .sect   ".text:retain"
    1258                      .retain
    1259                      .retainrefs
    1260                      .global _LVF_ISR
    1261              
    1262              $C$DW$28        .dwtag  DW_TAG_subprogram
    1263                      .dwattr $C$DW$28, DW_AT_name("LVF_ISR")
    1264                      .dwattr $C$DW$28, DW_AT_low_pc(_LVF_ISR)
    1265                      .dwattr $C$DW$28, DW_AT_high_pc(0x00)
TMS320C2000 Assembler PC v16.9.6 Tue Mar 06 18:34:36 2018

Tools Copyright (c) 1996-2017 Texas Instruments Incorporated
C:\Users\Admin\AppData\Local\Temp\{DC34D9F1-072D-4B77-A784-928B1DD31EC1} PAGE   24

    1266                      .dwattr $C$DW$28, DW_AT_TI_symbol_name("_LVF_ISR")
    1267                      .dwattr $C$DW$28, DW_AT_external
    1268                      .dwattr $C$DW$28, DW_AT_TI_begin_file("../source/DSP2803x_DefaultIsr.c")
    1269                      .dwattr $C$DW$28, DW_AT_TI_begin_line(0x40c)
    1270                      .dwattr $C$DW$28, DW_AT_TI_begin_column(0x10)
    1271                      .dwattr $C$DW$28, DW_AT_TI_interrupt
    1272                      .dwattr $C$DW$28, DW_AT_TI_max_frame_size(-2)
    1273                      .dwpsn  file "../source/DSP2803x_DefaultIsr.c",line 1037,column 1,is_stmt,address _LVF_ISR,isa 0
    1274              
    1275                      .dwfde $C$DW$CIE, _LVF_ISR
    1276              
    1277              ;***************************************************************
    1278              ;* FNAME: _LVF_ISR                      FR SIZE:   0           *
    1279              ;*                                                             *
    1280              ;* FUNCTION ENVIRONMENT                                        *
    1281              ;*                                                             *
    1282              ;* FUNCTION PROPERTIES                                         *
    1283              ;*                            0 Parameter,  0 Auto,  0 SOE     *
    1284              ;***************************************************************
    1285              
    1286 00000087       _LVF_ISR:
    1287                      .dwcfi  cfa_offset, -2
    1288                      .dwcfi  save_reg_to_mem, 26, 0
    1289 00000087 761B          ASP       ; [CPU_] 
    1290 00000088 2942          CLRC      PAGE0,OVM             ; [CPU_] 
    1291 00000089 5616          CLRC      AMODE                 ; [CPU_] 
    1292 0000008a 7625        ESTOP0
    1293 0000008b       $C$L28:    
    1294                      .dwpsn  file "../source/DSP2803x_DefaultIsr.c",line 1046,column 3,is_stmt,isa 0
    1295 0000008b 6F00          B         $C$L28,UNC            ; [CPU_] |1046| 
    1296                      ; branch occurs ; [] |1046| 
    1297                      .dwattr $C$DW$28, DW_AT_TI_end_file("../source/DSP2803x_DefaultIsr.c")
    1298                      .dwattr $C$DW$28, DW_AT_TI_end_line(0x418)
    1299                      .dwattr $C$DW$28, DW_AT_TI_end_column(0x01)
    1300                      .dwendentry
    1301                      .dwendtag $C$DW$28
    1302              
    1303 0000008c               .sect   ".text:retain"
    1304                      .retain
    1305                      .retainrefs
    1306                      .global _LUF_ISR
    1307              
    1308              $C$DW$29        .dwtag  DW_TAG_subprogram
    1309                      .dwattr $C$DW$29, DW_AT_name("LUF_ISR")
    1310                      .dwattr $C$DW$29, DW_AT_low_pc(_LUF_ISR)
    1311                      .dwattr $C$DW$29, DW_AT_high_pc(0x00)
    1312                      .dwattr $C$DW$29, DW_AT_TI_symbol_name("_LUF_ISR")
    1313                      .dwattr $C$DW$29, DW_AT_external
    1314                      .dwattr $C$DW$29, DW_AT_TI_begin_file("../source/DSP2803x_DefaultIsr.c")
    1315                      .dwattr $C$DW$29, DW_AT_TI_begin_line(0x41b)
    1316                      .dwattr $C$DW$29, DW_AT_TI_begin_column(0x10)
    1317                      .dwattr $C$DW$29, DW_AT_TI_interrupt
    1318                      .dwattr $C$DW$29, DW_AT_TI_max_frame_size(-2)
    1319                      .dwpsn  file "../source/DSP2803x_DefaultIsr.c",line 1052,column 1,is_stmt,address _LUF_ISR,isa 0
    1320              
TMS320C2000 Assembler PC v16.9.6 Tue Mar 06 18:34:36 2018

Tools Copyright (c) 1996-2017 Texas Instruments Incorporated
C:\Users\Admin\AppData\Local\Temp\{DC34D9F1-072D-4B77-A784-928B1DD31EC1} PAGE   25

    1321                      .dwfde $C$DW$CIE, _LUF_ISR
    1322              
    1323              ;***************************************************************
    1324              ;* FNAME: _LUF_ISR                      FR SIZE:   0           *
    1325              ;*                                                             *
    1326              ;* FUNCTION ENVIRONMENT                                        *
    1327              ;*                                                             *
    1328              ;* FUNCTION PROPERTIES                                         *
    1329              ;*                            0 Parameter,  0 Auto,  0 SOE     *
    1330              ;***************************************************************
    1331              
    1332 0000008c       _LUF_ISR:
    1333                      .dwcfi  cfa_offset, -2
    1334                      .dwcfi  save_reg_to_mem, 26, 0
    1335 0000008c 761B          ASP       ; [CPU_] 
    1336 0000008d 2942          CLRC      PAGE0,OVM             ; [CPU_] 
    1337 0000008e 5616          CLRC      AMODE                 ; [CPU_] 
    1338 0000008f 7625        ESTOP0
    1339 00000090       $C$L29:    
    1340                      .dwpsn  file "../source/DSP2803x_DefaultIsr.c",line 1061,column 3,is_stmt,isa 0
    1341 00000090 6F00          B         $C$L29,UNC            ; [CPU_] |1061| 
    1342                      ; branch occurs ; [] |1061| 
    1343                      .dwattr $C$DW$29, DW_AT_TI_end_file("../source/DSP2803x_DefaultIsr.c")
    1344                      .dwattr $C$DW$29, DW_AT_TI_end_line(0x427)
    1345                      .dwattr $C$DW$29, DW_AT_TI_end_column(0x01)
    1346                      .dwendentry
    1347                      .dwendtag $C$DW$29
    1348              
    1349 00000091               .sect   ".text:retain"
    1350                      .retain
    1351                      .retainrefs
    1352                      .global _LIN1INTA_ISR
    1353              
    1354              $C$DW$30        .dwtag  DW_TAG_subprogram
    1355                      .dwattr $C$DW$30, DW_AT_name("LIN1INTA_ISR")
    1356                      .dwattr $C$DW$30, DW_AT_low_pc(_LIN1INTA_ISR)
    1357                      .dwattr $C$DW$30, DW_AT_high_pc(0x00)
    1358                      .dwattr $C$DW$30, DW_AT_TI_symbol_name("_LIN1INTA_ISR")
    1359                      .dwattr $C$DW$30, DW_AT_external
    1360                      .dwattr $C$DW$30, DW_AT_TI_begin_file("../source/DSP2803x_DefaultIsr.c")
    1361                      .dwattr $C$DW$30, DW_AT_TI_begin_line(0x2ef)
    1362                      .dwattr $C$DW$30, DW_AT_TI_begin_column(0x10)
    1363                      .dwattr $C$DW$30, DW_AT_TI_interrupt
    1364                      .dwattr $C$DW$30, DW_AT_TI_max_frame_size(-2)
    1365                      .dwpsn  file "../source/DSP2803x_DefaultIsr.c",line 752,column 1,is_stmt,address _LIN1INTA_ISR,isa 0
    1366              
    1367                      .dwfde $C$DW$CIE, _LIN1INTA_ISR
    1368              
    1369              ;***************************************************************
    1370              ;* FNAME: _LIN1INTA_ISR                 FR SIZE:   0           *
    1371              ;*                                                             *
    1372              ;* FUNCTION ENVIRONMENT                                        *
    1373              ;*                                                             *
    1374              ;* FUNCTION PROPERTIES                                         *
    1375              ;*                            0 Parameter,  0 Auto,  0 SOE     *
TMS320C2000 Assembler PC v16.9.6 Tue Mar 06 18:34:36 2018

Tools Copyright (c) 1996-2017 Texas Instruments Incorporated
C:\Users\Admin\AppData\Local\Temp\{DC34D9F1-072D-4B77-A784-928B1DD31EC1} PAGE   26

    1376              ;***************************************************************
    1377              
    1378 00000091       _LIN1INTA_ISR:
    1379                      .dwcfi  cfa_offset, -2
    1380                      .dwcfi  save_reg_to_mem, 26, 0
    1381 00000091 761B          ASP       ; [CPU_] 
    1382 00000092 2942          CLRC      PAGE0,OVM             ; [CPU_] 
    1383 00000093 5616          CLRC      AMODE                 ; [CPU_] 
    1384 00000094 7625        ESTOP0
    1385 00000095       $C$L30:    
    1386                      .dwpsn  file "../source/DSP2803x_DefaultIsr.c",line 761,column 3,is_stmt,isa 0
    1387 00000095 6F00          B         $C$L30,UNC            ; [CPU_] |761| 
    1388                      ; branch occurs ; [] |761| 
    1389                      .dwattr $C$DW$30, DW_AT_TI_end_file("../source/DSP2803x_DefaultIsr.c")
    1390                      .dwattr $C$DW$30, DW_AT_TI_end_line(0x2fb)
    1391                      .dwattr $C$DW$30, DW_AT_TI_end_column(0x01)
    1392                      .dwendentry
    1393                      .dwendtag $C$DW$30
    1394              
    1395 00000096               .sect   ".text:retain"
    1396                      .retain
    1397                      .retainrefs
    1398                      .global _LIN0INTA_ISR
    1399              
    1400              $C$DW$31        .dwtag  DW_TAG_subprogram
    1401                      .dwattr $C$DW$31, DW_AT_name("LIN0INTA_ISR")
    1402                      .dwattr $C$DW$31, DW_AT_low_pc(_LIN0INTA_ISR)
    1403                      .dwattr $C$DW$31, DW_AT_high_pc(0x00)
    1404                      .dwattr $C$DW$31, DW_AT_TI_symbol_name("_LIN0INTA_ISR")
    1405                      .dwattr $C$DW$31, DW_AT_external
    1406                      .dwattr $C$DW$31, DW_AT_TI_begin_file("../source/DSP2803x_DefaultIsr.c")
    1407                      .dwattr $C$DW$31, DW_AT_TI_begin_line(0x2e0)
    1408                      .dwattr $C$DW$31, DW_AT_TI_begin_column(0x10)
    1409                      .dwattr $C$DW$31, DW_AT_TI_interrupt
    1410                      .dwattr $C$DW$31, DW_AT_TI_max_frame_size(-2)
    1411                      .dwpsn  file "../source/DSP2803x_DefaultIsr.c",line 737,column 1,is_stmt,address _LIN0INTA_ISR,isa 0
    1412              
    1413                      .dwfde $C$DW$CIE, _LIN0INTA_ISR
    1414              
    1415              ;***************************************************************
    1416              ;* FNAME: _LIN0INTA_ISR                 FR SIZE:   0           *
    1417              ;*                                                             *
    1418              ;* FUNCTION ENVIRONMENT                                        *
    1419              ;*                                                             *
    1420              ;* FUNCTION PROPERTIES                                         *
    1421              ;*                            0 Parameter,  0 Auto,  0 SOE     *
    1422              ;***************************************************************
    1423              
    1424 00000096       _LIN0INTA_ISR:
    1425                      .dwcfi  cfa_offset, -2
    1426                      .dwcfi  save_reg_to_mem, 26, 0
    1427 00000096 761B          ASP       ; [CPU_] 
    1428 00000097 2942          CLRC      PAGE0,OVM             ; [CPU_] 
    1429 00000098 5616          CLRC      AMODE                 ; [CPU_] 
    1430 00000099 7625        ESTOP0
TMS320C2000 Assembler PC v16.9.6 Tue Mar 06 18:34:36 2018

Tools Copyright (c) 1996-2017 Texas Instruments Incorporated
C:\Users\Admin\AppData\Local\Temp\{DC34D9F1-072D-4B77-A784-928B1DD31EC1} PAGE   27

    1431 0000009a       $C$L31:    
    1432                      .dwpsn  file "../source/DSP2803x_DefaultIsr.c",line 746,column 3,is_stmt,isa 0
    1433 0000009a 6F00          B         $C$L31,UNC            ; [CPU_] |746| 
    1434                      ; branch occurs ; [] |746| 
    1435                      .dwattr $C$DW$31, DW_AT_TI_end_file("../source/DSP2803x_DefaultIsr.c")
    1436                      .dwattr $C$DW$31, DW_AT_TI_end_line(0x2ec)
    1437                      .dwattr $C$DW$31, DW_AT_TI_end_column(0x01)
    1438                      .dwendentry
    1439                      .dwendtag $C$DW$31
    1440              
    1441 0000009b               .sect   ".text:retain"
    1442                      .retain
    1443                      .retainrefs
    1444                      .global _INT14_ISR
    1445              
    1446              $C$DW$32        .dwtag  DW_TAG_subprogram
    1447                      .dwattr $C$DW$32, DW_AT_name("INT14_ISR")
    1448                      .dwattr $C$DW$32, DW_AT_low_pc(_INT14_ISR)
    1449                      .dwattr $C$DW$32, DW_AT_high_pc(0x00)
    1450                      .dwattr $C$DW$32, DW_AT_TI_symbol_name("_INT14_ISR")
    1451                      .dwattr $C$DW$32, DW_AT_external
    1452                      .dwattr $C$DW$32, DW_AT_TI_begin_file("../source/DSP2803x_DefaultIsr.c")
    1453                      .dwattr $C$DW$32, DW_AT_TI_begin_line(0x27)
    1454                      .dwattr $C$DW$32, DW_AT_TI_begin_column(0x10)
    1455                      .dwattr $C$DW$32, DW_AT_TI_interrupt
    1456                      .dwattr $C$DW$32, DW_AT_TI_max_frame_size(-2)
    1457                      .dwpsn  file "../source/DSP2803x_DefaultIsr.c",line 40,column 1,is_stmt,address _INT14_ISR,isa 0
    1458              
    1459                      .dwfde $C$DW$CIE, _INT14_ISR
    1460              
    1461              ;***************************************************************
    1462              ;* FNAME: _INT14_ISR                    FR SIZE:   0           *
    1463              ;*                                                             *
    1464              ;* FUNCTION ENVIRONMENT                                        *
    1465              ;*                                                             *
    1466              ;* FUNCTION PROPERTIES                                         *
    1467              ;*                            0 Parameter,  0 Auto,  0 SOE     *
    1468              ;***************************************************************
    1469              
    1470 0000009b       _INT14_ISR:
    1471                      .dwcfi  cfa_offset, -2
    1472                      .dwcfi  save_reg_to_mem, 26, 0
    1473 0000009b 761B          ASP       ; [CPU_] 
    1474 0000009c 2942          CLRC      PAGE0,OVM             ; [CPU_] 
    1475 0000009d 5616          CLRC      AMODE                 ; [CPU_] 
    1476 0000009e 7625        ESTOP0
    1477 0000009f       $C$L32:    
    1478                      .dwpsn  file "../source/DSP2803x_DefaultIsr.c",line 46,column 3,is_stmt,isa 0
    1479 0000009f 6F00          B         $C$L32,UNC            ; [CPU_] |46| 
    1480                      ; branch occurs ; [] |46| 
    1481                      .dwattr $C$DW$32, DW_AT_TI_end_file("../source/DSP2803x_DefaultIsr.c")
    1482                      .dwattr $C$DW$32, DW_AT_TI_end_line(0x2f)
    1483                      .dwattr $C$DW$32, DW_AT_TI_end_column(0x01)
    1484                      .dwendentry
    1485                      .dwendtag $C$DW$32
TMS320C2000 Assembler PC v16.9.6 Tue Mar 06 18:34:36 2018

Tools Copyright (c) 1996-2017 Texas Instruments Incorporated
C:\Users\Admin\AppData\Local\Temp\{DC34D9F1-072D-4B77-A784-928B1DD31EC1} PAGE   28

    1486              
    1487 000000a0               .sect   ".text:retain"
    1488                      .retain
    1489                      .retainrefs
    1490                      .global _INT13_ISR
    1491              
    1492              $C$DW$33        .dwtag  DW_TAG_subprogram
    1493                      .dwattr $C$DW$33, DW_AT_name("INT13_ISR")
    1494                      .dwattr $C$DW$33, DW_AT_low_pc(_INT13_ISR)
    1495                      .dwattr $C$DW$33, DW_AT_high_pc(0x00)
    1496                      .dwattr $C$DW$33, DW_AT_TI_symbol_name("_INT13_ISR")
    1497                      .dwattr $C$DW$33, DW_AT_external
    1498                      .dwattr $C$DW$33, DW_AT_TI_begin_file("../source/DSP2803x_DefaultIsr.c")
    1499                      .dwattr $C$DW$33, DW_AT_TI_begin_line(0x1d)
    1500                      .dwattr $C$DW$33, DW_AT_TI_begin_column(0x10)
    1501                      .dwattr $C$DW$33, DW_AT_TI_interrupt
    1502                      .dwattr $C$DW$33, DW_AT_TI_max_frame_size(-2)
    1503                      .dwpsn  file "../source/DSP2803x_DefaultIsr.c",line 30,column 1,is_stmt,address _INT13_ISR,isa 0
    1504              
    1505                      .dwfde $C$DW$CIE, _INT13_ISR
    1506              
    1507              ;***************************************************************
    1508              ;* FNAME: _INT13_ISR                    FR SIZE:   0           *
    1509              ;*                                                             *
    1510              ;* FUNCTION ENVIRONMENT                                        *
    1511              ;*                                                             *
    1512              ;* FUNCTION PROPERTIES                                         *
    1513              ;*                            0 Parameter,  0 Auto,  0 SOE     *
    1514              ;***************************************************************
    1515              
    1516 000000a0       _INT13_ISR:
    1517                      .dwcfi  cfa_offset, -2
    1518                      .dwcfi  save_reg_to_mem, 26, 0
    1519 000000a0 761B          ASP       ; [CPU_] 
    1520 000000a1 2942          CLRC      PAGE0,OVM             ; [CPU_] 
    1521 000000a2 5616          CLRC      AMODE                 ; [CPU_] 
    1522 000000a3 7625        ESTOP0
    1523 000000a4       $C$L33:    
    1524                      .dwpsn  file "../source/DSP2803x_DefaultIsr.c",line 36,column 3,is_stmt,isa 0
    1525 000000a4 6F00          B         $C$L33,UNC            ; [CPU_] |36| 
    1526                      ; branch occurs ; [] |36| 
    1527                      .dwattr $C$DW$33, DW_AT_TI_end_file("../source/DSP2803x_DefaultIsr.c")
    1528                      .dwattr $C$DW$33, DW_AT_TI_end_line(0x25)
    1529                      .dwattr $C$DW$33, DW_AT_TI_end_column(0x01)
    1530                      .dwendentry
    1531                      .dwendtag $C$DW$33
    1532              
    1533 000000a5               .sect   ".text:retain"
    1534                      .retain
    1535                      .retainrefs
    1536                      .global _ILLEGAL_ISR
    1537              
    1538              $C$DW$34        .dwtag  DW_TAG_subprogram
    1539                      .dwattr $C$DW$34, DW_AT_name("ILLEGAL_ISR")
    1540                      .dwattr $C$DW$34, DW_AT_low_pc(_ILLEGAL_ISR)
TMS320C2000 Assembler PC v16.9.6 Tue Mar 06 18:34:36 2018

Tools Copyright (c) 1996-2017 Texas Instruments Incorporated
C:\Users\Admin\AppData\Local\Temp\{DC34D9F1-072D-4B77-A784-928B1DD31EC1} PAGE   29

    1541                      .dwattr $C$DW$34, DW_AT_high_pc(0x00)
    1542                      .dwattr $C$DW$34, DW_AT_TI_symbol_name("_ILLEGAL_ISR")
    1543                      .dwattr $C$DW$34, DW_AT_external
    1544                      .dwattr $C$DW$34, DW_AT_TI_begin_file("../source/DSP2803x_DefaultIsr.c")
    1545                      .dwattr $C$DW$34, DW_AT_TI_begin_line(0x59)
    1546                      .dwattr $C$DW$34, DW_AT_TI_begin_column(0x10)
    1547                      .dwattr $C$DW$34, DW_AT_TI_interrupt
    1548                      .dwattr $C$DW$34, DW_AT_TI_max_frame_size(-2)
    1549                      .dwpsn  file "../source/DSP2803x_DefaultIsr.c",line 90,column 1,is_stmt,address _ILLEGAL_ISR,isa 0
    1550              
    1551                      .dwfde $C$DW$CIE, _ILLEGAL_ISR
    1552              
    1553              ;***************************************************************
    1554              ;* FNAME: _ILLEGAL_ISR                  FR SIZE:   0           *
    1555              ;*                                                             *
    1556              ;* FUNCTION ENVIRONMENT                                        *
    1557              ;*                                                             *
    1558              ;* FUNCTION PROPERTIES                                         *
    1559              ;*                            0 Parameter,  0 Auto,  0 SOE     *
    1560              ;***************************************************************
    1561              
    1562 000000a5       _ILLEGAL_ISR:
    1563                      .dwcfi  cfa_offset, -2
    1564                      .dwcfi  save_reg_to_mem, 26, 0
    1565 000000a5 761B          ASP       ; [CPU_] 
    1566 000000a6 2942          CLRC      PAGE0,OVM             ; [CPU_] 
    1567 000000a7 5616          CLRC      AMODE                 ; [CPU_] 
    1568 000000a8 7625            ESTOP0
    1569 000000a9       $C$L34:    
    1570                      .dwpsn  file "../source/DSP2803x_DefaultIsr.c",line 96,column 3,is_stmt,isa 0
    1571 000000a9 6F00          B         $C$L34,UNC            ; [CPU_] |96| 
    1572                      ; branch occurs ; [] |96| 
    1573                      .dwattr $C$DW$34, DW_AT_TI_end_file("../source/DSP2803x_DefaultIsr.c")
    1574                      .dwattr $C$DW$34, DW_AT_TI_end_line(0x62)
    1575                      .dwattr $C$DW$34, DW_AT_TI_end_column(0x01)
    1576                      .dwendentry
    1577                      .dwendtag $C$DW$34
    1578              
    1579 000000aa               .sect   ".text:retain"
    1580                      .retain
    1581                      .retainrefs
    1582                      .global _I2CINT2A_ISR
    1583              
    1584              $C$DW$35        .dwtag  DW_TAG_subprogram
    1585                      .dwattr $C$DW$35, DW_AT_name("I2CINT2A_ISR")
    1586                      .dwattr $C$DW$35, DW_AT_low_pc(_I2CINT2A_ISR)
    1587                      .dwattr $C$DW$35, DW_AT_high_pc(0x00)
    1588                      .dwattr $C$DW$35, DW_AT_TI_symbol_name("_I2CINT2A_ISR")
    1589                      .dwattr $C$DW$35, DW_AT_external
    1590                      .dwattr $C$DW$35, DW_AT_TI_begin_file("../source/DSP2803x_DefaultIsr.c")
    1591                      .dwattr $C$DW$35, DW_AT_TI_begin_line(0x2a9)
    1592                      .dwattr $C$DW$35, DW_AT_TI_begin_column(0x10)
    1593                      .dwattr $C$DW$35, DW_AT_TI_interrupt
    1594                      .dwattr $C$DW$35, DW_AT_TI_max_frame_size(-2)
    1595                      .dwpsn  file "../source/DSP2803x_DefaultIsr.c",line 682,column 1,is_stmt,address _I2CINT2A_ISR,isa 0
TMS320C2000 Assembler PC v16.9.6 Tue Mar 06 18:34:36 2018

Tools Copyright (c) 1996-2017 Texas Instruments Incorporated
C:\Users\Admin\AppData\Local\Temp\{DC34D9F1-072D-4B77-A784-928B1DD31EC1} PAGE   30

    1596              
    1597                      .dwfde $C$DW$CIE, _I2CINT2A_ISR
    1598              
    1599              ;***************************************************************
    1600              ;* FNAME: _I2CINT2A_ISR                 FR SIZE:   0           *
    1601              ;*                                                             *
    1602              ;* FUNCTION ENVIRONMENT                                        *
    1603              ;*                                                             *
    1604              ;* FUNCTION PROPERTIES                                         *
    1605              ;*                            0 Parameter,  0 Auto,  0 SOE     *
    1606              ;***************************************************************
    1607              
    1608 000000aa       _I2CINT2A_ISR:
    1609                      .dwcfi  cfa_offset, -2
    1610                      .dwcfi  save_reg_to_mem, 26, 0
    1611 000000aa 761B          ASP       ; [CPU_] 
    1612 000000ab 2942          CLRC      PAGE0,OVM             ; [CPU_] 
    1613 000000ac 5616          CLRC      AMODE                 ; [CPU_] 
    1614 000000ad 7625        ESTOP0
    1615 000000ae       $C$L35:    
    1616                      .dwpsn  file "../source/DSP2803x_DefaultIsr.c",line 691,column 3,is_stmt,isa 0
    1617 000000ae 6F00          B         $C$L35,UNC            ; [CPU_] |691| 
    1618                      ; branch occurs ; [] |691| 
    1619                      .dwattr $C$DW$35, DW_AT_TI_end_file("../source/DSP2803x_DefaultIsr.c")
    1620                      .dwattr $C$DW$35, DW_AT_TI_end_line(0x2b4)
    1621                      .dwattr $C$DW$35, DW_AT_TI_end_column(0x01)
    1622                      .dwendentry
    1623                      .dwendtag $C$DW$35
    1624              
    1625 000000af               .sect   ".text:retain"
    1626                      .retain
    1627                      .retainrefs
    1628                      .global _I2CINT1A_ISR
    1629              
    1630              $C$DW$36        .dwtag  DW_TAG_subprogram
    1631                      .dwattr $C$DW$36, DW_AT_name("I2CINT1A_ISR")
    1632                      .dwattr $C$DW$36, DW_AT_low_pc(_I2CINT1A_ISR)
    1633                      .dwattr $C$DW$36, DW_AT_high_pc(0x00)
    1634                      .dwattr $C$DW$36, DW_AT_TI_symbol_name("_I2CINT1A_ISR")
    1635                      .dwattr $C$DW$36, DW_AT_external
    1636                      .dwattr $C$DW$36, DW_AT_TI_begin_file("../source/DSP2803x_DefaultIsr.c")
    1637                      .dwattr $C$DW$36, DW_AT_TI_begin_line(0x29b)
    1638                      .dwattr $C$DW$36, DW_AT_TI_begin_column(0x10)
    1639                      .dwattr $C$DW$36, DW_AT_TI_interrupt
    1640                      .dwattr $C$DW$36, DW_AT_TI_max_frame_size(-2)
    1641                      .dwpsn  file "../source/DSP2803x_DefaultIsr.c",line 668,column 1,is_stmt,address _I2CINT1A_ISR,isa 0
    1642              
    1643                      .dwfde $C$DW$CIE, _I2CINT1A_ISR
    1644              
    1645              ;***************************************************************
    1646              ;* FNAME: _I2CINT1A_ISR                 FR SIZE:   0           *
    1647              ;*                                                             *
    1648              ;* FUNCTION ENVIRONMENT                                        *
    1649              ;*                                                             *
    1650              ;* FUNCTION PROPERTIES                                         *
TMS320C2000 Assembler PC v16.9.6 Tue Mar 06 18:34:36 2018

Tools Copyright (c) 1996-2017 Texas Instruments Incorporated
C:\Users\Admin\AppData\Local\Temp\{DC34D9F1-072D-4B77-A784-928B1DD31EC1} PAGE   31

    1651              ;*                            0 Parameter,  0 Auto,  0 SOE     *
    1652              ;***************************************************************
    1653              
    1654 000000af       _I2CINT1A_ISR:
    1655                      .dwcfi  cfa_offset, -2
    1656                      .dwcfi  save_reg_to_mem, 26, 0
    1657 000000af 761B          ASP       ; [CPU_] 
    1658 000000b0 2942          CLRC      PAGE0,OVM             ; [CPU_] 
    1659 000000b1 5616          CLRC      AMODE                 ; [CPU_] 
    1660 000000b2 7625        ESTOP0
    1661 000000b3       $C$L36:    
    1662                      .dwpsn  file "../source/DSP2803x_DefaultIsr.c",line 677,column 3,is_stmt,isa 0
    1663 000000b3 6F00          B         $C$L36,UNC            ; [CPU_] |677| 
    1664                      ; branch occurs ; [] |677| 
    1665                      .dwattr $C$DW$36, DW_AT_TI_end_file("../source/DSP2803x_DefaultIsr.c")
    1666                      .dwattr $C$DW$36, DW_AT_TI_end_line(0x2a6)
    1667                      .dwattr $C$DW$36, DW_AT_TI_end_column(0x01)
    1668                      .dwendentry
    1669                      .dwendtag $C$DW$36
    1670              
    1671 000000b4               .sect   ".text:retain"
    1672                      .retain
    1673                      .retainrefs
    1674                      .global _EQEP1_INT_ISR
    1675              
    1676              $C$DW$37        .dwtag  DW_TAG_subprogram
    1677                      .dwattr $C$DW$37, DW_AT_name("EQEP1_INT_ISR")
    1678                      .dwattr $C$DW$37, DW_AT_low_pc(_EQEP1_INT_ISR)
    1679                      .dwattr $C$DW$37, DW_AT_high_pc(0x00)
    1680                      .dwattr $C$DW$37, DW_AT_TI_symbol_name("_EQEP1_INT_ISR")
    1681                      .dwattr $C$DW$37, DW_AT_external
    1682                      .dwattr $C$DW$37, DW_AT_TI_begin_file("../source/DSP2803x_DefaultIsr.c")
    1683                      .dwattr $C$DW$37, DW_AT_TI_begin_line(0x23c)
    1684                      .dwattr $C$DW$37, DW_AT_TI_begin_column(0x10)
    1685                      .dwattr $C$DW$37, DW_AT_TI_interrupt
    1686                      .dwattr $C$DW$37, DW_AT_TI_max_frame_size(-2)
    1687                      .dwpsn  file "../source/DSP2803x_DefaultIsr.c",line 573,column 1,is_stmt,address _EQEP1_INT_ISR,isa 0
    1688              
    1689                      .dwfde $C$DW$CIE, _EQEP1_INT_ISR
    1690              
    1691              ;***************************************************************
    1692              ;* FNAME: _EQEP1_INT_ISR                FR SIZE:   0           *
    1693              ;*                                                             *
    1694              ;* FUNCTION ENVIRONMENT                                        *
    1695              ;*                                                             *
    1696              ;* FUNCTION PROPERTIES                                         *
    1697              ;*                            0 Parameter,  0 Auto,  0 SOE     *
    1698              ;***************************************************************
    1699              
    1700 000000b4       _EQEP1_INT_ISR:
    1701                      .dwcfi  cfa_offset, -2
    1702                      .dwcfi  save_reg_to_mem, 26, 0
    1703 000000b4 761B          ASP       ; [CPU_] 
    1704 000000b5 2942          CLRC      PAGE0,OVM             ; [CPU_] 
    1705 000000b6 5616          CLRC      AMODE                 ; [CPU_] 
TMS320C2000 Assembler PC v16.9.6 Tue Mar 06 18:34:36 2018

Tools Copyright (c) 1996-2017 Texas Instruments Incorporated
C:\Users\Admin\AppData\Local\Temp\{DC34D9F1-072D-4B77-A784-928B1DD31EC1} PAGE   32

    1706 000000b7 7625        ESTOP0
    1707 000000b8       $C$L37:    
    1708                      .dwpsn  file "../source/DSP2803x_DefaultIsr.c",line 582,column 3,is_stmt,isa 0
    1709 000000b8 6F00          B         $C$L37,UNC            ; [CPU_] |582| 
    1710                      ; branch occurs ; [] |582| 
    1711                      .dwattr $C$DW$37, DW_AT_TI_end_file("../source/DSP2803x_DefaultIsr.c")
    1712                      .dwattr $C$DW$37, DW_AT_TI_end_line(0x247)
    1713                      .dwattr $C$DW$37, DW_AT_TI_end_column(0x01)
    1714                      .dwendentry
    1715                      .dwendtag $C$DW$37
    1716              
    1717 000000b9               .sect   ".text:retain"
    1718                      .retain
    1719                      .retainrefs
    1720                      .global _EPWM7_TZINT_ISR
    1721              
    1722              $C$DW$38        .dwtag  DW_TAG_subprogram
    1723                      .dwattr $C$DW$38, DW_AT_name("EPWM7_TZINT_ISR")
    1724                      .dwattr $C$DW$38, DW_AT_low_pc(_EPWM7_TZINT_ISR)
    1725                      .dwattr $C$DW$38, DW_AT_high_pc(0x00)
    1726                      .dwattr $C$DW$38, DW_AT_TI_symbol_name("_EPWM7_TZINT_ISR")
    1727                      .dwattr $C$DW$38, DW_AT_external
    1728                      .dwattr $C$DW$38, DW_AT_TI_begin_file("../source/DSP2803x_DefaultIsr.c")
    1729                      .dwattr $C$DW$38, DW_AT_TI_begin_line(0x1a6)
    1730                      .dwattr $C$DW$38, DW_AT_TI_begin_column(0x10)
    1731                      .dwattr $C$DW$38, DW_AT_TI_interrupt
    1732                      .dwattr $C$DW$38, DW_AT_TI_max_frame_size(-2)
    1733                      .dwpsn  file "../source/DSP2803x_DefaultIsr.c",line 423,column 1,is_stmt,address _EPWM7_TZINT_ISR,isa
    1734              
    1735                      .dwfde $C$DW$CIE, _EPWM7_TZINT_ISR
    1736              
    1737              ;***************************************************************
    1738              ;* FNAME: _EPWM7_TZINT_ISR              FR SIZE:   0           *
    1739              ;*                                                             *
    1740              ;* FUNCTION ENVIRONMENT                                        *
    1741              ;*                                                             *
    1742              ;* FUNCTION PROPERTIES                                         *
    1743              ;*                            0 Parameter,  0 Auto,  0 SOE     *
    1744              ;***************************************************************
    1745              
    1746 000000b9       _EPWM7_TZINT_ISR:
    1747                      .dwcfi  cfa_offset, -2
    1748                      .dwcfi  save_reg_to_mem, 26, 0
    1749 000000b9 761B          ASP       ; [CPU_] 
    1750 000000ba 2942          CLRC      PAGE0,OVM             ; [CPU_] 
    1751 000000bb 5616          CLRC      AMODE                 ; [CPU_] 
    1752 000000bc 7625        ESTOP0
    1753 000000bd       $C$L38:    
    1754                      .dwpsn  file "../source/DSP2803x_DefaultIsr.c",line 432,column 3,is_stmt,isa 0
    1755 000000bd 6F00          B         $C$L38,UNC            ; [CPU_] |432| 
    1756                      ; branch occurs ; [] |432| 
    1757                      .dwattr $C$DW$38, DW_AT_TI_end_file("../source/DSP2803x_DefaultIsr.c")
    1758                      .dwattr $C$DW$38, DW_AT_TI_end_line(0x1b1)
    1759                      .dwattr $C$DW$38, DW_AT_TI_end_column(0x01)
    1760                      .dwendentry
TMS320C2000 Assembler PC v16.9.6 Tue Mar 06 18:34:36 2018

Tools Copyright (c) 1996-2017 Texas Instruments Incorporated
C:\Users\Admin\AppData\Local\Temp\{DC34D9F1-072D-4B77-A784-928B1DD31EC1} PAGE   33

    1761                      .dwendtag $C$DW$38
    1762              
    1763 000000be               .sect   ".text:retain"
    1764                      .retain
    1765                      .retainrefs
    1766                      .global _EPWM7_INT_ISR
    1767              
    1768              $C$DW$39        .dwtag  DW_TAG_subprogram
    1769                      .dwattr $C$DW$39, DW_AT_name("EPWM7_INT_ISR")
    1770                      .dwattr $C$DW$39, DW_AT_low_pc(_EPWM7_INT_ISR)
    1771                      .dwattr $C$DW$39, DW_AT_high_pc(0x00)
    1772                      .dwattr $C$DW$39, DW_AT_TI_symbol_name("_EPWM7_INT_ISR")
    1773                      .dwattr $C$DW$39, DW_AT_external
    1774                      .dwattr $C$DW$39, DW_AT_TI_begin_file("../source/DSP2803x_DefaultIsr.c")
    1775                      .dwattr $C$DW$39, DW_AT_TI_begin_line(0x20e)
    1776                      .dwattr $C$DW$39, DW_AT_TI_begin_column(0x10)
    1777                      .dwattr $C$DW$39, DW_AT_TI_interrupt
    1778                      .dwattr $C$DW$39, DW_AT_TI_max_frame_size(-2)
    1779                      .dwpsn  file "../source/DSP2803x_DefaultIsr.c",line 527,column 1,is_stmt,address _EPWM7_INT_ISR,isa 0
    1780              
    1781                      .dwfde $C$DW$CIE, _EPWM7_INT_ISR
    1782              
    1783              ;***************************************************************
    1784              ;* FNAME: _EPWM7_INT_ISR                FR SIZE:   0           *
    1785              ;*                                                             *
    1786              ;* FUNCTION ENVIRONMENT                                        *
    1787              ;*                                                             *
    1788              ;* FUNCTION PROPERTIES                                         *
    1789              ;*                            0 Parameter,  0 Auto,  0 SOE     *
    1790              ;***************************************************************
    1791              
    1792 000000be       _EPWM7_INT_ISR:
    1793                      .dwcfi  cfa_offset, -2
    1794                      .dwcfi  save_reg_to_mem, 26, 0
    1795 000000be 761B          ASP       ; [CPU_] 
    1796 000000bf 2942          CLRC      PAGE0,OVM             ; [CPU_] 
    1797 000000c0 5616          CLRC      AMODE                 ; [CPU_] 
    1798 000000c1 7625        ESTOP0
    1799 000000c2       $C$L39:    
    1800                      .dwpsn  file "../source/DSP2803x_DefaultIsr.c",line 536,column 3,is_stmt,isa 0
    1801 000000c2 6F00          B         $C$L39,UNC            ; [CPU_] |536| 
    1802                      ; branch occurs ; [] |536| 
    1803                      .dwattr $C$DW$39, DW_AT_TI_end_file("../source/DSP2803x_DefaultIsr.c")
    1804                      .dwattr $C$DW$39, DW_AT_TI_end_line(0x219)
    1805                      .dwattr $C$DW$39, DW_AT_TI_end_column(0x01)
    1806                      .dwendentry
    1807                      .dwendtag $C$DW$39
    1808              
    1809 000000c3               .sect   ".text:retain"
    1810                      .retain
    1811                      .retainrefs
    1812                      .global _EPWM6_TZINT_ISR
    1813              
    1814              $C$DW$40        .dwtag  DW_TAG_subprogram
    1815                      .dwattr $C$DW$40, DW_AT_name("EPWM6_TZINT_ISR")
TMS320C2000 Assembler PC v16.9.6 Tue Mar 06 18:34:36 2018

Tools Copyright (c) 1996-2017 Texas Instruments Incorporated
C:\Users\Admin\AppData\Local\Temp\{DC34D9F1-072D-4B77-A784-928B1DD31EC1} PAGE   34

    1816                      .dwattr $C$DW$40, DW_AT_low_pc(_EPWM6_TZINT_ISR)
    1817                      .dwattr $C$DW$40, DW_AT_high_pc(0x00)
    1818                      .dwattr $C$DW$40, DW_AT_TI_symbol_name("_EPWM6_TZINT_ISR")
    1819                      .dwattr $C$DW$40, DW_AT_external
    1820                      .dwattr $C$DW$40, DW_AT_TI_begin_file("../source/DSP2803x_DefaultIsr.c")
    1821                      .dwattr $C$DW$40, DW_AT_TI_begin_line(0x198)
    1822                      .dwattr $C$DW$40, DW_AT_TI_begin_column(0x10)
    1823                      .dwattr $C$DW$40, DW_AT_TI_interrupt
    1824                      .dwattr $C$DW$40, DW_AT_TI_max_frame_size(-2)
    1825                      .dwpsn  file "../source/DSP2803x_DefaultIsr.c",line 409,column 1,is_stmt,address _EPWM6_TZINT_ISR,isa
    1826              
    1827                      .dwfde $C$DW$CIE, _EPWM6_TZINT_ISR
    1828              
    1829              ;***************************************************************
    1830              ;* FNAME: _EPWM6_TZINT_ISR              FR SIZE:   0           *
    1831              ;*                                                             *
    1832              ;* FUNCTION ENVIRONMENT                                        *
    1833              ;*                                                             *
    1834              ;* FUNCTION PROPERTIES                                         *
    1835              ;*                            0 Parameter,  0 Auto,  0 SOE     *
    1836              ;***************************************************************
    1837              
    1838 000000c3       _EPWM6_TZINT_ISR:
    1839                      .dwcfi  cfa_offset, -2
    1840                      .dwcfi  save_reg_to_mem, 26, 0
    1841 000000c3 761B          ASP       ; [CPU_] 
    1842 000000c4 2942          CLRC      PAGE0,OVM             ; [CPU_] 
    1843 000000c5 5616          CLRC      AMODE                 ; [CPU_] 
    1844 000000c6 7625        ESTOP0
    1845 000000c7       $C$L40:    
    1846                      .dwpsn  file "../source/DSP2803x_DefaultIsr.c",line 418,column 3,is_stmt,isa 0
    1847 000000c7 6F00          B         $C$L40,UNC            ; [CPU_] |418| 
    1848                      ; branch occurs ; [] |418| 
    1849                      .dwattr $C$DW$40, DW_AT_TI_end_file("../source/DSP2803x_DefaultIsr.c")
    1850                      .dwattr $C$DW$40, DW_AT_TI_end_line(0x1a3)
    1851                      .dwattr $C$DW$40, DW_AT_TI_end_column(0x01)
    1852                      .dwendentry
    1853                      .dwendtag $C$DW$40
    1854              
    1855 000000c8               .sect   ".text:retain"
    1856                      .retain
    1857                      .retainrefs
    1858                      .global _EPWM6_INT_ISR
    1859              
    1860              $C$DW$41        .dwtag  DW_TAG_subprogram
    1861                      .dwattr $C$DW$41, DW_AT_name("EPWM6_INT_ISR")
    1862                      .dwattr $C$DW$41, DW_AT_low_pc(_EPWM6_INT_ISR)
    1863                      .dwattr $C$DW$41, DW_AT_high_pc(0x00)
    1864                      .dwattr $C$DW$41, DW_AT_TI_symbol_name("_EPWM6_INT_ISR")
    1865                      .dwattr $C$DW$41, DW_AT_external
    1866                      .dwattr $C$DW$41, DW_AT_TI_begin_file("../source/DSP2803x_DefaultIsr.c")
    1867                      .dwattr $C$DW$41, DW_AT_TI_begin_line(0x200)
    1868                      .dwattr $C$DW$41, DW_AT_TI_begin_column(0x10)
    1869                      .dwattr $C$DW$41, DW_AT_TI_interrupt
    1870                      .dwattr $C$DW$41, DW_AT_TI_max_frame_size(-2)
TMS320C2000 Assembler PC v16.9.6 Tue Mar 06 18:34:36 2018

Tools Copyright (c) 1996-2017 Texas Instruments Incorporated
C:\Users\Admin\AppData\Local\Temp\{DC34D9F1-072D-4B77-A784-928B1DD31EC1} PAGE   35

    1871                      .dwpsn  file "../source/DSP2803x_DefaultIsr.c",line 513,column 1,is_stmt,address _EPWM6_INT_ISR,isa 0
    1872              
    1873                      .dwfde $C$DW$CIE, _EPWM6_INT_ISR
    1874              
    1875              ;***************************************************************
    1876              ;* FNAME: _EPWM6_INT_ISR                FR SIZE:   0           *
    1877              ;*                                                             *
    1878              ;* FUNCTION ENVIRONMENT                                        *
    1879              ;*                                                             *
    1880              ;* FUNCTION PROPERTIES                                         *
    1881              ;*                            0 Parameter,  0 Auto,  0 SOE     *
    1882              ;***************************************************************
    1883              
    1884 000000c8       _EPWM6_INT_ISR:
    1885                      .dwcfi  cfa_offset, -2
    1886                      .dwcfi  save_reg_to_mem, 26, 0
    1887 000000c8 761B          ASP       ; [CPU_] 
    1888 000000c9 2942          CLRC      PAGE0,OVM             ; [CPU_] 
    1889 000000ca 5616          CLRC      AMODE                 ; [CPU_] 
    1890 000000cb 7625        ESTOP0
    1891 000000cc       $C$L41:    
    1892                      .dwpsn  file "../source/DSP2803x_DefaultIsr.c",line 522,column 3,is_stmt,isa 0
    1893 000000cc 6F00          B         $C$L41,UNC            ; [CPU_] |522| 
    1894                      ; branch occurs ; [] |522| 
    1895                      .dwattr $C$DW$41, DW_AT_TI_end_file("../source/DSP2803x_DefaultIsr.c")
    1896                      .dwattr $C$DW$41, DW_AT_TI_end_line(0x20b)
    1897                      .dwattr $C$DW$41, DW_AT_TI_end_column(0x01)
    1898                      .dwendentry
    1899                      .dwendtag $C$DW$41
    1900              
    1901 000000cd               .sect   ".text:retain"
    1902                      .retain
    1903                      .retainrefs
    1904                      .global _EPWM5_TZINT_ISR
    1905              
    1906              $C$DW$42        .dwtag  DW_TAG_subprogram
    1907                      .dwattr $C$DW$42, DW_AT_name("EPWM5_TZINT_ISR")
    1908                      .dwattr $C$DW$42, DW_AT_low_pc(_EPWM5_TZINT_ISR)
    1909                      .dwattr $C$DW$42, DW_AT_high_pc(0x00)
    1910                      .dwattr $C$DW$42, DW_AT_TI_symbol_name("_EPWM5_TZINT_ISR")
    1911                      .dwattr $C$DW$42, DW_AT_external
    1912                      .dwattr $C$DW$42, DW_AT_TI_begin_file("../source/DSP2803x_DefaultIsr.c")
    1913                      .dwattr $C$DW$42, DW_AT_TI_begin_line(0x18a)
    1914                      .dwattr $C$DW$42, DW_AT_TI_begin_column(0x10)
    1915                      .dwattr $C$DW$42, DW_AT_TI_interrupt
    1916                      .dwattr $C$DW$42, DW_AT_TI_max_frame_size(-2)
    1917                      .dwpsn  file "../source/DSP2803x_DefaultIsr.c",line 395,column 1,is_stmt,address _EPWM5_TZINT_ISR,isa
    1918              
    1919                      .dwfde $C$DW$CIE, _EPWM5_TZINT_ISR
    1920              
    1921              ;***************************************************************
    1922              ;* FNAME: _EPWM5_TZINT_ISR              FR SIZE:   0           *
    1923              ;*                                                             *
    1924              ;* FUNCTION ENVIRONMENT                                        *
    1925              ;*                                                             *
TMS320C2000 Assembler PC v16.9.6 Tue Mar 06 18:34:36 2018

Tools Copyright (c) 1996-2017 Texas Instruments Incorporated
C:\Users\Admin\AppData\Local\Temp\{DC34D9F1-072D-4B77-A784-928B1DD31EC1} PAGE   36

    1926              ;* FUNCTION PROPERTIES                                         *
    1927              ;*                            0 Parameter,  0 Auto,  0 SOE     *
    1928              ;***************************************************************
    1929              
    1930 000000cd       _EPWM5_TZINT_ISR:
    1931                      .dwcfi  cfa_offset, -2
    1932                      .dwcfi  save_reg_to_mem, 26, 0
    1933 000000cd 761B          ASP       ; [CPU_] 
    1934 000000ce 2942          CLRC      PAGE0,OVM             ; [CPU_] 
    1935 000000cf 5616          CLRC      AMODE                 ; [CPU_] 
    1936 000000d0 7625        ESTOP0
    1937 000000d1       $C$L42:    
    1938                      .dwpsn  file "../source/DSP2803x_DefaultIsr.c",line 404,column 3,is_stmt,isa 0
    1939 000000d1 6F00          B         $C$L42,UNC            ; [CPU_] |404| 
    1940                      ; branch occurs ; [] |404| 
    1941                      .dwattr $C$DW$42, DW_AT_TI_end_file("../source/DSP2803x_DefaultIsr.c")
    1942                      .dwattr $C$DW$42, DW_AT_TI_end_line(0x195)
    1943                      .dwattr $C$DW$42, DW_AT_TI_end_column(0x01)
    1944                      .dwendentry
    1945                      .dwendtag $C$DW$42
    1946              
    1947 000000d2               .sect   ".text:retain"
    1948                      .retain
    1949                      .retainrefs
    1950                      .global _EPWM5_INT_ISR
    1951              
    1952              $C$DW$43        .dwtag  DW_TAG_subprogram
    1953                      .dwattr $C$DW$43, DW_AT_name("EPWM5_INT_ISR")
    1954                      .dwattr $C$DW$43, DW_AT_low_pc(_EPWM5_INT_ISR)
    1955                      .dwattr $C$DW$43, DW_AT_high_pc(0x00)
    1956                      .dwattr $C$DW$43, DW_AT_TI_symbol_name("_EPWM5_INT_ISR")
    1957                      .dwattr $C$DW$43, DW_AT_external
    1958                      .dwattr $C$DW$43, DW_AT_TI_begin_file("../source/DSP2803x_DefaultIsr.c")
    1959                      .dwattr $C$DW$43, DW_AT_TI_begin_line(0x1f2)
    1960                      .dwattr $C$DW$43, DW_AT_TI_begin_column(0x10)
    1961                      .dwattr $C$DW$43, DW_AT_TI_interrupt
    1962                      .dwattr $C$DW$43, DW_AT_TI_max_frame_size(-2)
    1963                      .dwpsn  file "../source/DSP2803x_DefaultIsr.c",line 499,column 1,is_stmt,address _EPWM5_INT_ISR,isa 0
    1964              
    1965                      .dwfde $C$DW$CIE, _EPWM5_INT_ISR
    1966              
    1967              ;***************************************************************
    1968              ;* FNAME: _EPWM5_INT_ISR                FR SIZE:   0           *
    1969              ;*                                                             *
    1970              ;* FUNCTION ENVIRONMENT                                        *
    1971              ;*                                                             *
    1972              ;* FUNCTION PROPERTIES                                         *
    1973              ;*                            0 Parameter,  0 Auto,  0 SOE     *
    1974              ;***************************************************************
    1975              
    1976 000000d2       _EPWM5_INT_ISR:
    1977                      .dwcfi  cfa_offset, -2
    1978                      .dwcfi  save_reg_to_mem, 26, 0
    1979 000000d2 761B          ASP       ; [CPU_] 
    1980 000000d3 2942          CLRC      PAGE0,OVM             ; [CPU_] 
TMS320C2000 Assembler PC v16.9.6 Tue Mar 06 18:34:36 2018

Tools Copyright (c) 1996-2017 Texas Instruments Incorporated
C:\Users\Admin\AppData\Local\Temp\{DC34D9F1-072D-4B77-A784-928B1DD31EC1} PAGE   37

    1981 000000d4 5616          CLRC      AMODE                 ; [CPU_] 
    1982 000000d5 7625        ESTOP0
    1983 000000d6       $C$L43:    
    1984                      .dwpsn  file "../source/DSP2803x_DefaultIsr.c",line 508,column 3,is_stmt,isa 0
    1985 000000d6 6F00          B         $C$L43,UNC            ; [CPU_] |508| 
    1986                      ; branch occurs ; [] |508| 
    1987                      .dwattr $C$DW$43, DW_AT_TI_end_file("../source/DSP2803x_DefaultIsr.c")
    1988                      .dwattr $C$DW$43, DW_AT_TI_end_line(0x1fd)
    1989                      .dwattr $C$DW$43, DW_AT_TI_end_column(0x01)
    1990                      .dwendentry
    1991                      .dwendtag $C$DW$43
    1992              
    1993 000000d7               .sect   ".text:retain"
    1994                      .retain
    1995                      .retainrefs
    1996                      .global _EPWM4_TZINT_ISR
    1997              
    1998              $C$DW$44        .dwtag  DW_TAG_subprogram
    1999                      .dwattr $C$DW$44, DW_AT_name("EPWM4_TZINT_ISR")
    2000                      .dwattr $C$DW$44, DW_AT_low_pc(_EPWM4_TZINT_ISR)
    2001                      .dwattr $C$DW$44, DW_AT_high_pc(0x00)
    2002                      .dwattr $C$DW$44, DW_AT_TI_symbol_name("_EPWM4_TZINT_ISR")
    2003                      .dwattr $C$DW$44, DW_AT_external
    2004                      .dwattr $C$DW$44, DW_AT_TI_begin_file("../source/DSP2803x_DefaultIsr.c")
    2005                      .dwattr $C$DW$44, DW_AT_TI_begin_line(0x17c)
    2006                      .dwattr $C$DW$44, DW_AT_TI_begin_column(0x10)
    2007                      .dwattr $C$DW$44, DW_AT_TI_interrupt
    2008                      .dwattr $C$DW$44, DW_AT_TI_max_frame_size(-2)
    2009                      .dwpsn  file "../source/DSP2803x_DefaultIsr.c",line 381,column 1,is_stmt,address _EPWM4_TZINT_ISR,isa
    2010              
    2011                      .dwfde $C$DW$CIE, _EPWM4_TZINT_ISR
    2012              
    2013              ;***************************************************************
    2014              ;* FNAME: _EPWM4_TZINT_ISR              FR SIZE:   0           *
    2015              ;*                                                             *
    2016              ;* FUNCTION ENVIRONMENT                                        *
    2017              ;*                                                             *
    2018              ;* FUNCTION PROPERTIES                                         *
    2019              ;*                            0 Parameter,  0 Auto,  0 SOE     *
    2020              ;***************************************************************
    2021              
    2022 000000d7       _EPWM4_TZINT_ISR:
    2023                      .dwcfi  cfa_offset, -2
    2024                      .dwcfi  save_reg_to_mem, 26, 0
    2025 000000d7 761B          ASP       ; [CPU_] 
    2026 000000d8 2942          CLRC      PAGE0,OVM             ; [CPU_] 
    2027 000000d9 5616          CLRC      AMODE                 ; [CPU_] 
    2028 000000da 7625        ESTOP0
    2029 000000db       $C$L44:    
    2030                      .dwpsn  file "../source/DSP2803x_DefaultIsr.c",line 390,column 3,is_stmt,isa 0
    2031 000000db 6F00          B         $C$L44,UNC            ; [CPU_] |390| 
    2032                      ; branch occurs ; [] |390| 
    2033                      .dwattr $C$DW$44, DW_AT_TI_end_file("../source/DSP2803x_DefaultIsr.c")
    2034                      .dwattr $C$DW$44, DW_AT_TI_end_line(0x187)
    2035                      .dwattr $C$DW$44, DW_AT_TI_end_column(0x01)
TMS320C2000 Assembler PC v16.9.6 Tue Mar 06 18:34:36 2018

Tools Copyright (c) 1996-2017 Texas Instruments Incorporated
C:\Users\Admin\AppData\Local\Temp\{DC34D9F1-072D-4B77-A784-928B1DD31EC1} PAGE   38

    2036                      .dwendentry
    2037                      .dwendtag $C$DW$44
    2038              
    2039 000000dc               .sect   ".text:retain"
    2040                      .retain
    2041                      .retainrefs
    2042                      .global _EPWM4_INT_ISR
    2043              
    2044              $C$DW$45        .dwtag  DW_TAG_subprogram
    2045                      .dwattr $C$DW$45, DW_AT_name("EPWM4_INT_ISR")
    2046                      .dwattr $C$DW$45, DW_AT_low_pc(_EPWM4_INT_ISR)
    2047                      .dwattr $C$DW$45, DW_AT_high_pc(0x00)
    2048                      .dwattr $C$DW$45, DW_AT_TI_symbol_name("_EPWM4_INT_ISR")
    2049                      .dwattr $C$DW$45, DW_AT_external
    2050                      .dwattr $C$DW$45, DW_AT_TI_begin_file("../source/DSP2803x_DefaultIsr.c")
    2051                      .dwattr $C$DW$45, DW_AT_TI_begin_line(0x1e4)
    2052                      .dwattr $C$DW$45, DW_AT_TI_begin_column(0x10)
    2053                      .dwattr $C$DW$45, DW_AT_TI_interrupt
    2054                      .dwattr $C$DW$45, DW_AT_TI_max_frame_size(-2)
    2055                      .dwpsn  file "../source/DSP2803x_DefaultIsr.c",line 485,column 1,is_stmt,address _EPWM4_INT_ISR,isa 0
    2056              
    2057                      .dwfde $C$DW$CIE, _EPWM4_INT_ISR
    2058              
    2059              ;***************************************************************
    2060              ;* FNAME: _EPWM4_INT_ISR                FR SIZE:   0           *
    2061              ;*                                                             *
    2062              ;* FUNCTION ENVIRONMENT                                        *
    2063              ;*                                                             *
    2064              ;* FUNCTION PROPERTIES                                         *
    2065              ;*                            0 Parameter,  0 Auto,  0 SOE     *
    2066              ;***************************************************************
    2067              
    2068 000000dc       _EPWM4_INT_ISR:
    2069                      .dwcfi  cfa_offset, -2
    2070                      .dwcfi  save_reg_to_mem, 26, 0
    2071 000000dc 761B          ASP       ; [CPU_] 
    2072 000000dd 2942          CLRC      PAGE0,OVM             ; [CPU_] 
    2073 000000de 5616          CLRC      AMODE                 ; [CPU_] 
    2074 000000df 7625        ESTOP0
    2075 000000e0       $C$L45:    
    2076                      .dwpsn  file "../source/DSP2803x_DefaultIsr.c",line 494,column 3,is_stmt,isa 0
    2077 000000e0 6F00          B         $C$L45,UNC            ; [CPU_] |494| 
    2078                      ; branch occurs ; [] |494| 
    2079                      .dwattr $C$DW$45, DW_AT_TI_end_file("../source/DSP2803x_DefaultIsr.c")
    2080                      .dwattr $C$DW$45, DW_AT_TI_end_line(0x1ef)
    2081                      .dwattr $C$DW$45, DW_AT_TI_end_column(0x01)
    2082                      .dwendentry
    2083                      .dwendtag $C$DW$45
    2084              
    2085 000000e1               .sect   ".text:retain"
    2086                      .retain
    2087                      .retainrefs
    2088                      .global _EPWM3_TZINT_ISR
    2089              
    2090              $C$DW$46        .dwtag  DW_TAG_subprogram
TMS320C2000 Assembler PC v16.9.6 Tue Mar 06 18:34:36 2018

Tools Copyright (c) 1996-2017 Texas Instruments Incorporated
C:\Users\Admin\AppData\Local\Temp\{DC34D9F1-072D-4B77-A784-928B1DD31EC1} PAGE   39

    2091                      .dwattr $C$DW$46, DW_AT_name("EPWM3_TZINT_ISR")
    2092                      .dwattr $C$DW$46, DW_AT_low_pc(_EPWM3_TZINT_ISR)
    2093                      .dwattr $C$DW$46, DW_AT_high_pc(0x00)
    2094                      .dwattr $C$DW$46, DW_AT_TI_symbol_name("_EPWM3_TZINT_ISR")
    2095                      .dwattr $C$DW$46, DW_AT_external
    2096                      .dwattr $C$DW$46, DW_AT_TI_begin_file("../source/DSP2803x_DefaultIsr.c")
    2097                      .dwattr $C$DW$46, DW_AT_TI_begin_line(0x16e)
    2098                      .dwattr $C$DW$46, DW_AT_TI_begin_column(0x10)
    2099                      .dwattr $C$DW$46, DW_AT_TI_interrupt
    2100                      .dwattr $C$DW$46, DW_AT_TI_max_frame_size(-2)
    2101                      .dwpsn  file "../source/DSP2803x_DefaultIsr.c",line 367,column 1,is_stmt,address _EPWM3_TZINT_ISR,isa
    2102              
    2103                      .dwfde $C$DW$CIE, _EPWM3_TZINT_ISR
    2104              
    2105              ;***************************************************************
    2106              ;* FNAME: _EPWM3_TZINT_ISR              FR SIZE:   0           *
    2107              ;*                                                             *
    2108              ;* FUNCTION ENVIRONMENT                                        *
    2109              ;*                                                             *
    2110              ;* FUNCTION PROPERTIES                                         *
    2111              ;*                            0 Parameter,  0 Auto,  0 SOE     *
    2112              ;***************************************************************
    2113              
    2114 000000e1       _EPWM3_TZINT_ISR:
    2115                      .dwcfi  cfa_offset, -2
    2116                      .dwcfi  save_reg_to_mem, 26, 0
    2117 000000e1 761B          ASP       ; [CPU_] 
    2118 000000e2 2942          CLRC      PAGE0,OVM             ; [CPU_] 
    2119 000000e3 5616          CLRC      AMODE                 ; [CPU_] 
    2120 000000e4 7625        ESTOP0
    2121 000000e5       $C$L46:    
    2122                      .dwpsn  file "../source/DSP2803x_DefaultIsr.c",line 376,column 3,is_stmt,isa 0
    2123 000000e5 6F00          B         $C$L46,UNC            ; [CPU_] |376| 
    2124                      ; branch occurs ; [] |376| 
    2125                      .dwattr $C$DW$46, DW_AT_TI_end_file("../source/DSP2803x_DefaultIsr.c")
    2126                      .dwattr $C$DW$46, DW_AT_TI_end_line(0x179)
    2127                      .dwattr $C$DW$46, DW_AT_TI_end_column(0x01)
    2128                      .dwendentry
    2129                      .dwendtag $C$DW$46
    2130              
    2131 000000e6               .sect   ".text:retain"
    2132                      .retain
    2133                      .retainrefs
    2134                      .global _EPWM3_INT_ISR
    2135              
    2136              $C$DW$47        .dwtag  DW_TAG_subprogram
    2137                      .dwattr $C$DW$47, DW_AT_name("EPWM3_INT_ISR")
    2138                      .dwattr $C$DW$47, DW_AT_low_pc(_EPWM3_INT_ISR)
    2139                      .dwattr $C$DW$47, DW_AT_high_pc(0x00)
    2140                      .dwattr $C$DW$47, DW_AT_TI_symbol_name("_EPWM3_INT_ISR")
    2141                      .dwattr $C$DW$47, DW_AT_external
    2142                      .dwattr $C$DW$47, DW_AT_TI_begin_file("../source/DSP2803x_DefaultIsr.c")
    2143                      .dwattr $C$DW$47, DW_AT_TI_begin_line(0x1d6)
    2144                      .dwattr $C$DW$47, DW_AT_TI_begin_column(0x10)
    2145                      .dwattr $C$DW$47, DW_AT_TI_interrupt
TMS320C2000 Assembler PC v16.9.6 Tue Mar 06 18:34:36 2018

Tools Copyright (c) 1996-2017 Texas Instruments Incorporated
C:\Users\Admin\AppData\Local\Temp\{DC34D9F1-072D-4B77-A784-928B1DD31EC1} PAGE   40

    2146                      .dwattr $C$DW$47, DW_AT_TI_max_frame_size(-2)
    2147                      .dwpsn  file "../source/DSP2803x_DefaultIsr.c",line 471,column 1,is_stmt,address _EPWM3_INT_ISR,isa 0
    2148              
    2149                      .dwfde $C$DW$CIE, _EPWM3_INT_ISR
    2150              
    2151              ;***************************************************************
    2152              ;* FNAME: _EPWM3_INT_ISR                FR SIZE:   0           *
    2153              ;*                                                             *
    2154              ;* FUNCTION ENVIRONMENT                                        *
    2155              ;*                                                             *
    2156              ;* FUNCTION PROPERTIES                                         *
    2157              ;*                            0 Parameter,  0 Auto,  0 SOE     *
    2158              ;***************************************************************
    2159              
    2160 000000e6       _EPWM3_INT_ISR:
    2161                      .dwcfi  cfa_offset, -2
    2162                      .dwcfi  save_reg_to_mem, 26, 0
    2163 000000e6 761B          ASP       ; [CPU_] 
    2164 000000e7 2942          CLRC      PAGE0,OVM             ; [CPU_] 
    2165 000000e8 5616          CLRC      AMODE                 ; [CPU_] 
    2166 000000e9 7625        ESTOP0
    2167 000000ea       $C$L47:    
    2168                      .dwpsn  file "../source/DSP2803x_DefaultIsr.c",line 480,column 3,is_stmt,isa 0
    2169 000000ea 6F00          B         $C$L47,UNC            ; [CPU_] |480| 
    2170                      ; branch occurs ; [] |480| 
    2171                      .dwattr $C$DW$47, DW_AT_TI_end_file("../source/DSP2803x_DefaultIsr.c")
    2172                      .dwattr $C$DW$47, DW_AT_TI_end_line(0x1e1)
    2173                      .dwattr $C$DW$47, DW_AT_TI_end_column(0x01)
    2174                      .dwendentry
    2175                      .dwendtag $C$DW$47
    2176              
    2177 000000eb               .sect   ".text:retain"
    2178                      .retain
    2179                      .retainrefs
    2180                      .global _EPWM2_TZINT_ISR
    2181              
    2182              $C$DW$48        .dwtag  DW_TAG_subprogram
    2183                      .dwattr $C$DW$48, DW_AT_name("EPWM2_TZINT_ISR")
    2184                      .dwattr $C$DW$48, DW_AT_low_pc(_EPWM2_TZINT_ISR)
    2185                      .dwattr $C$DW$48, DW_AT_high_pc(0x00)
    2186                      .dwattr $C$DW$48, DW_AT_TI_symbol_name("_EPWM2_TZINT_ISR")
    2187                      .dwattr $C$DW$48, DW_AT_external
    2188                      .dwattr $C$DW$48, DW_AT_TI_begin_file("../source/DSP2803x_DefaultIsr.c")
    2189                      .dwattr $C$DW$48, DW_AT_TI_begin_line(0x160)
    2190                      .dwattr $C$DW$48, DW_AT_TI_begin_column(0x10)
    2191                      .dwattr $C$DW$48, DW_AT_TI_interrupt
    2192                      .dwattr $C$DW$48, DW_AT_TI_max_frame_size(-2)
    2193                      .dwpsn  file "../source/DSP2803x_DefaultIsr.c",line 353,column 1,is_stmt,address _EPWM2_TZINT_ISR,isa
    2194              
    2195                      .dwfde $C$DW$CIE, _EPWM2_TZINT_ISR
    2196              
    2197              ;***************************************************************
    2198              ;* FNAME: _EPWM2_TZINT_ISR              FR SIZE:   0           *
    2199              ;*                                                             *
    2200              ;* FUNCTION ENVIRONMENT                                        *
TMS320C2000 Assembler PC v16.9.6 Tue Mar 06 18:34:36 2018

Tools Copyright (c) 1996-2017 Texas Instruments Incorporated
C:\Users\Admin\AppData\Local\Temp\{DC34D9F1-072D-4B77-A784-928B1DD31EC1} PAGE   41

    2201              ;*                                                             *
    2202              ;* FUNCTION PROPERTIES                                         *
    2203              ;*                            0 Parameter,  0 Auto,  0 SOE     *
    2204              ;***************************************************************
    2205              
    2206 000000eb       _EPWM2_TZINT_ISR:
    2207                      .dwcfi  cfa_offset, -2
    2208                      .dwcfi  save_reg_to_mem, 26, 0
    2209 000000eb 761B          ASP       ; [CPU_] 
    2210 000000ec 2942          CLRC      PAGE0,OVM             ; [CPU_] 
    2211 000000ed 5616          CLRC      AMODE                 ; [CPU_] 
    2212 000000ee 7625        ESTOP0
    2213 000000ef       $C$L48:    
    2214                      .dwpsn  file "../source/DSP2803x_DefaultIsr.c",line 362,column 3,is_stmt,isa 0
    2215 000000ef 6F00          B         $C$L48,UNC            ; [CPU_] |362| 
    2216                      ; branch occurs ; [] |362| 
    2217                      .dwattr $C$DW$48, DW_AT_TI_end_file("../source/DSP2803x_DefaultIsr.c")
    2218                      .dwattr $C$DW$48, DW_AT_TI_end_line(0x16b)
    2219                      .dwattr $C$DW$48, DW_AT_TI_end_column(0x01)
    2220                      .dwendentry
    2221                      .dwendtag $C$DW$48
    2222              
    2223 000000f0               .sect   ".text:retain"
    2224                      .retain
    2225                      .retainrefs
    2226                      .global _EPWM2_INT_ISR
    2227              
    2228              $C$DW$49        .dwtag  DW_TAG_subprogram
    2229                      .dwattr $C$DW$49, DW_AT_name("EPWM2_INT_ISR")
    2230                      .dwattr $C$DW$49, DW_AT_low_pc(_EPWM2_INT_ISR)
    2231                      .dwattr $C$DW$49, DW_AT_high_pc(0x00)
    2232                      .dwattr $C$DW$49, DW_AT_TI_symbol_name("_EPWM2_INT_ISR")
    2233                      .dwattr $C$DW$49, DW_AT_external
    2234                      .dwattr $C$DW$49, DW_AT_TI_begin_file("../source/DSP2803x_DefaultIsr.c")
    2235                      .dwattr $C$DW$49, DW_AT_TI_begin_line(0x1c8)
    2236                      .dwattr $C$DW$49, DW_AT_TI_begin_column(0x10)
    2237                      .dwattr $C$DW$49, DW_AT_TI_interrupt
    2238                      .dwattr $C$DW$49, DW_AT_TI_max_frame_size(-2)
    2239                      .dwpsn  file "../source/DSP2803x_DefaultIsr.c",line 457,column 1,is_stmt,address _EPWM2_INT_ISR,isa 0
    2240              
    2241                      .dwfde $C$DW$CIE, _EPWM2_INT_ISR
    2242              
    2243              ;***************************************************************
    2244              ;* FNAME: _EPWM2_INT_ISR                FR SIZE:   0           *
    2245              ;*                                                             *
    2246              ;* FUNCTION ENVIRONMENT                                        *
    2247              ;*                                                             *
    2248              ;* FUNCTION PROPERTIES                                         *
    2249              ;*                            0 Parameter,  0 Auto,  0 SOE     *
    2250              ;***************************************************************
    2251              
    2252 000000f0       _EPWM2_INT_ISR:
    2253                      .dwcfi  cfa_offset, -2
    2254                      .dwcfi  save_reg_to_mem, 26, 0
    2255 000000f0 761B          ASP       ; [CPU_] 
TMS320C2000 Assembler PC v16.9.6 Tue Mar 06 18:34:36 2018

Tools Copyright (c) 1996-2017 Texas Instruments Incorporated
C:\Users\Admin\AppData\Local\Temp\{DC34D9F1-072D-4B77-A784-928B1DD31EC1} PAGE   42

    2256 000000f1 2942          CLRC      PAGE0,OVM             ; [CPU_] 
    2257 000000f2 5616          CLRC      AMODE                 ; [CPU_] 
    2258 000000f3 7625        ESTOP0
    2259 000000f4       $C$L49:    
    2260                      .dwpsn  file "../source/DSP2803x_DefaultIsr.c",line 466,column 3,is_stmt,isa 0
    2261 000000f4 6F00          B         $C$L49,UNC            ; [CPU_] |466| 
    2262                      ; branch occurs ; [] |466| 
    2263                      .dwattr $C$DW$49, DW_AT_TI_end_file("../source/DSP2803x_DefaultIsr.c")
    2264                      .dwattr $C$DW$49, DW_AT_TI_end_line(0x1d3)
    2265                      .dwattr $C$DW$49, DW_AT_TI_end_column(0x01)
    2266                      .dwendentry
    2267                      .dwendtag $C$DW$49
    2268              
    2269 000000f5               .sect   ".text:retain"
    2270                      .retain
    2271                      .retainrefs
    2272                      .global _EPWM1_TZINT_ISR
    2273              
    2274              $C$DW$50        .dwtag  DW_TAG_subprogram
    2275                      .dwattr $C$DW$50, DW_AT_name("EPWM1_TZINT_ISR")
    2276                      .dwattr $C$DW$50, DW_AT_low_pc(_EPWM1_TZINT_ISR)
    2277                      .dwattr $C$DW$50, DW_AT_high_pc(0x00)
    2278                      .dwattr $C$DW$50, DW_AT_TI_symbol_name("_EPWM1_TZINT_ISR")
    2279                      .dwattr $C$DW$50, DW_AT_external
    2280                      .dwattr $C$DW$50, DW_AT_TI_begin_file("../source/DSP2803x_DefaultIsr.c")
    2281                      .dwattr $C$DW$50, DW_AT_TI_begin_line(0x152)
    2282                      .dwattr $C$DW$50, DW_AT_TI_begin_column(0x10)
    2283                      .dwattr $C$DW$50, DW_AT_TI_interrupt
    2284                      .dwattr $C$DW$50, DW_AT_TI_max_frame_size(-2)
    2285                      .dwpsn  file "../source/DSP2803x_DefaultIsr.c",line 339,column 1,is_stmt,address _EPWM1_TZINT_ISR,isa
    2286              
    2287                      .dwfde $C$DW$CIE, _EPWM1_TZINT_ISR
    2288              
    2289              ;***************************************************************
    2290              ;* FNAME: _EPWM1_TZINT_ISR              FR SIZE:   0           *
    2291              ;*                                                             *
    2292              ;* FUNCTION ENVIRONMENT                                        *
    2293              ;*                                                             *
    2294              ;* FUNCTION PROPERTIES                                         *
    2295              ;*                            0 Parameter,  0 Auto,  0 SOE     *
    2296              ;***************************************************************
    2297              
    2298 000000f5       _EPWM1_TZINT_ISR:
    2299                      .dwcfi  cfa_offset, -2
    2300                      .dwcfi  save_reg_to_mem, 26, 0
    2301 000000f5 761B          ASP       ; [CPU_] 
    2302 000000f6 2942          CLRC      PAGE0,OVM             ; [CPU_] 
    2303 000000f7 5616          CLRC      AMODE                 ; [CPU_] 
    2304 000000f8 7625        ESTOP0
    2305 000000f9       $C$L50:    
    2306                      .dwpsn  file "../source/DSP2803x_DefaultIsr.c",line 348,column 3,is_stmt,isa 0
    2307 000000f9 6F00          B         $C$L50,UNC            ; [CPU_] |348| 
    2308                      ; branch occurs ; [] |348| 
    2309                      .dwattr $C$DW$50, DW_AT_TI_end_file("../source/DSP2803x_DefaultIsr.c")
    2310                      .dwattr $C$DW$50, DW_AT_TI_end_line(0x15d)
TMS320C2000 Assembler PC v16.9.6 Tue Mar 06 18:34:36 2018

Tools Copyright (c) 1996-2017 Texas Instruments Incorporated
C:\Users\Admin\AppData\Local\Temp\{DC34D9F1-072D-4B77-A784-928B1DD31EC1} PAGE   43

    2311                      .dwattr $C$DW$50, DW_AT_TI_end_column(0x01)
    2312                      .dwendentry
    2313                      .dwendtag $C$DW$50
    2314              
    2315 000000fa               .sect   ".text:retain"
    2316                      .retain
    2317                      .retainrefs
    2318                      .global _EPWM1_INT_ISR
    2319              
    2320              $C$DW$51        .dwtag  DW_TAG_subprogram
    2321                      .dwattr $C$DW$51, DW_AT_name("EPWM1_INT_ISR")
    2322                      .dwattr $C$DW$51, DW_AT_low_pc(_EPWM1_INT_ISR)
    2323                      .dwattr $C$DW$51, DW_AT_high_pc(0x00)
    2324                      .dwattr $C$DW$51, DW_AT_TI_symbol_name("_EPWM1_INT_ISR")
    2325                      .dwattr $C$DW$51, DW_AT_external
    2326                      .dwattr $C$DW$51, DW_AT_TI_begin_file("../source/DSP2803x_DefaultIsr.c")
    2327                      .dwattr $C$DW$51, DW_AT_TI_begin_line(0x1ba)
    2328                      .dwattr $C$DW$51, DW_AT_TI_begin_column(0x10)
    2329                      .dwattr $C$DW$51, DW_AT_TI_interrupt
    2330                      .dwattr $C$DW$51, DW_AT_TI_max_frame_size(-2)
    2331                      .dwpsn  file "../source/DSP2803x_DefaultIsr.c",line 443,column 1,is_stmt,address _EPWM1_INT_ISR,isa 0
    2332              
    2333                      .dwfde $C$DW$CIE, _EPWM1_INT_ISR
    2334              
    2335              ;***************************************************************
    2336              ;* FNAME: _EPWM1_INT_ISR                FR SIZE:   0           *
    2337              ;*                                                             *
    2338              ;* FUNCTION ENVIRONMENT                                        *
    2339              ;*                                                             *
    2340              ;* FUNCTION PROPERTIES                                         *
    2341              ;*                            0 Parameter,  0 Auto,  0 SOE     *
    2342              ;***************************************************************
    2343              
    2344 000000fa       _EPWM1_INT_ISR:
    2345                      .dwcfi  cfa_offset, -2
    2346                      .dwcfi  save_reg_to_mem, 26, 0
    2347 000000fa 761B          ASP       ; [CPU_] 
    2348 000000fb 2942          CLRC      PAGE0,OVM             ; [CPU_] 
    2349 000000fc 5616          CLRC      AMODE                 ; [CPU_] 
    2350 000000fd 7625        ESTOP0
    2351 000000fe       $C$L51:    
    2352                      .dwpsn  file "../source/DSP2803x_DefaultIsr.c",line 452,column 3,is_stmt,isa 0
    2353 000000fe 6F00          B         $C$L51,UNC            ; [CPU_] |452| 
    2354                      ; branch occurs ; [] |452| 
    2355                      .dwattr $C$DW$51, DW_AT_TI_end_file("../source/DSP2803x_DefaultIsr.c")
    2356                      .dwattr $C$DW$51, DW_AT_TI_end_line(0x1c5)
    2357                      .dwattr $C$DW$51, DW_AT_TI_end_column(0x01)
    2358                      .dwendentry
    2359                      .dwendtag $C$DW$51
    2360              
    2361 000000ff               .sect   ".text:retain"
    2362                      .retain
    2363                      .retainrefs
    2364                      .global _EMUINT_ISR
    2365              
TMS320C2000 Assembler PC v16.9.6 Tue Mar 06 18:34:36 2018

Tools Copyright (c) 1996-2017 Texas Instruments Incorporated
C:\Users\Admin\AppData\Local\Temp\{DC34D9F1-072D-4B77-A784-928B1DD31EC1} PAGE   44

    2366              $C$DW$52        .dwtag  DW_TAG_subprogram
    2367                      .dwattr $C$DW$52, DW_AT_name("EMUINT_ISR")
    2368                      .dwattr $C$DW$52, DW_AT_low_pc(_EMUINT_ISR)
    2369                      .dwattr $C$DW$52, DW_AT_high_pc(0x00)
    2370                      .dwattr $C$DW$52, DW_AT_TI_symbol_name("_EMUINT_ISR")
    2371                      .dwattr $C$DW$52, DW_AT_external
    2372                      .dwattr $C$DW$52, DW_AT_TI_begin_file("../source/DSP2803x_DefaultIsr.c")
    2373                      .dwattr $C$DW$52, DW_AT_TI_begin_line(0x45)
    2374                      .dwattr $C$DW$52, DW_AT_TI_begin_column(0x10)
    2375                      .dwattr $C$DW$52, DW_AT_TI_interrupt
    2376                      .dwattr $C$DW$52, DW_AT_TI_max_frame_size(-2)
    2377                      .dwpsn  file "../source/DSP2803x_DefaultIsr.c",line 70,column 1,is_stmt,address _EMUINT_ISR,isa 0
    2378              
    2379                      .dwfde $C$DW$CIE, _EMUINT_ISR
    2380              
    2381              ;***************************************************************
    2382              ;* FNAME: _EMUINT_ISR                   FR SIZE:   0           *
    2383              ;*                                                             *
    2384              ;* FUNCTION ENVIRONMENT                                        *
    2385              ;*                                                             *
    2386              ;* FUNCTION PROPERTIES                                         *
    2387              ;*                            0 Parameter,  0 Auto,  0 SOE     *
    2388              ;***************************************************************
    2389              
    2390 000000ff       _EMUINT_ISR:
    2391                      .dwcfi  cfa_offset, -2
    2392                      .dwcfi  save_reg_to_mem, 26, 0
    2393 000000ff 761B          ASP       ; [CPU_] 
    2394 00000100 2942          CLRC      PAGE0,OVM             ; [CPU_] 
    2395 00000101 5616          CLRC      AMODE                 ; [CPU_] 
    2396 00000102 7625        ESTOP0
    2397 00000103       $C$L52:    
    2398                      .dwpsn  file "../source/DSP2803x_DefaultIsr.c",line 76,column 3,is_stmt,isa 0
    2399 00000103 6F00          B         $C$L52,UNC            ; [CPU_] |76| 
    2400                      ; branch occurs ; [] |76| 
    2401                      .dwattr $C$DW$52, DW_AT_TI_end_file("../source/DSP2803x_DefaultIsr.c")
    2402                      .dwattr $C$DW$52, DW_AT_TI_end_line(0x4d)
    2403                      .dwattr $C$DW$52, DW_AT_TI_end_column(0x01)
    2404                      .dwendentry
    2405                      .dwendtag $C$DW$52
    2406              
    2407 00000104               .sect   ".text:retain"
    2408                      .retain
    2409                      .retainrefs
    2410                      .global _EMPTY_ISR
    2411              
    2412              $C$DW$53        .dwtag  DW_TAG_subprogram
    2413                      .dwattr $C$DW$53, DW_AT_name("EMPTY_ISR")
    2414                      .dwattr $C$DW$53, DW_AT_low_pc(_EMPTY_ISR)
    2415                      .dwattr $C$DW$53, DW_AT_high_pc(0x00)
    2416                      .dwattr $C$DW$53, DW_AT_TI_symbol_name("_EMPTY_ISR")
    2417                      .dwattr $C$DW$53, DW_AT_external
    2418                      .dwattr $C$DW$53, DW_AT_TI_begin_file("../source/DSP2803x_DefaultIsr.c")
    2419                      .dwattr $C$DW$53, DW_AT_TI_begin_line(0x42d)
    2420                      .dwattr $C$DW$53, DW_AT_TI_begin_column(0x10)
TMS320C2000 Assembler PC v16.9.6 Tue Mar 06 18:34:36 2018

Tools Copyright (c) 1996-2017 Texas Instruments Incorporated
C:\Users\Admin\AppData\Local\Temp\{DC34D9F1-072D-4B77-A784-928B1DD31EC1} PAGE   45

    2421                      .dwattr $C$DW$53, DW_AT_TI_interrupt
    2422                      .dwattr $C$DW$53, DW_AT_TI_max_frame_size(-2)
    2423                      .dwpsn  file "../source/DSP2803x_DefaultIsr.c",line 1070,column 1,is_stmt,address _EMPTY_ISR,isa 0
    2424              
    2425                      .dwfde $C$DW$CIE, _EMPTY_ISR
    2426              
    2427              ;***************************************************************
    2428              ;* FNAME: _EMPTY_ISR                    FR SIZE:   0           *
    2429              ;*                                                             *
    2430              ;* FUNCTION ENVIRONMENT                                        *
    2431              ;*                                                             *
    2432              ;* FUNCTION PROPERTIES                                         *
    2433              ;*                            0 Parameter,  0 Auto,  0 SOE     *
    2434              ;***************************************************************
    2435              
    2436 00000104       _EMPTY_ISR:
    2437                      .dwcfi  cfa_offset, -2
    2438                      .dwcfi  save_reg_to_mem, 26, 0
    2439 00000104 761B          ASP       ; [CPU_] 
    2440 00000105 2942          CLRC      PAGE0,OVM             ; [CPU_] 
    2441 00000106 5616          CLRC      AMODE                 ; [CPU_] 
    2442 00000107 7617          NASP      ; [CPU_] 
    2443              $C$DW$54        .dwtag  DW_TAG_TI_branch
    2444                      .dwattr $C$DW$54, DW_AT_low_pc(0x00)
    2445                      .dwattr $C$DW$54, DW_AT_TI_return
    2446              
    2447 00000108 7602          IRET      ; [CPU_] 
    2448                      ; return occurs ; [] 
    2449                      .dwattr $C$DW$53, DW_AT_TI_end_file("../source/DSP2803x_DefaultIsr.c")
    2450                      .dwattr $C$DW$53, DW_AT_TI_end_line(0x430)
    2451                      .dwattr $C$DW$53, DW_AT_TI_end_column(0x01)
    2452                      .dwendentry
    2453                      .dwendtag $C$DW$53
    2454              
    2455 00000109               .sect   ".text:retain"
    2456                      .retain
    2457                      .retainrefs
    2458                      .global _ECAP1_INT_ISR
    2459              
    2460              $C$DW$55        .dwtag  DW_TAG_subprogram
    2461                      .dwattr $C$DW$55, DW_AT_name("ECAP1_INT_ISR")
    2462                      .dwattr $C$DW$55, DW_AT_low_pc(_ECAP1_INT_ISR)
    2463                      .dwattr $C$DW$55, DW_AT_high_pc(0x00)
    2464                      .dwattr $C$DW$55, DW_AT_TI_symbol_name("_ECAP1_INT_ISR")
    2465                      .dwattr $C$DW$55, DW_AT_external
    2466                      .dwattr $C$DW$55, DW_AT_TI_begin_file("../source/DSP2803x_DefaultIsr.c")
    2467                      .dwattr $C$DW$55, DW_AT_TI_begin_line(0x222)
    2468                      .dwattr $C$DW$55, DW_AT_TI_begin_column(0x10)
    2469                      .dwattr $C$DW$55, DW_AT_TI_interrupt
    2470                      .dwattr $C$DW$55, DW_AT_TI_max_frame_size(-2)
    2471                      .dwpsn  file "../source/DSP2803x_DefaultIsr.c",line 547,column 1,is_stmt,address _ECAP1_INT_ISR,isa 0
    2472              
    2473                      .dwfde $C$DW$CIE, _ECAP1_INT_ISR
    2474              
    2475              ;***************************************************************
TMS320C2000 Assembler PC v16.9.6 Tue Mar 06 18:34:36 2018

Tools Copyright (c) 1996-2017 Texas Instruments Incorporated
C:\Users\Admin\AppData\Local\Temp\{DC34D9F1-072D-4B77-A784-928B1DD31EC1} PAGE   46

    2476              ;* FNAME: _ECAP1_INT_ISR                FR SIZE:   0           *
    2477              ;*                                                             *
    2478              ;* FUNCTION ENVIRONMENT                                        *
    2479              ;*                                                             *
    2480              ;* FUNCTION PROPERTIES                                         *
    2481              ;*                            0 Parameter,  0 Auto,  0 SOE     *
    2482              ;***************************************************************
    2483              
    2484 00000109       _ECAP1_INT_ISR:
    2485                      .dwcfi  cfa_offset, -2
    2486                      .dwcfi  save_reg_to_mem, 26, 0
    2487 00000109 761B          ASP       ; [CPU_] 
    2488 0000010a 2942          CLRC      PAGE0,OVM             ; [CPU_] 
    2489 0000010b 5616          CLRC      AMODE                 ; [CPU_] 
    2490 0000010c 7625        ESTOP0
    2491 0000010d       $C$L53:    
    2492                      .dwpsn  file "../source/DSP2803x_DefaultIsr.c",line 556,column 3,is_stmt,isa 0
    2493 0000010d 6F00          B         $C$L53,UNC            ; [CPU_] |556| 
    2494                      ; branch occurs ; [] |556| 
    2495                      .dwattr $C$DW$55, DW_AT_TI_end_file("../source/DSP2803x_DefaultIsr.c")
    2496                      .dwattr $C$DW$55, DW_AT_TI_end_line(0x22d)
    2497                      .dwattr $C$DW$55, DW_AT_TI_end_column(0x01)
    2498                      .dwendentry
    2499                      .dwendtag $C$DW$55
    2500              
    2501 0000010e               .sect   ".text:retain"
    2502                      .retain
    2503                      .retainrefs
    2504                      .global _ECAN1INTA_ISR
    2505              
    2506              $C$DW$56        .dwtag  DW_TAG_subprogram
    2507                      .dwattr $C$DW$56, DW_AT_name("ECAN1INTA_ISR")
    2508                      .dwattr $C$DW$56, DW_AT_low_pc(_ECAN1INTA_ISR)
    2509                      .dwattr $C$DW$56, DW_AT_high_pc(0x00)
    2510                      .dwattr $C$DW$56, DW_AT_TI_symbol_name("_ECAN1INTA_ISR")
    2511                      .dwattr $C$DW$56, DW_AT_external
    2512                      .dwattr $C$DW$56, DW_AT_TI_begin_file("../source/DSP2803x_DefaultIsr.c")
    2513                      .dwattr $C$DW$56, DW_AT_TI_begin_line(0x30d)
    2514                      .dwattr $C$DW$56, DW_AT_TI_begin_column(0x10)
    2515                      .dwattr $C$DW$56, DW_AT_TI_interrupt
    2516                      .dwattr $C$DW$56, DW_AT_TI_max_frame_size(-2)
    2517                      .dwpsn  file "../source/DSP2803x_DefaultIsr.c",line 782,column 1,is_stmt,address _ECAN1INTA_ISR,isa 0
    2518              
    2519                      .dwfde $C$DW$CIE, _ECAN1INTA_ISR
    2520              
    2521              ;***************************************************************
    2522              ;* FNAME: _ECAN1INTA_ISR                FR SIZE:   0           *
    2523              ;*                                                             *
    2524              ;* FUNCTION ENVIRONMENT                                        *
    2525              ;*                                                             *
    2526              ;* FUNCTION PROPERTIES                                         *
    2527              ;*                            0 Parameter,  0 Auto,  0 SOE     *
    2528              ;***************************************************************
    2529              
    2530 0000010e       _ECAN1INTA_ISR:
TMS320C2000 Assembler PC v16.9.6 Tue Mar 06 18:34:36 2018

Tools Copyright (c) 1996-2017 Texas Instruments Incorporated
C:\Users\Admin\AppData\Local\Temp\{DC34D9F1-072D-4B77-A784-928B1DD31EC1} PAGE   47

    2531                      .dwcfi  cfa_offset, -2
    2532                      .dwcfi  save_reg_to_mem, 26, 0
    2533 0000010e 761B          ASP       ; [CPU_] 
    2534 0000010f 2942          CLRC      PAGE0,OVM             ; [CPU_] 
    2535 00000110 5616          CLRC      AMODE                 ; [CPU_] 
    2536 00000111 7625        ESTOP0
    2537 00000112       $C$L54:    
    2538                      .dwpsn  file "../source/DSP2803x_DefaultIsr.c",line 791,column 3,is_stmt,isa 0
    2539 00000112 6F00          B         $C$L54,UNC            ; [CPU_] |791| 
    2540                      ; branch occurs ; [] |791| 
    2541                      .dwattr $C$DW$56, DW_AT_TI_end_file("../source/DSP2803x_DefaultIsr.c")
    2542                      .dwattr $C$DW$56, DW_AT_TI_end_line(0x319)
    2543                      .dwattr $C$DW$56, DW_AT_TI_end_column(0x01)
    2544                      .dwendentry
    2545                      .dwendtag $C$DW$56
    2546              
    2547 00000113               .sect   ".text:retain"
    2548                      .retain
    2549                      .retainrefs
    2550                      .global _ECAN0INTA_ISR
    2551              
    2552              $C$DW$57        .dwtag  DW_TAG_subprogram
    2553                      .dwattr $C$DW$57, DW_AT_name("ECAN0INTA_ISR")
    2554                      .dwattr $C$DW$57, DW_AT_low_pc(_ECAN0INTA_ISR)
    2555                      .dwattr $C$DW$57, DW_AT_high_pc(0x00)
    2556                      .dwattr $C$DW$57, DW_AT_TI_symbol_name("_ECAN0INTA_ISR")
    2557                      .dwattr $C$DW$57, DW_AT_external
    2558                      .dwattr $C$DW$57, DW_AT_TI_begin_file("../source/DSP2803x_DefaultIsr.c")
    2559                      .dwattr $C$DW$57, DW_AT_TI_begin_line(0x2fe)
    2560                      .dwattr $C$DW$57, DW_AT_TI_begin_column(0x10)
    2561                      .dwattr $C$DW$57, DW_AT_TI_interrupt
    2562                      .dwattr $C$DW$57, DW_AT_TI_max_frame_size(-2)
    2563                      .dwpsn  file "../source/DSP2803x_DefaultIsr.c",line 767,column 1,is_stmt,address _ECAN0INTA_ISR,isa 0
    2564              
    2565                      .dwfde $C$DW$CIE, _ECAN0INTA_ISR
    2566              
    2567              ;***************************************************************
    2568              ;* FNAME: _ECAN0INTA_ISR                FR SIZE:   0           *
    2569              ;*                                                             *
    2570              ;* FUNCTION ENVIRONMENT                                        *
    2571              ;*                                                             *
    2572              ;* FUNCTION PROPERTIES                                         *
    2573              ;*                            0 Parameter,  0 Auto,  0 SOE     *
    2574              ;***************************************************************
    2575              
    2576 00000113       _ECAN0INTA_ISR:
    2577                      .dwcfi  cfa_offset, -2
    2578                      .dwcfi  save_reg_to_mem, 26, 0
    2579 00000113 761B          ASP       ; [CPU_] 
    2580 00000114 2942          CLRC      PAGE0,OVM             ; [CPU_] 
    2581 00000115 5616          CLRC      AMODE                 ; [CPU_] 
    2582 00000116 7625        ESTOP0
    2583 00000117       $C$L55:    
    2584                      .dwpsn  file "../source/DSP2803x_DefaultIsr.c",line 776,column 3,is_stmt,isa 0
    2585 00000117 6F00          B         $C$L55,UNC            ; [CPU_] |776| 
TMS320C2000 Assembler PC v16.9.6 Tue Mar 06 18:34:36 2018

Tools Copyright (c) 1996-2017 Texas Instruments Incorporated
C:\Users\Admin\AppData\Local\Temp\{DC34D9F1-072D-4B77-A784-928B1DD31EC1} PAGE   48

    2586                      ; branch occurs ; [] |776| 
    2587                      .dwattr $C$DW$57, DW_AT_TI_end_file("../source/DSP2803x_DefaultIsr.c")
    2588                      .dwattr $C$DW$57, DW_AT_TI_end_line(0x30a)
    2589                      .dwattr $C$DW$57, DW_AT_TI_end_column(0x01)
    2590                      .dwendentry
    2591                      .dwendtag $C$DW$57
    2592              
    2593 00000118               .sect   ".text:retain"
    2594                      .retain
    2595                      .retainrefs
    2596                      .global _DATALOG_ISR
    2597              
    2598              $C$DW$58        .dwtag  DW_TAG_subprogram
    2599                      .dwattr $C$DW$58, DW_AT_name("DATALOG_ISR")
    2600                      .dwattr $C$DW$58, DW_AT_low_pc(_DATALOG_ISR)
    2601                      .dwattr $C$DW$58, DW_AT_high_pc(0x00)
    2602                      .dwattr $C$DW$58, DW_AT_TI_symbol_name("_DATALOG_ISR")
    2603                      .dwattr $C$DW$58, DW_AT_external
    2604                      .dwattr $C$DW$58, DW_AT_TI_begin_file("../source/DSP2803x_DefaultIsr.c")
    2605                      .dwattr $C$DW$58, DW_AT_TI_begin_line(0x31)
    2606                      .dwattr $C$DW$58, DW_AT_TI_begin_column(0x10)
    2607                      .dwattr $C$DW$58, DW_AT_TI_interrupt
    2608                      .dwattr $C$DW$58, DW_AT_TI_max_frame_size(-2)
    2609                      .dwpsn  file "../source/DSP2803x_DefaultIsr.c",line 50,column 1,is_stmt,address _DATALOG_ISR,isa 0
    2610              
    2611                      .dwfde $C$DW$CIE, _DATALOG_ISR
    2612              
    2613              ;***************************************************************
    2614              ;* FNAME: _DATALOG_ISR                  FR SIZE:   0           *
    2615              ;*                                                             *
    2616              ;* FUNCTION ENVIRONMENT                                        *
    2617              ;*                                                             *
    2618              ;* FUNCTION PROPERTIES                                         *
    2619              ;*                            0 Parameter,  0 Auto,  0 SOE     *
    2620              ;***************************************************************
    2621              
    2622 00000118       _DATALOG_ISR:
    2623                      .dwcfi  cfa_offset, -2
    2624                      .dwcfi  save_reg_to_mem, 26, 0
    2625 00000118 761B          ASP       ; [CPU_] 
    2626 00000119 2942          CLRC      PAGE0,OVM             ; [CPU_] 
    2627 0000011a 5616          CLRC      AMODE                 ; [CPU_] 
    2628 0000011b 7625        ESTOP0
    2629 0000011c       $C$L56:    
    2630                      .dwpsn  file "../source/DSP2803x_DefaultIsr.c",line 56,column 4,is_stmt,isa 0
    2631 0000011c 6F00          B         $C$L56,UNC            ; [CPU_] |56| 
    2632                      ; branch occurs ; [] |56| 
    2633                      .dwattr $C$DW$58, DW_AT_TI_end_file("../source/DSP2803x_DefaultIsr.c")
    2634                      .dwattr $C$DW$58, DW_AT_TI_end_line(0x39)
    2635                      .dwattr $C$DW$58, DW_AT_TI_end_column(0x01)
    2636                      .dwendentry
    2637                      .dwendtag $C$DW$58
    2638              
    2639 0000011d               .sect   ".text:retain"
    2640                      .retain
TMS320C2000 Assembler PC v16.9.6 Tue Mar 06 18:34:36 2018

Tools Copyright (c) 1996-2017 Texas Instruments Incorporated
C:\Users\Admin\AppData\Local\Temp\{DC34D9F1-072D-4B77-A784-928B1DD31EC1} PAGE   49

    2641                      .retainrefs
    2642                      .global _CLA1_INT8_ISR
    2643              
    2644              $C$DW$59        .dwtag  DW_TAG_subprogram
    2645                      .dwattr $C$DW$59, DW_AT_name("CLA1_INT8_ISR")
    2646                      .dwattr $C$DW$59, DW_AT_low_pc(_CLA1_INT8_ISR)
    2647                      .dwattr $C$DW$59, DW_AT_high_pc(0x00)
    2648                      .dwattr $C$DW$59, DW_AT_TI_symbol_name("_CLA1_INT8_ISR")
    2649                      .dwattr $C$DW$59, DW_AT_external
    2650                      .dwattr $C$DW$59, DW_AT_TI_begin_file("../source/DSP2803x_DefaultIsr.c")
    2651                      .dwattr $C$DW$59, DW_AT_TI_begin_line(0x3e6)
    2652                      .dwattr $C$DW$59, DW_AT_TI_begin_column(0x10)
    2653                      .dwattr $C$DW$59, DW_AT_TI_interrupt
    2654                      .dwattr $C$DW$59, DW_AT_TI_max_frame_size(-2)
    2655                      .dwpsn  file "../source/DSP2803x_DefaultIsr.c",line 999,column 1,is_stmt,address _CLA1_INT8_ISR,isa 0
    2656              
    2657                      .dwfde $C$DW$CIE, _CLA1_INT8_ISR
    2658              
    2659              ;***************************************************************
    2660              ;* FNAME: _CLA1_INT8_ISR                FR SIZE:   0           *
    2661              ;*                                                             *
    2662              ;* FUNCTION ENVIRONMENT                                        *
    2663              ;*                                                             *
    2664              ;* FUNCTION PROPERTIES                                         *
    2665              ;*                            0 Parameter,  0 Auto,  0 SOE     *
    2666              ;***************************************************************
    2667              
    2668 0000011d       _CLA1_INT8_ISR:
    2669                      .dwcfi  cfa_offset, -2
    2670                      .dwcfi  save_reg_to_mem, 26, 0
    2671 0000011d 761B          ASP       ; [CPU_] 
    2672 0000011e 2942          CLRC      PAGE0,OVM             ; [CPU_] 
    2673 0000011f 5616          CLRC      AMODE                 ; [CPU_] 
    2674 00000120 7625        ESTOP0
    2675 00000121       $C$L57:    
    2676                      .dwpsn  file "../source/DSP2803x_DefaultIsr.c",line 1008,column 3,is_stmt,isa 0
    2677 00000121 6F00          B         $C$L57,UNC            ; [CPU_] |1008| 
    2678                      ; branch occurs ; [] |1008| 
    2679                      .dwattr $C$DW$59, DW_AT_TI_end_file("../source/DSP2803x_DefaultIsr.c")
    2680                      .dwattr $C$DW$59, DW_AT_TI_end_line(0x3f1)
    2681                      .dwattr $C$DW$59, DW_AT_TI_end_column(0x01)
    2682                      .dwendentry
    2683                      .dwendtag $C$DW$59
    2684              
    2685 00000122               .sect   ".text:retain"
    2686                      .retain
    2687                      .retainrefs
    2688                      .global _CLA1_INT7_ISR
    2689              
    2690              $C$DW$60        .dwtag  DW_TAG_subprogram
    2691                      .dwattr $C$DW$60, DW_AT_name("CLA1_INT7_ISR")
    2692                      .dwattr $C$DW$60, DW_AT_low_pc(_CLA1_INT7_ISR)
    2693                      .dwattr $C$DW$60, DW_AT_high_pc(0x00)
    2694                      .dwattr $C$DW$60, DW_AT_TI_symbol_name("_CLA1_INT7_ISR")
    2695                      .dwattr $C$DW$60, DW_AT_external
TMS320C2000 Assembler PC v16.9.6 Tue Mar 06 18:34:36 2018

Tools Copyright (c) 1996-2017 Texas Instruments Incorporated
C:\Users\Admin\AppData\Local\Temp\{DC34D9F1-072D-4B77-A784-928B1DD31EC1} PAGE   50

    2696                      .dwattr $C$DW$60, DW_AT_TI_begin_file("../source/DSP2803x_DefaultIsr.c")
    2697                      .dwattr $C$DW$60, DW_AT_TI_begin_line(0x3d8)
    2698                      .dwattr $C$DW$60, DW_AT_TI_begin_column(0x10)
    2699                      .dwattr $C$DW$60, DW_AT_TI_interrupt
    2700                      .dwattr $C$DW$60, DW_AT_TI_max_frame_size(-2)
    2701                      .dwpsn  file "../source/DSP2803x_DefaultIsr.c",line 985,column 1,is_stmt,address _CLA1_INT7_ISR,isa 0
    2702              
    2703                      .dwfde $C$DW$CIE, _CLA1_INT7_ISR
    2704              
    2705              ;***************************************************************
    2706              ;* FNAME: _CLA1_INT7_ISR                FR SIZE:   0           *
    2707              ;*                                                             *
    2708              ;* FUNCTION ENVIRONMENT                                        *
    2709              ;*                                                             *
    2710              ;* FUNCTION PROPERTIES                                         *
    2711              ;*                            0 Parameter,  0 Auto,  0 SOE     *
    2712              ;***************************************************************
    2713              
    2714 00000122       _CLA1_INT7_ISR:
    2715                      .dwcfi  cfa_offset, -2
    2716                      .dwcfi  save_reg_to_mem, 26, 0
    2717 00000122 761B          ASP       ; [CPU_] 
    2718 00000123 2942          CLRC      PAGE0,OVM             ; [CPU_] 
    2719 00000124 5616          CLRC      AMODE                 ; [CPU_] 
    2720 00000125 7625        ESTOP0
    2721 00000126       $C$L58:    
    2722                      .dwpsn  file "../source/DSP2803x_DefaultIsr.c",line 994,column 3,is_stmt,isa 0
    2723 00000126 6F00          B         $C$L58,UNC            ; [CPU_] |994| 
    2724                      ; branch occurs ; [] |994| 
    2725                      .dwattr $C$DW$60, DW_AT_TI_end_file("../source/DSP2803x_DefaultIsr.c")
    2726                      .dwattr $C$DW$60, DW_AT_TI_end_line(0x3e3)
    2727                      .dwattr $C$DW$60, DW_AT_TI_end_column(0x01)
    2728                      .dwendentry
    2729                      .dwendtag $C$DW$60
    2730              
    2731 00000127               .sect   ".text:retain"
    2732                      .retain
    2733                      .retainrefs
    2734                      .global _CLA1_INT6_ISR
    2735              
    2736              $C$DW$61        .dwtag  DW_TAG_subprogram
    2737                      .dwattr $C$DW$61, DW_AT_name("CLA1_INT6_ISR")
    2738                      .dwattr $C$DW$61, DW_AT_low_pc(_CLA1_INT6_ISR)
    2739                      .dwattr $C$DW$61, DW_AT_high_pc(0x00)
    2740                      .dwattr $C$DW$61, DW_AT_TI_symbol_name("_CLA1_INT6_ISR")
    2741                      .dwattr $C$DW$61, DW_AT_external
    2742                      .dwattr $C$DW$61, DW_AT_TI_begin_file("../source/DSP2803x_DefaultIsr.c")
    2743                      .dwattr $C$DW$61, DW_AT_TI_begin_line(0x3ca)
    2744                      .dwattr $C$DW$61, DW_AT_TI_begin_column(0x10)
    2745                      .dwattr $C$DW$61, DW_AT_TI_interrupt
    2746                      .dwattr $C$DW$61, DW_AT_TI_max_frame_size(-2)
    2747                      .dwpsn  file "../source/DSP2803x_DefaultIsr.c",line 971,column 1,is_stmt,address _CLA1_INT6_ISR,isa 0
    2748              
    2749                      .dwfde $C$DW$CIE, _CLA1_INT6_ISR
    2750              
TMS320C2000 Assembler PC v16.9.6 Tue Mar 06 18:34:36 2018

Tools Copyright (c) 1996-2017 Texas Instruments Incorporated
C:\Users\Admin\AppData\Local\Temp\{DC34D9F1-072D-4B77-A784-928B1DD31EC1} PAGE   51

    2751              ;***************************************************************
    2752              ;* FNAME: _CLA1_INT6_ISR                FR SIZE:   0           *
    2753              ;*                                                             *
    2754              ;* FUNCTION ENVIRONMENT                                        *
    2755              ;*                                                             *
    2756              ;* FUNCTION PROPERTIES                                         *
    2757              ;*                            0 Parameter,  0 Auto,  0 SOE     *
    2758              ;***************************************************************
    2759              
    2760 00000127       _CLA1_INT6_ISR:
    2761                      .dwcfi  cfa_offset, -2
    2762                      .dwcfi  save_reg_to_mem, 26, 0
    2763 00000127 761B          ASP       ; [CPU_] 
    2764 00000128 2942          CLRC      PAGE0,OVM             ; [CPU_] 
    2765 00000129 5616          CLRC      AMODE                 ; [CPU_] 
    2766 0000012a 7625        ESTOP0
    2767 0000012b       $C$L59:    
    2768                      .dwpsn  file "../source/DSP2803x_DefaultIsr.c",line 980,column 3,is_stmt,isa 0
    2769 0000012b 6F00          B         $C$L59,UNC            ; [CPU_] |980| 
    2770                      ; branch occurs ; [] |980| 
    2771                      .dwattr $C$DW$61, DW_AT_TI_end_file("../source/DSP2803x_DefaultIsr.c")
    2772                      .dwattr $C$DW$61, DW_AT_TI_end_line(0x3d5)
    2773                      .dwattr $C$DW$61, DW_AT_TI_end_column(0x01)
    2774                      .dwendentry
    2775                      .dwendtag $C$DW$61
    2776              
    2777 0000012c               .sect   ".text:retain"
    2778                      .retain
    2779                      .retainrefs
    2780                      .global _CLA1_INT5_ISR
    2781              
    2782              $C$DW$62        .dwtag  DW_TAG_subprogram
    2783                      .dwattr $C$DW$62, DW_AT_name("CLA1_INT5_ISR")
    2784                      .dwattr $C$DW$62, DW_AT_low_pc(_CLA1_INT5_ISR)
    2785                      .dwattr $C$DW$62, DW_AT_high_pc(0x00)
    2786                      .dwattr $C$DW$62, DW_AT_TI_symbol_name("_CLA1_INT5_ISR")
    2787                      .dwattr $C$DW$62, DW_AT_external
    2788                      .dwattr $C$DW$62, DW_AT_TI_begin_file("../source/DSP2803x_DefaultIsr.c")
    2789                      .dwattr $C$DW$62, DW_AT_TI_begin_line(0x3bc)
    2790                      .dwattr $C$DW$62, DW_AT_TI_begin_column(0x10)
    2791                      .dwattr $C$DW$62, DW_AT_TI_interrupt
    2792                      .dwattr $C$DW$62, DW_AT_TI_max_frame_size(-2)
    2793                      .dwpsn  file "../source/DSP2803x_DefaultIsr.c",line 957,column 1,is_stmt,address _CLA1_INT5_ISR,isa 0
    2794              
    2795                      .dwfde $C$DW$CIE, _CLA1_INT5_ISR
    2796              
    2797              ;***************************************************************
    2798              ;* FNAME: _CLA1_INT5_ISR                FR SIZE:   0           *
    2799              ;*                                                             *
    2800              ;* FUNCTION ENVIRONMENT                                        *
    2801              ;*                                                             *
    2802              ;* FUNCTION PROPERTIES                                         *
    2803              ;*                            0 Parameter,  0 Auto,  0 SOE     *
    2804              ;***************************************************************
    2805              
TMS320C2000 Assembler PC v16.9.6 Tue Mar 06 18:34:36 2018

Tools Copyright (c) 1996-2017 Texas Instruments Incorporated
C:\Users\Admin\AppData\Local\Temp\{DC34D9F1-072D-4B77-A784-928B1DD31EC1} PAGE   52

    2806 0000012c       _CLA1_INT5_ISR:
    2807                      .dwcfi  cfa_offset, -2
    2808                      .dwcfi  save_reg_to_mem, 26, 0
    2809 0000012c 761B          ASP       ; [CPU_] 
    2810 0000012d 2942          CLRC      PAGE0,OVM             ; [CPU_] 
    2811 0000012e 5616          CLRC      AMODE                 ; [CPU_] 
    2812 0000012f 7625        ESTOP0
    2813 00000130       $C$L60:    
    2814                      .dwpsn  file "../source/DSP2803x_DefaultIsr.c",line 966,column 3,is_stmt,isa 0
    2815 00000130 6F00          B         $C$L60,UNC            ; [CPU_] |966| 
    2816                      ; branch occurs ; [] |966| 
    2817                      .dwattr $C$DW$62, DW_AT_TI_end_file("../source/DSP2803x_DefaultIsr.c")
    2818                      .dwattr $C$DW$62, DW_AT_TI_end_line(0x3c7)
    2819                      .dwattr $C$DW$62, DW_AT_TI_end_column(0x01)
    2820                      .dwendentry
    2821                      .dwendtag $C$DW$62
    2822              
    2823 00000131               .sect   ".text:retain"
    2824                      .retain
    2825                      .retainrefs
    2826                      .global _CLA1_INT4_ISR
    2827              
    2828              $C$DW$63        .dwtag  DW_TAG_subprogram
    2829                      .dwattr $C$DW$63, DW_AT_name("CLA1_INT4_ISR")
    2830                      .dwattr $C$DW$63, DW_AT_low_pc(_CLA1_INT4_ISR)
    2831                      .dwattr $C$DW$63, DW_AT_high_pc(0x00)
    2832                      .dwattr $C$DW$63, DW_AT_TI_symbol_name("_CLA1_INT4_ISR")
    2833                      .dwattr $C$DW$63, DW_AT_external
    2834                      .dwattr $C$DW$63, DW_AT_TI_begin_file("../source/DSP2803x_DefaultIsr.c")
    2835                      .dwattr $C$DW$63, DW_AT_TI_begin_line(0x3ae)
    2836                      .dwattr $C$DW$63, DW_AT_TI_begin_column(0x10)
    2837                      .dwattr $C$DW$63, DW_AT_TI_interrupt
    2838                      .dwattr $C$DW$63, DW_AT_TI_max_frame_size(-2)
    2839                      .dwpsn  file "../source/DSP2803x_DefaultIsr.c",line 943,column 1,is_stmt,address _CLA1_INT4_ISR,isa 0
    2840              
    2841                      .dwfde $C$DW$CIE, _CLA1_INT4_ISR
    2842              
    2843              ;***************************************************************
    2844              ;* FNAME: _CLA1_INT4_ISR                FR SIZE:   0           *
    2845              ;*                                                             *
    2846              ;* FUNCTION ENVIRONMENT                                        *
    2847              ;*                                                             *
    2848              ;* FUNCTION PROPERTIES                                         *
    2849              ;*                            0 Parameter,  0 Auto,  0 SOE     *
    2850              ;***************************************************************
    2851              
    2852 00000131       _CLA1_INT4_ISR:
    2853                      .dwcfi  cfa_offset, -2
    2854                      .dwcfi  save_reg_to_mem, 26, 0
    2855 00000131 761B          ASP       ; [CPU_] 
    2856 00000132 2942          CLRC      PAGE0,OVM             ; [CPU_] 
    2857 00000133 5616          CLRC      AMODE                 ; [CPU_] 
    2858 00000134 7625        ESTOP0
    2859 00000135       $C$L61:    
    2860                      .dwpsn  file "../source/DSP2803x_DefaultIsr.c",line 952,column 3,is_stmt,isa 0
TMS320C2000 Assembler PC v16.9.6 Tue Mar 06 18:34:36 2018

Tools Copyright (c) 1996-2017 Texas Instruments Incorporated
C:\Users\Admin\AppData\Local\Temp\{DC34D9F1-072D-4B77-A784-928B1DD31EC1} PAGE   53

    2861 00000135 6F00          B         $C$L61,UNC            ; [CPU_] |952| 
    2862                      ; branch occurs ; [] |952| 
    2863                      .dwattr $C$DW$63, DW_AT_TI_end_file("../source/DSP2803x_DefaultIsr.c")
    2864                      .dwattr $C$DW$63, DW_AT_TI_end_line(0x3b9)
    2865                      .dwattr $C$DW$63, DW_AT_TI_end_column(0x01)
    2866                      .dwendentry
    2867                      .dwendtag $C$DW$63
    2868              
    2869 00000136               .sect   ".text:retain"
    2870                      .retain
    2871                      .retainrefs
    2872                      .global _CLA1_INT3_ISR
    2873              
    2874              $C$DW$64        .dwtag  DW_TAG_subprogram
    2875                      .dwattr $C$DW$64, DW_AT_name("CLA1_INT3_ISR")
    2876                      .dwattr $C$DW$64, DW_AT_low_pc(_CLA1_INT3_ISR)
    2877                      .dwattr $C$DW$64, DW_AT_high_pc(0x00)
    2878                      .dwattr $C$DW$64, DW_AT_TI_symbol_name("_CLA1_INT3_ISR")
    2879                      .dwattr $C$DW$64, DW_AT_external
    2880                      .dwattr $C$DW$64, DW_AT_TI_begin_file("../source/DSP2803x_DefaultIsr.c")
    2881                      .dwattr $C$DW$64, DW_AT_TI_begin_line(0x3a0)
    2882                      .dwattr $C$DW$64, DW_AT_TI_begin_column(0x10)
    2883                      .dwattr $C$DW$64, DW_AT_TI_interrupt
    2884                      .dwattr $C$DW$64, DW_AT_TI_max_frame_size(-2)
    2885                      .dwpsn  file "../source/DSP2803x_DefaultIsr.c",line 929,column 1,is_stmt,address _CLA1_INT3_ISR,isa 0
    2886              
    2887                      .dwfde $C$DW$CIE, _CLA1_INT3_ISR
    2888              
    2889              ;***************************************************************
    2890              ;* FNAME: _CLA1_INT3_ISR                FR SIZE:   0           *
    2891              ;*                                                             *
    2892              ;* FUNCTION ENVIRONMENT                                        *
    2893              ;*                                                             *
    2894              ;* FUNCTION PROPERTIES                                         *
    2895              ;*                            0 Parameter,  0 Auto,  0 SOE     *
    2896              ;***************************************************************
    2897              
    2898 00000136       _CLA1_INT3_ISR:
    2899                      .dwcfi  cfa_offset, -2
    2900                      .dwcfi  save_reg_to_mem, 26, 0
    2901 00000136 761B          ASP       ; [CPU_] 
    2902 00000137 2942          CLRC      PAGE0,OVM             ; [CPU_] 
    2903 00000138 5616          CLRC      AMODE                 ; [CPU_] 
    2904 00000139 7625        ESTOP0
    2905 0000013a       $C$L62:    
    2906                      .dwpsn  file "../source/DSP2803x_DefaultIsr.c",line 938,column 3,is_stmt,isa 0
    2907 0000013a 6F00          B         $C$L62,UNC            ; [CPU_] |938| 
    2908                      ; branch occurs ; [] |938| 
    2909                      .dwattr $C$DW$64, DW_AT_TI_end_file("../source/DSP2803x_DefaultIsr.c")
    2910                      .dwattr $C$DW$64, DW_AT_TI_end_line(0x3ab)
    2911                      .dwattr $C$DW$64, DW_AT_TI_end_column(0x01)
    2912                      .dwendentry
    2913                      .dwendtag $C$DW$64
    2914              
    2915 0000013b               .sect   ".text:retain"
TMS320C2000 Assembler PC v16.9.6 Tue Mar 06 18:34:36 2018

Tools Copyright (c) 1996-2017 Texas Instruments Incorporated
C:\Users\Admin\AppData\Local\Temp\{DC34D9F1-072D-4B77-A784-928B1DD31EC1} PAGE   54

    2916                      .retain
    2917                      .retainrefs
    2918                      .global _CLA1_INT2_ISR
    2919              
    2920              $C$DW$65        .dwtag  DW_TAG_subprogram
    2921                      .dwattr $C$DW$65, DW_AT_name("CLA1_INT2_ISR")
    2922                      .dwattr $C$DW$65, DW_AT_low_pc(_CLA1_INT2_ISR)
    2923                      .dwattr $C$DW$65, DW_AT_high_pc(0x00)
    2924                      .dwattr $C$DW$65, DW_AT_TI_symbol_name("_CLA1_INT2_ISR")
    2925                      .dwattr $C$DW$65, DW_AT_external
    2926                      .dwattr $C$DW$65, DW_AT_TI_begin_file("../source/DSP2803x_DefaultIsr.c")
    2927                      .dwattr $C$DW$65, DW_AT_TI_begin_line(0x38f)
    2928                      .dwattr $C$DW$65, DW_AT_TI_begin_column(0x10)
    2929                      .dwattr $C$DW$65, DW_AT_TI_interrupt
    2930                      .dwattr $C$DW$65, DW_AT_TI_max_frame_size(-2)
    2931                      .dwpsn  file "../source/DSP2803x_DefaultIsr.c",line 912,column 1,is_stmt,address _CLA1_INT2_ISR,isa 0
    2932              
    2933                      .dwfde $C$DW$CIE, _CLA1_INT2_ISR
    2934              
    2935              ;***************************************************************
    2936              ;* FNAME: _CLA1_INT2_ISR                FR SIZE:   0           *
    2937              ;*                                                             *
    2938              ;* FUNCTION ENVIRONMENT                                        *
    2939              ;*                                                             *
    2940              ;* FUNCTION PROPERTIES                                         *
    2941              ;*                            0 Parameter,  0 Auto,  0 SOE     *
    2942              ;***************************************************************
    2943              
    2944 0000013b       _CLA1_INT2_ISR:
    2945                      .dwcfi  cfa_offset, -2
    2946                      .dwcfi  save_reg_to_mem, 26, 0
    2947 0000013b 761B          ASP       ; [CPU_] 
    2948 0000013c 2942          CLRC      PAGE0,OVM             ; [CPU_] 
    2949 0000013d 5616          CLRC      AMODE                 ; [CPU_] 
    2950 0000013e 7625            ESTOP0
    2951 0000013f       $C$L63:    
    2952                      .dwpsn  file "../source/DSP2803x_DefaultIsr.c",line 923,column 3,is_stmt,isa 0
    2953 0000013f 6F00          B         $C$L63,UNC            ; [CPU_] |923| 
    2954                      ; branch occurs ; [] |923| 
    2955                      .dwattr $C$DW$65, DW_AT_TI_end_file("../source/DSP2803x_DefaultIsr.c")
    2956                      .dwattr $C$DW$65, DW_AT_TI_end_line(0x39d)
    2957                      .dwattr $C$DW$65, DW_AT_TI_end_column(0x01)
    2958                      .dwendentry
    2959                      .dwendtag $C$DW$65
    2960              
    2961 00000140               .sect   ".text:retain"
    2962                      .retain
    2963                      .retainrefs
    2964                      .global _CLA1_INT1_ISR
    2965              
    2966              $C$DW$66        .dwtag  DW_TAG_subprogram
    2967                      .dwattr $C$DW$66, DW_AT_name("CLA1_INT1_ISR")
    2968                      .dwattr $C$DW$66, DW_AT_low_pc(_CLA1_INT1_ISR)
    2969                      .dwattr $C$DW$66, DW_AT_high_pc(0x00)
    2970                      .dwattr $C$DW$66, DW_AT_TI_symbol_name("_CLA1_INT1_ISR")
TMS320C2000 Assembler PC v16.9.6 Tue Mar 06 18:34:36 2018

Tools Copyright (c) 1996-2017 Texas Instruments Incorporated
C:\Users\Admin\AppData\Local\Temp\{DC34D9F1-072D-4B77-A784-928B1DD31EC1} PAGE   55

    2971                      .dwattr $C$DW$66, DW_AT_external
    2972                      .dwattr $C$DW$66, DW_AT_TI_begin_file("../source/DSP2803x_DefaultIsr.c")
    2973                      .dwattr $C$DW$66, DW_AT_TI_begin_line(0x37f)
    2974                      .dwattr $C$DW$66, DW_AT_TI_begin_column(0x10)
    2975                      .dwattr $C$DW$66, DW_AT_TI_interrupt
    2976                      .dwattr $C$DW$66, DW_AT_TI_max_frame_size(-2)
    2977                      .dwpsn  file "../source/DSP2803x_DefaultIsr.c",line 896,column 1,is_stmt,address _CLA1_INT1_ISR,isa 0
    2978              
    2979                      .dwfde $C$DW$CIE, _CLA1_INT1_ISR
    2980              
    2981              ;***************************************************************
    2982              ;* FNAME: _CLA1_INT1_ISR                FR SIZE:   0           *
    2983              ;*                                                             *
    2984              ;* FUNCTION ENVIRONMENT                                        *
    2985              ;*                                                             *
    2986              ;* FUNCTION PROPERTIES                                         *
    2987              ;*                            0 Parameter,  0 Auto,  0 SOE     *
    2988              ;***************************************************************
    2989              
    2990 00000140       _CLA1_INT1_ISR:
    2991                      .dwcfi  cfa_offset, -2
    2992                      .dwcfi  save_reg_to_mem, 26, 0
    2993 00000140 761B          ASP       ; [CPU_] 
    2994 00000141 2942          CLRC      PAGE0,OVM             ; [CPU_] 
    2995 00000142 5616          CLRC      AMODE                 ; [CPU_] 
    2996 00000143 7625        ESTOP0
    2997 00000144       $C$L64:    
    2998                      .dwpsn  file "../source/DSP2803x_DefaultIsr.c",line 906,column 3,is_stmt,isa 0
    2999 00000144 6F00          B         $C$L64,UNC            ; [CPU_] |906| 
    3000                      ; branch occurs ; [] |906| 
    3001                      .dwattr $C$DW$66, DW_AT_TI_end_file("../source/DSP2803x_DefaultIsr.c")
    3002                      .dwattr $C$DW$66, DW_AT_TI_end_line(0x38c)
    3003                      .dwattr $C$DW$66, DW_AT_TI_end_column(0x01)
    3004                      .dwendentry
    3005                      .dwendtag $C$DW$66
    3006              
    3007 00000145               .sect   ".text:retain"
    3008                      .retain
    3009                      .retainrefs
    3010                      .global _ADCINT9_ISR
    3011              
    3012              $C$DW$67        .dwtag  DW_TAG_subprogram
    3013                      .dwattr $C$DW$67, DW_AT_name("ADCINT9_ISR")
    3014                      .dwattr $C$DW$67, DW_AT_low_pc(_ADCINT9_ISR)
    3015                      .dwattr $C$DW$67, DW_AT_high_pc(0x00)
    3016                      .dwattr $C$DW$67, DW_AT_TI_symbol_name("_ADCINT9_ISR")
    3017                      .dwattr $C$DW$67, DW_AT_external
    3018                      .dwattr $C$DW$67, DW_AT_TI_begin_file("../source/DSP2803x_DefaultIsr.c")
    3019                      .dwattr $C$DW$67, DW_AT_TI_begin_line(0x124)
    3020                      .dwattr $C$DW$67, DW_AT_TI_begin_column(0x11)
    3021                      .dwattr $C$DW$67, DW_AT_TI_interrupt
    3022                      .dwattr $C$DW$67, DW_AT_TI_max_frame_size(-2)
    3023                      .dwpsn  file "../source/DSP2803x_DefaultIsr.c",line 293,column 1,is_stmt,address _ADCINT9_ISR,isa 0
    3024              
    3025                      .dwfde $C$DW$CIE, _ADCINT9_ISR
TMS320C2000 Assembler PC v16.9.6 Tue Mar 06 18:34:36 2018

Tools Copyright (c) 1996-2017 Texas Instruments Incorporated
C:\Users\Admin\AppData\Local\Temp\{DC34D9F1-072D-4B77-A784-928B1DD31EC1} PAGE   56

    3026              
    3027              ;***************************************************************
    3028              ;* FNAME: _ADCINT9_ISR                  FR SIZE:   0           *
    3029              ;*                                                             *
    3030              ;* FUNCTION ENVIRONMENT                                        *
    3031              ;*                                                             *
    3032              ;* FUNCTION PROPERTIES                                         *
    3033              ;*                            0 Parameter,  0 Auto,  0 SOE     *
    3034              ;***************************************************************
    3035              
    3036 00000145       _ADCINT9_ISR:
    3037                      .dwcfi  cfa_offset, -2
    3038                      .dwcfi  save_reg_to_mem, 26, 0
    3039 00000145 761B          ASP       ; [CPU_] 
    3040 00000146 2942          CLRC      PAGE0,OVM             ; [CPU_] 
    3041 00000147 5616          CLRC      AMODE                 ; [CPU_] 
    3042 00000148 7625        ESTOP0
    3043 00000149       $C$L65:    
    3044                      .dwpsn  file "../source/DSP2803x_DefaultIsr.c",line 302,column 3,is_stmt,isa 0
    3045 00000149 6F00          B         $C$L65,UNC            ; [CPU_] |302| 
    3046                      ; branch occurs ; [] |302| 
    3047                      .dwattr $C$DW$67, DW_AT_TI_end_file("../source/DSP2803x_DefaultIsr.c")
    3048                      .dwattr $C$DW$67, DW_AT_TI_end_line(0x12f)
    3049                      .dwattr $C$DW$67, DW_AT_TI_end_column(0x01)
    3050                      .dwendentry
    3051                      .dwendtag $C$DW$67
    3052              
    3053 0000014a               .sect   ".text:retain"
    3054                      .retain
    3055                      .retainrefs
    3056                      .global _ADCINT8_ISR
    3057              
    3058              $C$DW$68        .dwtag  DW_TAG_subprogram
    3059                      .dwattr $C$DW$68, DW_AT_name("ADCINT8_ISR")
    3060                      .dwattr $C$DW$68, DW_AT_low_pc(_ADCINT8_ISR)
    3061                      .dwattr $C$DW$68, DW_AT_high_pc(0x00)
    3062                      .dwattr $C$DW$68, DW_AT_TI_symbol_name("_ADCINT8_ISR")
    3063                      .dwattr $C$DW$68, DW_AT_external
    3064                      .dwattr $C$DW$68, DW_AT_TI_begin_file("../source/DSP2803x_DefaultIsr.c")
    3065                      .dwattr $C$DW$68, DW_AT_TI_begin_line(0x36c)
    3066                      .dwattr $C$DW$68, DW_AT_TI_begin_column(0x10)
    3067                      .dwattr $C$DW$68, DW_AT_TI_interrupt
    3068                      .dwattr $C$DW$68, DW_AT_TI_max_frame_size(-2)
    3069                      .dwpsn  file "../source/DSP2803x_DefaultIsr.c",line 877,column 1,is_stmt,address _ADCINT8_ISR,isa 0
    3070              
    3071                      .dwfde $C$DW$CIE, _ADCINT8_ISR
    3072              
    3073              ;***************************************************************
    3074              ;* FNAME: _ADCINT8_ISR                  FR SIZE:   0           *
    3075              ;*                                                             *
    3076              ;* FUNCTION ENVIRONMENT                                        *
    3077              ;*                                                             *
    3078              ;* FUNCTION PROPERTIES                                         *
    3079              ;*                            0 Parameter,  0 Auto,  0 SOE     *
    3080              ;***************************************************************
TMS320C2000 Assembler PC v16.9.6 Tue Mar 06 18:34:36 2018

Tools Copyright (c) 1996-2017 Texas Instruments Incorporated
C:\Users\Admin\AppData\Local\Temp\{DC34D9F1-072D-4B77-A784-928B1DD31EC1} PAGE   57

    3081              
    3082 0000014a       _ADCINT8_ISR:
    3083                      .dwcfi  cfa_offset, -2
    3084                      .dwcfi  save_reg_to_mem, 26, 0
    3085 0000014a 761B          ASP       ; [CPU_] 
    3086 0000014b 2942          CLRC      PAGE0,OVM             ; [CPU_] 
    3087 0000014c 5616          CLRC      AMODE                 ; [CPU_] 
    3088 0000014d 7625        ESTOP0
    3089 0000014e       $C$L66:    
    3090                      .dwpsn  file "../source/DSP2803x_DefaultIsr.c",line 886,column 3,is_stmt,isa 0
    3091 0000014e 6F00          B         $C$L66,UNC            ; [CPU_] |886| 
    3092                      ; branch occurs ; [] |886| 
    3093                      .dwattr $C$DW$68, DW_AT_TI_end_file("../source/DSP2803x_DefaultIsr.c")
    3094                      .dwattr $C$DW$68, DW_AT_TI_end_line(0x377)
    3095                      .dwattr $C$DW$68, DW_AT_TI_end_column(0x01)
    3096                      .dwendentry
    3097                      .dwendtag $C$DW$68
    3098              
    3099 0000014f               .sect   ".text:retain"
    3100                      .retain
    3101                      .retainrefs
    3102                      .global _ADCINT7_ISR
    3103              
    3104              $C$DW$69        .dwtag  DW_TAG_subprogram
    3105                      .dwattr $C$DW$69, DW_AT_name("ADCINT7_ISR")
    3106                      .dwattr $C$DW$69, DW_AT_low_pc(_ADCINT7_ISR)
    3107                      .dwattr $C$DW$69, DW_AT_high_pc(0x00)
    3108                      .dwattr $C$DW$69, DW_AT_TI_symbol_name("_ADCINT7_ISR")
    3109                      .dwattr $C$DW$69, DW_AT_external
    3110                      .dwattr $C$DW$69, DW_AT_TI_begin_file("../source/DSP2803x_DefaultIsr.c")
    3111                      .dwattr $C$DW$69, DW_AT_TI_begin_line(0x35e)
    3112                      .dwattr $C$DW$69, DW_AT_TI_begin_column(0x10)
    3113                      .dwattr $C$DW$69, DW_AT_TI_interrupt
    3114                      .dwattr $C$DW$69, DW_AT_TI_max_frame_size(-2)
    3115                      .dwpsn  file "../source/DSP2803x_DefaultIsr.c",line 863,column 1,is_stmt,address _ADCINT7_ISR,isa 0
    3116              
    3117                      .dwfde $C$DW$CIE, _ADCINT7_ISR
    3118              
    3119              ;***************************************************************
    3120              ;* FNAME: _ADCINT7_ISR                  FR SIZE:   0           *
    3121              ;*                                                             *
    3122              ;* FUNCTION ENVIRONMENT                                        *
    3123              ;*                                                             *
    3124              ;* FUNCTION PROPERTIES                                         *
    3125              ;*                            0 Parameter,  0 Auto,  0 SOE     *
    3126              ;***************************************************************
    3127              
    3128 0000014f       _ADCINT7_ISR:
    3129                      .dwcfi  cfa_offset, -2
    3130                      .dwcfi  save_reg_to_mem, 26, 0
    3131 0000014f 761B          ASP       ; [CPU_] 
    3132 00000150 2942          CLRC      PAGE0,OVM             ; [CPU_] 
    3133 00000151 5616          CLRC      AMODE                 ; [CPU_] 
    3134 00000152 7625        ESTOP0
    3135 00000153       $C$L67:    
TMS320C2000 Assembler PC v16.9.6 Tue Mar 06 18:34:36 2018

Tools Copyright (c) 1996-2017 Texas Instruments Incorporated
C:\Users\Admin\AppData\Local\Temp\{DC34D9F1-072D-4B77-A784-928B1DD31EC1} PAGE   58

    3136                      .dwpsn  file "../source/DSP2803x_DefaultIsr.c",line 872,column 3,is_stmt,isa 0
    3137 00000153 6F00          B         $C$L67,UNC            ; [CPU_] |872| 
    3138                      ; branch occurs ; [] |872| 
    3139                      .dwattr $C$DW$69, DW_AT_TI_end_file("../source/DSP2803x_DefaultIsr.c")
    3140                      .dwattr $C$DW$69, DW_AT_TI_end_line(0x369)
    3141                      .dwattr $C$DW$69, DW_AT_TI_end_column(0x01)
    3142                      .dwendentry
    3143                      .dwendtag $C$DW$69
    3144              
    3145 00000154               .sect   ".text:retain"
    3146                      .retain
    3147                      .retainrefs
    3148                      .global _ADCINT6_ISR
    3149              
    3150              $C$DW$70        .dwtag  DW_TAG_subprogram
    3151                      .dwattr $C$DW$70, DW_AT_name("ADCINT6_ISR")
    3152                      .dwattr $C$DW$70, DW_AT_low_pc(_ADCINT6_ISR)
    3153                      .dwattr $C$DW$70, DW_AT_high_pc(0x00)
    3154                      .dwattr $C$DW$70, DW_AT_TI_symbol_name("_ADCINT6_ISR")
    3155                      .dwattr $C$DW$70, DW_AT_external
    3156                      .dwattr $C$DW$70, DW_AT_TI_begin_file("../source/DSP2803x_DefaultIsr.c")
    3157                      .dwattr $C$DW$70, DW_AT_TI_begin_line(0x350)
    3158                      .dwattr $C$DW$70, DW_AT_TI_begin_column(0x10)
    3159                      .dwattr $C$DW$70, DW_AT_TI_interrupt
    3160                      .dwattr $C$DW$70, DW_AT_TI_max_frame_size(-2)
    3161                      .dwpsn  file "../source/DSP2803x_DefaultIsr.c",line 849,column 1,is_stmt,address _ADCINT6_ISR,isa 0
    3162              
    3163                      .dwfde $C$DW$CIE, _ADCINT6_ISR
    3164              
    3165              ;***************************************************************
    3166              ;* FNAME: _ADCINT6_ISR                  FR SIZE:   0           *
    3167              ;*                                                             *
    3168              ;* FUNCTION ENVIRONMENT                                        *
    3169              ;*                                                             *
    3170              ;* FUNCTION PROPERTIES                                         *
    3171              ;*                            0 Parameter,  0 Auto,  0 SOE     *
    3172              ;***************************************************************
    3173              
    3174 00000154       _ADCINT6_ISR:
    3175                      .dwcfi  cfa_offset, -2
    3176                      .dwcfi  save_reg_to_mem, 26, 0
    3177 00000154 761B          ASP       ; [CPU_] 
    3178 00000155 2942          CLRC      PAGE0,OVM             ; [CPU_] 
    3179 00000156 5616          CLRC      AMODE                 ; [CPU_] 
    3180 00000157 7625        ESTOP0
    3181 00000158       $C$L68:    
    3182                      .dwpsn  file "../source/DSP2803x_DefaultIsr.c",line 858,column 3,is_stmt,isa 0
    3183 00000158 6F00          B         $C$L68,UNC            ; [CPU_] |858| 
    3184                      ; branch occurs ; [] |858| 
    3185                      .dwattr $C$DW$70, DW_AT_TI_end_file("../source/DSP2803x_DefaultIsr.c")
    3186                      .dwattr $C$DW$70, DW_AT_TI_end_line(0x35b)
    3187                      .dwattr $C$DW$70, DW_AT_TI_end_column(0x01)
    3188                      .dwendentry
    3189                      .dwendtag $C$DW$70
    3190              
TMS320C2000 Assembler PC v16.9.6 Tue Mar 06 18:34:36 2018

Tools Copyright (c) 1996-2017 Texas Instruments Incorporated
C:\Users\Admin\AppData\Local\Temp\{DC34D9F1-072D-4B77-A784-928B1DD31EC1} PAGE   59

    3191 00000159               .sect   ".text:retain"
    3192                      .retain
    3193                      .retainrefs
    3194                      .global _ADCINT5_ISR
    3195              
    3196              $C$DW$71        .dwtag  DW_TAG_subprogram
    3197                      .dwattr $C$DW$71, DW_AT_name("ADCINT5_ISR")
    3198                      .dwattr $C$DW$71, DW_AT_low_pc(_ADCINT5_ISR)
    3199                      .dwattr $C$DW$71, DW_AT_high_pc(0x00)
    3200                      .dwattr $C$DW$71, DW_AT_TI_symbol_name("_ADCINT5_ISR")
    3201                      .dwattr $C$DW$71, DW_AT_external
    3202                      .dwattr $C$DW$71, DW_AT_TI_begin_file("../source/DSP2803x_DefaultIsr.c")
    3203                      .dwattr $C$DW$71, DW_AT_TI_begin_line(0x342)
    3204                      .dwattr $C$DW$71, DW_AT_TI_begin_column(0x10)
    3205                      .dwattr $C$DW$71, DW_AT_TI_interrupt
    3206                      .dwattr $C$DW$71, DW_AT_TI_max_frame_size(-2)
    3207                      .dwpsn  file "../source/DSP2803x_DefaultIsr.c",line 835,column 1,is_stmt,address _ADCINT5_ISR,isa 0
    3208              
    3209                      .dwfde $C$DW$CIE, _ADCINT5_ISR
    3210              
    3211              ;***************************************************************
    3212              ;* FNAME: _ADCINT5_ISR                  FR SIZE:   0           *
    3213              ;*                                                             *
    3214              ;* FUNCTION ENVIRONMENT                                        *
    3215              ;*                                                             *
    3216              ;* FUNCTION PROPERTIES                                         *
    3217              ;*                            0 Parameter,  0 Auto,  0 SOE     *
    3218              ;***************************************************************
    3219              
    3220 00000159       _ADCINT5_ISR:
    3221                      .dwcfi  cfa_offset, -2
    3222                      .dwcfi  save_reg_to_mem, 26, 0
    3223 00000159 761B          ASP       ; [CPU_] 
    3224 0000015a 2942          CLRC      PAGE0,OVM             ; [CPU_] 
    3225 0000015b 5616          CLRC      AMODE                 ; [CPU_] 
    3226 0000015c 7625        ESTOP0
    3227 0000015d       $C$L69:    
    3228                      .dwpsn  file "../source/DSP2803x_DefaultIsr.c",line 844,column 3,is_stmt,isa 0
    3229 0000015d 6F00          B         $C$L69,UNC            ; [CPU_] |844| 
    3230                      ; branch occurs ; [] |844| 
    3231                      .dwattr $C$DW$71, DW_AT_TI_end_file("../source/DSP2803x_DefaultIsr.c")
    3232                      .dwattr $C$DW$71, DW_AT_TI_end_line(0x34d)
    3233                      .dwattr $C$DW$71, DW_AT_TI_end_column(0x01)
    3234                      .dwendentry
    3235                      .dwendtag $C$DW$71
    3236              
    3237 0000015e               .sect   ".text:retain"
    3238                      .retain
    3239                      .retainrefs
    3240                      .global _ADCINT4_ISR
    3241              
    3242              $C$DW$72        .dwtag  DW_TAG_subprogram
    3243                      .dwattr $C$DW$72, DW_AT_name("ADCINT4_ISR")
    3244                      .dwattr $C$DW$72, DW_AT_low_pc(_ADCINT4_ISR)
    3245                      .dwattr $C$DW$72, DW_AT_high_pc(0x00)
TMS320C2000 Assembler PC v16.9.6 Tue Mar 06 18:34:36 2018

Tools Copyright (c) 1996-2017 Texas Instruments Incorporated
C:\Users\Admin\AppData\Local\Temp\{DC34D9F1-072D-4B77-A784-928B1DD31EC1} PAGE   60

    3246                      .dwattr $C$DW$72, DW_AT_TI_symbol_name("_ADCINT4_ISR")
    3247                      .dwattr $C$DW$72, DW_AT_external
    3248                      .dwattr $C$DW$72, DW_AT_TI_begin_file("../source/DSP2803x_DefaultIsr.c")
    3249                      .dwattr $C$DW$72, DW_AT_TI_begin_line(0x334)
    3250                      .dwattr $C$DW$72, DW_AT_TI_begin_column(0x10)
    3251                      .dwattr $C$DW$72, DW_AT_TI_interrupt
    3252                      .dwattr $C$DW$72, DW_AT_TI_max_frame_size(-2)
    3253                      .dwpsn  file "../source/DSP2803x_DefaultIsr.c",line 821,column 1,is_stmt,address _ADCINT4_ISR,isa 0
    3254              
    3255                      .dwfde $C$DW$CIE, _ADCINT4_ISR
    3256              
    3257              ;***************************************************************
    3258              ;* FNAME: _ADCINT4_ISR                  FR SIZE:   0           *
    3259              ;*                                                             *
    3260              ;* FUNCTION ENVIRONMENT                                        *
    3261              ;*                                                             *
    3262              ;* FUNCTION PROPERTIES                                         *
    3263              ;*                            0 Parameter,  0 Auto,  0 SOE     *
    3264              ;***************************************************************
    3265              
    3266 0000015e       _ADCINT4_ISR:
    3267                      .dwcfi  cfa_offset, -2
    3268                      .dwcfi  save_reg_to_mem, 26, 0
    3269 0000015e 761B          ASP       ; [CPU_] 
    3270 0000015f 2942          CLRC      PAGE0,OVM             ; [CPU_] 
    3271 00000160 5616          CLRC      AMODE                 ; [CPU_] 
    3272 00000161 7625        ESTOP0
    3273 00000162       $C$L70:    
    3274                      .dwpsn  file "../source/DSP2803x_DefaultIsr.c",line 830,column 3,is_stmt,isa 0
    3275 00000162 6F00          B         $C$L70,UNC            ; [CPU_] |830| 
    3276                      ; branch occurs ; [] |830| 
    3277                      .dwattr $C$DW$72, DW_AT_TI_end_file("../source/DSP2803x_DefaultIsr.c")
    3278                      .dwattr $C$DW$72, DW_AT_TI_end_line(0x33f)
    3279                      .dwattr $C$DW$72, DW_AT_TI_end_column(0x01)
    3280                      .dwendentry
    3281                      .dwendtag $C$DW$72
    3282              
    3283 00000163               .sect   ".text:retain"
    3284                      .retain
    3285                      .retainrefs
    3286                      .global _ADCINT3_ISR
    3287              
    3288              $C$DW$73        .dwtag  DW_TAG_subprogram
    3289                      .dwattr $C$DW$73, DW_AT_name("ADCINT3_ISR")
    3290                      .dwattr $C$DW$73, DW_AT_low_pc(_ADCINT3_ISR)
    3291                      .dwattr $C$DW$73, DW_AT_high_pc(0x00)
    3292                      .dwattr $C$DW$73, DW_AT_TI_symbol_name("_ADCINT3_ISR")
    3293                      .dwattr $C$DW$73, DW_AT_external
    3294                      .dwattr $C$DW$73, DW_AT_TI_begin_file("../source/DSP2803x_DefaultIsr.c")
    3295                      .dwattr $C$DW$73, DW_AT_TI_begin_line(0x326)
    3296                      .dwattr $C$DW$73, DW_AT_TI_begin_column(0x10)
    3297                      .dwattr $C$DW$73, DW_AT_TI_interrupt
    3298                      .dwattr $C$DW$73, DW_AT_TI_max_frame_size(-2)
    3299                      .dwpsn  file "../source/DSP2803x_DefaultIsr.c",line 807,column 1,is_stmt,address _ADCINT3_ISR,isa 0
    3300              
TMS320C2000 Assembler PC v16.9.6 Tue Mar 06 18:34:36 2018

Tools Copyright (c) 1996-2017 Texas Instruments Incorporated
C:\Users\Admin\AppData\Local\Temp\{DC34D9F1-072D-4B77-A784-928B1DD31EC1} PAGE   61

    3301                      .dwfde $C$DW$CIE, _ADCINT3_ISR
    3302              
    3303              ;***************************************************************
    3304              ;* FNAME: _ADCINT3_ISR                  FR SIZE:   0           *
    3305              ;*                                                             *
    3306              ;* FUNCTION ENVIRONMENT                                        *
    3307              ;*                                                             *
    3308              ;* FUNCTION PROPERTIES                                         *
    3309              ;*                            0 Parameter,  0 Auto,  0 SOE     *
    3310              ;***************************************************************
    3311              
    3312 00000163       _ADCINT3_ISR:
    3313                      .dwcfi  cfa_offset, -2
    3314                      .dwcfi  save_reg_to_mem, 26, 0
    3315 00000163 761B          ASP       ; [CPU_] 
    3316 00000164 2942          CLRC      PAGE0,OVM             ; [CPU_] 
    3317 00000165 5616          CLRC      AMODE                 ; [CPU_] 
    3318 00000166 7625        ESTOP0
    3319 00000167       $C$L71:    
    3320                      .dwpsn  file "../source/DSP2803x_DefaultIsr.c",line 816,column 3,is_stmt,isa 0
    3321 00000167 6F00          B         $C$L71,UNC            ; [CPU_] |816| 
    3322                      ; branch occurs ; [] |816| 
    3323                      .dwattr $C$DW$73, DW_AT_TI_end_file("../source/DSP2803x_DefaultIsr.c")
    3324                      .dwattr $C$DW$73, DW_AT_TI_end_line(0x331)
    3325                      .dwattr $C$DW$73, DW_AT_TI_end_column(0x01)
    3326                      .dwendentry
    3327                      .dwendtag $C$DW$73
    3328              
    3329 00000168               .sect   ".text:retain"
    3330                      .retain
    3331                      .retainrefs
    3332                      .global _ADCINT2_ISR
    3333              
    3334              $C$DW$74        .dwtag  DW_TAG_subprogram
    3335                      .dwattr $C$DW$74, DW_AT_name("ADCINT2_ISR")
    3336                      .dwattr $C$DW$74, DW_AT_low_pc(_ADCINT2_ISR)
    3337                      .dwattr $C$DW$74, DW_AT_high_pc(0x00)
    3338                      .dwattr $C$DW$74, DW_AT_TI_symbol_name("_ADCINT2_ISR")
    3339                      .dwattr $C$DW$74, DW_AT_external
    3340                      .dwattr $C$DW$74, DW_AT_TI_begin_file("../source/DSP2803x_DefaultIsr.c")
    3341                      .dwattr $C$DW$74, DW_AT_TI_begin_line(0xf3)
    3342                      .dwattr $C$DW$74, DW_AT_TI_begin_column(0x10)
    3343                      .dwattr $C$DW$74, DW_AT_TI_interrupt
    3344                      .dwattr $C$DW$74, DW_AT_TI_max_frame_size(-2)
    3345                      .dwpsn  file "../source/DSP2803x_DefaultIsr.c",line 244,column 1,is_stmt,address _ADCINT2_ISR,isa 0
    3346              
    3347                      .dwfde $C$DW$CIE, _ADCINT2_ISR
    3348              
    3349              ;***************************************************************
    3350              ;* FNAME: _ADCINT2_ISR                  FR SIZE:   0           *
    3351              ;*                                                             *
    3352              ;* FUNCTION ENVIRONMENT                                        *
    3353              ;*                                                             *
    3354              ;* FUNCTION PROPERTIES                                         *
    3355              ;*                            0 Parameter,  0 Auto,  0 SOE     *
TMS320C2000 Assembler PC v16.9.6 Tue Mar 06 18:34:36 2018

Tools Copyright (c) 1996-2017 Texas Instruments Incorporated
C:\Users\Admin\AppData\Local\Temp\{DC34D9F1-072D-4B77-A784-928B1DD31EC1} PAGE   62

    3356              ;***************************************************************
    3357              
    3358 00000168       _ADCINT2_ISR:
    3359                      .dwcfi  cfa_offset, -2
    3360                      .dwcfi  save_reg_to_mem, 26, 0
    3361 00000168 761B          ASP       ; [CPU_] 
    3362 00000169 2942          CLRC      PAGE0,OVM             ; [CPU_] 
    3363 0000016a 5616          CLRC      AMODE                 ; [CPU_] 
    3364 0000016b 7625            ESTOP0
    3365 0000016c       $C$L72:    
    3366                      .dwpsn  file "../source/DSP2803x_DefaultIsr.c",line 255,column 3,is_stmt,isa 0
    3367 0000016c 6F00          B         $C$L72,UNC            ; [CPU_] |255| 
    3368                      ; branch occurs ; [] |255| 
    3369                      .dwattr $C$DW$74, DW_AT_TI_end_file("../source/DSP2803x_DefaultIsr.c")
    3370                      .dwattr $C$DW$74, DW_AT_TI_end_line(0x101)
    3371                      .dwattr $C$DW$74, DW_AT_TI_end_column(0x01)
    3372                      .dwendentry
    3373                      .dwendtag $C$DW$74
    3374              
    3375 0000016d               .sect   ".text:retain"
    3376                      .retain
    3377                      .retainrefs
    3378                      .global _ADCINT1_ISR
    3379              
    3380              $C$DW$75        .dwtag  DW_TAG_subprogram
    3381                      .dwattr $C$DW$75, DW_AT_name("ADCINT1_ISR")
    3382                      .dwattr $C$DW$75, DW_AT_low_pc(_ADCINT1_ISR)
    3383                      .dwattr $C$DW$75, DW_AT_high_pc(0x00)
    3384                      .dwattr $C$DW$75, DW_AT_TI_symbol_name("_ADCINT1_ISR")
    3385                      .dwattr $C$DW$75, DW_AT_external
    3386                      .dwattr $C$DW$75, DW_AT_TI_begin_file("../source/DSP2803x_DefaultIsr.c")
    3387                      .dwattr $C$DW$75, DW_AT_TI_begin_line(0xe3)
    3388                      .dwattr $C$DW$75, DW_AT_TI_begin_column(0x10)
    3389                      .dwattr $C$DW$75, DW_AT_TI_interrupt
    3390                      .dwattr $C$DW$75, DW_AT_TI_max_frame_size(-2)
    3391                      .dwpsn  file "../source/DSP2803x_DefaultIsr.c",line 228,column 1,is_stmt,address _ADCINT1_ISR,isa 0
    3392              
    3393                      .dwfde $C$DW$CIE, _ADCINT1_ISR
    3394              
    3395              ;***************************************************************
    3396              ;* FNAME: _ADCINT1_ISR                  FR SIZE:   0           *
    3397              ;*                                                             *
    3398              ;* FUNCTION ENVIRONMENT                                        *
    3399              ;*                                                             *
    3400              ;* FUNCTION PROPERTIES                                         *
    3401              ;*                            0 Parameter,  0 Auto,  0 SOE     *
    3402              ;***************************************************************
    3403              
    3404 0000016d       _ADCINT1_ISR:
    3405                      .dwcfi  cfa_offset, -2
    3406                      .dwcfi  save_reg_to_mem, 26, 0
    3407 0000016d 761B          ASP       ; [CPU_] 
    3408 0000016e 2942          CLRC      PAGE0,OVM             ; [CPU_] 
    3409 0000016f 5616          CLRC      AMODE                 ; [CPU_] 
    3410 00000170 7625        ESTOP0
TMS320C2000 Assembler PC v16.9.6 Tue Mar 06 18:34:36 2018

Tools Copyright (c) 1996-2017 Texas Instruments Incorporated
C:\Users\Admin\AppData\Local\Temp\{DC34D9F1-072D-4B77-A784-928B1DD31EC1} PAGE   63

    3411 00000171       $C$L73:    
    3412                      .dwpsn  file "../source/DSP2803x_DefaultIsr.c",line 238,column 3,is_stmt,isa 0
    3413 00000171 6F00          B         $C$L73,UNC            ; [CPU_] |238| 
    3414                      ; branch occurs ; [] |238| 
    3415                      .dwattr $C$DW$75, DW_AT_TI_end_file("../source/DSP2803x_DefaultIsr.c")
    3416                      .dwattr $C$DW$75, DW_AT_TI_end_line(0xf0)
    3417                      .dwattr $C$DW$75, DW_AT_TI_end_column(0x01)
    3418                      .dwendentry
    3419                      .dwendtag $C$DW$75
    3420              
    3421              
    3422              ;***************************************************************
    3423              ;* TYPE INFORMATION                                            *
    3424              ;***************************************************************
    3425              $C$DW$T$2       .dwtag  DW_TAG_unspecified_type
    3426                      .dwattr $C$DW$T$2, DW_AT_name("void")
    3427              
    3428              $C$DW$T$4       .dwtag  DW_TAG_base_type
    3429                      .dwattr $C$DW$T$4, DW_AT_encoding(DW_ATE_boolean)
    3430                      .dwattr $C$DW$T$4, DW_AT_name("bool")
    3431                      .dwattr $C$DW$T$4, DW_AT_byte_size(0x01)
    3432              
    3433              $C$DW$T$5       .dwtag  DW_TAG_base_type
    3434                      .dwattr $C$DW$T$5, DW_AT_encoding(DW_ATE_signed_char)
    3435                      .dwattr $C$DW$T$5, DW_AT_name("signed char")
    3436                      .dwattr $C$DW$T$5, DW_AT_byte_size(0x01)
    3437              
    3438              $C$DW$T$6       .dwtag  DW_TAG_base_type
    3439                      .dwattr $C$DW$T$6, DW_AT_encoding(DW_ATE_unsigned_char)
    3440                      .dwattr $C$DW$T$6, DW_AT_name("unsigned char")
    3441                      .dwattr $C$DW$T$6, DW_AT_byte_size(0x01)
    3442              
    3443              $C$DW$T$7       .dwtag  DW_TAG_base_type
    3444                      .dwattr $C$DW$T$7, DW_AT_encoding(DW_ATE_signed_char)
    3445                      .dwattr $C$DW$T$7, DW_AT_name("wchar_t")
    3446                      .dwattr $C$DW$T$7, DW_AT_byte_size(0x01)
    3447              
    3448              $C$DW$T$8       .dwtag  DW_TAG_base_type
    3449                      .dwattr $C$DW$T$8, DW_AT_encoding(DW_ATE_signed)
    3450                      .dwattr $C$DW$T$8, DW_AT_name("short")
    3451                      .dwattr $C$DW$T$8, DW_AT_byte_size(0x01)
    3452              
    3453              $C$DW$T$9       .dwtag  DW_TAG_base_type
    3454                      .dwattr $C$DW$T$9, DW_AT_encoding(DW_ATE_unsigned)
    3455                      .dwattr $C$DW$T$9, DW_AT_name("unsigned short")
    3456                      .dwattr $C$DW$T$9, DW_AT_byte_size(0x01)
    3457              
    3458              $C$DW$T$10      .dwtag  DW_TAG_base_type
    3459                      .dwattr $C$DW$T$10, DW_AT_encoding(DW_ATE_signed)
    3460                      .dwattr $C$DW$T$10, DW_AT_name("int")
    3461                      .dwattr $C$DW$T$10, DW_AT_byte_size(0x01)
    3462              
    3463              $C$DW$T$11      .dwtag  DW_TAG_base_type
    3464                      .dwattr $C$DW$T$11, DW_AT_encoding(DW_ATE_unsigned)
    3465                      .dwattr $C$DW$T$11, DW_AT_name("unsigned int")
TMS320C2000 Assembler PC v16.9.6 Tue Mar 06 18:34:36 2018

Tools Copyright (c) 1996-2017 Texas Instruments Incorporated
C:\Users\Admin\AppData\Local\Temp\{DC34D9F1-072D-4B77-A784-928B1DD31EC1} PAGE   64

    3466                      .dwattr $C$DW$T$11, DW_AT_byte_size(0x01)
    3467              
    3468              $C$DW$T$12      .dwtag  DW_TAG_base_type
    3469                      .dwattr $C$DW$T$12, DW_AT_encoding(DW_ATE_signed)
    3470                      .dwattr $C$DW$T$12, DW_AT_name("long")
    3471                      .dwattr $C$DW$T$12, DW_AT_byte_size(0x02)
    3472              
    3473              $C$DW$T$13      .dwtag  DW_TAG_base_type
    3474                      .dwattr $C$DW$T$13, DW_AT_encoding(DW_ATE_unsigned)
    3475                      .dwattr $C$DW$T$13, DW_AT_name("unsigned long")
    3476                      .dwattr $C$DW$T$13, DW_AT_byte_size(0x02)
    3477              
    3478              $C$DW$T$14      .dwtag  DW_TAG_base_type
    3479                      .dwattr $C$DW$T$14, DW_AT_encoding(DW_ATE_signed)
    3480                      .dwattr $C$DW$T$14, DW_AT_name("long long")
    3481                      .dwattr $C$DW$T$14, DW_AT_byte_size(0x04)
    3482              
    3483              $C$DW$T$15      .dwtag  DW_TAG_base_type
    3484                      .dwattr $C$DW$T$15, DW_AT_encoding(DW_ATE_unsigned)
    3485                      .dwattr $C$DW$T$15, DW_AT_name("unsigned long long")
    3486                      .dwattr $C$DW$T$15, DW_AT_byte_size(0x04)
    3487              
    3488              $C$DW$T$16      .dwtag  DW_TAG_base_type
    3489                      .dwattr $C$DW$T$16, DW_AT_encoding(DW_ATE_float)
    3490                      .dwattr $C$DW$T$16, DW_AT_name("float")
    3491                      .dwattr $C$DW$T$16, DW_AT_byte_size(0x02)
    3492              
    3493              $C$DW$T$17      .dwtag  DW_TAG_base_type
    3494                      .dwattr $C$DW$T$17, DW_AT_encoding(DW_ATE_float)
    3495                      .dwattr $C$DW$T$17, DW_AT_name("double")
    3496                      .dwattr $C$DW$T$17, DW_AT_byte_size(0x02)
    3497              
    3498              $C$DW$T$18      .dwtag  DW_TAG_base_type
    3499                      .dwattr $C$DW$T$18, DW_AT_encoding(DW_ATE_float)
    3500                      .dwattr $C$DW$T$18, DW_AT_name("long double")
    3501                      .dwattr $C$DW$T$18, DW_AT_byte_size(0x04)
    3502              
    3503                      .dwattr $C$DW$CU, DW_AT_language(DW_LANG_C)
    3504              
    3505              ;***************************************************************
    3506              ;* DWARF CIE ENTRIES                                           *
    3507              ;***************************************************************
    3508              
    3509              $C$DW$CIE       .dwcie 26
    3510                      .dwcfi  cfa_register, 20
    3511                      .dwcfi  cfa_offset, 0
    3512                      .dwcfi  same_value, 28
    3513                      .dwcfi  same_value, 6
    3514                      .dwcfi  same_value, 7
    3515                      .dwcfi  same_value, 8
    3516                      .dwcfi  same_value, 9
    3517                      .dwcfi  same_value, 10
    3518                      .dwcfi  same_value, 11
    3519                      .dwendentry
    3520              
TMS320C2000 Assembler PC v16.9.6 Tue Mar 06 18:34:36 2018

Tools Copyright (c) 1996-2017 Texas Instruments Incorporated
C:\Users\Admin\AppData\Local\Temp\{DC34D9F1-072D-4B77-A784-928B1DD31EC1} PAGE   65

    3521              ;***************************************************************
    3522              ;* DWARF REGISTER MAP                                          *
    3523              ;***************************************************************
    3524              
    3525              $C$DW$76        .dwtag  DW_TAG_TI_assign_register
    3526                      .dwattr $C$DW$76, DW_AT_name("AL")
    3527                      .dwattr $C$DW$76, DW_AT_location[DW_OP_reg0]
    3528              
    3529              $C$DW$77        .dwtag  DW_TAG_TI_assign_register
    3530                      .dwattr $C$DW$77, DW_AT_name("AH")
    3531                      .dwattr $C$DW$77, DW_AT_location[DW_OP_reg1]
    3532              
    3533              $C$DW$78        .dwtag  DW_TAG_TI_assign_register
    3534                      .dwattr $C$DW$78, DW_AT_name("PL")
    3535                      .dwattr $C$DW$78, DW_AT_location[DW_OP_reg2]
    3536              
    3537              $C$DW$79        .dwtag  DW_TAG_TI_assign_register
    3538                      .dwattr $C$DW$79, DW_AT_name("PH")
    3539                      .dwattr $C$DW$79, DW_AT_location[DW_OP_reg3]
    3540              
    3541              $C$DW$80        .dwtag  DW_TAG_TI_assign_register
    3542                      .dwattr $C$DW$80, DW_AT_name("SP")
    3543                      .dwattr $C$DW$80, DW_AT_location[DW_OP_reg20]
    3544              
    3545              $C$DW$81        .dwtag  DW_TAG_TI_assign_register
    3546                      .dwattr $C$DW$81, DW_AT_name("XT")
    3547                      .dwattr $C$DW$81, DW_AT_location[DW_OP_reg21]
    3548              
    3549              $C$DW$82        .dwtag  DW_TAG_TI_assign_register
    3550                      .dwattr $C$DW$82, DW_AT_name("T")
    3551                      .dwattr $C$DW$82, DW_AT_location[DW_OP_reg22]
    3552              
    3553              $C$DW$83        .dwtag  DW_TAG_TI_assign_register
    3554                      .dwattr $C$DW$83, DW_AT_name("ST0")
    3555                      .dwattr $C$DW$83, DW_AT_location[DW_OP_reg23]
    3556              
    3557              $C$DW$84        .dwtag  DW_TAG_TI_assign_register
    3558                      .dwattr $C$DW$84, DW_AT_name("ST1")
    3559                      .dwattr $C$DW$84, DW_AT_location[DW_OP_reg24]
    3560              
    3561              $C$DW$85        .dwtag  DW_TAG_TI_assign_register
    3562                      .dwattr $C$DW$85, DW_AT_name("PC")
    3563                      .dwattr $C$DW$85, DW_AT_location[DW_OP_reg25]
    3564              
    3565              $C$DW$86        .dwtag  DW_TAG_TI_assign_register
    3566                      .dwattr $C$DW$86, DW_AT_name("RPC")
    3567                      .dwattr $C$DW$86, DW_AT_location[DW_OP_reg26]
    3568              
    3569              $C$DW$87        .dwtag  DW_TAG_TI_assign_register
    3570                      .dwattr $C$DW$87, DW_AT_name("FP")
    3571                      .dwattr $C$DW$87, DW_AT_location[DW_OP_reg28]
    3572              
    3573              $C$DW$88        .dwtag  DW_TAG_TI_assign_register
    3574                      .dwattr $C$DW$88, DW_AT_name("DP")
    3575                      .dwattr $C$DW$88, DW_AT_location[DW_OP_reg29]
TMS320C2000 Assembler PC v16.9.6 Tue Mar 06 18:34:36 2018

Tools Copyright (c) 1996-2017 Texas Instruments Incorporated
C:\Users\Admin\AppData\Local\Temp\{DC34D9F1-072D-4B77-A784-928B1DD31EC1} PAGE   66

    3576              
    3577              $C$DW$89        .dwtag  DW_TAG_TI_assign_register
    3578                      .dwattr $C$DW$89, DW_AT_name("SXM")
    3579                      .dwattr $C$DW$89, DW_AT_location[DW_OP_reg30]
    3580              
    3581              $C$DW$90        .dwtag  DW_TAG_TI_assign_register
    3582                      .dwattr $C$DW$90, DW_AT_name("PM")
    3583                      .dwattr $C$DW$90, DW_AT_location[DW_OP_reg31]
    3584              
    3585              $C$DW$91        .dwtag  DW_TAG_TI_assign_register
    3586                      .dwattr $C$DW$91, DW_AT_name("OVM")
    3587                      .dwattr $C$DW$91, DW_AT_location[DW_OP_regx 0x20]
    3588              
    3589              $C$DW$92        .dwtag  DW_TAG_TI_assign_register
    3590                      .dwattr $C$DW$92, DW_AT_name("PAGE0")
    3591                      .dwattr $C$DW$92, DW_AT_location[DW_OP_regx 0x21]
    3592              
    3593              $C$DW$93        .dwtag  DW_TAG_TI_assign_register
    3594                      .dwattr $C$DW$93, DW_AT_name("AMODE")
    3595                      .dwattr $C$DW$93, DW_AT_location[DW_OP_regx 0x22]
    3596              
    3597              $C$DW$94        .dwtag  DW_TAG_TI_assign_register
    3598                      .dwattr $C$DW$94, DW_AT_name("INTM")
    3599                      .dwattr $C$DW$94, DW_AT_location[DW_OP_regx 0x23]
    3600              
    3601              $C$DW$95        .dwtag  DW_TAG_TI_assign_register
    3602                      .dwattr $C$DW$95, DW_AT_name("IFR")
    3603                      .dwattr $C$DW$95, DW_AT_location[DW_OP_regx 0x24]
    3604              
    3605              $C$DW$96        .dwtag  DW_TAG_TI_assign_register
    3606                      .dwattr $C$DW$96, DW_AT_name("IER")
