TMS320C2000 Assembler PC v16.9.6 Tue Mar 06 18:34:46 2018

Tools Copyright (c) 1996-2017 Texas Instruments Incorporated
C:\Users\Admin\AppData\Local\Temp\{ED9AE313-281A-4435-8F2A-5411619B06A2} PAGE    1

       1              ;***************************************************************
       2              ;* TMS320C2000 C/C++ Codegen                    PC v16.9.6.LTS *
       3              ;* Date/Time created: Tue Mar 06 18:34:46 2018                 *
       4              ;***************************************************************
       5                      .compiler_opts --abi=coffabi --cla_support=cla0 --diag_wrap=off --float_support=softlib --hll_source=
       6                      .asg    XAR2, FP
       7              
       8              $C$DW$CU        .dwtag  DW_TAG_compile_unit
       9                      .dwattr $C$DW$CU, DW_AT_name("../source/Solar Microinverter_main.c")
      10                      .dwattr $C$DW$CU, DW_AT_producer("TI TMS320C2000 C/C++ Codegen PC v16.9.6.LTS Copyright (c) 1996-2017
      11                      .dwattr $C$DW$CU, DW_AT_TI_version(0x01)
      12                      .dwattr $C$DW$CU, DW_AT_comp_dir("C:\Users\Admin\workspace_v7\KT1205_MGI_V7.2_REVC_MASTER_GPRS_180301
      13              ;**************************************************************
      14              ;* CINIT RECORDS                                              *
      15              ;**************************************************************
      16 00000000               .sect   ".cinit"
      17                      .align  1
      18 00000000 FFFF          .field          -1,16
      19 00000001 0000-         .field          _max_count+0,32
         00000002 0000 
      20 00000003 0230          .bits   560,16                  ; _max_count @ 0
      21              
      22 00000004               .sect   ".cinit"
      23                      .align  1
      24 00000004 FFFF          .field          -1,16
      25 00000005 0001-         .field          _count+0,32
         00000006 0000 
      26 00000007 0000          .bits   0,16                    ; _count @ 0
      27              
      28 00000008               .sect   ".cinit"
      29                      .align  1
      30 00000008 FFFF          .field          -1,16
      31 00000009 0002-         .field          _current_counter+0,32
         0000000a 0000 
      32 0000000b 0000          .bits   0,16                    ; _current_counter @ 0
      33              
      34 0000000c               .sect   ".cinit"
      35                      .align  1
      36 0000000c FFFF          .field          -1,16
      37 0000000d 0003-         .field          _i+0,32
         0000000e 0000 
      38 0000000f 0000          .bits   0,16                    ; _i @ 0
      39              
      40 00000010               .sect   ".cinit"
      41                      .align  1
      42 00000010 FFFF          .field          -1,16
      43 00000011 0004-         .field          _counter_100us+0,32
         00000012 0000 
      44 00000013 0000          .bits   0,16                    ; _counter_100us @ 0
      45              
      46 00000014               .sect   ".cinit"
      47                      .align  1
      48 00000014 FFFF          .field          -1,16
      49 00000015 0005-         .field          _statemachineflag+0,32
         00000016 0000 
TMS320C2000 Assembler PC v16.9.6 Tue Mar 06 18:34:46 2018

Tools Copyright (c) 1996-2017 Texas Instruments Incorporated
C:\Users\Admin\AppData\Local\Temp\{ED9AE313-281A-4435-8F2A-5411619B06A2} PAGE    2

      50 00000017 0000          .bits   0,16                    ; _statemachineflag @ 0
      51              
      52 00000018               .sect   ".cinit"
      53                      .align  1
      54 00000018 FFFF          .field          -1,16
      55 00000019 0006-         .field          _flag_10ms+0,32
         0000001a 0000 
      56 0000001b 0000          .bits   0,16                    ; _flag_10ms @ 0
      57              
      58 0000001c               .sect   ".cinit"
      59                      .align  1
      60 0000001c FFFE          .field          -2,16
      61 0000001d 0008-         .field          _frequancy_mains+0,32
         0000001e 0000 
      62 0000001f 0000          .bits   0,32                    ; _frequancy_mains @ 0
         00000020 0000 
      63              
      64 00000021               .sect   ".cinit"
      65                      .align  1
      66 00000021 FFFE          .field          -2,16
      67 00000022 000A-         .field          _Zc1+0,32
         00000023 0000 
      68 00000024 0000          .bits   0,32                    ; _Zc1 @ 0
         00000025 0000 
      69              
      70 00000026               .sect   ".cinit"
      71                      .align  1
      72 00000026 FFFE          .field          -2,16
      73 00000027 000C-         .field          _ECAP1+0,32
         00000028 0000 
      74 00000029 0000          .bits   0,32                    ; _ECAP1 @ 0
         0000002a 0000 
      75              
      76 0000002b               .sect   ".cinit"
      77                      .align  1
      78 0000002b FFFE          .field          -2,16
      79 0000002c 000E-         .field          _ECAP3+0,32
         0000002d 0000 
      80 0000002e 0000          .bits   0,32                    ; _ECAP3 @ 0
         0000002f 0000 
      81              
      82 00000030               .sect   ".cinit"
      83                      .align  1
      84 00000030 FFFE          .field          -2,16
      85 00000031 0010-         .field          _ECAP4+0,32
         00000032 0000 
      86 00000033 0000          .bits   0,32                    ; _ECAP4 @ 0
         00000034 0000 
      87              
      88 00000035               .sect   ".cinit"
      89                      .align  1
      90 00000035 FFFE          .field          -2,16
      91 00000036 0012-         .field          _ECAP2+0,32
         00000037 0000 
      92 00000038 0000          .bits   0,32                    ; _ECAP2 @ 0
TMS320C2000 Assembler PC v16.9.6 Tue Mar 06 18:34:46 2018

Tools Copyright (c) 1996-2017 Texas Instruments Incorporated
C:\Users\Admin\AppData\Local\Temp\{ED9AE313-281A-4435-8F2A-5411619B06A2} PAGE    3

         00000039 0000 
      93              
      94 0000003a               .sect   ".cinit"
      95                      .align  1
      96 0000003a FFFE          .field          -2,16
      97 0000003b 0014-         .field          _ECAP_AVG+0,32
         0000003c 0000 
      98 0000003d 0000          .bits   0,32                    ; _ECAP_AVG @ 0
         0000003e 0000 
      99              
     100              
     101              $C$DW$1 .dwtag  DW_TAG_subprogram
     102                      .dwattr $C$DW$1, DW_AT_name("variablePI")
     103                      .dwattr $C$DW$1, DW_AT_TI_symbol_name("_variablePI")
     104                      .dwattr $C$DW$1, DW_AT_declaration
     105                      .dwattr $C$DW$1, DW_AT_external
     106                      .dwendtag $C$DW$1
     107              
     108              
     109              $C$DW$2 .dwtag  DW_TAG_subprogram
     110                      .dwattr $C$DW$2, DW_AT_name("statemachine")
     111                      .dwattr $C$DW$2, DW_AT_TI_symbol_name("_statemachine")
     112                      .dwattr $C$DW$2, DW_AT_declaration
     113                      .dwattr $C$DW$2, DW_AT_external
     114                      .dwendtag $C$DW$2
     115              
     116              
     117              $C$DW$3 .dwtag  DW_TAG_subprogram
     118                      .dwattr $C$DW$3, DW_AT_name("tx_gsm")
     119                      .dwattr $C$DW$3, DW_AT_TI_symbol_name("_tx_gsm")
     120                      .dwattr $C$DW$3, DW_AT_declaration
     121                      .dwattr $C$DW$3, DW_AT_external
     122                      .dwendtag $C$DW$3
     123              
     124              
     125              $C$DW$4 .dwtag  DW_TAG_subprogram
     126                      .dwattr $C$DW$4, DW_AT_name("InitEPwmSyncGpio")
     127                      .dwattr $C$DW$4, DW_AT_TI_symbol_name("_InitEPwmSyncGpio")
     128                      .dwattr $C$DW$4, DW_AT_declaration
     129                      .dwattr $C$DW$4, DW_AT_external
     130                      .dwendtag $C$DW$4
     131              
     132              
     133              $C$DW$5 .dwtag  DW_TAG_subprogram
     134                      .dwattr $C$DW$5, DW_AT_name("adc_isr")
     135                      .dwattr $C$DW$5, DW_AT_TI_symbol_name("_adc_isr")
     136                      .dwattr $C$DW$5, DW_AT_declaration
     137                      .dwattr $C$DW$5, DW_AT_external
     138                      .dwendtag $C$DW$5
     139              
     140              
     141              $C$DW$6 .dwtag  DW_TAG_subprogram
     142                      .dwattr $C$DW$6, DW_AT_name("InitPieCtrl")
     143                      .dwattr $C$DW$6, DW_AT_TI_symbol_name("_InitPieCtrl")
     144                      .dwattr $C$DW$6, DW_AT_declaration
TMS320C2000 Assembler PC v16.9.6 Tue Mar 06 18:34:46 2018

Tools Copyright (c) 1996-2017 Texas Instruments Incorporated
C:\Users\Admin\AppData\Local\Temp\{ED9AE313-281A-4435-8F2A-5411619B06A2} PAGE    4

     145                      .dwattr $C$DW$6, DW_AT_external
     146                      .dwendtag $C$DW$6
     147              
     148              
     149              $C$DW$7 .dwtag  DW_TAG_subprogram
     150                      .dwattr $C$DW$7, DW_AT_name("InitEPwm3Gpio")
     151                      .dwattr $C$DW$7, DW_AT_TI_symbol_name("_InitEPwm3Gpio")
     152                      .dwattr $C$DW$7, DW_AT_declaration
     153                      .dwattr $C$DW$7, DW_AT_external
     154                      .dwendtag $C$DW$7
     155              
     156              
     157              $C$DW$8 .dwtag  DW_TAG_subprogram
     158                      .dwattr $C$DW$8, DW_AT_name("InitSciaGpio")
     159                      .dwattr $C$DW$8, DW_AT_TI_symbol_name("_InitSciaGpio")
     160                      .dwattr $C$DW$8, DW_AT_declaration
     161                      .dwattr $C$DW$8, DW_AT_external
     162                      .dwendtag $C$DW$8
     163              
     164              
     165              $C$DW$9 .dwtag  DW_TAG_subprogram
     166                      .dwattr $C$DW$9, DW_AT_name("InitPieVectTable")
     167                      .dwattr $C$DW$9, DW_AT_TI_symbol_name("_InitPieVectTable")
     168                      .dwattr $C$DW$9, DW_AT_declaration
     169                      .dwattr $C$DW$9, DW_AT_external
     170                      .dwendtag $C$DW$9
     171              
     172              
     173              $C$DW$10        .dwtag  DW_TAG_subprogram
     174                      .dwattr $C$DW$10, DW_AT_name("InitECap1Gpio")
     175                      .dwattr $C$DW$10, DW_AT_TI_symbol_name("_InitECap1Gpio")
     176                      .dwattr $C$DW$10, DW_AT_declaration
     177                      .dwattr $C$DW$10, DW_AT_external
     178                      .dwendtag $C$DW$10
     179              
     180              
     181              $C$DW$11        .dwtag  DW_TAG_subprogram
     182                      .dwattr $C$DW$11, DW_AT_name("InitAdc")
     183                      .dwattr $C$DW$11, DW_AT_TI_symbol_name("_InitAdc")
     184                      .dwattr $C$DW$11, DW_AT_declaration
     185                      .dwattr $C$DW$11, DW_AT_external
     186                      .dwendtag $C$DW$11
     187              
     188              
     189              $C$DW$12        .dwtag  DW_TAG_subprogram
     190                      .dwattr $C$DW$12, DW_AT_name("InitEPwm2Gpio")
     191                      .dwattr $C$DW$12, DW_AT_TI_symbol_name("_InitEPwm2Gpio")
     192                      .dwattr $C$DW$12, DW_AT_declaration
     193                      .dwattr $C$DW$12, DW_AT_external
     194                      .dwendtag $C$DW$12
     195              
     196              
     197              $C$DW$13        .dwtag  DW_TAG_subprogram
     198                      .dwattr $C$DW$13, DW_AT_name("InitEPwm1Gpio")
     199                      .dwattr $C$DW$13, DW_AT_TI_symbol_name("_InitEPwm1Gpio")
TMS320C2000 Assembler PC v16.9.6 Tue Mar 06 18:34:46 2018

Tools Copyright (c) 1996-2017 Texas Instruments Incorporated
C:\Users\Admin\AppData\Local\Temp\{ED9AE313-281A-4435-8F2A-5411619B06A2} PAGE    5

     200                      .dwattr $C$DW$13, DW_AT_declaration
     201                      .dwattr $C$DW$13, DW_AT_external
     202                      .dwendtag $C$DW$13
     203              
     204              
     205              $C$DW$14        .dwtag  DW_TAG_subprogram
     206                      .dwattr $C$DW$14, DW_AT_name("oi_uart")
     207                      .dwattr $C$DW$14, DW_AT_TI_symbol_name("_oi_uart")
     208                      .dwattr $C$DW$14, DW_AT_declaration
     209                      .dwattr $C$DW$14, DW_AT_external
     210                      .dwendtag $C$DW$14
     211              
     212              
     213              $C$DW$15        .dwtag  DW_TAG_subprogram
     214                      .dwattr $C$DW$15, DW_AT_name("MemCopy")
     215                      .dwattr $C$DW$15, DW_AT_TI_symbol_name("_MemCopy")
     216                      .dwattr $C$DW$15, DW_AT_declaration
     217                      .dwattr $C$DW$15, DW_AT_external
     218              $C$DW$16        .dwtag  DW_TAG_formal_parameter
     219                      .dwattr $C$DW$16, DW_AT_type(*$C$DW$T$277)
     220              
     221              $C$DW$17        .dwtag  DW_TAG_formal_parameter
     222                      .dwattr $C$DW$17, DW_AT_type(*$C$DW$T$277)
     223              
     224              $C$DW$18        .dwtag  DW_TAG_formal_parameter
     225                      .dwattr $C$DW$18, DW_AT_type(*$C$DW$T$277)
     226              
     227                      .dwendtag $C$DW$15
     228              
     229              
     230              $C$DW$19        .dwtag  DW_TAG_subprogram
     231                      .dwattr $C$DW$19, DW_AT_name("sciRxFifoIsr")
     232                      .dwattr $C$DW$19, DW_AT_TI_symbol_name("_sciRxFifoIsr")
     233                      .dwattr $C$DW$19, DW_AT_declaration
     234                      .dwattr $C$DW$19, DW_AT_external
     235                      .dwendtag $C$DW$19
     236              
     237              
     238              $C$DW$20        .dwtag  DW_TAG_subprogram
     239                      .dwattr $C$DW$20, DW_AT_name("sciTxFifoIsr")
     240                      .dwattr $C$DW$20, DW_AT_TI_symbol_name("_sciTxFifoIsr")
     241                      .dwattr $C$DW$20, DW_AT_declaration
     242                      .dwattr $C$DW$20, DW_AT_external
     243                      .dwendtag $C$DW$20
     244              
     245              
     246              $C$DW$21        .dwtag  DW_TAG_subprogram
     247                      .dwattr $C$DW$21, DW_AT_name("InitTzGpio")
     248                      .dwattr $C$DW$21, DW_AT_TI_symbol_name("_InitTzGpio")
     249                      .dwattr $C$DW$21, DW_AT_declaration
     250                      .dwattr $C$DW$21, DW_AT_external
     251                      .dwendtag $C$DW$21
     252              
     253              
     254              $C$DW$22        .dwtag  DW_TAG_subprogram
TMS320C2000 Assembler PC v16.9.6 Tue Mar 06 18:34:46 2018

Tools Copyright (c) 1996-2017 Texas Instruments Incorporated
C:\Users\Admin\AppData\Local\Temp\{ED9AE313-281A-4435-8F2A-5411619B06A2} PAGE    6

     255                      .dwattr $C$DW$22, DW_AT_name("InitSysCtrl")
     256                      .dwattr $C$DW$22, DW_AT_TI_symbol_name("_InitSysCtrl")
     257                      .dwattr $C$DW$22, DW_AT_declaration
     258                      .dwattr $C$DW$22, DW_AT_external
     259                      .dwendtag $C$DW$22
     260              
     261              
     262              $C$DW$23        .dwtag  DW_TAG_subprogram
     263                      .dwattr $C$DW$23, DW_AT_name("InitFlash")
     264                      .dwattr $C$DW$23, DW_AT_TI_symbol_name("_InitFlash")
     265                      .dwattr $C$DW$23, DW_AT_declaration
     266                      .dwattr $C$DW$23, DW_AT_external
     267                      .dwendtag $C$DW$23
     268              
     269              
     270              $C$DW$24        .dwtag  DW_TAG_subprogram
     271                      .dwattr $C$DW$24, DW_AT_name("ServiceDog")
     272                      .dwattr $C$DW$24, DW_AT_TI_symbol_name("_ServiceDog")
     273                      .dwattr $C$DW$24, DW_AT_declaration
     274                      .dwattr $C$DW$24, DW_AT_external
     275                      .dwendtag $C$DW$24
     276              
     277              
     278              $C$DW$25        .dwtag  DW_TAG_subprogram
     279                      .dwattr $C$DW$25, DW_AT_name("scia_fifo_init")
     280                      .dwattr $C$DW$25, DW_AT_TI_symbol_name("_scia_fifo_init")
     281                      .dwattr $C$DW$25, DW_AT_declaration
     282                      .dwattr $C$DW$25, DW_AT_external
     283                      .dwendtag $C$DW$25
     284              
     285              $C$DW$26        .dwtag  DW_TAG_variable
     286                      .dwattr $C$DW$26, DW_AT_name("RamconstsLoadEnd")
     287                      .dwattr $C$DW$26, DW_AT_TI_symbol_name("_RamconstsLoadEnd")
     288                      .dwattr $C$DW$26, DW_AT_type(*$C$DW$T$19)
     289                      .dwattr $C$DW$26, DW_AT_declaration
     290                      .dwattr $C$DW$26, DW_AT_external
     291              
     292              $C$DW$27        .dwtag  DW_TAG_variable
     293                      .dwattr $C$DW$27, DW_AT_name("RamconstsLoadStart")
     294                      .dwattr $C$DW$27, DW_AT_TI_symbol_name("_RamconstsLoadStart")
     295                      .dwattr $C$DW$27, DW_AT_type(*$C$DW$T$19)
     296                      .dwattr $C$DW$27, DW_AT_declaration
     297                      .dwattr $C$DW$27, DW_AT_external
     298              
     299              $C$DW$28        .dwtag  DW_TAG_variable
     300                      .dwattr $C$DW$28, DW_AT_name("systemState")
     301                      .dwattr $C$DW$28, DW_AT_TI_symbol_name("_systemState")
     302                      .dwattr $C$DW$28, DW_AT_type(*$C$DW$T$6)
     303                      .dwattr $C$DW$28, DW_AT_declaration
     304                      .dwattr $C$DW$28, DW_AT_external
     305              
     306              $C$DW$29        .dwtag  DW_TAG_variable
     307                      .dwattr $C$DW$29, DW_AT_name("RamconstsRunStart")
     308                      .dwattr $C$DW$29, DW_AT_TI_symbol_name("_RamconstsRunStart")
     309                      .dwattr $C$DW$29, DW_AT_type(*$C$DW$T$19)
TMS320C2000 Assembler PC v16.9.6 Tue Mar 06 18:34:46 2018

Tools Copyright (c) 1996-2017 Texas Instruments Incorporated
C:\Users\Admin\AppData\Local\Temp\{ED9AE313-281A-4435-8F2A-5411619B06A2} PAGE    7

     310                      .dwattr $C$DW$29, DW_AT_declaration
     311                      .dwattr $C$DW$29, DW_AT_external
     312              
     313              $C$DW$30        .dwtag  DW_TAG_variable
     314                      .dwattr $C$DW$30, DW_AT_name("RamfuncsRunStart")
     315                      .dwattr $C$DW$30, DW_AT_TI_symbol_name("_RamfuncsRunStart")
     316                      .dwattr $C$DW$30, DW_AT_type(*$C$DW$T$19)
     317                      .dwattr $C$DW$30, DW_AT_declaration
     318                      .dwattr $C$DW$30, DW_AT_external
     319              
     320              $C$DW$31        .dwtag  DW_TAG_variable
     321                      .dwattr $C$DW$31, DW_AT_name("RamfuncsLoadEnd")
     322                      .dwattr $C$DW$31, DW_AT_TI_symbol_name("_RamfuncsLoadEnd")
     323                      .dwattr $C$DW$31, DW_AT_type(*$C$DW$T$19)
     324                      .dwattr $C$DW$31, DW_AT_declaration
     325                      .dwattr $C$DW$31, DW_AT_external
     326              
     327              $C$DW$32        .dwtag  DW_TAG_variable
     328                      .dwattr $C$DW$32, DW_AT_name("Rx_timeout")
     329                      .dwattr $C$DW$32, DW_AT_TI_symbol_name("_Rx_timeout")
     330                      .dwattr $C$DW$32, DW_AT_type(*$C$DW$T$283)
     331                      .dwattr $C$DW$32, DW_AT_declaration
     332                      .dwattr $C$DW$32, DW_AT_external
     333              
     334              $C$DW$33        .dwtag  DW_TAG_variable
     335                      .dwattr $C$DW$33, DW_AT_name("Tx_timeout")
     336                      .dwattr $C$DW$33, DW_AT_TI_symbol_name("_Tx_timeout")
     337                      .dwattr $C$DW$33, DW_AT_type(*$C$DW$T$283)
     338                      .dwattr $C$DW$33, DW_AT_declaration
     339                      .dwattr $C$DW$33, DW_AT_external
     340              
     341                      .global _max_count
     342 00000000       _max_count:     .usect  ".ebss",1,1,0
     343              $C$DW$34        .dwtag  DW_TAG_variable
     344                      .dwattr $C$DW$34, DW_AT_name("max_count")
     345                      .dwattr $C$DW$34, DW_AT_TI_symbol_name("_max_count")
     346                      .dwattr $C$DW$34, DW_AT_location[DW_OP_addr _max_count]
     347                      .dwattr $C$DW$34, DW_AT_type(*$C$DW$T$10)
     348                      .dwattr $C$DW$34, DW_AT_external
     349              
     350                      .global _count
     351 00000001       _count: .usect  ".ebss",1,1,0
     352              $C$DW$35        .dwtag  DW_TAG_variable
     353                      .dwattr $C$DW$35, DW_AT_name("count")
     354                      .dwattr $C$DW$35, DW_AT_TI_symbol_name("_count")
     355                      .dwattr $C$DW$35, DW_AT_location[DW_OP_addr _count]
     356                      .dwattr $C$DW$35, DW_AT_type(*$C$DW$T$10)
     357                      .dwattr $C$DW$35, DW_AT_external
     358              
     359                      .global _current_counter
     360 00000002       _current_counter:       .usect  ".ebss",1,1,0
     361              $C$DW$36        .dwtag  DW_TAG_variable
     362                      .dwattr $C$DW$36, DW_AT_name("current_counter")
     363                      .dwattr $C$DW$36, DW_AT_TI_symbol_name("_current_counter")
     364                      .dwattr $C$DW$36, DW_AT_location[DW_OP_addr _current_counter]
TMS320C2000 Assembler PC v16.9.6 Tue Mar 06 18:34:46 2018

Tools Copyright (c) 1996-2017 Texas Instruments Incorporated
C:\Users\Admin\AppData\Local\Temp\{ED9AE313-281A-4435-8F2A-5411619B06A2} PAGE    8

     365                      .dwattr $C$DW$36, DW_AT_type(*$C$DW$T$281)
     366                      .dwattr $C$DW$36, DW_AT_external
     367              
     368                      .global _i
     369 00000003       _i:     .usect  ".ebss",1,1,0
     370              $C$DW$37        .dwtag  DW_TAG_variable
     371                      .dwattr $C$DW$37, DW_AT_name("i")
     372                      .dwattr $C$DW$37, DW_AT_TI_symbol_name("_i")
     373                      .dwattr $C$DW$37, DW_AT_location[DW_OP_addr _i]
     374                      .dwattr $C$DW$37, DW_AT_type(*$C$DW$T$10)
     375                      .dwattr $C$DW$37, DW_AT_external
     376              
     377                      .global _counter_100us
     378 00000004       _counter_100us: .usect  ".ebss",1,1,0
     379              $C$DW$38        .dwtag  DW_TAG_variable
     380                      .dwattr $C$DW$38, DW_AT_name("counter_100us")
     381                      .dwattr $C$DW$38, DW_AT_TI_symbol_name("_counter_100us")
     382                      .dwattr $C$DW$38, DW_AT_location[DW_OP_addr _counter_100us]
     383                      .dwattr $C$DW$38, DW_AT_type(*$C$DW$T$283)
     384                      .dwattr $C$DW$38, DW_AT_external
     385              
     386              $C$DW$39        .dwtag  DW_TAG_variable
     387                      .dwattr $C$DW$39, DW_AT_name("gridFlag")
     388                      .dwattr $C$DW$39, DW_AT_TI_symbol_name("_gridFlag")
     389                      .dwattr $C$DW$39, DW_AT_type(*$C$DW$T$280)
     390                      .dwattr $C$DW$39, DW_AT_declaration
     391                      .dwattr $C$DW$39, DW_AT_external
     392              
     393                      .global _statemachineflag
     394 00000005       _statemachineflag:      .usect  ".ebss",1,1,0
     395              $C$DW$40        .dwtag  DW_TAG_variable
     396                      .dwattr $C$DW$40, DW_AT_name("statemachineflag")
     397                      .dwattr $C$DW$40, DW_AT_TI_symbol_name("_statemachineflag")
     398                      .dwattr $C$DW$40, DW_AT_location[DW_OP_addr _statemachineflag]
     399                      .dwattr $C$DW$40, DW_AT_type(*$C$DW$T$6)
     400                      .dwattr $C$DW$40, DW_AT_external
     401              
     402                      .global _flag_10ms
     403 00000006       _flag_10ms:     .usect  ".ebss",1,1,0
     404              $C$DW$41        .dwtag  DW_TAG_variable
     405                      .dwattr $C$DW$41, DW_AT_name("flag_10ms")
     406                      .dwattr $C$DW$41, DW_AT_TI_symbol_name("_flag_10ms")
     407                      .dwattr $C$DW$41, DW_AT_location[DW_OP_addr _flag_10ms]
     408                      .dwattr $C$DW$41, DW_AT_type(*$C$DW$T$283)
     409                      .dwattr $C$DW$41, DW_AT_external
     410              
     411              $C$DW$42        .dwtag  DW_TAG_variable
     412                      .dwattr $C$DW$42, DW_AT_name("acoffset_cal2")
     413                      .dwattr $C$DW$42, DW_AT_TI_symbol_name("_acoffset_cal2")
     414                      .dwattr $C$DW$42, DW_AT_type(*$C$DW$T$283)
     415                      .dwattr $C$DW$42, DW_AT_declaration
     416                      .dwattr $C$DW$42, DW_AT_external
     417              
     418              $C$DW$43        .dwtag  DW_TAG_variable
     419                      .dwattr $C$DW$43, DW_AT_name("GSM_Restart_Count")
TMS320C2000 Assembler PC v16.9.6 Tue Mar 06 18:34:46 2018

Tools Copyright (c) 1996-2017 Texas Instruments Incorporated
C:\Users\Admin\AppData\Local\Temp\{ED9AE313-281A-4435-8F2A-5411619B06A2} PAGE    9

     420                      .dwattr $C$DW$43, DW_AT_TI_symbol_name("_GSM_Restart_Count")
     421                      .dwattr $C$DW$43, DW_AT_type(*$C$DW$T$11)
     422                      .dwattr $C$DW$43, DW_AT_declaration
     423                      .dwattr $C$DW$43, DW_AT_external
     424              
     425              $C$DW$44        .dwtag  DW_TAG_variable
     426                      .dwattr $C$DW$44, DW_AT_name("GSM_DelayCount")
     427                      .dwattr $C$DW$44, DW_AT_TI_symbol_name("_GSM_DelayCount")
     428                      .dwattr $C$DW$44, DW_AT_type(*$C$DW$T$11)
     429                      .dwattr $C$DW$44, DW_AT_declaration
     430                      .dwattr $C$DW$44, DW_AT_external
     431              
     432              $C$DW$45        .dwtag  DW_TAG_variable
     433                      .dwattr $C$DW$45, DW_AT_name("RS485_TXEnable_Count")
     434                      .dwattr $C$DW$45, DW_AT_TI_symbol_name("_RS485_TXEnable_Count")
     435                      .dwattr $C$DW$45, DW_AT_type(*$C$DW$T$11)
     436                      .dwattr $C$DW$45, DW_AT_declaration
     437                      .dwattr $C$DW$45, DW_AT_external
     438              
     439              $C$DW$46        .dwtag  DW_TAG_variable
     440                      .dwattr $C$DW$46, DW_AT_name("VariablePIFlag")
     441                      .dwattr $C$DW$46, DW_AT_TI_symbol_name("_VariablePIFlag")
     442                      .dwattr $C$DW$46, DW_AT_type(*$C$DW$T$11)
     443                      .dwattr $C$DW$46, DW_AT_declaration
     444                      .dwattr $C$DW$46, DW_AT_external
     445              
     446              $C$DW$47        .dwtag  DW_TAG_variable
     447                      .dwattr $C$DW$47, DW_AT_name("Rx_time_count")
     448                      .dwattr $C$DW$47, DW_AT_TI_symbol_name("_Rx_time_count")
     449                      .dwattr $C$DW$47, DW_AT_type(*$C$DW$T$283)
     450                      .dwattr $C$DW$47, DW_AT_declaration
     451                      .dwattr $C$DW$47, DW_AT_external
     452              
     453              $C$DW$48        .dwtag  DW_TAG_variable
     454                      .dwattr $C$DW$48, DW_AT_name("gsm_count")
     455                      .dwattr $C$DW$48, DW_AT_TI_symbol_name("_gsm_count")
     456                      .dwattr $C$DW$48, DW_AT_type(*$C$DW$T$11)
     457                      .dwattr $C$DW$48, DW_AT_declaration
     458                      .dwattr $C$DW$48, DW_AT_external
     459              
     460              $C$DW$49        .dwtag  DW_TAG_variable
     461                      .dwattr $C$DW$49, DW_AT_name("RamfuncsLoadStart")
     462                      .dwattr $C$DW$49, DW_AT_TI_symbol_name("_RamfuncsLoadStart")
     463                      .dwattr $C$DW$49, DW_AT_type(*$C$DW$T$19)
     464                      .dwattr $C$DW$49, DW_AT_declaration
     465                      .dwattr $C$DW$49, DW_AT_external
     466              
     467                      .global _frequancy_mains
     468 00000008       _frequancy_mains:       .usect  ".ebss",2,1,1
     469              $C$DW$50        .dwtag  DW_TAG_variable
     470                      .dwattr $C$DW$50, DW_AT_name("frequancy_mains")
     471                      .dwattr $C$DW$50, DW_AT_TI_symbol_name("_frequancy_mains")
     472                      .dwattr $C$DW$50, DW_AT_location[DW_OP_addr _frequancy_mains]
     473                      .dwattr $C$DW$50, DW_AT_type(*$C$DW$T$49)
     474                      .dwattr $C$DW$50, DW_AT_external
TMS320C2000 Assembler PC v16.9.6 Tue Mar 06 18:34:46 2018

Tools Copyright (c) 1996-2017 Texas Instruments Incorporated
C:\Users\Admin\AppData\Local\Temp\{ED9AE313-281A-4435-8F2A-5411619B06A2} PAGE   10

     475              
     476                      .global _Zc1
     477 0000000a       _Zc1:   .usect  ".ebss",2,1,1
     478              $C$DW$51        .dwtag  DW_TAG_variable
     479                      .dwattr $C$DW$51, DW_AT_name("Zc1")
     480                      .dwattr $C$DW$51, DW_AT_TI_symbol_name("_Zc1")
     481                      .dwattr $C$DW$51, DW_AT_location[DW_OP_addr _Zc1]
     482                      .dwattr $C$DW$51, DW_AT_type(*$C$DW$T$49)
     483                      .dwattr $C$DW$51, DW_AT_external
     484              
     485                      .global _ECAP1
     486 0000000c       _ECAP1: .usect  ".ebss",2,1,1
     487              $C$DW$52        .dwtag  DW_TAG_variable
     488                      .dwattr $C$DW$52, DW_AT_name("ECAP1")
     489                      .dwattr $C$DW$52, DW_AT_TI_symbol_name("_ECAP1")
     490                      .dwattr $C$DW$52, DW_AT_location[DW_OP_addr _ECAP1]
     491                      .dwattr $C$DW$52, DW_AT_type(*$C$DW$T$49)
     492                      .dwattr $C$DW$52, DW_AT_external
     493              
     494                      .global _ECAP3
     495 0000000e       _ECAP3: .usect  ".ebss",2,1,1
     496              $C$DW$53        .dwtag  DW_TAG_variable
     497                      .dwattr $C$DW$53, DW_AT_name("ECAP3")
     498                      .dwattr $C$DW$53, DW_AT_TI_symbol_name("_ECAP3")
     499                      .dwattr $C$DW$53, DW_AT_location[DW_OP_addr _ECAP3]
     500                      .dwattr $C$DW$53, DW_AT_type(*$C$DW$T$49)
     501                      .dwattr $C$DW$53, DW_AT_external
     502              
     503              $C$DW$54        .dwtag  DW_TAG_variable
     504                      .dwattr $C$DW$54, DW_AT_name("GSM_Repeat_Count")
     505                      .dwattr $C$DW$54, DW_AT_TI_symbol_name("_GSM_Repeat_Count")
     506                      .dwattr $C$DW$54, DW_AT_type(*$C$DW$T$12)
     507                      .dwattr $C$DW$54, DW_AT_declaration
     508                      .dwattr $C$DW$54, DW_AT_external
     509              
     510                      .global _ECAP4
     511 00000010       _ECAP4: .usect  ".ebss",2,1,1
     512              $C$DW$55        .dwtag  DW_TAG_variable
     513                      .dwattr $C$DW$55, DW_AT_name("ECAP4")
     514                      .dwattr $C$DW$55, DW_AT_TI_symbol_name("_ECAP4")
     515                      .dwattr $C$DW$55, DW_AT_location[DW_OP_addr _ECAP4]
     516                      .dwattr $C$DW$55, DW_AT_type(*$C$DW$T$49)
     517                      .dwattr $C$DW$55, DW_AT_external
     518              
     519                      .global _ECAP2
     520 00000012       _ECAP2: .usect  ".ebss",2,1,1
     521              $C$DW$56        .dwtag  DW_TAG_variable
     522                      .dwattr $C$DW$56, DW_AT_name("ECAP2")
     523                      .dwattr $C$DW$56, DW_AT_TI_symbol_name("_ECAP2")
     524                      .dwattr $C$DW$56, DW_AT_location[DW_OP_addr _ECAP2]
     525                      .dwattr $C$DW$56, DW_AT_type(*$C$DW$T$49)
     526                      .dwattr $C$DW$56, DW_AT_external
     527              
     528                      .global _ECAP_AVG
     529 00000014       _ECAP_AVG:      .usect  ".ebss",2,1,1
TMS320C2000 Assembler PC v16.9.6 Tue Mar 06 18:34:46 2018

Tools Copyright (c) 1996-2017 Texas Instruments Incorporated
C:\Users\Admin\AppData\Local\Temp\{ED9AE313-281A-4435-8F2A-5411619B06A2} PAGE   11

     530              $C$DW$57        .dwtag  DW_TAG_variable
     531                      .dwattr $C$DW$57, DW_AT_name("ECAP_AVG")
     532                      .dwattr $C$DW$57, DW_AT_TI_symbol_name("_ECAP_AVG")
     533                      .dwattr $C$DW$57, DW_AT_location[DW_OP_addr _ECAP_AVG]
     534                      .dwattr $C$DW$57, DW_AT_type(*$C$DW$T$49)
     535                      .dwattr $C$DW$57, DW_AT_external
     536              
     537              $C$DW$58        .dwtag  DW_TAG_variable
     538                      .dwattr $C$DW$58, DW_AT_name("Comp2Regs")
     539                      .dwattr $C$DW$58, DW_AT_TI_symbol_name("_Comp2Regs")
     540                      .dwattr $C$DW$58, DW_AT_type(*$C$DW$T$208)
     541                      .dwattr $C$DW$58, DW_AT_declaration
     542                      .dwattr $C$DW$58, DW_AT_external
     543              
     544              $C$DW$59        .dwtag  DW_TAG_variable
     545                      .dwattr $C$DW$59, DW_AT_name("Comp3Regs")
     546                      .dwattr $C$DW$59, DW_AT_TI_symbol_name("_Comp3Regs")
     547                      .dwattr $C$DW$59, DW_AT_type(*$C$DW$T$208)
     548                      .dwattr $C$DW$59, DW_AT_declaration
     549                      .dwattr $C$DW$59, DW_AT_external
     550              
     551              $C$DW$60        .dwtag  DW_TAG_variable
     552                      .dwattr $C$DW$60, DW_AT_name("Comp1Regs")
     553                      .dwattr $C$DW$60, DW_AT_TI_symbol_name("_Comp1Regs")
     554                      .dwattr $C$DW$60, DW_AT_type(*$C$DW$T$208)
     555                      .dwattr $C$DW$60, DW_AT_declaration
     556                      .dwattr $C$DW$60, DW_AT_external
     557              
     558              $C$DW$61        .dwtag  DW_TAG_variable
     559                      .dwattr $C$DW$61, DW_AT_name("PieCtrlRegs")
     560                      .dwattr $C$DW$61, DW_AT_TI_symbol_name("_PieCtrlRegs")
     561                      .dwattr $C$DW$61, DW_AT_type(*$C$DW$T$263)
     562                      .dwattr $C$DW$61, DW_AT_declaration
     563                      .dwattr $C$DW$61, DW_AT_external
     564              
     565              $C$DW$62        .dwtag  DW_TAG_variable
     566                      .dwattr $C$DW$62, DW_AT_name("GpioDataRegs")
     567                      .dwattr $C$DW$62, DW_AT_TI_symbol_name("_GpioDataRegs")
     568                      .dwattr $C$DW$62, DW_AT_type(*$C$DW$T$252)
     569                      .dwattr $C$DW$62, DW_AT_declaration
     570                      .dwattr $C$DW$62, DW_AT_external
     571              
     572              $C$DW$63        .dwtag  DW_TAG_variable
     573                      .dwattr $C$DW$63, DW_AT_name("ECap1Regs")
     574                      .dwattr $C$DW$63, DW_AT_TI_symbol_name("_ECap1Regs")
     575                      .dwattr $C$DW$63, DW_AT_type(*$C$DW$T$220)
     576                      .dwattr $C$DW$63, DW_AT_declaration
     577                      .dwattr $C$DW$63, DW_AT_external
     578              
     579              $C$DW$64        .dwtag  DW_TAG_variable
     580                      .dwattr $C$DW$64, DW_AT_name("SysCtrlRegs")
     581                      .dwattr $C$DW$64, DW_AT_TI_symbol_name("_SysCtrlRegs")
     582                      .dwattr $C$DW$64, DW_AT_type(*$C$DW$T$265)
     583                      .dwattr $C$DW$64, DW_AT_declaration
     584                      .dwattr $C$DW$64, DW_AT_external
TMS320C2000 Assembler PC v16.9.6 Tue Mar 06 18:34:46 2018

Tools Copyright (c) 1996-2017 Texas Instruments Incorporated
C:\Users\Admin\AppData\Local\Temp\{ED9AE313-281A-4435-8F2A-5411619B06A2} PAGE   12

     585              
     586              $C$DW$65        .dwtag  DW_TAG_variable
     587                      .dwattr $C$DW$65, DW_AT_name("EPwm2Regs")
     588                      .dwattr $C$DW$65, DW_AT_TI_symbol_name("_EPwm2Regs")
     589                      .dwattr $C$DW$65, DW_AT_type(*$C$DW$T$232)
     590                      .dwattr $C$DW$65, DW_AT_declaration
     591                      .dwattr $C$DW$65, DW_AT_external
     592              
     593              $C$DW$66        .dwtag  DW_TAG_variable
     594                      .dwattr $C$DW$66, DW_AT_name("EPwm1Regs")
     595                      .dwattr $C$DW$66, DW_AT_TI_symbol_name("_EPwm1Regs")
     596                      .dwattr $C$DW$66, DW_AT_type(*$C$DW$T$232)
     597                      .dwattr $C$DW$66, DW_AT_declaration
     598                      .dwattr $C$DW$66, DW_AT_external
     599              
     600              $C$DW$67        .dwtag  DW_TAG_variable
     601                      .dwattr $C$DW$67, DW_AT_name("EPwm3Regs")
     602                      .dwattr $C$DW$67, DW_AT_TI_symbol_name("_EPwm3Regs")
     603                      .dwattr $C$DW$67, DW_AT_type(*$C$DW$T$232)
     604                      .dwattr $C$DW$67, DW_AT_declaration
     605                      .dwattr $C$DW$67, DW_AT_external
     606              
     607              $C$DW$68        .dwtag  DW_TAG_variable
     608                      .dwattr $C$DW$68, DW_AT_name("EPwm4Regs")
     609                      .dwattr $C$DW$68, DW_AT_TI_symbol_name("_EPwm4Regs")
     610                      .dwattr $C$DW$68, DW_AT_type(*$C$DW$T$232)
     611                      .dwattr $C$DW$68, DW_AT_declaration
     612                      .dwattr $C$DW$68, DW_AT_external
     613              
     614              $C$DW$69        .dwtag  DW_TAG_variable
     615                      .dwattr $C$DW$69, DW_AT_name("GpioCtrlRegs")
     616                      .dwattr $C$DW$69, DW_AT_TI_symbol_name("_GpioCtrlRegs")
     617                      .dwattr $C$DW$69, DW_AT_type(*$C$DW$T$250)
     618                      .dwattr $C$DW$69, DW_AT_declaration
     619                      .dwattr $C$DW$69, DW_AT_external
     620              
     621              $C$DW$70        .dwtag  DW_TAG_variable
     622                      .dwattr $C$DW$70, DW_AT_name("AdcRegs")
     623                      .dwattr $C$DW$70, DW_AT_TI_symbol_name("_AdcRegs")
     624                      .dwattr $C$DW$70, DW_AT_type(*$C$DW$T$200)
     625                      .dwattr $C$DW$70, DW_AT_declaration
     626                      .dwattr $C$DW$70, DW_AT_external
     627              
     628              $C$DW$71        .dwtag  DW_TAG_variable
     629                      .dwattr $C$DW$71, DW_AT_name("PieVectTable")
     630                      .dwattr $C$DW$71, DW_AT_TI_symbol_name("_PieVectTable")
     631                      .dwattr $C$DW$71, DW_AT_type(*$C$DW$T$166)
     632                      .dwattr $C$DW$71, DW_AT_declaration
     633                      .dwattr $C$DW$71, DW_AT_external
     634              
     635              ;       C:\ti\ccsv7\tools\compiler\ti-cgt-c2000_16.9.6.LTS\bin\opt2000.exe C:\\Users\\Admin\\AppData\\Local\\
     636              ;       C:\ti\ccsv7\tools\compiler\ti-cgt-c2000_16.9.6.LTS\bin\ac2000.exe -@C:\\Users\\Admin\\AppData\\Local\
     637 00000000               .sect   ".text"
     638                      .clink
     639                      .global _InitEPwm1Example
TMS320C2000 Assembler PC v16.9.6 Tue Mar 06 18:34:46 2018

Tools Copyright (c) 1996-2017 Texas Instruments Incorporated
C:\Users\Admin\AppData\Local\Temp\{ED9AE313-281A-4435-8F2A-5411619B06A2} PAGE   13

     640              
     641              $C$DW$72        .dwtag  DW_TAG_subprogram
     642                      .dwattr $C$DW$72, DW_AT_name("InitEPwm1Example")
     643                      .dwattr $C$DW$72, DW_AT_low_pc(_InitEPwm1Example)
     644                      .dwattr $C$DW$72, DW_AT_high_pc(0x00)
     645                      .dwattr $C$DW$72, DW_AT_TI_symbol_name("_InitEPwm1Example")
     646                      .dwattr $C$DW$72, DW_AT_external
     647                      .dwattr $C$DW$72, DW_AT_TI_begin_file("../source/Solar Microinverter_main.c")
     648                      .dwattr $C$DW$72, DW_AT_TI_begin_line(0x144)
     649                      .dwattr $C$DW$72, DW_AT_TI_begin_column(0x06)
     650                      .dwattr $C$DW$72, DW_AT_TI_max_frame_size(-2)
     651                      .dwpsn  file "../source/Solar Microinverter_main.c",line 325,column 1,is_stmt,address _InitEPwm1Examp
     652              
     653                      .dwfde $C$DW$CIE, _InitEPwm1Example
     654              
     655              ;***************************************************************
     656              ;* FNAME: _InitEPwm1Example             FR SIZE:   0           *
     657              ;*                                                             *
     658              ;* FUNCTION ENVIRONMENT                                        *
     659              ;*                                                             *
     660              ;* FUNCTION PROPERTIES                                         *
     661              ;*                            0 Parameter,  0 Auto,  0 SOE     *
     662              ;***************************************************************
     663              
     664 00000000       _InitEPwm1Example:
     665              ;* AR4   assigned to $O$C1
     666                      .dwcfi  cfa_offset, -2
     667                      .dwcfi  save_reg_to_mem, 26, 0
     668 00000000 7622   EALLOW
     669 00000001 761F!         MOVW      DP,#_EPwm1Regs+5      ; [CPU_U] 
         00000002 0000 
     670                      .dwpsn  file "../source/Solar Microinverter_main.c",line 329,column 4,is_stmt,isa 0
     671 00000003 8F00!         MOVL      XAR4,#_EPwm1Regs      ; [CPU_U] |329| 
         00000004 0000 
     672                      .dwpsn  file "../source/Solar Microinverter_main.c",line 327,column 4,is_stmt,isa 0
     673 00000005 2805!         MOV       @_EPwm1Regs+5,#535    ; [CPU_] |327| 
         00000006 0217 
     674                      .dwpsn  file "../source/Solar Microinverter_main.c",line 357,column 4,is_stmt,isa 0
     675 00000007 83A4          MOVL      XAR5,XAR4             ; [CPU_] |357| 
     676                      .dwpsn  file "../source/Solar Microinverter_main.c",line 328,column 4,is_stmt,isa 0
     677 00000008 2B03!         MOV       @_EPwm1Regs+3,#0      ; [CPU_] |328| 
     678                      .dwpsn  file "../source/Solar Microinverter_main.c",line 347,column 4,is_stmt,isa 0
     679 00000009 D00B          MOVB      XAR0,#11              ; [CPU_] |347| 
     680                      .dwpsn  file "../source/Solar Microinverter_main.c",line 329,column 4,is_stmt,isa 0
     681 0000000a CCC4          AND       AL,*+XAR4[0],#0xffdf  ; [CPU_] |329| 
         0000000b FFDF 
     682 0000000c 5010          ORB       AL,#0x10              ; [CPU_] |329| 
     683 0000000d 96C4          MOV       *+XAR4[0],AL          ; [CPU_] |329| 
     684                      .dwpsn  file "../source/Solar Microinverter_main.c",line 357,column 4,is_stmt,isa 0
     685 0000000e DD0F          ADDB      XAR5,#15              ; [CPU_] |357| 
     686                      .dwpsn  file "../source/Solar Microinverter_main.c",line 330,column 4,is_stmt,isa 0
     687 0000000f 2B04!         MOV       @_EPwm1Regs+4,#0      ; [CPU_] |330| 
     688                      .dwpsn  file "../source/Solar Microinverter_main.c",line 333,column 4,is_stmt,isa 0
     689 00000010 CCC4          AND       AL,*+XAR4[0],#0xfffe  ; [CPU_] |333| 
         00000011 FFFE 
TMS320C2000 Assembler PC v16.9.6 Tue Mar 06 18:34:46 2018

Tools Copyright (c) 1996-2017 Texas Instruments Incorporated
C:\Users\Admin\AppData\Local\Temp\{ED9AE313-281A-4435-8F2A-5411619B06A2} PAGE   14

     690 00000012 5002          ORB       AL,#0x02              ; [CPU_] |333| 
     691 00000013 96C4          MOV       *+XAR4[0],AL          ; [CPU_] |333| 
     692                      .dwpsn  file "../source/Solar Microinverter_main.c",line 334,column 4,is_stmt,isa 0
     693 00000014 18C4          AND       *+XAR4[0],#0xfffb     ; [CPU_] |334| 
         00000015 FFFB 
     694                      .dwpsn  file "../source/Solar Microinverter_main.c",line 335,column 4,is_stmt,isa 0
     695 00000016 18C4          AND       *+XAR4[0],#0xfc7f     ; [CPU_] |335| 
         00000017 FC7F 
     696                      .dwpsn  file "../source/Solar Microinverter_main.c",line 336,column 4,is_stmt,isa 0
     697 00000018 18C4          AND       *+XAR4[0],#0xe3ff     ; [CPU_] |336| 
         00000019 E3FF 
     698                      .dwpsn  file "../source/Solar Microinverter_main.c",line 338,column 4,is_stmt,isa 0
     699 0000001a 18FC          AND       *+XAR4[7],#0xffef     ; [CPU_] |338| 
         0000001b FFEF 
     700                      .dwpsn  file "../source/Solar Microinverter_main.c",line 339,column 4,is_stmt,isa 0
     701 0000001c 1807!         AND       @_EPwm1Regs+7,#0xffbf ; [CPU_] |339| 
         0000001d FFBF 
     702                      .dwpsn  file "../source/Solar Microinverter_main.c",line 340,column 4,is_stmt,isa 0
     703 0000001e 1807!         AND       @_EPwm1Regs+7,#0xfffc ; [CPU_] |340| 
         0000001f FFFC 
     704                      .dwpsn  file "../source/Solar Microinverter_main.c",line 341,column 4,is_stmt,isa 0
     705 00000020 1807!         AND       @_EPwm1Regs+7,#0xfff3 ; [CPU_] |341| 
         00000021 FFF3 
     706                      .dwpsn  file "../source/Solar Microinverter_main.c",line 343,column 4,is_stmt,isa 0
     707 00000022 2B09!         MOV       @_EPwm1Regs+9,#0      ; [CPU_] |343| 
     708                      .dwpsn  file "../source/Solar Microinverter_main.c",line 347,column 4,is_stmt,isa 0
     709 00000023 CC94          AND       AL,*+XAR4[AR0],#0xffdf ; [CPU_] |347| 
         00000024 FFDF 
     710 00000025 5010          ORB       AL,#0x10              ; [CPU_] |347| 
     711 00000026 960B!         MOV       @_EPwm1Regs+11,AL     ; [CPU_] |347| 
     712                      .dwpsn  file "../source/Solar Microinverter_main.c",line 349,column 4,is_stmt,isa 0
     713 00000027 CC0B!         AND       AL,@_EPwm1Regs+11,#0xfffe ; [CPU_] |349| 
         00000028 FFFE 
     714 00000029 5002          ORB       AL,#0x02              ; [CPU_] |349| 
     715 0000002a 960B!         MOV       @_EPwm1Regs+11,AL     ; [CPU_] |349| 
     716                      .dwpsn  file "../source/Solar Microinverter_main.c",line 357,column 4,is_stmt,isa 0
     717 0000002b 1AC5          OR        *+XAR5[0],#0x0003     ; [CPU_] |357| 
         0000002c 0003 
     718                      .dwpsn  file "../source/Solar Microinverter_main.c",line 364,column 4,is_stmt,isa 0
     719 0000002d 83A4          MOVL      XAR5,XAR4             ; [CPU_] |364| 
     720 0000002e DD19          ADDB      XAR5,#25              ; [CPU_] |364| 
     721                      .dwpsn  file "../source/Solar Microinverter_main.c",line 358,column 4,is_stmt,isa 0
     722 0000002f 180F!         AND       @_EPwm1Regs+15,#0xfff3 ; [CPU_] |358| 
         00000030 FFF3 
     723                      .dwpsn  file "../source/Solar Microinverter_main.c",line 359,column 4,is_stmt,isa 0
     724 00000031 180F!         AND       @_EPwm1Regs+15,#0xffcf ; [CPU_] |359| 
         00000032 FFCF 
     725                      .dwpsn  file "../source/Solar Microinverter_main.c",line 360,column 4,is_stmt,isa 0
     726 00000033 1A0F!         OR        @_EPwm1Regs+15,#0x8000 ; [CPU_] |360| 
         00000034 8000 
     727                      .dwpsn  file "../source/Solar Microinverter_main.c",line 361,column 4,is_stmt,isa 0
     728 00000035 56BF!         MOVB      @_EPwm1Regs+16,#10,UNC ; [CPU_] |361| 
         00000036 0A10 
     729                      .dwpsn  file "../source/Solar Microinverter_main.c",line 362,column 4,is_stmt,isa 0
     730 00000037 56BF!         MOVB      @_EPwm1Regs+17,#30,UNC ; [CPU_] |362| 
TMS320C2000 Assembler PC v16.9.6 Tue Mar 06 18:34:46 2018

Tools Copyright (c) 1996-2017 Texas Instruments Incorporated
C:\Users\Admin\AppData\Local\Temp\{ED9AE313-281A-4435-8F2A-5411619B06A2} PAGE   15

         00000038 1E11 
     731                      .dwpsn  file "../source/Solar Microinverter_main.c",line 364,column 4,is_stmt,isa 0
     732 00000039 1AC5          OR        *+XAR5[0],#0x0800     ; [CPU_] |364| 
         0000003a 0800 
     733                      .dwpsn  file "../source/Solar Microinverter_main.c",line 376,column 4,is_stmt,isa 0
     734 0000003b 83A4          MOVL      XAR5,XAR4             ; [CPU_] |376| 
     735                      .dwpsn  file "../source/Solar Microinverter_main.c",line 366,column 4,is_stmt,isa 0
     736 0000003c D01A          MOVB      XAR0,#26              ; [CPU_] |366| 
     737                      .dwpsn  file "../source/Solar Microinverter_main.c",line 376,column 4,is_stmt,isa 0
     738 0000003d DD31          ADDB      XAR5,#49              ; [CPU_] |376| 
     739                      .dwpsn  file "../source/Solar Microinverter_main.c",line 365,column 4,is_stmt,isa 0
     740 0000003e CC19!         AND       AL,@_EPwm1Regs+25,#0xf9ff ; [CPU_] |365| 
         0000003f F9FF 
     741 00000040 1AA9          OR        AL,#0x0100            ; [CPU_] |365| 
         00000041 0100 
     742 00000042 9619!         MOV       @_EPwm1Regs+25,AL     ; [CPU_] |365| 
     743                      .dwpsn  file "../source/Solar Microinverter_main.c",line 366,column 4,is_stmt,isa 0
     744 00000043 CC94          AND       AL,*+XAR4[AR0],#0xfdff ; [CPU_] |366| 
         00000044 FDFF 
     745 00000045 1AA9          OR        AL,#0x0100            ; [CPU_] |366| 
         00000046 0100 
     746                      .dwpsn  file "../source/Solar Microinverter_main.c",line 372,column 4,is_stmt,isa 0
     747 00000047 D030          MOVB      XAR0,#48              ; [CPU_] |372| 
     748                      .dwpsn  file "../source/Solar Microinverter_main.c",line 366,column 4,is_stmt,isa 0
     749 00000048 961A!         MOV       @_EPwm1Regs+26,AL     ; [CPU_] |366| 
     750                      .dwpsn  file "../source/Solar Microinverter_main.c",line 367,column 4,is_stmt,isa 0
     751 00000049 CC19!         AND       AL,@_EPwm1Regs+25,#0xfff8 ; [CPU_] |367| 
         0000004a FFF8 
     752 0000004b 5001          ORB       AL,#0x01              ; [CPU_] |367| 
     753 0000004c 9619!         MOV       @_EPwm1Regs+25,AL     ; [CPU_] |367| 
     754                      .dwpsn  file "../source/Solar Microinverter_main.c",line 368,column 4,is_stmt,isa 0
     755 0000004d 1A19!         OR        @_EPwm1Regs+25,#0x0008 ; [CPU_] |368| 
         0000004e 0008 
     756                      .dwpsn  file "../source/Solar Microinverter_main.c",line 369,column 4,is_stmt,isa 0
     757 0000004f CC1A!         AND       AL,@_EPwm1Regs+26,#0xfffc ; [CPU_] |369| 
         00000050 FFFC 
     758 00000051 5001          ORB       AL,#0x01              ; [CPU_] |369| 
     759 00000052 961A!         MOV       @_EPwm1Regs+26,AL     ; [CPU_] |369| 
     760                      .dwpsn  file "../source/Solar Microinverter_main.c",line 372,column 4,is_stmt,isa 0
     761 00000053 CC94          AND       AL,*+XAR4[AR0],#0xfff8 ; [CPU_] |372| 
         00000054 FFF8 
     762 00000055 5009          ORB       AL,#0x09              ; [CPU_] |372| 
     763                      .dwpsn  file "../source/Solar Microinverter_main.c",line 374,column 4,is_stmt,isa 0
     764 00000056 D013          MOVB      XAR0,#19              ; [CPU_] |374| 
     765                      .dwpsn  file "../source/Solar Microinverter_main.c",line 372,column 4,is_stmt,isa 0
     766 00000057 9630!         MOV       @_EPwm1Regs+48,AL     ; [CPU_] |372| 
     767                      .dwpsn  file "../source/Solar Microinverter_main.c",line 373,column 4,is_stmt,isa 0
     768 00000058 CC30!         AND       AL,@_EPwm1Regs+48,#0xf9ff ; [CPU_] |373| 
         00000059 F9FF 
     769 0000005a 1AA9          OR        AL,#0x0900            ; [CPU_] |373| 
         0000005b 0900 
     770 0000005c 9630!         MOV       @_EPwm1Regs+48,AL     ; [CPU_] |373| 
     771                      .dwpsn  file "../source/Solar Microinverter_main.c",line 374,column 4,is_stmt,isa 0
     772 0000005d CC94          AND       AL,*+XAR4[AR0],#0xfff8 ; [CPU_] |374| 
         0000005e FFF8 
TMS320C2000 Assembler PC v16.9.6 Tue Mar 06 18:34:46 2018

Tools Copyright (c) 1996-2017 Texas Instruments Incorporated
C:\Users\Admin\AppData\Local\Temp\{ED9AE313-281A-4435-8F2A-5411619B06A2} PAGE   16

     773 0000005f 5002          ORB       AL,#0x02              ; [CPU_] |374| 
     774 00000060 9613!         MOV       @_EPwm1Regs+19,AL     ; [CPU_] |374| 
     775                      .dwpsn  file "../source/Solar Microinverter_main.c",line 375,column 4,is_stmt,isa 0
     776 00000061 CC13!         AND       AL,@_EPwm1Regs+19,#0xfe3f ; [CPU_] |375| 
         00000062 FE3F 
     777 00000063 5080          ORB       AL,#0x80              ; [CPU_] |375| 
     778 00000064 9613!         MOV       @_EPwm1Regs+19,AL     ; [CPU_] |375| 
     779                      .dwpsn  file "../source/Solar Microinverter_main.c",line 376,column 4,is_stmt,isa 0
     780 00000065 18C5          AND       *+XAR5[0],#0xfffe     ; [CPU_] |376| 
         00000066 FFFE 
     781                      .dwpsn  file "../source/Solar Microinverter_main.c",line 378,column 4,is_stmt,isa 0
     782 00000067 83A4          MOVL      XAR5,XAR4             ; [CPU_] |378| 
     783                      .dwpsn  file "../source/Solar Microinverter_main.c",line 387,column 3,is_stmt,isa 0
     784 00000068 D014          MOVB      XAR0,#20              ; [CPU_] |387| 
     785                      .dwpsn  file "../source/Solar Microinverter_main.c",line 378,column 4,is_stmt,isa 0
     786 00000069 DD12          ADDB      XAR5,#18              ; [CPU_] |378| 
     787                      .dwpsn  file "../source/Solar Microinverter_main.c",line 377,column 4,is_stmt,isa 0
     788 0000006a 1A31!         OR        @_EPwm1Regs+49,#0x0002 ; [CPU_] |377| 
         0000006b 0002 
     789                      .dwpsn  file "../source/Solar Microinverter_main.c",line 378,column 4,is_stmt,isa 0
     790 0000006c 1AC5          OR        *+XAR5[0],#0x4000     ; [CPU_] |378| 
         0000006d 4000 
     791                      .dwpsn  file "../source/Solar Microinverter_main.c",line 379,column 4,is_stmt,isa 0
     792 0000006e 1A12!         OR        @_EPwm1Regs+18,#0x8000 ; [CPU_] |379| 
         0000006f 8000 
     793                      .dwpsn  file "../source/Solar Microinverter_main.c",line 383,column 4,is_stmt,isa 0
     794 00000070 1A12!         OR        @_EPwm1Regs+18,#0x0200 ; [CPU_] |383| 
         00000071 0200 
     795                      .dwpsn  file "../source/Solar Microinverter_main.c",line 387,column 3,is_stmt,isa 0
     796 00000072 CC94          AND       AL,*+XAR4[AR0],#0xfffe ; [CPU_] |387| 
         00000073 FFFE 
     797 00000074 5002          ORB       AL,#0x02              ; [CPU_] |387| 
     798                      .dwpsn  file "../source/Solar Microinverter_main.c",line 392,column 3,is_stmt,isa 0
     799 00000075 DC15          ADDB      XAR4,#21              ; [CPU_] |392| 
     800                      .dwpsn  file "../source/Solar Microinverter_main.c",line 387,column 3,is_stmt,isa 0
     801 00000076 9614!         MOV       @_EPwm1Regs+20,AL     ; [CPU_] |387| 
     802                      .dwpsn  file "../source/Solar Microinverter_main.c",line 388,column 3,is_stmt,isa 0
     803 00000077 CC14!         AND       AL,@_EPwm1Regs+20,#0xfff7 ; [CPU_] |388| 
         00000078 FFF7 
     804 00000079 5004          ORB       AL,#0x04              ; [CPU_] |388| 
     805 0000007a 9614!         MOV       @_EPwm1Regs+20,AL     ; [CPU_] |388| 
     806                      .dwpsn  file "../source/Solar Microinverter_main.c",line 389,column 3,is_stmt,isa 0
     807 0000007b CC14!         AND       AL,@_EPwm1Regs+20,#0xffef ; [CPU_] |389| 
         0000007c FFEF 
     808 0000007d 5020          ORB       AL,#0x20              ; [CPU_] |389| 
     809 0000007e 9614!         MOV       @_EPwm1Regs+20,AL     ; [CPU_] |389| 
     810                      .dwpsn  file "../source/Solar Microinverter_main.c",line 390,column 3,is_stmt,isa 0
     811 0000007f CC14!         AND       AL,@_EPwm1Regs+20,#0xfdff ; [CPU_] |390| 
         00000080 FDFF 
     812 00000081 1AA9          OR        AL,#0x0100            ; [CPU_] |390| 
         00000082 0100 
     813 00000083 9614!         MOV       @_EPwm1Regs+20,AL     ; [CPU_] |390| 
     814                      .dwpsn  file "../source/Solar Microinverter_main.c",line 392,column 3,is_stmt,isa 0
     815 00000084 1AC4          OR        *+XAR4[0],#0x0004     ; [CPU_] |392| 
         00000085 0004 
TMS320C2000 Assembler PC v16.9.6 Tue Mar 06 18:34:46 2018

Tools Copyright (c) 1996-2017 Texas Instruments Incorporated
C:\Users\Admin\AppData\Local\Temp\{ED9AE313-281A-4435-8F2A-5411619B06A2} PAGE   17

     816                      .dwpsn  file "../source/Solar Microinverter_main.c",line 393,column 3,is_stmt,isa 0
     817 00000086 1A15!         OR        @_EPwm1Regs+21,#0x0008 ; [CPU_] |393| 
         00000087 0008 
     818                      .dwpsn  file "../source/Solar Microinverter_main.c",line 394,column 3,is_stmt,isa 0
     819 00000088 1A15!         OR        @_EPwm1Regs+21,#0x0020 ; [CPU_] |394| 
         00000089 0020 
     820 0000008a 761A   EDIS
     821 0000008b FF69          SPM       #0                    ; [CPU_] 
     822              $C$DW$73        .dwtag  DW_TAG_TI_branch
     823                      .dwattr $C$DW$73, DW_AT_low_pc(0x00)
     824                      .dwattr $C$DW$73, DW_AT_TI_return
     825              
     826 0000008c 0006          LRETR     ; [CPU_] 
     827                      ; return occurs ; [] 
     828                      .dwattr $C$DW$72, DW_AT_TI_end_file("../source/Solar Microinverter_main.c")
     829                      .dwattr $C$DW$72, DW_AT_TI_end_line(0x18c)
     830                      .dwattr $C$DW$72, DW_AT_TI_end_column(0x01)
     831                      .dwendentry
     832                      .dwendtag $C$DW$72
     833              
     834 0000008d               .sect   ".text"
     835                      .clink
     836                      .global _InitEPwm2Example
     837              
     838              $C$DW$74        .dwtag  DW_TAG_subprogram
     839                      .dwattr $C$DW$74, DW_AT_name("InitEPwm2Example")
     840                      .dwattr $C$DW$74, DW_AT_low_pc(_InitEPwm2Example)
     841                      .dwattr $C$DW$74, DW_AT_high_pc(0x00)
     842                      .dwattr $C$DW$74, DW_AT_TI_symbol_name("_InitEPwm2Example")
     843                      .dwattr $C$DW$74, DW_AT_external
     844                      .dwattr $C$DW$74, DW_AT_TI_begin_file("../source/Solar Microinverter_main.c")
     845                      .dwattr $C$DW$74, DW_AT_TI_begin_line(0x18e)
     846                      .dwattr $C$DW$74, DW_AT_TI_begin_column(0x06)
     847                      .dwattr $C$DW$74, DW_AT_TI_max_frame_size(-2)
     848                      .dwpsn  file "../source/Solar Microinverter_main.c",line 399,column 1,is_stmt,address _InitEPwm2Examp
     849              
     850                      .dwfde $C$DW$CIE, _InitEPwm2Example
     851              
     852              ;***************************************************************
     853              ;* FNAME: _InitEPwm2Example             FR SIZE:   0           *
     854              ;*                                                             *
     855              ;* FUNCTION ENVIRONMENT                                        *
     856              ;*                                                             *
     857              ;* FUNCTION PROPERTIES                                         *
     858              ;*                            0 Parameter,  0 Auto,  0 SOE     *
     859              ;***************************************************************
     860              
     861 0000008d       _InitEPwm2Example:
     862              ;* AR4   assigned to $O$C1
     863                      .dwcfi  cfa_offset, -2
     864                      .dwcfi  save_reg_to_mem, 26, 0
     865 0000008d 7622   EALLOW
     866 0000008e 761F!         MOVW      DP,#_EPwm2Regs+5      ; [CPU_U] 
         0000008f 0000 
     867                      .dwpsn  file "../source/Solar Microinverter_main.c",line 404,column 4,is_stmt,isa 0
TMS320C2000 Assembler PC v16.9.6 Tue Mar 06 18:34:46 2018

Tools Copyright (c) 1996-2017 Texas Instruments Incorporated
C:\Users\Admin\AppData\Local\Temp\{ED9AE313-281A-4435-8F2A-5411619B06A2} PAGE   18

     868 00000090 8F00!         MOVL      XAR4,#_EPwm2Regs      ; [CPU_U] |404| 
         00000091 0000 
     869                      .dwpsn  file "../source/Solar Microinverter_main.c",line 401,column 4,is_stmt,isa 0
     870 00000092 2805!         MOV       @_EPwm2Regs+5,#535    ; [CPU_] |401| 
         00000093 0217 
     871                      .dwpsn  file "../source/Solar Microinverter_main.c",line 427,column 4,is_stmt,isa 0
     872 00000094 83A4          MOVL      XAR5,XAR4             ; [CPU_] |427| 
     873                      .dwpsn  file "../source/Solar Microinverter_main.c",line 402,column 4,is_stmt,isa 0
     874 00000095 2803!         MOV       @_EPwm2Regs+3,#535    ; [CPU_] |402| 
         00000096 0217 
     875                      .dwpsn  file "../source/Solar Microinverter_main.c",line 422,column 4,is_stmt,isa 0
     876 00000097 D00B          MOVB      XAR0,#11              ; [CPU_] |422| 
     877                      .dwpsn  file "../source/Solar Microinverter_main.c",line 403,column 4,is_stmt,isa 0
     878 00000098 2B04!         MOV       @_EPwm2Regs+4,#0      ; [CPU_] |403| 
     879                      .dwpsn  file "../source/Solar Microinverter_main.c",line 404,column 4,is_stmt,isa 0
     880 00000099 18C4          AND       *+XAR4[0],#0xffcf     ; [CPU_] |404| 
         0000009a FFCF 
     881                      .dwpsn  file "../source/Solar Microinverter_main.c",line 405,column 4,is_stmt,isa 0
     882 0000009b 1AC4          OR        *+XAR4[0],#0x0004     ; [CPU_] |405| 
         0000009c 0004 
     883                      .dwpsn  file "../source/Solar Microinverter_main.c",line 427,column 4,is_stmt,isa 0
     884 0000009d DD0F          ADDB      XAR5,#15              ; [CPU_] |427| 
     885                      .dwpsn  file "../source/Solar Microinverter_main.c",line 406,column 4,is_stmt,isa 0
     886 0000009e 1AC4          OR        *+XAR4[0],#0x2000     ; [CPU_] |406| 
         0000009f 2000 
     887                      .dwpsn  file "../source/Solar Microinverter_main.c",line 409,column 4,is_stmt,isa 0
     888 000000a0 CCC4          AND       AL,*+XAR4[0],#0xfffe  ; [CPU_] |409| 
         000000a1 FFFE 
     889 000000a2 5002          ORB       AL,#0x02              ; [CPU_] |409| 
     890 000000a3 96C4          MOV       *+XAR4[0],AL          ; [CPU_] |409| 
     891                      .dwpsn  file "../source/Solar Microinverter_main.c",line 410,column 4,is_stmt,isa 0
     892 000000a4 18C4          AND       *+XAR4[0],#0xfc7f     ; [CPU_] |410| 
         000000a5 FC7F 
     893                      .dwpsn  file "../source/Solar Microinverter_main.c",line 411,column 4,is_stmt,isa 0
     894 000000a6 18C4          AND       *+XAR4[0],#0xe3ff     ; [CPU_] |411| 
         000000a7 E3FF 
     895                      .dwpsn  file "../source/Solar Microinverter_main.c",line 413,column 4,is_stmt,isa 0
     896 000000a8 18FC          AND       *+XAR4[7],#0xffef     ; [CPU_] |413| 
         000000a9 FFEF 
     897                      .dwpsn  file "../source/Solar Microinverter_main.c",line 414,column 4,is_stmt,isa 0
     898 000000aa 1807!         AND       @_EPwm2Regs+7,#0xffbf ; [CPU_] |414| 
         000000ab FFBF 
     899                      .dwpsn  file "../source/Solar Microinverter_main.c",line 415,column 4,is_stmt,isa 0
     900 000000ac 1807!         AND       @_EPwm2Regs+7,#0xfffc ; [CPU_] |415| 
         000000ad FFFC 
     901                      .dwpsn  file "../source/Solar Microinverter_main.c",line 416,column 4,is_stmt,isa 0
     902 000000ae 1807!         AND       @_EPwm2Regs+7,#0xfff3 ; [CPU_] |416| 
         000000af FFF3 
     903                      .dwpsn  file "../source/Solar Microinverter_main.c",line 419,column 4,is_stmt,isa 0
     904 000000b0 2B09!         MOV       @_EPwm2Regs+9,#0      ; [CPU_] |419| 
     905                      .dwpsn  file "../source/Solar Microinverter_main.c",line 422,column 4,is_stmt,isa 0
     906 000000b1 CC94          AND       AL,*+XAR4[AR0],#0xffdf ; [CPU_] |422| 
         000000b2 FFDF 
     907 000000b3 5010          ORB       AL,#0x10              ; [CPU_] |422| 
     908 000000b4 960B!         MOV       @_EPwm2Regs+11,AL     ; [CPU_] |422| 
TMS320C2000 Assembler PC v16.9.6 Tue Mar 06 18:34:46 2018

Tools Copyright (c) 1996-2017 Texas Instruments Incorporated
C:\Users\Admin\AppData\Local\Temp\{ED9AE313-281A-4435-8F2A-5411619B06A2} PAGE   19

     909                      .dwpsn  file "../source/Solar Microinverter_main.c",line 423,column 4,is_stmt,isa 0
     910 000000b5 CC0B!         AND       AL,@_EPwm2Regs+11,#0xfffe ; [CPU_] |423| 
         000000b6 FFFE 
     911 000000b7 5002          ORB       AL,#0x02              ; [CPU_] |423| 
     912 000000b8 960B!         MOV       @_EPwm2Regs+11,AL     ; [CPU_] |423| 
     913                      .dwpsn  file "../source/Solar Microinverter_main.c",line 427,column 4,is_stmt,isa 0
     914 000000b9 1AC5          OR        *+XAR5[0],#0x0003     ; [CPU_] |427| 
         000000ba 0003 
     915                      .dwpsn  file "../source/Solar Microinverter_main.c",line 439,column 4,is_stmt,isa 0
     916 000000bb 83A4          MOVL      XAR5,XAR4             ; [CPU_] |439| 
     917                      .dwpsn  file "../source/Solar Microinverter_main.c",line 435,column 4,is_stmt,isa 0
     918 000000bc D030          MOVB      XAR0,#48              ; [CPU_] |435| 
     919                      .dwpsn  file "../source/Solar Microinverter_main.c",line 428,column 4,is_stmt,isa 0
     920 000000bd 180F!         AND       @_EPwm2Regs+15,#0xfff3 ; [CPU_] |428| 
         000000be FFF3 
     921                      .dwpsn  file "../source/Solar Microinverter_main.c",line 439,column 4,is_stmt,isa 0
     922 000000bf DD31          ADDB      XAR5,#49              ; [CPU_] |439| 
     923                      .dwpsn  file "../source/Solar Microinverter_main.c",line 429,column 4,is_stmt,isa 0
     924 000000c0 180F!         AND       @_EPwm2Regs+15,#0xffcf ; [CPU_] |429| 
         000000c1 FFCF 
     925                      .dwpsn  file "../source/Solar Microinverter_main.c",line 430,column 4,is_stmt,isa 0
     926 000000c2 1A0F!         OR        @_EPwm2Regs+15,#0x8000 ; [CPU_] |430| 
         000000c3 8000 
     927                      .dwpsn  file "../source/Solar Microinverter_main.c",line 431,column 4,is_stmt,isa 0
     928 000000c4 56BF!         MOVB      @_EPwm2Regs+16,#10,UNC ; [CPU_] |431| 
         000000c5 0A10 
     929                      .dwpsn  file "../source/Solar Microinverter_main.c",line 432,column 4,is_stmt,isa 0
     930 000000c6 56BF!         MOVB      @_EPwm2Regs+17,#30,UNC ; [CPU_] |432| 
         000000c7 1E11 
     931                      .dwpsn  file "../source/Solar Microinverter_main.c",line 435,column 4,is_stmt,isa 0
     932 000000c8 CC94          AND       AL,*+XAR4[AR0],#0xfff8 ; [CPU_] |435| 
         000000c9 FFF8 
     933 000000ca 500A          ORB       AL,#0x0a              ; [CPU_] |435| 
     934                      .dwpsn  file "../source/Solar Microinverter_main.c",line 437,column 4,is_stmt,isa 0
     935 000000cb D013          MOVB      XAR0,#19              ; [CPU_] |437| 
     936                      .dwpsn  file "../source/Solar Microinverter_main.c",line 435,column 4,is_stmt,isa 0
     937 000000cc 9630!         MOV       @_EPwm2Regs+48,AL     ; [CPU_] |435| 
     938                      .dwpsn  file "../source/Solar Microinverter_main.c",line 436,column 4,is_stmt,isa 0
     939 000000cd CC30!         AND       AL,@_EPwm2Regs+48,#0xf8ff ; [CPU_] |436| 
         000000ce F8FF 
     940 000000cf 1AA9          OR        AL,#0x0a00            ; [CPU_] |436| 
         000000d0 0A00 
     941 000000d1 9630!         MOV       @_EPwm2Regs+48,AL     ; [CPU_] |436| 
     942                      .dwpsn  file "../source/Solar Microinverter_main.c",line 437,column 4,is_stmt,isa 0
     943 000000d2 CC94          AND       AL,*+XAR4[AR0],#0xfff8 ; [CPU_] |437| 
         000000d3 FFF8 
     944 000000d4 5002          ORB       AL,#0x02              ; [CPU_] |437| 
     945 000000d5 9613!         MOV       @_EPwm2Regs+19,AL     ; [CPU_] |437| 
     946                      .dwpsn  file "../source/Solar Microinverter_main.c",line 438,column 4,is_stmt,isa 0
     947 000000d6 CC13!         AND       AL,@_EPwm2Regs+19,#0xfe3f ; [CPU_] |438| 
         000000d7 FE3F 
     948 000000d8 5080          ORB       AL,#0x80              ; [CPU_] |438| 
     949 000000d9 9613!         MOV       @_EPwm2Regs+19,AL     ; [CPU_] |438| 
     950                      .dwpsn  file "../source/Solar Microinverter_main.c",line 439,column 4,is_stmt,isa 0
     951 000000da 18C5          AND       *+XAR5[0],#0xfffe     ; [CPU_] |439| 
TMS320C2000 Assembler PC v16.9.6 Tue Mar 06 18:34:46 2018

Tools Copyright (c) 1996-2017 Texas Instruments Incorporated
C:\Users\Admin\AppData\Local\Temp\{ED9AE313-281A-4435-8F2A-5411619B06A2} PAGE   20

         000000db FFFE 
     952                      .dwpsn  file "../source/Solar Microinverter_main.c",line 441,column 4,is_stmt,isa 0
     953 000000dc 83A4          MOVL      XAR5,XAR4             ; [CPU_] |441| 
     954                      .dwpsn  file "../source/Solar Microinverter_main.c",line 450,column 3,is_stmt,isa 0
     955 000000dd D014          MOVB      XAR0,#20              ; [CPU_] |450| 
     956                      .dwpsn  file "../source/Solar Microinverter_main.c",line 441,column 4,is_stmt,isa 0
     957 000000de DD12          ADDB      XAR5,#18              ; [CPU_] |441| 
     958                      .dwpsn  file "../source/Solar Microinverter_main.c",line 440,column 4,is_stmt,isa 0
     959 000000df 1A31!         OR        @_EPwm2Regs+49,#0x0002 ; [CPU_] |440| 
         000000e0 0002 
     960                      .dwpsn  file "../source/Solar Microinverter_main.c",line 441,column 4,is_stmt,isa 0
     961 000000e1 1AC5          OR        *+XAR5[0],#0x4000     ; [CPU_] |441| 
         000000e2 4000 
     962                      .dwpsn  file "../source/Solar Microinverter_main.c",line 442,column 4,is_stmt,isa 0
     963 000000e3 1A12!         OR        @_EPwm2Regs+18,#0x8000 ; [CPU_] |442| 
         000000e4 8000 
     964                      .dwpsn  file "../source/Solar Microinverter_main.c",line 446,column 4,is_stmt,isa 0
     965 000000e5 1A12!         OR        @_EPwm2Regs+18,#0x0200 ; [CPU_] |446| 
         000000e6 0200 
     966                      .dwpsn  file "../source/Solar Microinverter_main.c",line 450,column 3,is_stmt,isa 0
     967 000000e7 CC94          AND       AL,*+XAR4[AR0],#0xfffe ; [CPU_] |450| 
         000000e8 FFFE 
     968 000000e9 5002          ORB       AL,#0x02              ; [CPU_] |450| 
     969                      .dwpsn  file "../source/Solar Microinverter_main.c",line 455,column 3,is_stmt,isa 0
     970 000000ea DC15          ADDB      XAR4,#21              ; [CPU_] |455| 
     971                      .dwpsn  file "../source/Solar Microinverter_main.c",line 450,column 3,is_stmt,isa 0
     972 000000eb 9614!         MOV       @_EPwm2Regs+20,AL     ; [CPU_] |450| 
     973                      .dwpsn  file "../source/Solar Microinverter_main.c",line 451,column 3,is_stmt,isa 0
     974 000000ec CC14!         AND       AL,@_EPwm2Regs+20,#0xfff7 ; [CPU_] |451| 
         000000ed FFF7 
     975 000000ee 5004          ORB       AL,#0x04              ; [CPU_] |451| 
     976 000000ef 9614!         MOV       @_EPwm2Regs+20,AL     ; [CPU_] |451| 
     977                      .dwpsn  file "../source/Solar Microinverter_main.c",line 452,column 3,is_stmt,isa 0
     978 000000f0 CC14!         AND       AL,@_EPwm2Regs+20,#0xffef ; [CPU_] |452| 
         000000f1 FFEF 
     979 000000f2 5020          ORB       AL,#0x20              ; [CPU_] |452| 
     980 000000f3 9614!         MOV       @_EPwm2Regs+20,AL     ; [CPU_] |452| 
     981                      .dwpsn  file "../source/Solar Microinverter_main.c",line 453,column 3,is_stmt,isa 0
     982 000000f4 CC14!         AND       AL,@_EPwm2Regs+20,#0xfdff ; [CPU_] |453| 
         000000f5 FDFF 
     983 000000f6 1AA9          OR        AL,#0x0100            ; [CPU_] |453| 
         000000f7 0100 
     984 000000f8 9614!         MOV       @_EPwm2Regs+20,AL     ; [CPU_] |453| 
     985                      .dwpsn  file "../source/Solar Microinverter_main.c",line 455,column 3,is_stmt,isa 0
     986 000000f9 1AC4          OR        *+XAR4[0],#0x0004     ; [CPU_] |455| 
         000000fa 0004 
     987                      .dwpsn  file "../source/Solar Microinverter_main.c",line 456,column 3,is_stmt,isa 0
     988 000000fb 1A15!         OR        @_EPwm2Regs+21,#0x0008 ; [CPU_] |456| 
         000000fc 0008 
     989                      .dwpsn  file "../source/Solar Microinverter_main.c",line 457,column 3,is_stmt,isa 0
     990 000000fd 1A15!         OR        @_EPwm2Regs+21,#0x0020 ; [CPU_] |457| 
         000000fe 0020 
     991 000000ff 761A   EDIS
     992 00000100 FF69          SPM       #0                    ; [CPU_] 
     993              $C$DW$75        .dwtag  DW_TAG_TI_branch
TMS320C2000 Assembler PC v16.9.6 Tue Mar 06 18:34:46 2018

Tools Copyright (c) 1996-2017 Texas Instruments Incorporated
C:\Users\Admin\AppData\Local\Temp\{ED9AE313-281A-4435-8F2A-5411619B06A2} PAGE   21

     994                      .dwattr $C$DW$75, DW_AT_low_pc(0x00)
     995                      .dwattr $C$DW$75, DW_AT_TI_return
     996              
     997 00000101 0006          LRETR     ; [CPU_] 
     998                      ; return occurs ; [] 
     999                      .dwattr $C$DW$74, DW_AT_TI_end_file("../source/Solar Microinverter_main.c")
    1000                      .dwattr $C$DW$74, DW_AT_TI_end_line(0x1cb)
    1001                      .dwattr $C$DW$74, DW_AT_TI_end_column(0x01)
    1002                      .dwendentry
    1003                      .dwendtag $C$DW$74
    1004              
    1005 00000102               .sect   ".text"
    1006                      .clink
    1007                      .global _InitEPwm3Example
    1008              
    1009              $C$DW$76        .dwtag  DW_TAG_subprogram
    1010                      .dwattr $C$DW$76, DW_AT_name("InitEPwm3Example")
    1011                      .dwattr $C$DW$76, DW_AT_low_pc(_InitEPwm3Example)
    1012                      .dwattr $C$DW$76, DW_AT_high_pc(0x00)
    1013                      .dwattr $C$DW$76, DW_AT_TI_symbol_name("_InitEPwm3Example")
    1014                      .dwattr $C$DW$76, DW_AT_external
    1015                      .dwattr $C$DW$76, DW_AT_TI_begin_file("../source/Solar Microinverter_main.c")
    1016                      .dwattr $C$DW$76, DW_AT_TI_begin_line(0x1ce)
    1017                      .dwattr $C$DW$76, DW_AT_TI_begin_column(0x06)
    1018                      .dwattr $C$DW$76, DW_AT_TI_max_frame_size(-2)
    1019                      .dwpsn  file "../source/Solar Microinverter_main.c",line 463,column 1,is_stmt,address _InitEPwm3Examp
    1020              
    1021                      .dwfde $C$DW$CIE, _InitEPwm3Example
    1022              
    1023              ;***************************************************************
    1024              ;* FNAME: _InitEPwm3Example             FR SIZE:   0           *
    1025              ;*                                                             *
    1026              ;* FUNCTION ENVIRONMENT                                        *
    1027              ;*                                                             *
    1028              ;* FUNCTION PROPERTIES                                         *
    1029              ;*                            0 Parameter,  0 Auto,  0 SOE     *
    1030              ;***************************************************************
    1031              
    1032 00000102       _InitEPwm3Example:
    1033              ;* AR4   assigned to $O$C1
    1034                      .dwcfi  cfa_offset, -2
    1035                      .dwcfi  save_reg_to_mem, 26, 0
    1036 00000102 7622   EALLOW
    1037 00000103 761F!         MOVW      DP,#_EPwm3Regs+5      ; [CPU_U] 
         00000104 0000 
    1038                      .dwpsn  file "../source/Solar Microinverter_main.c",line 468,column 4,is_stmt,isa 0
    1039 00000105 8F00!         MOVL      XAR4,#_EPwm3Regs      ; [CPU_U] |468| 
         00000106 0000 
    1040                      .dwpsn  file "../source/Solar Microinverter_main.c",line 465,column 4,is_stmt,isa 0
    1041 00000107 2805!         MOV       @_EPwm3Regs+5,#267    ; [CPU_] |465| 
         00000108 010B 
    1042                      .dwpsn  file "../source/Solar Microinverter_main.c",line 491,column 4,is_stmt,isa 0
    1043 00000109 83A4          MOVL      XAR5,XAR4             ; [CPU_] |491| 
    1044                      .dwpsn  file "../source/Solar Microinverter_main.c",line 466,column 4,is_stmt,isa 0
    1045 0000010a 2B03!         MOV       @_EPwm3Regs+3,#0      ; [CPU_] |466| 
TMS320C2000 Assembler PC v16.9.6 Tue Mar 06 18:34:46 2018

Tools Copyright (c) 1996-2017 Texas Instruments Incorporated
C:\Users\Admin\AppData\Local\Temp\{ED9AE313-281A-4435-8F2A-5411619B06A2} PAGE   22

    1046                      .dwpsn  file "../source/Solar Microinverter_main.c",line 484,column 4,is_stmt,isa 0
    1047 0000010b D00B          MOVB      XAR0,#11              ; [CPU_] |484| 
    1048                      .dwpsn  file "../source/Solar Microinverter_main.c",line 467,column 4,is_stmt,isa 0
    1049 0000010c 2B04!         MOV       @_EPwm3Regs+4,#0      ; [CPU_] |467| 
    1050                      .dwpsn  file "../source/Solar Microinverter_main.c",line 468,column 4,is_stmt,isa 0
    1051 0000010d 18C4          AND       *+XAR4[0],#0xfffb     ; [CPU_] |468| 
         0000010e FFFB 
    1052                      .dwpsn  file "../source/Solar Microinverter_main.c",line 471,column 4,is_stmt,isa 0
    1053 0000010f 18C4          AND       *+XAR4[0],#0xfffc     ; [CPU_] |471| 
         00000110 FFFC 
    1054                      .dwpsn  file "../source/Solar Microinverter_main.c",line 491,column 4,is_stmt,isa 0
    1055 00000111 DD0F          ADDB      XAR5,#15              ; [CPU_] |491| 
    1056                      .dwpsn  file "../source/Solar Microinverter_main.c",line 472,column 4,is_stmt,isa 0
    1057 00000112 18C4          AND       *+XAR4[0],#0xfc7f     ; [CPU_] |472| 
         00000113 FC7F 
    1058                      .dwpsn  file "../source/Solar Microinverter_main.c",line 473,column 4,is_stmt,isa 0
    1059 00000114 18C4          AND       *+XAR4[0],#0xe3ff     ; [CPU_] |473| 
         00000115 E3FF 
    1060                      .dwpsn  file "../source/Solar Microinverter_main.c",line 476,column 4,is_stmt,isa 0
    1061 00000116 56BF!         MOVB      @_EPwm3Regs+9,#133,UNC ; [CPU_] |476| 
         00000117 8509 
    1062                      .dwpsn  file "../source/Solar Microinverter_main.c",line 478,column 4,is_stmt,isa 0
    1063 00000118 18FC          AND       *+XAR4[7],#0xffef     ; [CPU_] |478| 
         00000119 FFEF 
    1064                      .dwpsn  file "../source/Solar Microinverter_main.c",line 479,column 4,is_stmt,isa 0
    1065 0000011a 1807!         AND       @_EPwm3Regs+7,#0xffbf ; [CPU_] |479| 
         0000011b FFBF 
    1066                      .dwpsn  file "../source/Solar Microinverter_main.c",line 480,column 4,is_stmt,isa 0
    1067 0000011c 1807!         AND       @_EPwm3Regs+7,#0xfffc ; [CPU_] |480| 
         0000011d FFFC 
    1068                      .dwpsn  file "../source/Solar Microinverter_main.c",line 481,column 4,is_stmt,isa 0
    1069 0000011e 1807!         AND       @_EPwm3Regs+7,#0xfff3 ; [CPU_] |481| 
         0000011f FFF3 
    1070                      .dwpsn  file "../source/Solar Microinverter_main.c",line 484,column 4,is_stmt,isa 0
    1071 00000120 CC94          AND       AL,*+XAR4[AR0],#0xffdf ; [CPU_] |484| 
         00000121 FFDF 
    1072 00000122 5010          ORB       AL,#0x10              ; [CPU_] |484| 
    1073                      .dwpsn  file "../source/Solar Microinverter_main.c",line 486,column 4,is_stmt,isa 0
    1074 00000123 D00C          MOVB      XAR0,#12              ; [CPU_] |486| 
    1075                      .dwpsn  file "../source/Solar Microinverter_main.c",line 484,column 4,is_stmt,isa 0
    1076 00000124 960B!         MOV       @_EPwm3Regs+11,AL     ; [CPU_] |484| 
    1077                      .dwpsn  file "../source/Solar Microinverter_main.c",line 485,column 4,is_stmt,isa 0
    1078 00000125 CC0B!         AND       AL,@_EPwm3Regs+11,#0xfffe ; [CPU_] |485| 
         00000126 FFFE 
    1079 00000127 5002          ORB       AL,#0x02              ; [CPU_] |485| 
    1080 00000128 960B!         MOV       @_EPwm3Regs+11,AL     ; [CPU_] |485| 
    1081                      .dwpsn  file "../source/Solar Microinverter_main.c",line 486,column 4,is_stmt,isa 0
    1082 00000129 CC94          AND       AL,*+XAR4[AR0],#0xffdf ; [CPU_] |486| 
         0000012a FFDF 
    1083 0000012b 5010          ORB       AL,#0x10              ; [CPU_] |486| 
    1084 0000012c 960C!         MOV       @_EPwm3Regs+12,AL     ; [CPU_] |486| 
    1085                      .dwpsn  file "../source/Solar Microinverter_main.c",line 487,column 4,is_stmt,isa 0
    1086 0000012d CC0C!         AND       AL,@_EPwm3Regs+12,#0xfffe ; [CPU_] |487| 
         0000012e FFFE 
    1087 0000012f 5002          ORB       AL,#0x02              ; [CPU_] |487| 
TMS320C2000 Assembler PC v16.9.6 Tue Mar 06 18:34:46 2018

Tools Copyright (c) 1996-2017 Texas Instruments Incorporated
C:\Users\Admin\AppData\Local\Temp\{ED9AE313-281A-4435-8F2A-5411619B06A2} PAGE   23

    1088 00000130 960C!         MOV       @_EPwm3Regs+12,AL     ; [CPU_] |487| 
    1089                      .dwpsn  file "../source/Solar Microinverter_main.c",line 491,column 4,is_stmt,isa 0
    1090 00000131 18C5          AND       *+XAR5[0],#0xfffc     ; [CPU_] |491| 
         00000132 FFFC 
    1091                      .dwpsn  file "../source/Solar Microinverter_main.c",line 496,column 4,is_stmt,isa 0
    1092 00000133 83A4          MOVL      XAR5,XAR4             ; [CPU_] |496| 
    1093                      .dwpsn  file "../source/Solar Microinverter_main.c",line 494,column 4,is_stmt,isa 0
    1094 00000134 D030          MOVB      XAR0,#48              ; [CPU_] |494| 
    1095                      .dwpsn  file "../source/Solar Microinverter_main.c",line 496,column 4,is_stmt,isa 0
    1096 00000135 DD33          ADDB      XAR5,#51              ; [CPU_] |496| 
    1097                      .dwpsn  file "../source/Solar Microinverter_main.c",line 494,column 4,is_stmt,isa 0
    1098 00000136 CC94          AND       AL,*+XAR4[AR0],#0xfff8 ; [CPU_] |494| 
         00000137 FFF8 
    1099 00000138 5008          ORB       AL,#0x08              ; [CPU_] |494| 
    1100 00000139 9630!         MOV       @_EPwm3Regs+48,AL     ; [CPU_] |494| 
    1101                      .dwpsn  file "../source/Solar Microinverter_main.c",line 495,column 4,is_stmt,isa 0
    1102 0000013a CC30!         AND       AL,@_EPwm3Regs+48,#0xf8ff ; [CPU_] |495| 
         0000013b F8FF 
    1103 0000013c 1AA9          OR        AL,#0x0800            ; [CPU_] |495| 
         0000013d 0800 
    1104 0000013e 9630!         MOV       @_EPwm3Regs+48,AL     ; [CPU_] |495| 
    1105                      .dwpsn  file "../source/Solar Microinverter_main.c",line 496,column 4,is_stmt,isa 0
    1106 0000013f 18C5          AND       *+XAR5[0],#0xfffb     ; [CPU_] |496| 
         00000140 FFFB 
    1107                      .dwpsn  file "../source/Solar Microinverter_main.c",line 500,column 4,is_stmt,isa 0
    1108 00000141 83A4          MOVL      XAR5,XAR4             ; [CPU_] |500| 
    1109                      .dwpsn  file "../source/Solar Microinverter_main.c",line 498,column 4,is_stmt,isa 0
    1110 00000142 D013          MOVB      XAR0,#19              ; [CPU_] |498| 
    1111                      .dwpsn  file "../source/Solar Microinverter_main.c",line 500,column 4,is_stmt,isa 0
    1112 00000143 DD31          ADDB      XAR5,#49              ; [CPU_] |500| 
    1113                      .dwpsn  file "../source/Solar Microinverter_main.c",line 498,column 4,is_stmt,isa 0
    1114 00000144 CC94          AND       AL,*+XAR4[AR0],#0xfff8 ; [CPU_] |498| 
         00000145 FFF8 
    1115 00000146 5002          ORB       AL,#0x02              ; [CPU_] |498| 
    1116 00000147 9613!         MOV       @_EPwm3Regs+19,AL     ; [CPU_] |498| 
    1117                      .dwpsn  file "../source/Solar Microinverter_main.c",line 499,column 4,is_stmt,isa 0
    1118 00000148 CC13!         AND       AL,@_EPwm3Regs+19,#0xfe3f ; [CPU_] |499| 
         00000149 FE3F 
    1119 0000014a 5080          ORB       AL,#0x80              ; [CPU_] |499| 
    1120 0000014b 9613!         MOV       @_EPwm3Regs+19,AL     ; [CPU_] |499| 
    1121                      .dwpsn  file "../source/Solar Microinverter_main.c",line 500,column 4,is_stmt,isa 0
    1122 0000014c 18C5          AND       *+XAR5[0],#0xfffe     ; [CPU_] |500| 
         0000014d FFFE 
    1123                      .dwpsn  file "../source/Solar Microinverter_main.c",line 502,column 4,is_stmt,isa 0
    1124 0000014e 83A4          MOVL      XAR5,XAR4             ; [CPU_] |502| 
    1125                      .dwpsn  file "../source/Solar Microinverter_main.c",line 511,column 4,is_stmt,isa 0
    1126 0000014f D014          MOVB      XAR0,#20              ; [CPU_] |511| 
    1127                      .dwpsn  file "../source/Solar Microinverter_main.c",line 502,column 4,is_stmt,isa 0
    1128 00000150 DD12          ADDB      XAR5,#18              ; [CPU_] |502| 
    1129                      .dwpsn  file "../source/Solar Microinverter_main.c",line 501,column 4,is_stmt,isa 0
    1130 00000151 1A31!         OR        @_EPwm3Regs+49,#0x0002 ; [CPU_] |501| 
         00000152 0002 
    1131                      .dwpsn  file "../source/Solar Microinverter_main.c",line 502,column 4,is_stmt,isa 0
    1132 00000153 1AC5          OR        *+XAR5[0],#0x4000     ; [CPU_] |502| 
         00000154 4000 
TMS320C2000 Assembler PC v16.9.6 Tue Mar 06 18:34:46 2018

Tools Copyright (c) 1996-2017 Texas Instruments Incorporated
C:\Users\Admin\AppData\Local\Temp\{ED9AE313-281A-4435-8F2A-5411619B06A2} PAGE   24

    1133                      .dwpsn  file "../source/Solar Microinverter_main.c",line 503,column 4,is_stmt,isa 0
    1134 00000155 1A12!         OR        @_EPwm3Regs+18,#0x8000 ; [CPU_] |503| 
         00000156 8000 
    1135                      .dwpsn  file "../source/Solar Microinverter_main.c",line 507,column 4,is_stmt,isa 0
    1136 00000157 1A12!         OR        @_EPwm3Regs+18,#0x0200 ; [CPU_] |507| 
         00000158 0200 
    1137                      .dwpsn  file "../source/Solar Microinverter_main.c",line 511,column 4,is_stmt,isa 0
    1138 00000159 CC94          AND       AL,*+XAR4[AR0],#0xfffe ; [CPU_] |511| 
         0000015a FFFE 
    1139 0000015b 5002          ORB       AL,#0x02              ; [CPU_] |511| 
    1140                      .dwpsn  file "../source/Solar Microinverter_main.c",line 516,column 4,is_stmt,isa 0
    1141 0000015c DC15          ADDB      XAR4,#21              ; [CPU_] |516| 
    1142                      .dwpsn  file "../source/Solar Microinverter_main.c",line 511,column 4,is_stmt,isa 0
    1143 0000015d 9614!         MOV       @_EPwm3Regs+20,AL     ; [CPU_] |511| 
    1144                      .dwpsn  file "../source/Solar Microinverter_main.c",line 512,column 4,is_stmt,isa 0
    1145 0000015e CC14!         AND       AL,@_EPwm3Regs+20,#0xfffb ; [CPU_] |512| 
         0000015f FFFB 
    1146 00000160 5008          ORB       AL,#0x08              ; [CPU_] |512| 
    1147 00000161 9614!         MOV       @_EPwm3Regs+20,AL     ; [CPU_] |512| 
    1148                      .dwpsn  file "../source/Solar Microinverter_main.c",line 513,column 4,is_stmt,isa 0
    1149 00000162 CC14!         AND       AL,@_EPwm3Regs+20,#0xffef ; [CPU_] |513| 
         00000163 FFEF 
    1150 00000164 5020          ORB       AL,#0x20              ; [CPU_] |513| 
    1151 00000165 9614!         MOV       @_EPwm3Regs+20,AL     ; [CPU_] |513| 
    1152                      .dwpsn  file "../source/Solar Microinverter_main.c",line 514,column 4,is_stmt,isa 0
    1153 00000166 CC14!         AND       AL,@_EPwm3Regs+20,#0xfeff ; [CPU_] |514| 
         00000167 FEFF 
    1154 00000168 1AA9          OR        AL,#0x0200            ; [CPU_] |514| 
         00000169 0200 
    1155 0000016a 9614!         MOV       @_EPwm3Regs+20,AL     ; [CPU_] |514| 
    1156                      .dwpsn  file "../source/Solar Microinverter_main.c",line 516,column 4,is_stmt,isa 0
    1157 0000016b 1AC4          OR        *+XAR4[0],#0x0004     ; [CPU_] |516| 
         0000016c 0004 
    1158                      .dwpsn  file "../source/Solar Microinverter_main.c",line 517,column 4,is_stmt,isa 0
    1159 0000016d 1A15!         OR        @_EPwm3Regs+21,#0x0008 ; [CPU_] |517| 
         0000016e 0008 
    1160                      .dwpsn  file "../source/Solar Microinverter_main.c",line 518,column 4,is_stmt,isa 0
    1161 0000016f 1A15!         OR        @_EPwm3Regs+21,#0x0020 ; [CPU_] |518| 
         00000170 0020 
    1162 00000171 761A   EDIS
    1163 00000172 FF69          SPM       #0                    ; [CPU_] 
    1164              $C$DW$77        .dwtag  DW_TAG_TI_branch
    1165                      .dwattr $C$DW$77, DW_AT_low_pc(0x00)
    1166                      .dwattr $C$DW$77, DW_AT_TI_return
    1167              
    1168 00000173 0006          LRETR     ; [CPU_] 
    1169                      ; return occurs ; [] 
    1170                      .dwattr $C$DW$76, DW_AT_TI_end_file("../source/Solar Microinverter_main.c")
    1171                      .dwattr $C$DW$76, DW_AT_TI_end_line(0x208)
    1172                      .dwattr $C$DW$76, DW_AT_TI_end_column(0x01)
    1173                      .dwendentry
    1174                      .dwendtag $C$DW$76
    1175              
    1176 00000174               .sect   ".text"
    1177                      .clink
TMS320C2000 Assembler PC v16.9.6 Tue Mar 06 18:34:46 2018

Tools Copyright (c) 1996-2017 Texas Instruments Incorporated
C:\Users\Admin\AppData\Local\Temp\{ED9AE313-281A-4435-8F2A-5411619B06A2} PAGE   25

    1178                      .global _InitEPwm4Example
    1179              
    1180              $C$DW$78        .dwtag  DW_TAG_subprogram
    1181                      .dwattr $C$DW$78, DW_AT_name("InitEPwm4Example")
    1182                      .dwattr $C$DW$78, DW_AT_low_pc(_InitEPwm4Example)
    1183                      .dwattr $C$DW$78, DW_AT_high_pc(0x00)
    1184                      .dwattr $C$DW$78, DW_AT_TI_symbol_name("_InitEPwm4Example")
    1185                      .dwattr $C$DW$78, DW_AT_external
    1186                      .dwattr $C$DW$78, DW_AT_TI_begin_file("../source/Solar Microinverter_main.c")
    1187                      .dwattr $C$DW$78, DW_AT_TI_begin_line(0x20a)
    1188                      .dwattr $C$DW$78, DW_AT_TI_begin_column(0x06)
    1189                      .dwattr $C$DW$78, DW_AT_TI_max_frame_size(-2)
    1190                      .dwpsn  file "../source/Solar Microinverter_main.c",line 523,column 1,is_stmt,address _InitEPwm4Examp
    1191              
    1192                      .dwfde $C$DW$CIE, _InitEPwm4Example
    1193              
    1194              ;***************************************************************
    1195              ;* FNAME: _InitEPwm4Example             FR SIZE:   0           *
    1196              ;*                                                             *
    1197              ;* FUNCTION ENVIRONMENT                                        *
    1198              ;*                                                             *
    1199              ;* FUNCTION PROPERTIES                                         *
    1200              ;*                            0 Parameter,  0 Auto,  0 SOE     *
    1201              ;***************************************************************
    1202              
    1203 00000174       _InitEPwm4Example:
    1204              ;* AR4   assigned to $O$C1
    1205                      .dwcfi  cfa_offset, -2
    1206                      .dwcfi  save_reg_to_mem, 26, 0
    1207 00000174 7622   EALLOW
    1208 00000175 761F!         MOVW      DP,#_EPwm4Regs+5      ; [CPU_U] 
         00000176 0000 
    1209                      .dwpsn  file "../source/Solar Microinverter_main.c",line 528,column 4,is_stmt,isa 0
    1210 00000177 8F00!         MOVL      XAR4,#_EPwm4Regs      ; [CPU_U] |528| 
         00000178 0000 
    1211                      .dwpsn  file "../source/Solar Microinverter_main.c",line 525,column 4,is_stmt,isa 0
    1212 00000179 2805!         MOV       @_EPwm4Regs+5,#6000   ; [CPU_] |525| 
         0000017a 1770 
    1213                      .dwpsn  file "../source/Solar Microinverter_main.c",line 535,column 4,is_stmt,isa 0
    1214 0000017b D019          MOVB      XAR0,#25              ; [CPU_] |535| 
    1215                      .dwpsn  file "../source/Solar Microinverter_main.c",line 526,column 4,is_stmt,isa 0
    1216 0000017c 2B03!         MOV       @_EPwm4Regs+3,#0      ; [CPU_] |526| 
    1217                      .dwpsn  file "../source/Solar Microinverter_main.c",line 527,column 4,is_stmt,isa 0
    1218 0000017d 2B04!         MOV       @_EPwm4Regs+4,#0      ; [CPU_] |527| 
    1219                      .dwpsn  file "../source/Solar Microinverter_main.c",line 528,column 4,is_stmt,isa 0
    1220 0000017e 18C4          AND       *+XAR4[0],#0xfffb     ; [CPU_] |528| 
         0000017f FFFB 
    1221                      .dwpsn  file "../source/Solar Microinverter_main.c",line 531,column 4,is_stmt,isa 0
    1222 00000180 18C4          AND       *+XAR4[0],#0xfffc     ; [CPU_] |531| 
         00000181 FFFC 
    1223                      .dwpsn  file "../source/Solar Microinverter_main.c",line 532,column 4,is_stmt,isa 0
    1224 00000182 18C4          AND       *+XAR4[0],#0xfc7f     ; [CPU_] |532| 
         00000183 FC7F 
    1225                      .dwpsn  file "../source/Solar Microinverter_main.c",line 533,column 4,is_stmt,isa 0
    1226 00000184 18C4          AND       *+XAR4[0],#0xe3ff     ; [CPU_] |533| 
TMS320C2000 Assembler PC v16.9.6 Tue Mar 06 18:34:46 2018

Tools Copyright (c) 1996-2017 Texas Instruments Incorporated
C:\Users\Admin\AppData\Local\Temp\{ED9AE313-281A-4435-8F2A-5411619B06A2} PAGE   26

         00000185 E3FF 
    1227                      .dwpsn  file "../source/Solar Microinverter_main.c",line 535,column 4,is_stmt,isa 0
    1228 00000186 CC94          AND       AL,*+XAR4[AR0],#0xfff8 ; [CPU_] |535| 
         00000187 FFF8 
    1229 00000188 5001          ORB       AL,#0x01              ; [CPU_] |535| 
    1230                      .dwpsn  file "../source/Solar Microinverter_main.c",line 537,column 4,is_stmt,isa 0
    1231 00000189 D01A          MOVB      XAR0,#26              ; [CPU_] |537| 
    1232                      .dwpsn  file "../source/Solar Microinverter_main.c",line 535,column 4,is_stmt,isa 0
    1233 0000018a 9619!         MOV       @_EPwm4Regs+25,AL     ; [CPU_] |535| 
    1234                      .dwpsn  file "../source/Solar Microinverter_main.c",line 536,column 4,is_stmt,isa 0
    1235 0000018b 1A19!         OR        @_EPwm4Regs+25,#0x0008 ; [CPU_] |536| 
         0000018c 0008 
    1236                      .dwpsn  file "../source/Solar Microinverter_main.c",line 537,column 4,is_stmt,isa 0
    1237 0000018d CC94          AND       AL,*+XAR4[AR0],#0xfffc ; [CPU_] |537| 
         0000018e FFFC 
    1238 0000018f 5001          ORB       AL,#0x01              ; [CPU_] |537| 
    1239 00000190 961A!         MOV       @_EPwm4Regs+26,AL     ; [CPU_] |537| 
    1240 00000191 761A   EDIS
    1241 00000192 FF69          SPM       #0                    ; [CPU_] 
    1242              $C$DW$79        .dwtag  DW_TAG_TI_branch
    1243                      .dwattr $C$DW$79, DW_AT_low_pc(0x00)
    1244                      .dwattr $C$DW$79, DW_AT_TI_return
    1245              
    1246 00000193 0006          LRETR     ; [CPU_] 
    1247                      ; return occurs ; [] 
    1248                      .dwattr $C$DW$78, DW_AT_TI_end_file("../source/Solar Microinverter_main.c")
    1249                      .dwattr $C$DW$78, DW_AT_TI_end_line(0x21b)
    1250                      .dwattr $C$DW$78, DW_AT_TI_end_column(0x01)
    1251                      .dwendentry
    1252                      .dwendtag $C$DW$78
    1253              
    1254 00000194               .sect   ".text"
    1255                      .clink
    1256                      .global _Adc_Config
    1257              
    1258              $C$DW$80        .dwtag  DW_TAG_subprogram
    1259                      .dwattr $C$DW$80, DW_AT_name("Adc_Config")
    1260                      .dwattr $C$DW$80, DW_AT_low_pc(_Adc_Config)
    1261                      .dwattr $C$DW$80, DW_AT_high_pc(0x00)
    1262                      .dwattr $C$DW$80, DW_AT_TI_symbol_name("_Adc_Config")
    1263                      .dwattr $C$DW$80, DW_AT_external
    1264                      .dwattr $C$DW$80, DW_AT_TI_begin_file("../source/Solar Microinverter_main.c")
    1265                      .dwattr $C$DW$80, DW_AT_TI_begin_line(0x21e)
    1266                      .dwattr $C$DW$80, DW_AT_TI_begin_column(0x06)
    1267                      .dwattr $C$DW$80, DW_AT_TI_max_frame_size(-2)
    1268                      .dwpsn  file "../source/Solar Microinverter_main.c",line 543,column 1,is_stmt,address _Adc_Config,isa
    1269              
    1270                      .dwfde $C$DW$CIE, _Adc_Config
    1271              
    1272              ;***************************************************************
    1273              ;* FNAME: _Adc_Config                   FR SIZE:   0           *
    1274              ;*                                                             *
    1275              ;* FUNCTION ENVIRONMENT                                        *
    1276              ;*                                                             *
    1277              ;* FUNCTION PROPERTIES                                         *
TMS320C2000 Assembler PC v16.9.6 Tue Mar 06 18:34:46 2018

Tools Copyright (c) 1996-2017 Texas Instruments Incorporated
C:\Users\Admin\AppData\Local\Temp\{ED9AE313-281A-4435-8F2A-5411619B06A2} PAGE   27

    1278              ;*                            0 Parameter,  0 Auto,  0 SOE     *
    1279              ;***************************************************************
    1280              
    1281 00000194       _Adc_Config:
    1282              ;* AR4   assigned to $O$C1
    1283                      .dwcfi  cfa_offset, -2
    1284                      .dwcfi  save_reg_to_mem, 26, 0
    1285 00000194 7622   EALLOW
    1286                      .dwpsn  file "../source/Solar Microinverter_main.c",line 546,column 2,is_stmt,isa 0
    1287 00000195 8F00!         MOVL      XAR4,#_AdcRegs        ; [CPU_U] |546| 
         00000196 0000 
    1288                      .dwpsn  file "../source/Solar Microinverter_main.c",line 547,column 2,is_stmt,isa 0
    1289 00000197 83A4          MOVL      XAR5,XAR4             ; [CPU_] |547| 
    1290 00000198 761F!         MOVW      DP,#_AdcRegs+8        ; [CPU_U] 
         00000199 0000 
    1291                      .dwpsn  file "../source/Solar Microinverter_main.c",line 550,column 2,is_stmt,isa 0
    1292 0000019a D020          MOVB      XAR0,#32              ; [CPU_] |550| 
    1293                      .dwpsn  file "../source/Solar Microinverter_main.c",line 546,column 2,is_stmt,isa 0
    1294 0000019b 1AC4          OR        *+XAR4[0],#0x0004     ; [CPU_] |546| 
         0000019c 0004 
    1295                      .dwpsn  file "../source/Solar Microinverter_main.c",line 547,column 2,is_stmt,isa 0
    1296 0000019d DD08          ADDB      XAR5,#8               ; [CPU_] |547| 
    1297 0000019e 1AC5          OR        *+XAR5[0],#0x0020     ; [CPU_] |547| 
         0000019f 0020 
    1298                      .dwpsn  file "../source/Solar Microinverter_main.c",line 548,column 2,is_stmt,isa 0
    1299 000001a0 1808!         AND       @_AdcRegs+8,#0xffbf   ; [CPU_] |548| 
         000001a1 FFBF 
    1300                      .dwpsn  file "../source/Solar Microinverter_main.c",line 549,column 2,is_stmt,isa 0
    1301 000001a2 CC08!         AND       AL,@_AdcRegs+8,#0xffe0 ; [CPU_] |549| 
         000001a3 FFE0 
    1302 000001a4 5008          ORB       AL,#0x08              ; [CPU_] |549| 
    1303 000001a5 9608!         MOV       @_AdcRegs+8,AL        ; [CPU_] |549| 
    1304                      .dwpsn  file "../source/Solar Microinverter_main.c",line 550,column 2,is_stmt,isa 0
    1305 000001a6 CC94          AND       AL,*+XAR4[AR0],#0xfc7f ; [CPU_] |550| 
         000001a7 FC7F 
    1306 000001a8 5040          ORB       AL,#0x40              ; [CPU_] |550| 
    1307                      .dwpsn  file "../source/Solar Microinverter_main.c",line 553,column 2,is_stmt,isa 0
    1308 000001a9 D021          MOVB      XAR0,#33              ; [CPU_] |553| 
    1309                      .dwpsn  file "../source/Solar Microinverter_main.c",line 550,column 2,is_stmt,isa 0
    1310 000001aa 9620!         MOV       @_AdcRegs+32,AL       ; [CPU_] |550| 
    1311                      .dwpsn  file "../source/Solar Microinverter_main.c",line 551,column 2,is_stmt,isa 0
    1312 000001ab CC20!         AND       AL,@_AdcRegs+32,#0x07ff ; [CPU_] |551| 
         000001ac 07FF 
    1313 000001ad 1AA9          OR        AL,#0x2800            ; [CPU_] |551| 
         000001ae 2800 
    1314 000001af 9620!         MOV       @_AdcRegs+32,AL       ; [CPU_] |551| 
    1315                      .dwpsn  file "../source/Solar Microinverter_main.c",line 552,column 2,is_stmt,isa 0
    1316 000001b0 CC20!         AND       AL,@_AdcRegs+32,#0xffc0 ; [CPU_] |552| 
         000001b1 FFC0 
    1317 000001b2 5006          ORB       AL,#0x06              ; [CPU_] |552| 
    1318 000001b3 9620!         MOV       @_AdcRegs+32,AL       ; [CPU_] |552| 
    1319                      .dwpsn  file "../source/Solar Microinverter_main.c",line 553,column 2,is_stmt,isa 0
    1320 000001b4 CC94          AND       AL,*+XAR4[AR0],#0xfdff ; [CPU_] |553| 
         000001b5 FDFF 
    1321 000001b6 1AA9          OR        AL,#0x01c0            ; [CPU_] |553| 
TMS320C2000 Assembler PC v16.9.6 Tue Mar 06 18:34:46 2018

Tools Copyright (c) 1996-2017 Texas Instruments Incorporated
C:\Users\Admin\AppData\Local\Temp\{ED9AE313-281A-4435-8F2A-5411619B06A2} PAGE   28

         000001b7 01C0 
    1322                      .dwpsn  file "../source/Solar Microinverter_main.c",line 556,column 2,is_stmt,isa 0
    1323 000001b8 D022          MOVB      XAR0,#34              ; [CPU_] |556| 
    1324                      .dwpsn  file "../source/Solar Microinverter_main.c",line 553,column 2,is_stmt,isa 0
    1325 000001b9 9621!         MOV       @_AdcRegs+33,AL       ; [CPU_] |553| 
    1326                      .dwpsn  file "../source/Solar Microinverter_main.c",line 554,column 2,is_stmt,isa 0
    1327 000001ba CC21!         AND       AL,@_AdcRegs+33,#0x07ff ; [CPU_] |554| 
         000001bb 07FF 
    1328 000001bc 1AA9          OR        AL,#0x2800            ; [CPU_] |554| 
         000001bd 2800 
    1329 000001be 9621!         MOV       @_AdcRegs+33,AL       ; [CPU_] |554| 
    1330                      .dwpsn  file "../source/Solar Microinverter_main.c",line 555,column 2,is_stmt,isa 0
    1331 000001bf CC21!         AND       AL,@_AdcRegs+33,#0xffc0 ; [CPU_] |555| 
         000001c0 FFC0 
    1332 000001c1 5006          ORB       AL,#0x06              ; [CPU_] |555| 
    1333 000001c2 9621!         MOV       @_AdcRegs+33,AL       ; [CPU_] |555| 
    1334                      .dwpsn  file "../source/Solar Microinverter_main.c",line 556,column 2,is_stmt,isa 0
    1335 000001c3 CC94          AND       AL,*+XAR4[AR0],#0xfe3f ; [CPU_] |556| 
         000001c4 FE3F 
    1336 000001c5 1AA9          OR        AL,#0x0200            ; [CPU_] |556| 
         000001c6 0200 
    1337                      .dwpsn  file "../source/Solar Microinverter_main.c",line 559,column 2,is_stmt,isa 0
    1338 000001c7 D023          MOVB      XAR0,#35              ; [CPU_] |559| 
    1339                      .dwpsn  file "../source/Solar Microinverter_main.c",line 556,column 2,is_stmt,isa 0
    1340 000001c8 9622!         MOV       @_AdcRegs+34,AL       ; [CPU_] |556| 
    1341                      .dwpsn  file "../source/Solar Microinverter_main.c",line 557,column 2,is_stmt,isa 0
    1342 000001c9 CC22!         AND       AL,@_AdcRegs+34,#0x07ff ; [CPU_] |557| 
         000001ca 07FF 
    1343 000001cb 1AA9          OR        AL,#0x2800            ; [CPU_] |557| 
         000001cc 2800 
    1344 000001cd 9622!         MOV       @_AdcRegs+34,AL       ; [CPU_] |557| 
    1345                      .dwpsn  file "../source/Solar Microinverter_main.c",line 558,column 2,is_stmt,isa 0
    1346 000001ce CC22!         AND       AL,@_AdcRegs+34,#0xffc0 ; [CPU_] |558| 
         000001cf FFC0 
    1347 000001d0 5006          ORB       AL,#0x06              ; [CPU_] |558| 
    1348 000001d1 9622!         MOV       @_AdcRegs+34,AL       ; [CPU_] |558| 
    1349                      .dwpsn  file "../source/Solar Microinverter_main.c",line 559,column 2,is_stmt,isa 0
    1350 000001d2 CC94          AND       AL,*+XAR4[AR0],#0xfe7f ; [CPU_] |559| 
         000001d3 FE7F 
    1351 000001d4 1AA9          OR        AL,#0x0240            ; [CPU_] |559| 
         000001d5 0240 
    1352                      .dwpsn  file "../source/Solar Microinverter_main.c",line 562,column 2,is_stmt,isa 0
    1353 000001d6 D024          MOVB      XAR0,#36              ; [CPU_] |562| 
    1354                      .dwpsn  file "../source/Solar Microinverter_main.c",line 559,column 2,is_stmt,isa 0
    1355 000001d7 9623!         MOV       @_AdcRegs+35,AL       ; [CPU_] |559| 
    1356                      .dwpsn  file "../source/Solar Microinverter_main.c",line 560,column 2,is_stmt,isa 0
    1357 000001d8 CC23!         AND       AL,@_AdcRegs+35,#0x07ff ; [CPU_] |560| 
         000001d9 07FF 
    1358 000001da 1AA9          OR        AL,#0x2800            ; [CPU_] |560| 
         000001db 2800 
    1359 000001dc 9623!         MOV       @_AdcRegs+35,AL       ; [CPU_] |560| 
    1360                      .dwpsn  file "../source/Solar Microinverter_main.c",line 561,column 2,is_stmt,isa 0
    1361 000001dd CC23!         AND       AL,@_AdcRegs+35,#0xffc0 ; [CPU_] |561| 
         000001de FFC0 
    1362 000001df 5006          ORB       AL,#0x06              ; [CPU_] |561| 
TMS320C2000 Assembler PC v16.9.6 Tue Mar 06 18:34:46 2018

Tools Copyright (c) 1996-2017 Texas Instruments Incorporated
C:\Users\Admin\AppData\Local\Temp\{ED9AE313-281A-4435-8F2A-5411619B06A2} PAGE   29

    1363 000001e0 9623!         MOV       @_AdcRegs+35,AL       ; [CPU_] |561| 
    1364                      .dwpsn  file "../source/Solar Microinverter_main.c",line 562,column 2,is_stmt,isa 0
    1365 000001e1 CC94          AND       AL,*+XAR4[AR0],#0xfe3f ; [CPU_] |562| 
         000001e2 FE3F 
    1366 000001e3 1AA9          OR        AL,#0x0280            ; [CPU_] |562| 
         000001e4 0280 
    1367                      .dwpsn  file "../source/Solar Microinverter_main.c",line 565,column 2,is_stmt,isa 0
    1368 000001e5 D025          MOVB      XAR0,#37              ; [CPU_] |565| 
    1369                      .dwpsn  file "../source/Solar Microinverter_main.c",line 562,column 2,is_stmt,isa 0
    1370 000001e6 9624!         MOV       @_AdcRegs+36,AL       ; [CPU_] |562| 
    1371                      .dwpsn  file "../source/Solar Microinverter_main.c",line 563,column 2,is_stmt,isa 0
    1372 000001e7 CC24!         AND       AL,@_AdcRegs+36,#0x07ff ; [CPU_] |563| 
         000001e8 07FF 
    1373 000001e9 1AA9          OR        AL,#0x2800            ; [CPU_] |563| 
         000001ea 2800 
    1374 000001eb 9624!         MOV       @_AdcRegs+36,AL       ; [CPU_] |563| 
    1375                      .dwpsn  file "../source/Solar Microinverter_main.c",line 564,column 2,is_stmt,isa 0
    1376 000001ec CC24!         AND       AL,@_AdcRegs+36,#0xffc0 ; [CPU_] |564| 
         000001ed FFC0 
    1377 000001ee 5006          ORB       AL,#0x06              ; [CPU_] |564| 
    1378 000001ef 9624!         MOV       @_AdcRegs+36,AL       ; [CPU_] |564| 
    1379                      .dwpsn  file "../source/Solar Microinverter_main.c",line 565,column 2,is_stmt,isa 0
    1380 000001f0 CC94          AND       AL,*+XAR4[AR0],#0xfeff ; [CPU_] |565| 
         000001f1 FEFF 
    1381 000001f2 1AA9          OR        AL,#0x02c0            ; [CPU_] |565| 
         000001f3 02C0 
    1382                      .dwpsn  file "../source/Solar Microinverter_main.c",line 568,column 2,is_stmt,isa 0
    1383 000001f4 D026          MOVB      XAR0,#38              ; [CPU_] |568| 
    1384                      .dwpsn  file "../source/Solar Microinverter_main.c",line 565,column 2,is_stmt,isa 0
    1385 000001f5 9625!         MOV       @_AdcRegs+37,AL       ; [CPU_] |565| 
    1386                      .dwpsn  file "../source/Solar Microinverter_main.c",line 566,column 2,is_stmt,isa 0
    1387 000001f6 CC25!         AND       AL,@_AdcRegs+37,#0x07ff ; [CPU_] |566| 
         000001f7 07FF 
    1388 000001f8 1AA9          OR        AL,#0x2800            ; [CPU_] |566| 
         000001f9 2800 
    1389 000001fa 9625!         MOV       @_AdcRegs+37,AL       ; [CPU_] |566| 
    1390                      .dwpsn  file "../source/Solar Microinverter_main.c",line 567,column 2,is_stmt,isa 0
    1391 000001fb CC25!         AND       AL,@_AdcRegs+37,#0xffc0 ; [CPU_] |567| 
         000001fc FFC0 
    1392 000001fd 5006          ORB       AL,#0x06              ; [CPU_] |567| 
    1393 000001fe 9625!         MOV       @_AdcRegs+37,AL       ; [CPU_] |567| 
    1394                      .dwpsn  file "../source/Solar Microinverter_main.c",line 568,column 2,is_stmt,isa 0
    1395 000001ff CC94          AND       AL,*+XAR4[AR0],#0xff3f ; [CPU_] |568| 
         00000200 FF3F 
    1396 00000201 1AA9          OR        AL,#0x0300            ; [CPU_] |568| 
         00000202 0300 
    1397                      .dwpsn  file "../source/Solar Microinverter_main.c",line 571,column 2,is_stmt,isa 0
    1398 00000203 D027          MOVB      XAR0,#39              ; [CPU_] |571| 
    1399                      .dwpsn  file "../source/Solar Microinverter_main.c",line 568,column 2,is_stmt,isa 0
    1400 00000204 9626!         MOV       @_AdcRegs+38,AL       ; [CPU_] |568| 
    1401                      .dwpsn  file "../source/Solar Microinverter_main.c",line 569,column 2,is_stmt,isa 0
    1402 00000205 CC26!         AND       AL,@_AdcRegs+38,#0x07ff ; [CPU_] |569| 
         00000206 07FF 
    1403 00000207 1AA9          OR        AL,#0x2800            ; [CPU_] |569| 
         00000208 2800 
TMS320C2000 Assembler PC v16.9.6 Tue Mar 06 18:34:46 2018

Tools Copyright (c) 1996-2017 Texas Instruments Incorporated
C:\Users\Admin\AppData\Local\Temp\{ED9AE313-281A-4435-8F2A-5411619B06A2} PAGE   30

    1404 00000209 9626!         MOV       @_AdcRegs+38,AL       ; [CPU_] |569| 
    1405                      .dwpsn  file "../source/Solar Microinverter_main.c",line 570,column 2,is_stmt,isa 0
    1406 0000020a CC26!         AND       AL,@_AdcRegs+38,#0xffc0 ; [CPU_] |570| 
         0000020b FFC0 
    1407 0000020c 5006          ORB       AL,#0x06              ; [CPU_] |570| 
    1408 0000020d 9626!         MOV       @_AdcRegs+38,AL       ; [CPU_] |570| 
    1409                      .dwpsn  file "../source/Solar Microinverter_main.c",line 571,column 2,is_stmt,isa 0
    1410 0000020e CC94          AND       AL,*+XAR4[AR0],#0xffbf ; [CPU_] |571| 
         0000020f FFBF 
    1411 00000210 1AA9          OR        AL,#0x0380            ; [CPU_] |571| 
         00000211 0380 
    1412                      .dwpsn  file "../source/Solar Microinverter_main.c",line 574,column 2,is_stmt,isa 0
    1413 00000212 DC28          ADDB      XAR4,#40              ; [CPU_] |574| 
    1414                      .dwpsn  file "../source/Solar Microinverter_main.c",line 571,column 2,is_stmt,isa 0
    1415 00000213 9627!         MOV       @_AdcRegs+39,AL       ; [CPU_] |571| 
    1416                      .dwpsn  file "../source/Solar Microinverter_main.c",line 572,column 2,is_stmt,isa 0
    1417 00000214 CC27!         AND       AL,@_AdcRegs+39,#0x07ff ; [CPU_] |572| 
         00000215 07FF 
    1418 00000216 1AA9          OR        AL,#0x2800            ; [CPU_] |572| 
         00000217 2800 
    1419 00000218 9627!         MOV       @_AdcRegs+39,AL       ; [CPU_] |572| 
    1420                      .dwpsn  file "../source/Solar Microinverter_main.c",line 573,column 2,is_stmt,isa 0
    1421 00000219 CC27!         AND       AL,@_AdcRegs+39,#0xffc0 ; [CPU_] |573| 
         0000021a FFC0 
    1422 0000021b 5006          ORB       AL,#0x06              ; [CPU_] |573| 
    1423 0000021c 9627!         MOV       @_AdcRegs+39,AL       ; [CPU_] |573| 
    1424                      .dwpsn  file "../source/Solar Microinverter_main.c",line 574,column 2,is_stmt,isa 0
    1425 0000021d 1AC4          OR        *+XAR4[0],#0x03c0     ; [CPU_] |574| 
         0000021e 03C0 
    1426                      .dwpsn  file "../source/Solar Microinverter_main.c",line 575,column 2,is_stmt,isa 0
    1427 0000021f CC28!         AND       AL,@_AdcRegs+40,#0x07ff ; [CPU_] |575| 
         00000220 07FF 
    1428 00000221 1AA9          OR        AL,#0x2800            ; [CPU_] |575| 
         00000222 2800 
    1429 00000223 9628!         MOV       @_AdcRegs+40,AL       ; [CPU_] |575| 
    1430                      .dwpsn  file "../source/Solar Microinverter_main.c",line 576,column 2,is_stmt,isa 0
    1431 00000224 CC28!         AND       AL,@_AdcRegs+40,#0xffc0 ; [CPU_] |576| 
         00000225 FFC0 
    1432 00000226 5006          ORB       AL,#0x06              ; [CPU_] |576| 
    1433 00000227 9628!         MOV       @_AdcRegs+40,AL       ; [CPU_] |576| 
    1434 00000228 761A   EDIS
    1435 00000229 FF69          SPM       #0                    ; [CPU_] 
    1436              $C$DW$81        .dwtag  DW_TAG_TI_branch
    1437                      .dwattr $C$DW$81, DW_AT_low_pc(0x00)
    1438                      .dwattr $C$DW$81, DW_AT_TI_return
    1439              
    1440 0000022a 0006          LRETR     ; [CPU_] 
    1441                      ; return occurs ; [] 
    1442                      .dwattr $C$DW$80, DW_AT_TI_end_file("../source/Solar Microinverter_main.c")
    1443                      .dwattr $C$DW$80, DW_AT_TI_end_line(0x242)
    1444                      .dwattr $C$DW$80, DW_AT_TI_end_column(0x01)
    1445                      .dwendentry
    1446                      .dwendtag $C$DW$80
    1447              
    1448 0000022b               .sect   ".text"
TMS320C2000 Assembler PC v16.9.6 Tue Mar 06 18:34:46 2018

Tools Copyright (c) 1996-2017 Texas Instruments Incorporated
C:\Users\Admin\AppData\Local\Temp\{ED9AE313-281A-4435-8F2A-5411619B06A2} PAGE   31

    1449                      .clink
    1450                      .global _InitComparator
    1451              
    1452              $C$DW$82        .dwtag  DW_TAG_subprogram
    1453                      .dwattr $C$DW$82, DW_AT_name("InitComparator")
    1454                      .dwattr $C$DW$82, DW_AT_low_pc(_InitComparator)
    1455                      .dwattr $C$DW$82, DW_AT_high_pc(0x00)
    1456                      .dwattr $C$DW$82, DW_AT_TI_symbol_name("_InitComparator")
    1457                      .dwattr $C$DW$82, DW_AT_external
    1458                      .dwattr $C$DW$82, DW_AT_TI_begin_file("../source/Solar Microinverter_main.c")
    1459                      .dwattr $C$DW$82, DW_AT_TI_begin_line(0x244)
    1460                      .dwattr $C$DW$82, DW_AT_TI_begin_column(0x06)
    1461                      .dwattr $C$DW$82, DW_AT_TI_max_frame_size(-2)
    1462                      .dwpsn  file "../source/Solar Microinverter_main.c",line 581,column 1,is_stmt,address _InitComparator
    1463              
    1464                      .dwfde $C$DW$CIE, _InitComparator
    1465              
    1466              ;***************************************************************
    1467              ;* FNAME: _InitComparator               FR SIZE:   0           *
    1468              ;*                                                             *
    1469              ;* FUNCTION ENVIRONMENT                                        *
    1470              ;*                                                             *
    1471              ;* FUNCTION PROPERTIES                                         *
    1472              ;*                            0 Parameter,  0 Auto,  0 SOE     *
    1473              ;***************************************************************
    1474              
    1475 0000022b       _InitComparator:
    1476              ;* AR4   assigned to $O$C1
    1477              ;* AR4   assigned to $O$C2
    1478              ;* AR4   assigned to $O$C3
    1479                      .dwcfi  cfa_offset, -2
    1480                      .dwcfi  save_reg_to_mem, 26, 0
    1481 0000022b 7622   EALLOW
    1482                      .dwpsn  file "../source/Solar Microinverter_main.c",line 583,column 2,is_stmt,isa 0
    1483 0000022c 8F00!         MOVL      XAR4,#_Comp1Regs      ; [CPU_U] |583| 
         0000022d 0000 
    1484 0000022e 18C4          AND       *+XAR4[0],#0xfeff     ; [CPU_] |583| 
         0000022f FEFF 
    1485 00000230 761F!         MOVW      DP,#_Comp1Regs+6      ; [CPU_U] 
         00000231 0000 
    1486                      .dwpsn  file "../source/Solar Microinverter_main.c",line 584,column 2,is_stmt,isa 0
    1487 00000232 18C4          AND       *+XAR4[0],#0xfffb     ; [CPU_] |584| 
         00000233 FFFB 
    1488                      .dwpsn  file "../source/Solar Microinverter_main.c",line 585,column 2,is_stmt,isa 0
    1489 00000234 18C4          AND       *+XAR4[0],#0xfffd     ; [CPU_] |585| 
         00000235 FFFD 
    1490                      .dwpsn  file "../source/Solar Microinverter_main.c",line 586,column 2,is_stmt,isa 0
    1491 00000236 1AC4          OR        *+XAR4[0],#0x0001     ; [CPU_] |586| 
         00000237 0001 
    1492                      .dwpsn  file "../source/Solar Microinverter_main.c",line 588,column 2,is_stmt,isa 0
    1493 00000238 CCF4          AND       AL,*+XAR4[6],#0xfe00  ; [CPU_] |588| 
         00000239 FE00 
    1494 0000023a 1AA9          OR        AL,#0x02a8            ; [CPU_] |588| 
         0000023b 02A8 
    1495                      .dwpsn  file "../source/Solar Microinverter_main.c",line 589,column 2,is_stmt,isa 0
TMS320C2000 Assembler PC v16.9.6 Tue Mar 06 18:34:46 2018

Tools Copyright (c) 1996-2017 Texas Instruments Incorporated
C:\Users\Admin\AppData\Local\Temp\{ED9AE313-281A-4435-8F2A-5411619B06A2} PAGE   32

    1496 0000023c 8F00!         MOVL      XAR4,#_Comp2Regs      ; [CPU_U] |589| 
         0000023d 0000 
    1497                      .dwpsn  file "../source/Solar Microinverter_main.c",line 588,column 2,is_stmt,isa 0
    1498 0000023e 9606!         MOV       @_Comp1Regs+6,AL      ; [CPU_] |588| 
    1499 0000023f 761F!         MOVW      DP,#_Comp2Regs+6      ; [CPU_U] 
         00000240 0000 
    1500                      .dwpsn  file "../source/Solar Microinverter_main.c",line 589,column 2,is_stmt,isa 0
    1501 00000241 18C4          AND       *+XAR4[0],#0xfeff     ; [CPU_] |589| 
         00000242 FEFF 
    1502                      .dwpsn  file "../source/Solar Microinverter_main.c",line 590,column 2,is_stmt,isa 0
    1503 00000243 18C4          AND       *+XAR4[0],#0xfffb     ; [CPU_] |590| 
         00000244 FFFB 
    1504                      .dwpsn  file "../source/Solar Microinverter_main.c",line 591,column 2,is_stmt,isa 0
    1505 00000245 18C4          AND       *+XAR4[0],#0xfffd     ; [CPU_] |591| 
         00000246 FFFD 
    1506                      .dwpsn  file "../source/Solar Microinverter_main.c",line 592,column 2,is_stmt,isa 0
    1507 00000247 1AC4          OR        *+XAR4[0],#0x0001     ; [CPU_] |592| 
         00000248 0001 
    1508                      .dwpsn  file "../source/Solar Microinverter_main.c",line 594,column 2,is_stmt,isa 0
    1509 00000249 CCF4          AND       AL,*+XAR4[6],#0xfc00  ; [CPU_] |594| 
         0000024a FC00 
    1510 0000024b 1AA9          OR        AL,#0x01f4            ; [CPU_] |594| 
         0000024c 01F4 
    1511                      .dwpsn  file "../source/Solar Microinverter_main.c",line 595,column 2,is_stmt,isa 0
    1512 0000024d 8F00!         MOVL      XAR4,#_Comp3Regs      ; [CPU_U] |595| 
         0000024e 0000 
    1513                      .dwpsn  file "../source/Solar Microinverter_main.c",line 594,column 2,is_stmt,isa 0
    1514 0000024f 9606!         MOV       @_Comp2Regs+6,AL      ; [CPU_] |594| 
    1515 00000250 761F!         MOVW      DP,#_Comp3Regs+6      ; [CPU_U] 
         00000251 0000 
    1516                      .dwpsn  file "../source/Solar Microinverter_main.c",line 595,column 2,is_stmt,isa 0
    1517 00000252 18C4          AND       *+XAR4[0],#0xfeff     ; [CPU_] |595| 
         00000253 FEFF 
    1518                      .dwpsn  file "../source/Solar Microinverter_main.c",line 596,column 2,is_stmt,isa 0
    1519 00000254 18C4          AND       *+XAR4[0],#0xfffb     ; [CPU_] |596| 
         00000255 FFFB 
    1520                      .dwpsn  file "../source/Solar Microinverter_main.c",line 597,column 2,is_stmt,isa 0
    1521 00000256 18C4          AND       *+XAR4[0],#0xfffd     ; [CPU_] |597| 
         00000257 FFFD 
    1522                      .dwpsn  file "../source/Solar Microinverter_main.c",line 598,column 2,is_stmt,isa 0
    1523 00000258 1AC4          OR        *+XAR4[0],#0x0001     ; [CPU_] |598| 
         00000259 0001 
    1524                      .dwpsn  file "../source/Solar Microinverter_main.c",line 600,column 2,is_stmt,isa 0
    1525 0000025a CCF4          AND       AL,*+XAR4[6],#0xfc00  ; [CPU_] |600| 
         0000025b FC00 
    1526 0000025c 1AA9          OR        AL,#0x01f4            ; [CPU_] |600| 
         0000025d 01F4 
    1527 0000025e 9606!         MOV       @_Comp3Regs+6,AL      ; [CPU_] |600| 
    1528 0000025f 761A   EDIS
    1529 00000260 FF69          SPM       #0                    ; [CPU_] 
    1530              $C$DW$83        .dwtag  DW_TAG_TI_branch
    1531                      .dwattr $C$DW$83, DW_AT_low_pc(0x00)
    1532                      .dwattr $C$DW$83, DW_AT_TI_return
    1533              
    1534 00000261 0006          LRETR     ; [CPU_] 
TMS320C2000 Assembler PC v16.9.6 Tue Mar 06 18:34:46 2018

Tools Copyright (c) 1996-2017 Texas Instruments Incorporated
C:\Users\Admin\AppData\Local\Temp\{ED9AE313-281A-4435-8F2A-5411619B06A2} PAGE   33

    1535                      ; return occurs ; [] 
    1536                      .dwattr $C$DW$82, DW_AT_TI_end_file("../source/Solar Microinverter_main.c")
    1537                      .dwattr $C$DW$82, DW_AT_TI_end_line(0x25a)
    1538                      .dwattr $C$DW$82, DW_AT_TI_end_column(0x01)
    1539                      .dwendentry
    1540                      .dwendtag $C$DW$82
    1541              
    1542 00000262               .sect   ".text"
    1543                      .clink
    1544                      .global _InitECapture
    1545              
    1546              $C$DW$84        .dwtag  DW_TAG_subprogram
    1547                      .dwattr $C$DW$84, DW_AT_name("InitECapture")
    1548                      .dwattr $C$DW$84, DW_AT_low_pc(_InitECapture)
    1549                      .dwattr $C$DW$84, DW_AT_high_pc(0x00)
    1550                      .dwattr $C$DW$84, DW_AT_TI_symbol_name("_InitECapture")
    1551                      .dwattr $C$DW$84, DW_AT_external
    1552                      .dwattr $C$DW$84, DW_AT_TI_begin_file("../source/Solar Microinverter_main.c")
    1553                      .dwattr $C$DW$84, DW_AT_TI_begin_line(0x29a)
    1554                      .dwattr $C$DW$84, DW_AT_TI_begin_column(0x06)
    1555                      .dwattr $C$DW$84, DW_AT_TI_max_frame_size(-2)
    1556                      .dwpsn  file "../source/Solar Microinverter_main.c",line 667,column 1,is_stmt,address _InitECapture,i
    1557              
    1558                      .dwfde $C$DW$CIE, _InitECapture
    1559              
    1560              ;***************************************************************
    1561              ;* FNAME: _InitECapture                 FR SIZE:   0           *
    1562              ;*                                                             *
    1563              ;* FUNCTION ENVIRONMENT                                        *
    1564              ;*                                                             *
    1565              ;* FUNCTION PROPERTIES                                         *
    1566              ;*                            0 Parameter,  0 Auto,  0 SOE     *
    1567              ;***************************************************************
    1568              
    1569 00000262       _InitECapture:
    1570              ;* AR4   assigned to $O$C1
    1571                      .dwcfi  cfa_offset, -2
    1572                      .dwcfi  save_reg_to_mem, 26, 0
    1573 00000262 7622   EALLOW
    1574                      .dwpsn  file "../source/Solar Microinverter_main.c",line 671,column 5,is_stmt,isa 0
    1575 00000263 8F00!         MOVL      XAR4,#_ECap1Regs      ; [CPU_U] |671| 
         00000264 0000 
    1576 00000265 83A4          MOVL      XAR5,XAR4             ; [CPU_] |671| 
    1577 00000266 761F!         MOVW      DP,#_ECap1Regs+22     ; [CPU_U] 
         00000267 0000 
    1578                      .dwpsn  file "../source/Solar Microinverter_main.c",line 669,column 5,is_stmt,isa 0
    1579 00000268 2B16!         MOV       @_ECap1Regs+22,#0     ; [CPU_] |669| 
    1580                      .dwpsn  file "../source/Solar Microinverter_main.c",line 670,column 5,is_stmt,isa 0
    1581 00000269 2818!         MOV       @_ECap1Regs+24,#65535 ; [CPU_] |670| 
         0000026a FFFF 
    1582                      .dwpsn  file "../source/Solar Microinverter_main.c",line 671,column 5,is_stmt,isa 0
    1583 0000026b DD14          ADDB      XAR5,#20              ; [CPU_] |671| 
    1584 0000026c 18C5          AND       *+XAR5[0],#0xfeff     ; [CPU_] |671| 
         0000026d FEFF 
    1585                      .dwpsn  file "../source/Solar Microinverter_main.c",line 672,column 5,is_stmt,isa 0
TMS320C2000 Assembler PC v16.9.6 Tue Mar 06 18:34:46 2018

Tools Copyright (c) 1996-2017 Texas Instruments Incorporated
C:\Users\Admin\AppData\Local\Temp\{ED9AE313-281A-4435-8F2A-5411619B06A2} PAGE   34

    1586 0000026e 83A4          MOVL      XAR5,XAR4             ; [CPU_] |672| 
    1587 0000026f DD15          ADDB      XAR5,#21              ; [CPU_] |672| 
    1588 00000270 18C5          AND       *+XAR5[0],#0xffef     ; [CPU_] |672| 
         00000271 FFEF 
    1589                      .dwpsn  file "../source/Solar Microinverter_main.c",line 693,column 5,is_stmt,isa 0
    1590 00000272 DC16          ADDB      XAR4,#22              ; [CPU_] |693| 
    1591                      .dwpsn  file "../source/Solar Microinverter_main.c",line 675,column 5,is_stmt,isa 0
    1592 00000273 1815!         AND       @_ECap1Regs+21,#0xfffe ; [CPU_] |675| 
         00000274 FFFE 
    1593                      .dwpsn  file "../source/Solar Microinverter_main.c",line 676,column 5,is_stmt,isa 0
    1594 00000275 CC15!         AND       AL,@_ECap1Regs+21,#0xfffb ; [CPU_] |676| 
         00000276 FFFB 
    1595 00000277 5002          ORB       AL,#0x02              ; [CPU_] |676| 
    1596 00000278 9615!         MOV       @_ECap1Regs+21,AL     ; [CPU_] |676| 
    1597                      .dwpsn  file "../source/Solar Microinverter_main.c",line 677,column 5,is_stmt,isa 0
    1598 00000279 1814!         AND       @_ECap1Regs+20,#0xfffe ; [CPU_] |677| 
         0000027a FFFE 
    1599                      .dwpsn  file "../source/Solar Microinverter_main.c",line 678,column 5,is_stmt,isa 0
    1600 0000027b 1814!         AND       @_ECap1Regs+20,#0xfffb ; [CPU_] |678| 
         0000027c FFFB 
    1601                      .dwpsn  file "../source/Solar Microinverter_main.c",line 679,column 5,is_stmt,isa 0
    1602 0000027d 1814!         AND       @_ECap1Regs+20,#0xffef ; [CPU_] |679| 
         0000027e FFEF 
    1603                      .dwpsn  file "../source/Solar Microinverter_main.c",line 680,column 5,is_stmt,isa 0
    1604 0000027f 1814!         AND       @_ECap1Regs+20,#0xffbf ; [CPU_] |680| 
         00000280 FFBF 
    1605                      .dwpsn  file "../source/Solar Microinverter_main.c",line 681,column 5,is_stmt,isa 0
    1606 00000281 1A14!         OR        @_ECap1Regs+20,#0x0002 ; [CPU_] |681| 
         00000282 0002 
    1607                      .dwpsn  file "../source/Solar Microinverter_main.c",line 682,column 5,is_stmt,isa 0
    1608 00000283 1A14!         OR        @_ECap1Regs+20,#0x0008 ; [CPU_] |682| 
         00000284 0008 
    1609                      .dwpsn  file "../source/Solar Microinverter_main.c",line 683,column 5,is_stmt,isa 0
    1610 00000285 1A14!         OR        @_ECap1Regs+20,#0x0020 ; [CPU_] |683| 
         00000286 0020 
    1611                      .dwpsn  file "../source/Solar Microinverter_main.c",line 684,column 5,is_stmt,isa 0
    1612 00000287 1A14!         OR        @_ECap1Regs+20,#0x0080 ; [CPU_] |684| 
         00000288 0080 
    1613                      .dwpsn  file "../source/Solar Microinverter_main.c",line 685,column 5,is_stmt,isa 0
    1614 00000289 1815!         AND       @_ECap1Regs+21,#0xfdff ; [CPU_] |685| 
         0000028a FDFF 
    1615                      .dwpsn  file "../source/Solar Microinverter_main.c",line 686,column 5,is_stmt,isa 0
    1616 0000028b 1815!         AND       @_ECap1Regs+21,#0xffdf ; [CPU_] |686| 
         0000028c FFDF 
    1617                      .dwpsn  file "../source/Solar Microinverter_main.c",line 687,column 5,is_stmt,isa 0
    1618 0000028d CC15!         AND       AL,@_ECap1Regs+21,#0xffbf ; [CPU_] |687| 
         0000028e FFBF 
    1619 0000028f 5080          ORB       AL,#0x80              ; [CPU_] |687| 
    1620 00000290 9615!         MOV       @_ECap1Regs+21,AL     ; [CPU_] |687| 
    1621                      .dwpsn  file "../source/Solar Microinverter_main.c",line 688,column 5,is_stmt,isa 0
    1622 00000291 1A14!         OR        @_ECap1Regs+20,#0x0100 ; [CPU_] |688| 
         00000292 0100 
    1623                      .dwpsn  file "../source/Solar Microinverter_main.c",line 690,column 5,is_stmt,isa 0
    1624 00000293 1A15!         OR        @_ECap1Regs+21,#0x0010 ; [CPU_] |690| 
         00000294 0010 
TMS320C2000 Assembler PC v16.9.6 Tue Mar 06 18:34:46 2018

Tools Copyright (c) 1996-2017 Texas Instruments Incorporated
C:\Users\Admin\AppData\Local\Temp\{ED9AE313-281A-4435-8F2A-5411619B06A2} PAGE   35

    1625                      .dwpsn  file "../source/Solar Microinverter_main.c",line 691,column 5,is_stmt,isa 0
    1626 00000295 1815!         AND       @_ECap1Regs+21,#0xfff7 ; [CPU_] |691| 
         00000296 FFF7 
    1627                      .dwpsn  file "../source/Solar Microinverter_main.c",line 692,column 5,is_stmt,isa 0
    1628 00000297 1A14!         OR        @_ECap1Regs+20,#0x0100 ; [CPU_] |692| 
         00000298 0100 
    1629                      .dwpsn  file "../source/Solar Microinverter_main.c",line 693,column 5,is_stmt,isa 0
    1630 00000299 1AC4          OR        *+XAR4[0],#0x0004     ; [CPU_] |693| 
         0000029a 0004 
    1631 0000029b 761A   EDIS
    1632 0000029c FF69          SPM       #0                    ; [CPU_] 
    1633              $C$DW$85        .dwtag  DW_TAG_TI_branch
    1634                      .dwattr $C$DW$85, DW_AT_low_pc(0x00)
    1635                      .dwattr $C$DW$85, DW_AT_TI_return
    1636              
    1637 0000029d 0006          LRETR     ; [CPU_] 
    1638                      ; return occurs ; [] 
    1639                      .dwattr $C$DW$84, DW_AT_TI_end_file("../source/Solar Microinverter_main.c")
    1640                      .dwattr $C$DW$84, DW_AT_TI_end_line(0x2b7)
    1641                      .dwattr $C$DW$84, DW_AT_TI_end_column(0x01)
    1642                      .dwendentry
    1643                      .dwendtag $C$DW$84
    1644              
    1645 0000029e               .sect   ".text"
    1646                      .clink
    1647                      .global _LED_Indication
    1648              
    1649              $C$DW$86        .dwtag  DW_TAG_subprogram
    1650                      .dwattr $C$DW$86, DW_AT_name("LED_Indication")
    1651                      .dwattr $C$DW$86, DW_AT_low_pc(_LED_Indication)
    1652                      .dwattr $C$DW$86, DW_AT_high_pc(0x00)
    1653                      .dwattr $C$DW$86, DW_AT_TI_symbol_name("_LED_Indication")
    1654                      .dwattr $C$DW$86, DW_AT_external
    1655                      .dwattr $C$DW$86, DW_AT_TI_begin_file("../source/Solar Microinverter_main.c")
    1656                      .dwattr $C$DW$86, DW_AT_TI_begin_line(0x2c3)
    1657                      .dwattr $C$DW$86, DW_AT_TI_begin_column(0x06)
    1658                      .dwattr $C$DW$86, DW_AT_TI_max_frame_size(-2)
    1659                      .dwpsn  file "../source/Solar Microinverter_main.c",line 708,column 1,is_stmt,address _LED_Indication
    1660              
    1661                      .dwfde $C$DW$CIE, _LED_Indication
    1662              
    1663              ;***************************************************************
    1664              ;* FNAME: _LED_Indication               FR SIZE:   0           *
    1665              ;*                                                             *
    1666              ;* FUNCTION ENVIRONMENT                                        *
    1667              ;*                                                             *
    1668              ;* FUNCTION PROPERTIES                                         *
    1669              ;*                            0 Parameter,  0 Auto,  0 SOE     *
    1670              ;***************************************************************
    1671              
    1672 0000029e       _LED_Indication:
    1673                      .dwcfi  cfa_offset, -2
    1674                      .dwcfi  save_reg_to_mem, 26, 0
    1675 0000029e 761F!         MOVW      DP,#_systemState      ; [CPU_U] 
         0000029f 0000 
TMS320C2000 Assembler PC v16.9.6 Tue Mar 06 18:34:46 2018

Tools Copyright (c) 1996-2017 Texas Instruments Incorporated
C:\Users\Admin\AppData\Local\Temp\{ED9AE313-281A-4435-8F2A-5411619B06A2} PAGE   36

    1676                      .dwpsn  file "../source/Solar Microinverter_main.c",line 709,column 2,is_stmt,isa 0
    1677 000002a0 9200!         MOV       AL,@_systemState      ; [CPU_] |709| 
    1678 000002a1 5201          CMPB      AL,#1                 ; [CPU_] |709| 
    1679 000002a2 610F          B         $C$L2,EQ              ; [CPU_] |709| 
    1680                      ; branchcc occurs ; [] |709| 
    1681                      .dwpsn  file "../source/Solar Microinverter_main.c",line 715,column 7,is_stmt,isa 0
    1682 000002a3 5203          CMPB      AL,#3                 ; [CPU_] |715| 
    1683 000002a4 6108          B         $C$L1,EQ              ; [CPU_] |715| 
    1684                      ; branchcc occurs ; [] |715| 
    1685                      .dwpsn  file "../source/Solar Microinverter_main.c",line 721,column 7,is_stmt,isa 0
    1686 000002a5 5202          CMPB      AL,#2                 ; [CPU_] |721| 
    1687 000002a6 6011          B         $C$L4,NEQ             ; [CPU_] |721| 
    1688                      ; branchcc occurs ; [] |721| 
    1689                      .dwcfi  remember_state
    1690 000002a7 761F!         MOVW      DP,#_GpioDataRegs+1   ; [CPU_U] 
         000002a8 0000 
    1691                      .dwpsn  file "../source/Solar Microinverter_main.c",line 724,column 5,is_stmt,isa 0
    1692 000002a9 1801!         AND       @_GpioDataRegs+1,#0xbfff ; [CPU_] |724| 
         000002aa BFFF 
    1693              $C$DW$87        .dwtag  DW_TAG_TI_branch
    1694                      .dwattr $C$DW$87, DW_AT_low_pc(0x00)
    1695                      .dwattr $C$DW$87, DW_AT_TI_return
    1696              
    1697 000002ab 0006          LRETR     ; [CPU_] 
    1698                      ; return occurs ; [] 
    1699                      .dwcfi  restore_state
    1700 000002ac       $C$L1:    
    1701 000002ac 761F!         MOVW      DP,#_GpioDataRegs+1   ; [CPU_U] 
         000002ad 0000 
    1702                      .dwpsn  file "../source/Solar Microinverter_main.c",line 717,column 5,is_stmt,isa 0
    1703 000002ae 1801!         AND       @_GpioDataRegs+1,#0x7fff ; [CPU_] |717| 
         000002af 7FFF 
    1704                      .dwpsn  file "../source/Solar Microinverter_main.c",line 719,column 2,is_stmt,isa 0
    1705 000002b0 6F05          B         $C$L3,UNC             ; [CPU_] |719| 
    1706                      ; branch occurs ; [] |719| 
    1707 000002b1       $C$L2:    
    1708 000002b1 761F!         MOVW      DP,#_GpioDataRegs+1   ; [CPU_U] 
         000002b2 0000 
    1709                      .dwpsn  file "../source/Solar Microinverter_main.c",line 711,column 5,is_stmt,isa 0
    1710 000002b3 1A01!         OR        @_GpioDataRegs+1,#0x8000 ; [CPU_] |711| 
         000002b4 8000 
    1711 000002b5       $C$L3:    
    1712                      .dwpsn  file "../source/Solar Microinverter_main.c",line 712,column 5,is_stmt,isa 0
    1713 000002b5 1A01!         OR        @_GpioDataRegs+1,#0x4000 ; [CPU_] |712| 
         000002b6 4000 
    1714              $C$L4:    
    1715              $C$DW$88        .dwtag  DW_TAG_TI_branch
    1716                      .dwattr $C$DW$88, DW_AT_low_pc(0x00)
    1717                      .dwattr $C$DW$88, DW_AT_TI_return
    1718              
    1719 000002b7 0006          LRETR     ; [CPU_] 
    1720                      ; return occurs ; [] 
    1721                      .dwattr $C$DW$86, DW_AT_TI_end_file("../source/Solar Microinverter_main.c")
    1722                      .dwattr $C$DW$86, DW_AT_TI_end_line(0x2d9)
    1723                      .dwattr $C$DW$86, DW_AT_TI_end_column(0x01)
TMS320C2000 Assembler PC v16.9.6 Tue Mar 06 18:34:46 2018

Tools Copyright (c) 1996-2017 Texas Instruments Incorporated
C:\Users\Admin\AppData\Local\Temp\{ED9AE313-281A-4435-8F2A-5411619B06A2} PAGE   37

    1724                      .dwendentry
    1725                      .dwendtag $C$DW$86
    1726              
    1727 00000000               .sect   "ramfuncs"
    1728                      .clink
    1729                      .global _ModeChangeover
    1730              
    1731              $C$DW$89        .dwtag  DW_TAG_subprogram
    1732                      .dwattr $C$DW$89, DW_AT_name("ModeChangeover")
    1733                      .dwattr $C$DW$89, DW_AT_low_pc(_ModeChangeover)
    1734                      .dwattr $C$DW$89, DW_AT_high_pc(0x00)
    1735                      .dwattr $C$DW$89, DW_AT_TI_symbol_name("_ModeChangeover")
    1736                      .dwattr $C$DW$89, DW_AT_external
    1737                      .dwattr $C$DW$89, DW_AT_TI_begin_file("../source/Solar Microinverter_main.c")
    1738                      .dwattr $C$DW$89, DW_AT_TI_begin_line(0x2dd)
    1739                      .dwattr $C$DW$89, DW_AT_TI_begin_column(0x06)
    1740                      .dwattr $C$DW$89, DW_AT_TI_max_frame_size(-2)
    1741                      .dwpsn  file "../source/Solar Microinverter_main.c",line 734,column 1,is_stmt,address _ModeChangeover
    1742              
    1743                      .dwfde $C$DW$CIE, _ModeChangeover
    1744              
    1745              ;***************************************************************
    1746              ;* FNAME: _ModeChangeover               FR SIZE:   0           *
    1747              ;*                                                             *
    1748              ;* FUNCTION ENVIRONMENT                                        *
    1749              ;*                                                             *
    1750              ;* FUNCTION PROPERTIES                                         *
    1751              ;*                            0 Parameter,  0 Auto,  0 SOE     *
    1752              ;***************************************************************
    1753              
    1754 00000000       _ModeChangeover:
    1755                      .dwcfi  cfa_offset, -2
    1756                      .dwcfi  save_reg_to_mem, 26, 0
    1757 00000000 761F!         MOVW      DP,#_gridFlag         ; [CPU_U] 
         00000001 0000 
    1758                      .dwpsn  file "../source/Solar Microinverter_main.c",line 735,column 5,is_stmt,isa 0
    1759 00000002 9200!         MOV       AL,@_gridFlag         ; [CPU_] |735| 
    1760 00000003 610B          B         $C$L5,EQ              ; [CPU_] |735| 
    1761                      ; branchcc occurs ; [] |735| 
    1762                      .dwpsn  file "../source/Solar Microinverter_main.c",line 740,column 10,is_stmt,isa 0
    1763 00000004 9200!         MOV       AL,@_gridFlag         ; [CPU_] |740| 
    1764 00000005 5201          CMPB      AL,#1                 ; [CPU_] |740| 
    1765 00000006 600A          B         $C$L6,NEQ             ; [CPU_] |740| 
    1766                      ; branchcc occurs ; [] |740| 
    1767 00000007 7622   EALLOW
    1768 00000008 761F!         MOVW      DP,#_GpioCtrlRegs+6   ; [CPU_U] 
         00000009 0000 
    1769                      .dwpsn  file "../source/Solar Microinverter_main.c",line 743,column 9,is_stmt,isa 0
    1770 0000000a 1806!         AND       @_GpioCtrlRegs+6,#0xcfff ; [CPU_] |743| 
         0000000b CFFF 
    1771 0000000c 761A   EDIS
    1772                      .dwpsn  file "../source/Solar Microinverter_main.c",line 744,column 9,is_stmt,isa 0
    1773 0000000d 6F03          B         $C$L6,UNC             ; [CPU_] |744| 
    1774                      ; branch occurs ; [] |744| 
    1775 0000000e       $C$L5:    
TMS320C2000 Assembler PC v16.9.6 Tue Mar 06 18:34:46 2018

Tools Copyright (c) 1996-2017 Texas Instruments Incorporated
C:\Users\Admin\AppData\Local\Temp\{ED9AE313-281A-4435-8F2A-5411619B06A2} PAGE   38

    1776                      .dwpsn  file "../source/Solar Microinverter_main.c",line 737,column 9,is_stmt,isa 0
    1777              $C$DW$90        .dwtag  DW_TAG_TI_branch
    1778                      .dwattr $C$DW$90, DW_AT_low_pc(0x00)
    1779                      .dwattr $C$DW$90, DW_AT_name("_InitEPwmSyncGpio")
    1780                      .dwattr $C$DW$90, DW_AT_TI_call
    1781              
    1782 0000000e 7640!         LCR       #_InitEPwmSyncGpio    ; [CPU_] |737| 
         0000000f 0000 
    1783                      ; call occurs [#_InitEPwmSyncGpio] ; [] |737| 
    1784 00000010       $C$L6:    
    1785 00000010 FF69          SPM       #0                    ; [CPU_] 
    1786              $C$DW$91        .dwtag  DW_TAG_TI_branch
    1787                      .dwattr $C$DW$91, DW_AT_low_pc(0x00)
    1788                      .dwattr $C$DW$91, DW_AT_TI_return
    1789              
    1790 00000011 0006          LRETR     ; [CPU_] 
    1791                      ; return occurs ; [] 
    1792                      .dwattr $C$DW$89, DW_AT_TI_end_file("../source/Solar Microinverter_main.c")
    1793                      .dwattr $C$DW$89, DW_AT_TI_end_line(0x2eb)
    1794                      .dwattr $C$DW$89, DW_AT_TI_end_column(0x01)
    1795                      .dwendentry
    1796                      .dwendtag $C$DW$89
    1797              
    1798 000002b8               .sect   ".text"
    1799                      .clink
    1800                      .global _main
    1801              
    1802              $C$DW$92        .dwtag  DW_TAG_subprogram
    1803                      .dwattr $C$DW$92, DW_AT_name("main")
    1804                      .dwattr $C$DW$92, DW_AT_low_pc(_main)
    1805                      .dwattr $C$DW$92, DW_AT_high_pc(0x00)
    1806                      .dwattr $C$DW$92, DW_AT_TI_symbol_name("_main")
    1807                      .dwattr $C$DW$92, DW_AT_external
    1808                      .dwattr $C$DW$92, DW_AT_TI_begin_file("../source/Solar Microinverter_main.c")
    1809                      .dwattr $C$DW$92, DW_AT_TI_begin_line(0x47)
    1810                      .dwattr $C$DW$92, DW_AT_TI_begin_column(0x06)
    1811                      .dwattr $C$DW$92, DW_AT_TI_max_frame_size(-4)
    1812                      .dwpsn  file "../source/Solar Microinverter_main.c",line 72,column 1,is_stmt,address _main,isa 0
    1813              
    1814                      .dwfde $C$DW$CIE, _main
    1815              
    1816              ;***************************************************************
    1817              ;* FNAME: _main                         FR SIZE:   2           *
    1818              ;*                                                             *
    1819              ;* FUNCTION ENVIRONMENT                                        *
    1820              ;*                                                             *
    1821              ;* FUNCTION PROPERTIES                                         *
    1822              ;*                            2 Parameter,  0 Auto,  0 SOE     *
    1823              ;***************************************************************
    1824              
    1825 000002b8       _main:
    1826              ;* AR4   assigned to $O$C1
    1827              ;* AR6   assigned to $O$C2
    1828              ;* AR4   assigned to $O$C3
    1829                      .dwcfi  cfa_offset, -2
TMS320C2000 Assembler PC v16.9.6 Tue Mar 06 18:34:46 2018

Tools Copyright (c) 1996-2017 Texas Instruments Incorporated
C:\Users\Admin\AppData\Local\Temp\{ED9AE313-281A-4435-8F2A-5411619B06A2} PAGE   39

    1830                      .dwcfi  save_reg_to_mem, 26, 0
    1831 000002b8 FE02          ADDB      SP,#2                 ; [CPU_U] 
    1832                      .dwcfi  cfa_offset, -4
    1833                      .dwpsn  file "../source/Solar Microinverter_main.c",line 76,column 4,is_stmt,isa 0
    1834              $C$DW$93        .dwtag  DW_TAG_TI_branch
    1835                      .dwattr $C$DW$93, DW_AT_low_pc(0x00)
    1836                      .dwattr $C$DW$93, DW_AT_name("_InitSysCtrl")
    1837                      .dwattr $C$DW$93, DW_AT_TI_call
    1838              
    1839 000002b9 7640!         LCR       #_InitSysCtrl         ; [CPU_] |76| 
         000002ba 0000 
    1840                      ; call occurs [#_InitSysCtrl] ; [] |76| 
    1841                      .dwpsn  file "../source/Solar Microinverter_main.c",line 84,column 4,is_stmt,isa 0
    1842              $C$DW$94        .dwtag  DW_TAG_TI_branch
    1843                      .dwattr $C$DW$94, DW_AT_low_pc(0x00)
    1844                      .dwattr $C$DW$94, DW_AT_name("_InitEPwm1Gpio")
    1845                      .dwattr $C$DW$94, DW_AT_TI_call
    1846              
    1847 000002bb 7640!         LCR       #_InitEPwm1Gpio       ; [CPU_] |84| 
         000002bc 0000 
    1848                      ; call occurs [#_InitEPwm1Gpio] ; [] |84| 
    1849                      .dwpsn  file "../source/Solar Microinverter_main.c",line 85,column 4,is_stmt,isa 0
    1850              $C$DW$95        .dwtag  DW_TAG_TI_branch
    1851                      .dwattr $C$DW$95, DW_AT_low_pc(0x00)
    1852                      .dwattr $C$DW$95, DW_AT_name("_InitEPwm2Gpio")
    1853                      .dwattr $C$DW$95, DW_AT_TI_call
    1854              
    1855 000002bd 7640!         LCR       #_InitEPwm2Gpio       ; [CPU_] |85| 
         000002be 0000 
    1856                      ; call occurs [#_InitEPwm2Gpio] ; [] |85| 
    1857                      .dwpsn  file "../source/Solar Microinverter_main.c",line 86,column 4,is_stmt,isa 0
    1858              $C$DW$96        .dwtag  DW_TAG_TI_branch
    1859                      .dwattr $C$DW$96, DW_AT_low_pc(0x00)
    1860                      .dwattr $C$DW$96, DW_AT_name("_InitEPwm3Gpio")
    1861                      .dwattr $C$DW$96, DW_AT_TI_call
    1862              
    1863 000002bf 7640!         LCR       #_InitEPwm3Gpio       ; [CPU_] |86| 
         000002c0 0000 
    1864                      ; call occurs [#_InitEPwm3Gpio] ; [] |86| 
    1865                      .dwpsn  file "../source/Solar Microinverter_main.c",line 87,column 4,is_stmt,isa 0
    1866              $C$DW$97        .dwtag  DW_TAG_TI_branch
    1867                      .dwattr $C$DW$97, DW_AT_low_pc(0x00)
    1868                      .dwattr $C$DW$97, DW_AT_name("_InitTzGpio")
    1869                      .dwattr $C$DW$97, DW_AT_TI_call
    1870              
    1871 000002c1 7640!         LCR       #_InitTzGpio          ; [CPU_] |87| 
         000002c2 0000 
    1872                      ; call occurs [#_InitTzGpio] ; [] |87| 
    1873                      .dwpsn  file "../source/Solar Microinverter_main.c",line 88,column 4,is_stmt,isa 0
    1874              $C$DW$98        .dwtag  DW_TAG_TI_branch
    1875                      .dwattr $C$DW$98, DW_AT_low_pc(0x00)
    1876                      .dwattr $C$DW$98, DW_AT_name("_InitECap1Gpio")
    1877                      .dwattr $C$DW$98, DW_AT_TI_call
    1878              
    1879 000002c3 7640!         LCR       #_InitECap1Gpio       ; [CPU_] |88| 
TMS320C2000 Assembler PC v16.9.6 Tue Mar 06 18:34:46 2018

Tools Copyright (c) 1996-2017 Texas Instruments Incorporated
C:\Users\Admin\AppData\Local\Temp\{ED9AE313-281A-4435-8F2A-5411619B06A2} PAGE   40

         000002c4 0000 
    1880                      ; call occurs [#_InitECap1Gpio] ; [] |88| 
    1881                      .dwpsn  file "../source/Solar Microinverter_main.c",line 89,column 4,is_stmt,isa 0
    1882              $C$DW$99        .dwtag  DW_TAG_TI_branch
    1883                      .dwattr $C$DW$99, DW_AT_low_pc(0x00)
    1884                      .dwattr $C$DW$99, DW_AT_name("_InitEPwmSyncGpio")
    1885                      .dwattr $C$DW$99, DW_AT_TI_call
    1886              
    1887 000002c5 7640!         LCR       #_InitEPwmSyncGpio    ; [CPU_] |89| 
         000002c6 0000 
    1888                      ; call occurs [#_InitEPwmSyncGpio] ; [] |89| 
    1889 000002c7 3B10   setc INTM
    1890 000002c8 FF69          SPM       #0                    ; [CPU_] 
    1891                      .dwpsn  file "../source/Solar Microinverter_main.c",line 100,column 4,is_stmt,isa 0
    1892              $C$DW$100       .dwtag  DW_TAG_TI_branch
    1893                      .dwattr $C$DW$100, DW_AT_low_pc(0x00)
    1894                      .dwattr $C$DW$100, DW_AT_name("_InitPieCtrl")
    1895                      .dwattr $C$DW$100, DW_AT_TI_call
    1896              
    1897 000002c9 7640!         LCR       #_InitPieCtrl         ; [CPU_] |100| 
         000002ca 0000 
    1898                      ; call occurs [#_InitPieCtrl] ; [] |100| 
    1899                      .dwpsn  file "../source/Solar Microinverter_main.c",line 101,column 4,is_stmt,isa 0
    1900 000002cb 8F00!         MOVL      XAR4,#_RamfuncsRunStart ; [CPU_U] |101| 
         000002cc 0000 
    1901 000002cd 8F40!         MOVL      XAR5,#_RamfuncsLoadEnd ; [CPU_U] |101| 
         000002ce 0000 
    1902 000002cf A842          MOVL      *-SP[2],XAR4          ; [CPU_] |101| 
    1903 000002d0 8F00!         MOVL      XAR4,#_RamfuncsLoadStart ; [CPU_U] |101| 
         000002d1 0000 
    1904              $C$DW$101       .dwtag  DW_TAG_TI_branch
    1905                      .dwattr $C$DW$101, DW_AT_low_pc(0x00)
    1906                      .dwattr $C$DW$101, DW_AT_name("_MemCopy")
    1907                      .dwattr $C$DW$101, DW_AT_TI_call
    1908              
    1909 000002d2 7640!         LCR       #_MemCopy             ; [CPU_] |101| 
         000002d3 0000 
    1910                      ; call occurs [#_MemCopy] ; [] |101| 
    1911                      .dwpsn  file "../source/Solar Microinverter_main.c",line 102,column 4,is_stmt,isa 0
    1912 000002d4 8F00!         MOVL      XAR4,#_RamconstsRunStart ; [CPU_U] |102| 
         000002d5 0000 
    1913 000002d6 8F40!         MOVL      XAR5,#_RamconstsLoadEnd ; [CPU_U] |102| 
         000002d7 0000 
    1914 000002d8 A842          MOVL      *-SP[2],XAR4          ; [CPU_] |102| 
    1915 000002d9 8F00!         MOVL      XAR4,#_RamconstsLoadStart ; [CPU_U] |102| 
         000002da 0000 
    1916              $C$DW$102       .dwtag  DW_TAG_TI_branch
    1917                      .dwattr $C$DW$102, DW_AT_low_pc(0x00)
    1918                      .dwattr $C$DW$102, DW_AT_name("_MemCopy")
    1919                      .dwattr $C$DW$102, DW_AT_TI_call
    1920              
    1921 000002db 7640!         LCR       #_MemCopy             ; [CPU_] |102| 
         000002dc 0000 
    1922                      ; call occurs [#_MemCopy] ; [] |102| 
    1923                      .dwpsn  file "../source/Solar Microinverter_main.c",line 103,column 4,is_stmt,isa 0
TMS320C2000 Assembler PC v16.9.6 Tue Mar 06 18:34:46 2018

Tools Copyright (c) 1996-2017 Texas Instruments Incorporated
C:\Users\Admin\AppData\Local\Temp\{ED9AE313-281A-4435-8F2A-5411619B06A2} PAGE   41

    1924              $C$DW$103       .dwtag  DW_TAG_TI_branch
    1925                      .dwattr $C$DW$103, DW_AT_low_pc(0x00)
    1926                      .dwattr $C$DW$103, DW_AT_name("_InitFlash")
    1927                      .dwattr $C$DW$103, DW_AT_TI_call
    1928              
    1929 000002dd 7640!         LCR       #_InitFlash           ; [CPU_] |103| 
         000002de 0000 
    1930                      ; call occurs [#_InitFlash] ; [] |103| 
    1931                      .dwpsn  file "../source/Solar Microinverter_main.c",line 105,column 4,is_stmt,isa 0
    1932 000002df 7626          AND       IER,#0x0000           ; [CPU_] |105| 
         000002e0 0000 
    1933                      .dwpsn  file "../source/Solar Microinverter_main.c",line 106,column 4,is_stmt,isa 0
    1934 000002e1 762F          AND       IFR,#0x0000           ; [CPU_] |106| 
         000002e2 0000 
    1935                      .dwpsn  file "../source/Solar Microinverter_main.c",line 114,column 4,is_stmt,isa 0
    1936              $C$DW$104       .dwtag  DW_TAG_TI_branch
    1937                      .dwattr $C$DW$104, DW_AT_low_pc(0x00)
    1938                      .dwattr $C$DW$104, DW_AT_name("_InitPieVectTable")
    1939                      .dwattr $C$DW$104, DW_AT_TI_call
    1940              
    1941 000002e3 7640!         LCR       #_InitPieVectTable    ; [CPU_] |114| 
         000002e4 0000 
    1942                      ; call occurs [#_InitPieVectTable] ; [] |114| 
    1943 000002e5 7622   EALLOW
    1944 000002e6 761F!         MOVW      DP,#_PieVectTable+64  ; [CPU_U] 
         000002e7 0001 
    1945                      .dwpsn  file "../source/Solar Microinverter_main.c",line 117,column 4,is_stmt,isa 0
    1946 000002e8 8F00!         MOVL      XAR4,#_adc_isr        ; [CPU_U] |117| 
         000002e9 0000 
    1947 000002ea A800!         MOVL      @_PieVectTable+64,XAR4 ; [CPU_] |117| 
    1948                      .dwpsn  file "../source/Solar Microinverter_main.c",line 119,column 4,is_stmt,isa 0
    1949 000002eb 8F00+         MOVL      XAR4,#_epwm4_isr      ; [CPU_U] |119| 
         000002ec 0000 
    1950 000002ed A826!         MOVL      @_PieVectTable+102,XAR4 ; [CPU_] |119| 
    1951                      .dwpsn  file "../source/Solar Microinverter_main.c",line 121,column 4,is_stmt,isa 0
    1952 000002ee 8F00+         MOVL      XAR4,#_ecap1_isr      ; [CPU_U] |121| 
         000002ef 0052 
    1953 000002f0 A830!         MOVL      @_PieVectTable+112,XAR4 ; [CPU_] |121| 
    1954 000002f1 761F!         MOVW      DP,#_PieVectTable+192 ; [CPU_U] 
         000002f2 0003 
    1955                      .dwpsn  file "../source/Solar Microinverter_main.c",line 123,column 4,is_stmt,isa 0
    1956 000002f3 8F00!         MOVL      XAR4,#_sciRxFifoIsr   ; [CPU_U] |123| 
         000002f4 0000 
    1957 000002f5 A800!         MOVL      @_PieVectTable+192,XAR4 ; [CPU_] |123| 
    1958                      .dwpsn  file "../source/Solar Microinverter_main.c",line 124,column 4,is_stmt,isa 0
    1959 000002f6 8F00!         MOVL      XAR4,#_sciTxFifoIsr   ; [CPU_U] |124| 
         000002f7 0000 
    1960 000002f8 A802!         MOVL      @_PieVectTable+194,XAR4 ; [CPU_] |124| 
    1961 000002f9 761A   EDIS
    1962 000002fa 7622   EALLOW
    1963                      .dwpsn  file "../source/Solar Microinverter_main.c",line 131,column 4,is_stmt,isa 0
    1964 000002fb 8F00!         MOVL      XAR4,#_GpioCtrlRegs   ; [CPU_U] |131| 
         000002fc 0000 
    1965 000002fd 83A4          MOVL      XAR5,XAR4             ; [CPU_] |131| 
    1966 000002fe DD08          ADDB      XAR5,#8               ; [CPU_] |131| 
TMS320C2000 Assembler PC v16.9.6 Tue Mar 06 18:34:46 2018

Tools Copyright (c) 1996-2017 Texas Instruments Incorporated
C:\Users\Admin\AppData\Local\Temp\{ED9AE313-281A-4435-8F2A-5411619B06A2} PAGE   42

    1967 000002ff 18C5          AND       *+XAR5[0],#0xf3ff     ; [CPU_] |131| 
         00000300 F3FF 
    1968                      .dwpsn  file "../source/Solar Microinverter_main.c",line 132,column 4,is_stmt,isa 0
    1969 00000301 83A4          MOVL      XAR5,XAR4             ; [CPU_] |132| 
    1970 00000302 DD0B          ADDB      XAR5,#11              ; [CPU_] |132| 
    1971 00000303 1AC5          OR        *+XAR5[0],#0x0020     ; [CPU_] |132| 
         00000304 0020 
    1972                      .dwpsn  file "../source/Solar Microinverter_main.c",line 134,column 4,is_stmt,isa 0
    1973 00000305 83A4          MOVL      XAR5,XAR4             ; [CPU_] |134| 
    1974 00000306 DD1A          ADDB      XAR5,#26              ; [CPU_] |134| 
    1975 00000307 1AC5          OR        *+XAR5[0],#0x0002     ; [CPU_] |134| 
         00000308 0002 
    1976                      .dwpsn  file "../source/Solar Microinverter_main.c",line 135,column 4,is_stmt,isa 0
    1977 00000309 83A4          MOVL      XAR5,XAR4             ; [CPU_] |135| 
    1978 0000030a DD16          ADDB      XAR5,#22              ; [CPU_] |135| 
    1979 0000030b 18C5          AND       *+XAR5[0],#0xfff3     ; [CPU_] |135| 
         0000030c FFF3 
    1980                      .dwpsn  file "../source/Solar Microinverter_main.c",line 139,column 4,is_stmt,isa 0
    1981 0000030d 83A4          MOVL      XAR5,XAR4             ; [CPU_] |139| 
    1982 0000030e 761F!         MOVW      DP,#_GpioCtrlRegs+11  ; [CPU_U] 
         0000030f 0000 
    1983                      .dwpsn  file "../source/Solar Microinverter_main.c",line 146,column 4,is_stmt,isa 0
    1984 00000310 7680!         MOVL      XAR6,#_GpioDataRegs   ; [CPU_U] |146| 
         00000311 0000 
    1985                      .dwpsn  file "../source/Solar Microinverter_main.c",line 138,column 4,is_stmt,isa 0
    1986 00000312 1A0B!         OR        @_GpioCtrlRegs+11,#0x4000 ; [CPU_] |138| 
         00000313 4000 
    1987                      .dwpsn  file "../source/Solar Microinverter_main.c",line 139,column 4,is_stmt,isa 0
    1988 00000314 DD09          ADDB      XAR5,#9               ; [CPU_] |139| 
    1989 00000315 18C5          AND       *+XAR5[0],#0xcfff     ; [CPU_] |139| 
         00000316 CFFF 
    1990                      .dwpsn  file "../source/Solar Microinverter_main.c",line 146,column 4,is_stmt,isa 0
    1991 00000317 83A6          MOVL      XAR5,XAR6             ; [CPU_] |146| 
    1992                      .dwpsn  file "../source/Solar Microinverter_main.c",line 141,column 4,is_stmt,isa 0
    1993 00000318 1A0B!         OR        @_GpioCtrlRegs+11,#0x8000 ; [CPU_] |141| 
         00000319 8000 
    1994                      .dwpsn  file "../source/Solar Microinverter_main.c",line 146,column 4,is_stmt,isa 0
    1995 0000031a DD0C          ADDB      XAR5,#12              ; [CPU_] |146| 
    1996                      .dwpsn  file "../source/Solar Microinverter_main.c",line 142,column 4,is_stmt,isa 0
    1997 0000031b 1809!         AND       @_GpioCtrlRegs+9,#0x3fff ; [CPU_] |142| 
         0000031c 3FFF 
    1998                      .dwpsn  file "../source/Solar Microinverter_main.c",line 144,column 4,is_stmt,isa 0
    1999 0000031d 1A1A!         OR        @_GpioCtrlRegs+26,#0x0001 ; [CPU_] |144| 
         0000031e 0001 
    2000                      .dwpsn  file "../source/Solar Microinverter_main.c",line 145,column 4,is_stmt,isa 0
    2001 0000031f 1816!         AND       @_GpioCtrlRegs+22,#0xfffc ; [CPU_] |145| 
         00000320 FFFC 
    2002                      .dwpsn  file "../source/Solar Microinverter_main.c",line 146,column 4,is_stmt,isa 0
    2003 00000321 1AC5          OR        *+XAR5[0],#0x0001     ; [CPU_] |146| 
         00000322 0001 
    2004                      .dwpsn  file "../source/Solar Microinverter_main.c",line 150,column 4,is_stmt,isa 0
    2005 00000323 83A4          MOVL      XAR5,XAR4             ; [CPU_] |150| 
    2006 00000324 DD0D          ADDB      XAR5,#13              ; [CPU_] |150| 
    2007 00000325 1AC5          OR        *+XAR5[0],#0x1000     ; [CPU_] |150| 
         00000326 1000 
TMS320C2000 Assembler PC v16.9.6 Tue Mar 06 18:34:46 2018

Tools Copyright (c) 1996-2017 Texas Instruments Incorporated
C:\Users\Admin\AppData\Local\Temp\{ED9AE313-281A-4435-8F2A-5411619B06A2} PAGE   43

    2008                      .dwpsn  file "../source/Solar Microinverter_main.c",line 151,column 4,is_stmt,isa 0
    2009 00000327 1809!         AND       @_GpioCtrlRegs+9,#0xfcff ; [CPU_] |151| 
         00000328 FCFF 
    2010                      .dwpsn  file "../source/Solar Microinverter_main.c",line 152,column 4,is_stmt,isa 0
    2011 00000329 1A0B!         OR        @_GpioCtrlRegs+11,#0x1000 ; [CPU_] |152| 
         0000032a 1000 
    2012                      .dwpsn  file "../source/Solar Microinverter_main.c",line 153,column 4,is_stmt,isa 0
    2013 0000032b 1ADE          OR        *+XAR6[3],#0x1000     ; [CPU_] |153| 
         0000032c 1000 
    2014                      .dwpsn  file "../source/Solar Microinverter_main.c",line 155,column 4,is_stmt,isa 0
    2015 0000032d 1808!         AND       @_GpioCtrlRegs+8,#0x3fff ; [CPU_] |155| 
         0000032e 3FFF 
    2016                      .dwpsn  file "../source/Solar Microinverter_main.c",line 156,column 4,is_stmt,isa 0
    2017 0000032f 1A0B!         OR        @_GpioCtrlRegs+11,#0x0080 ; [CPU_] |156| 
         00000330 0080 
    2018                      .dwpsn  file "../source/Solar Microinverter_main.c",line 157,column 4,is_stmt,isa 0
    2019 00000331 1AEE          OR        *+XAR6[5],#0x0080     ; [CPU_] |157| 
         00000332 0080 
    2020                      .dwpsn  file "../source/Solar Microinverter_main.c",line 161,column 4,is_stmt,isa 0
    2021 00000333 18FC          AND       *+XAR4[7],#0xfff3     ; [CPU_] |161| 
         00000334 FFF3 
    2022                      .dwpsn  file "../source/Solar Microinverter_main.c",line 162,column 4,is_stmt,isa 0
    2023 00000335 DC0A          ADDB      XAR4,#10              ; [CPU_] |162| 
    2024 00000336 18C4          AND       *+XAR4[0],#0xfdff     ; [CPU_] |162| 
         00000337 FDFF 
    2025                      .dwpsn  file "../source/Solar Microinverter_main.c",line 164,column 4,is_stmt,isa 0
    2026 00000338 180B!         AND       @_GpioCtrlRegs+11,#0xffef ; [CPU_] |164| 
         00000339 FFEF 
    2027                      .dwpsn  file "../source/Solar Microinverter_main.c",line 165,column 4,is_stmt,isa 0
    2028 0000033a 1808!         AND       @_GpioCtrlRegs+8,#0xfcff ; [CPU_] |165| 
         0000033b FCFF 
    2029                      .dwpsn  file "../source/Solar Microinverter_main.c",line 169,column 5,is_stmt,isa 0
    2030 0000033c 1A0B!         OR        @_GpioCtrlRegs+11,#0x0002 ; [CPU_] |169| 
         0000033d 0002 
    2031                      .dwpsn  file "../source/Solar Microinverter_main.c",line 174,column 4,is_stmt,isa 0
    2032 0000033e 1A0A!         OR        @_GpioCtrlRegs+10,#0x0800 ; [CPU_] |174| 
         0000033f 0800 
    2033                      .dwpsn  file "../source/Solar Microinverter_main.c",line 176,column 4,is_stmt,isa 0
    2034 00000340 1A1A!         OR        @_GpioCtrlRegs+26,#0x0004 ; [CPU_] |176| 
         00000341 0004 
    2035                      .dwpsn  file "../source/Solar Microinverter_main.c",line 179,column 5,is_stmt,isa 0
    2036 00000342 1807!         AND       @_GpioCtrlRegs+7,#0xffcf ; [CPU_] |179| 
         00000343 FFCF 
    2037                      .dwpsn  file "../source/Solar Microinverter_main.c",line 180,column 5,is_stmt,isa 0
    2038 00000344 180A!         AND       @_GpioCtrlRegs+10,#0xfbff ; [CPU_] |180| 
         00000345 FBFF 
    2039                      .dwpsn  file "../source/Solar Microinverter_main.c",line 181,column 5,is_stmt,isa 0
    2040 00000346 18D6          AND       *+XAR6[2],#0xfbff     ; [CPU_] |181| 
         00000347 FBFF 
    2041                      .dwpsn  file "../source/Solar Microinverter_main.c",line 187,column 4,is_stmt,isa 0
    2042 00000348 1807!         AND       @_GpioCtrlRegs+7,#0xfffc ; [CPU_] |187| 
         00000349 FFFC 
    2043                      .dwpsn  file "../source/Solar Microinverter_main.c",line 188,column 4,is_stmt,isa 0
    2044 0000034a 1A0A!         OR        @_GpioCtrlRegs+10,#0x0100 ; [CPU_] |188| 
         0000034b 0100 
TMS320C2000 Assembler PC v16.9.6 Tue Mar 06 18:34:46 2018

Tools Copyright (c) 1996-2017 Texas Instruments Incorporated
C:\Users\Admin\AppData\Local\Temp\{ED9AE313-281A-4435-8F2A-5411619B06A2} PAGE   44

    2045                      .dwpsn  file "../source/Solar Microinverter_main.c",line 190,column 4,is_stmt,isa 0
    2046 0000034c 1A0B!         OR        @_GpioCtrlRegs+11,#0x0040 ; [CPU_] |190| 
         0000034d 0040 
    2047                      .dwpsn  file "../source/Solar Microinverter_main.c",line 191,column 4,is_stmt,isa 0
    2048 0000034e 1808!         AND       @_GpioCtrlRegs+8,#0xcfff ; [CPU_] |191| 
         0000034f CFFF 
    2049                      .dwpsn  file "../source/Solar Microinverter_main.c",line 193,column 4,is_stmt,isa 0
    2050 00000350 1A0B!         OR        @_GpioCtrlRegs+11,#0x0001 ; [CPU_] |193| 
         00000351 0001 
    2051                      .dwpsn  file "../source/Solar Microinverter_main.c",line 194,column 4,is_stmt,isa 0
    2052 00000352 1808!         AND       @_GpioCtrlRegs+8,#0xfffc ; [CPU_] |194| 
         00000353 FFFC 
    2053 00000354 761F!         MOVW      DP,#_GpioDataRegs+3   ; [CPU_U] 
         00000355 0000 
    2054                      .dwpsn  file "../source/Solar Microinverter_main.c",line 195,column 4,is_stmt,isa 0
    2055 00000356 1A03!         OR        @_GpioDataRegs+3,#0x0001 ; [CPU_] |195| 
         00000357 0001 
    2056 00000358 761F!         MOVW      DP,#_GpioCtrlRegs+11  ; [CPU_U] 
         00000359 0000 
    2057                      .dwpsn  file "../source/Solar Microinverter_main.c",line 198,column 3,is_stmt,isa 0
    2058 0000035a 1A0B!         OR        @_GpioCtrlRegs+11,#0x2000 ; [CPU_] |198| 
         0000035b 2000 
    2059                      .dwpsn  file "../source/Solar Microinverter_main.c",line 199,column 3,is_stmt,isa 0
    2060 0000035c 1809!         AND       @_GpioCtrlRegs+9,#0xf3ff ; [CPU_] |199| 
         0000035d F3FF 
    2061                      .dwpsn  file "../source/Solar Microinverter_main.c",line 201,column 3,is_stmt,isa 0
    2062 0000035e 1A0B!         OR        @_GpioCtrlRegs+11,#0x0008 ; [CPU_] |201| 
         0000035f 0008 
    2063                      .dwpsn  file "../source/Solar Microinverter_main.c",line 202,column 3,is_stmt,isa 0
    2064 00000360 1808!         AND       @_GpioCtrlRegs+8,#0xff3f ; [CPU_] |202| 
         00000361 FF3F 
    2065 00000362 761A   EDIS
    2066 00000363 FF69          SPM       #0                    ; [CPU_] 
    2067                      .dwpsn  file "../source/Solar Microinverter_main.c",line 208,column 4,is_stmt,isa 0
    2068              $C$DW$105       .dwtag  DW_TAG_TI_branch
    2069                      .dwattr $C$DW$105, DW_AT_low_pc(0x00)
    2070                      .dwattr $C$DW$105, DW_AT_name("_InitAdc")
    2071                      .dwattr $C$DW$105, DW_AT_TI_call
    2072              
    2073 00000364 7640!         LCR       #_InitAdc             ; [CPU_] |208| 
         00000365 0000 
    2074                      ; call occurs [#_InitAdc] ; [] |208| 
    2075 00000366 7622   EALLOW
    2076 00000367 761F!         MOVW      DP,#_SysCtrlRegs+12   ; [CPU_U] 
         00000368 0000 
    2077                      .dwpsn  file "../source/Solar Microinverter_main.c",line 211,column 4,is_stmt,isa 0
    2078 00000369 180C!         AND       @_SysCtrlRegs+12,#0xfffb ; [CPU_] |211| 
         0000036a FFFB 
    2079 0000036b 761A   EDIS
    2080 0000036c FF69          SPM       #0                    ; [CPU_] 
    2081                      .dwpsn  file "../source/Solar Microinverter_main.c",line 214,column 3,is_stmt,isa 0
    2082              $C$DW$106       .dwtag  DW_TAG_TI_branch
    2083                      .dwattr $C$DW$106, DW_AT_low_pc(0x00)
    2084                      .dwattr $C$DW$106, DW_AT_name("_InitEPwm1Example")
    2085                      .dwattr $C$DW$106, DW_AT_TI_call
TMS320C2000 Assembler PC v16.9.6 Tue Mar 06 18:34:46 2018

Tools Copyright (c) 1996-2017 Texas Instruments Incorporated
C:\Users\Admin\AppData\Local\Temp\{ED9AE313-281A-4435-8F2A-5411619B06A2} PAGE   45

    2086              
    2087 0000036d 7640'         LCR       #_InitEPwm1Example    ; [CPU_] |214| 
         0000036e 0000 
    2088                      ; call occurs [#_InitEPwm1Example] ; [] |214| 
    2089                      .dwpsn  file "../source/Solar Microinverter_main.c",line 215,column 3,is_stmt,isa 0
    2090              $C$DW$107       .dwtag  DW_TAG_TI_branch
    2091                      .dwattr $C$DW$107, DW_AT_low_pc(0x00)
    2092                      .dwattr $C$DW$107, DW_AT_name("_InitEPwm2Example")
    2093                      .dwattr $C$DW$107, DW_AT_TI_call
    2094              
    2095 0000036f 7640'         LCR       #_InitEPwm2Example    ; [CPU_] |215| 
         00000370 008D 
    2096                      ; call occurs [#_InitEPwm2Example] ; [] |215| 
    2097                      .dwpsn  file "../source/Solar Microinverter_main.c",line 219,column 4,is_stmt,isa 0
    2098              $C$DW$108       .dwtag  DW_TAG_TI_branch
    2099                      .dwattr $C$DW$108, DW_AT_low_pc(0x00)
    2100                      .dwattr $C$DW$108, DW_AT_name("_InitEPwm3Example")
    2101                      .dwattr $C$DW$108, DW_AT_TI_call
    2102              
    2103 00000371 7640'         LCR       #_InitEPwm3Example    ; [CPU_] |219| 
         00000372 0102 
    2104                      ; call occurs [#_InitEPwm3Example] ; [] |219| 
    2105                      .dwpsn  file "../source/Solar Microinverter_main.c",line 220,column 4,is_stmt,isa 0
    2106              $C$DW$109       .dwtag  DW_TAG_TI_branch
    2107                      .dwattr $C$DW$109, DW_AT_low_pc(0x00)
    2108                      .dwattr $C$DW$109, DW_AT_name("_InitEPwm4Example")
    2109                      .dwattr $C$DW$109, DW_AT_TI_call
    2110              
    2111 00000373 7640'         LCR       #_InitEPwm4Example    ; [CPU_] |220| 
         00000374 0174 
    2112                      ; call occurs [#_InitEPwm4Example] ; [] |220| 
    2113                      .dwpsn  file "../source/Solar Microinverter_main.c",line 221,column 4,is_stmt,isa 0
    2114              $C$DW$110       .dwtag  DW_TAG_TI_branch
    2115                      .dwattr $C$DW$110, DW_AT_low_pc(0x00)
    2116                      .dwattr $C$DW$110, DW_AT_name("_Adc_Config")
    2117                      .dwattr $C$DW$110, DW_AT_TI_call
    2118              
    2119 00000375 7640'         LCR       #_Adc_Config          ; [CPU_] |221| 
         00000376 0194 
    2120                      ; call occurs [#_Adc_Config] ; [] |221| 
    2121                      .dwpsn  file "../source/Solar Microinverter_main.c",line 223,column 4,is_stmt,isa 0
    2122              $C$DW$111       .dwtag  DW_TAG_TI_branch
    2123                      .dwattr $C$DW$111, DW_AT_low_pc(0x00)
    2124                      .dwattr $C$DW$111, DW_AT_name("_InitComparator")
    2125                      .dwattr $C$DW$111, DW_AT_TI_call
    2126              
    2127 00000377 7640'         LCR       #_InitComparator      ; [CPU_] |223| 
         00000378 022B 
    2128                      ; call occurs [#_InitComparator] ; [] |223| 
    2129                      .dwpsn  file "../source/Solar Microinverter_main.c",line 226,column 4,is_stmt,isa 0
    2130              $C$DW$112       .dwtag  DW_TAG_TI_branch
    2131                      .dwattr $C$DW$112, DW_AT_low_pc(0x00)
    2132                      .dwattr $C$DW$112, DW_AT_name("_InitSciaGpio")
    2133                      .dwattr $C$DW$112, DW_AT_TI_call
    2134              
TMS320C2000 Assembler PC v16.9.6 Tue Mar 06 18:34:46 2018

Tools Copyright (c) 1996-2017 Texas Instruments Incorporated
C:\Users\Admin\AppData\Local\Temp\{ED9AE313-281A-4435-8F2A-5411619B06A2} PAGE   46

    2135 00000379 7640!         LCR       #_InitSciaGpio        ; [CPU_] |226| 
         0000037a 0000 
    2136                      ; call occurs [#_InitSciaGpio] ; [] |226| 
    2137                      .dwpsn  file "../source/Solar Microinverter_main.c",line 227,column 4,is_stmt,isa 0
    2138              $C$DW$113       .dwtag  DW_TAG_TI_branch
    2139                      .dwattr $C$DW$113, DW_AT_low_pc(0x00)
    2140                      .dwattr $C$DW$113, DW_AT_name("_scia_fifo_init")
    2141                      .dwattr $C$DW$113, DW_AT_TI_call
    2142              
    2143 0000037b 7640!         LCR       #_scia_fifo_init      ; [CPU_] |227| 
         0000037c 0000 
    2144                      ; call occurs [#_scia_fifo_init] ; [] |227| 
    2145                      .dwpsn  file "../source/Solar Microinverter_main.c",line 229,column 5,is_stmt,isa 0
    2146              $C$DW$114       .dwtag  DW_TAG_TI_branch
    2147                      .dwattr $C$DW$114, DW_AT_low_pc(0x00)
    2148                      .dwattr $C$DW$114, DW_AT_name("_InitECapture")
    2149                      .dwattr $C$DW$114, DW_AT_TI_call
    2150              
    2151 0000037d 7640'         LCR       #_InitECapture        ; [CPU_] |229| 
         0000037e 0262 
    2152                      ; call occurs [#_InitECapture] ; [] |229| 
    2153 0000037f 7622   EALLOW
    2154 00000380 761F!         MOVW      DP,#_SysCtrlRegs+18   ; [CPU_U] 
         00000381 0000 
    2155                      .dwpsn  file "../source/Solar Microinverter_main.c",line 237,column 4,is_stmt,isa 0
    2156 00000382 56BF!         MOVB      @_SysCtrlRegs+18,#4,UNC ; [CPU_] |237| 
         00000383 0412 
    2157 00000384 761A   EDIS
    2158 00000385 7622   EALLOW
    2159                      .dwpsn  file "../source/Solar Microinverter_main.c",line 244,column 4,is_stmt,isa 0
    2160 00000386 1A0C!         OR        @_SysCtrlRegs+12,#0x0004 ; [CPU_] |244| 
         00000387 0004 
    2161 00000388 761A   EDIS
    2162 00000389 7622   EALLOW
    2163                      .dwpsn  file "../source/Solar Microinverter_main.c",line 251,column 4,is_stmt,isa 0
    2164 0000038a 8F00!         MOVL      XAR4,#_PieCtrlRegs    ; [CPU_U] |251| 
         0000038b 0000 
    2165 0000038c 83A4          MOVL      XAR5,XAR4             ; [CPU_] |251| 
    2166 0000038d DD02          ADDB      XAR5,#2               ; [CPU_] |251| 
    2167 0000038e 1AC5          OR        *+XAR5[0],#0x0001     ; [CPU_] |251| 
         0000038f 0001 
    2168                      .dwpsn  file "../source/Solar Microinverter_main.c",line 255,column 4,is_stmt,isa 0
    2169 00000390 83A4          MOVL      XAR5,XAR4             ; [CPU_] |255| 
    2170 00000391 761F!         MOVW      DP,#_PieCtrlRegs+18   ; [CPU_U] 
         00000392 0000 
    2171                      .dwpsn  file "../source/Solar Microinverter_main.c",line 252,column 4,is_stmt,isa 0
    2172 00000393 1AF4          OR        *+XAR4[6],#0x0008     ; [CPU_] |252| 
         00000394 0008 
    2173                      .dwpsn  file "../source/Solar Microinverter_main.c",line 258,column 4,is_stmt,isa 0
    2174 00000395 DC12          ADDB      XAR4,#18              ; [CPU_] |258| 
    2175                      .dwpsn  file "../source/Solar Microinverter_main.c",line 255,column 4,is_stmt,isa 0
    2176 00000396 DD08          ADDB      XAR5,#8               ; [CPU_] |255| 
    2177 00000397 1AC5          OR        *+XAR5[0],#0x0001     ; [CPU_] |255| 
         00000398 0001 
    2178                      .dwpsn  file "../source/Solar Microinverter_main.c",line 258,column 4,is_stmt,isa 0
TMS320C2000 Assembler PC v16.9.6 Tue Mar 06 18:34:46 2018

Tools Copyright (c) 1996-2017 Texas Instruments Incorporated
C:\Users\Admin\AppData\Local\Temp\{ED9AE313-281A-4435-8F2A-5411619B06A2} PAGE   47

    2179 00000399 1AC4          OR        *+XAR4[0],#0x0001     ; [CPU_] |258| 
         0000039a 0001 
    2180                      .dwpsn  file "../source/Solar Microinverter_main.c",line 259,column 4,is_stmt,isa 0
    2181 0000039b 1A12!         OR        @_PieCtrlRegs+18,#0x0002 ; [CPU_] |259| 
         0000039c 0002 
    2182                      .dwpsn  file "../source/Solar Microinverter_main.c",line 261,column 4,is_stmt,isa 0
    2183 0000039d 1A00!         OR        @_PieCtrlRegs,#0x0001 ; [CPU_] |261| 
         0000039e 0001 
    2184                      .dwpsn  file "../source/Solar Microinverter_main.c",line 262,column 4,is_stmt,isa 0
    2185 0000039f 1A02!         OR        @_PieCtrlRegs+2,#0x0080 ; [CPU_] |262| 
         000003a0 0080 
    2186 000003a1 761A   EDIS
    2187                      .dwpsn  file "../source/Solar Microinverter_main.c",line 269,column 4,is_stmt,isa 0
    2188 000003a2 7623          OR        IER,#0x0001           ; [CPU_] |269| 
         000003a3 0001 
    2189                      .dwpsn  file "../source/Solar Microinverter_main.c",line 270,column 4,is_stmt,isa 0
    2190 000003a4 7623          OR        IER,#0x0004           ; [CPU_] |270| 
         000003a5 0004 
    2191                      .dwpsn  file "../source/Solar Microinverter_main.c",line 271,column 4,is_stmt,isa 0
    2192 000003a6 7623          OR        IER,#0x0008           ; [CPU_] |271| 
         000003a7 0008 
    2193                      .dwpsn  file "../source/Solar Microinverter_main.c",line 272,column 4,is_stmt,isa 0
    2194 000003a8 7623          OR        IER,#0x0100           ; [CPU_] |272| 
         000003a9 0100 
    2195 000003aa 7700   NOP
    2196 000003ab 2910   clrc INTM
    2197 000003ac 2920   clrc DBGM
    2198 000003ad FF69          SPM       #0                    ; [CPU_] 
    2199                      .dwpsn  file "../source/Solar Microinverter_main.c",line 279,column 2,is_stmt,isa 0
    2200              $C$DW$115       .dwtag  DW_TAG_TI_branch
    2201                      .dwattr $C$DW$115, DW_AT_low_pc(0x00)
    2202                      .dwattr $C$DW$115, DW_AT_name("_ServiceDog")
    2203                      .dwattr $C$DW$115, DW_AT_TI_call
    2204              
    2205 000003ae 7640!         LCR       #_ServiceDog          ; [CPU_] |279| 
         000003af 0000 
    2206                      ; call occurs [#_ServiceDog] ; [] |279| 
    2207 000003b0 7622   EALLOW
    2208 000003b1 761F!         MOVW      DP,#_SysCtrlRegs+25   ; [CPU_U] 
         000003b2 0000 
    2209                      .dwpsn  file "../source/Solar Microinverter_main.c",line 282,column 2,is_stmt,isa 0
    2210 000003b3 56BF!         MOVB      @_SysCtrlRegs+25,#45,UNC ; [CPU_] |282| 
         000003b4 2D19 
    2211 000003b5 761A   EDIS
    2212 000003b6       $C$L7:    
    2213 000003b6 FF69          SPM       #0                    ; [CPU_] 
    2214                      .dwpsn  file "../source/Solar Microinverter_main.c",line 289,column 5,is_stmt,isa 0
    2215              $C$DW$116       .dwtag  DW_TAG_TI_branch
    2216                      .dwattr $C$DW$116, DW_AT_low_pc(0x00)
    2217                      .dwattr $C$DW$116, DW_AT_name("_LED_Indication")
    2218                      .dwattr $C$DW$116, DW_AT_TI_call
    2219              
    2220 000003b7 7640'         LCR       #_LED_Indication      ; [CPU_] |289| 
         000003b8 029E 
    2221                      ; call occurs [#_LED_Indication] ; [] |289| 
TMS320C2000 Assembler PC v16.9.6 Tue Mar 06 18:34:46 2018

Tools Copyright (c) 1996-2017 Texas Instruments Incorporated
C:\Users\Admin\AppData\Local\Temp\{ED9AE313-281A-4435-8F2A-5411619B06A2} PAGE   48

    2222                      .dwpsn  file "../source/Solar Microinverter_main.c",line 290,column 8,is_stmt,isa 0
    2223              $C$DW$117       .dwtag  DW_TAG_TI_branch
    2224                      .dwattr $C$DW$117, DW_AT_low_pc(0x00)
    2225                      .dwattr $C$DW$117, DW_AT_name("_oi_uart")
    2226                      .dwattr $C$DW$117, DW_AT_TI_call
    2227              
    2228 000003b9 7640!         LCR       #_oi_uart             ; [CPU_] |290| 
         000003ba 0000 
    2229                      ; call occurs [#_oi_uart] ; [] |290| 
    2230                      .dwpsn  file "../source/Solar Microinverter_main.c",line 291,column 8,is_stmt,isa 0
    2231              $C$DW$118       .dwtag  DW_TAG_TI_branch
    2232                      .dwattr $C$DW$118, DW_AT_low_pc(0x00)
    2233                      .dwattr $C$DW$118, DW_AT_name("_tx_gsm")
    2234                      .dwattr $C$DW$118, DW_AT_TI_call
    2235              
    2236 000003bb 7640!         LCR       #_tx_gsm              ; [CPU_] |291| 
         000003bc 0000 
    2237                      ; call occurs [#_tx_gsm] ; [] |291| 
    2238 000003bd 761F!         MOVW      DP,#_acoffset_cal2    ; [CPU_U] 
         000003be 0000 
    2239                      .dwpsn  file "../source/Solar Microinverter_main.c",line 295,column 9,is_stmt,isa 0
    2240 000003bf 9200!         MOV       AL,@_acoffset_cal2    ; [CPU_] |295| 
    2241 000003c0 5201          CMPB      AL,#1                 ; [CPU_] |295| 
    2242 000003c1 6003          B         $C$L8,NEQ             ; [CPU_] |295| 
    2243                      ; branchcc occurs ; [] |295| 
    2244                      .dwpsn  file "../source/Solar Microinverter_main.c",line 297,column 13,is_stmt,isa 0
    2245              $C$DW$119       .dwtag  DW_TAG_TI_branch
    2246                      .dwattr $C$DW$119, DW_AT_low_pc(0x00)
    2247                      .dwattr $C$DW$119, DW_AT_name("_ModeChangeover")
    2248                      .dwattr $C$DW$119, DW_AT_TI_call
    2249              
    2250 000003c2 7640+         LCR       #_ModeChangeover      ; [CPU_] |297| 
         000003c3 0000 
    2251                      ; call occurs [#_ModeChangeover] ; [] |297| 
    2252 000003c4       $C$L8:    
    2253 000003c4 761F!         MOVW      DP,#_VariablePIFlag   ; [CPU_U] 
         000003c5 0000 
    2254                      .dwpsn  file "../source/Solar Microinverter_main.c",line 300,column 9,is_stmt,isa 0
    2255 000003c6 9200!         MOV       AL,@_VariablePIFlag   ; [CPU_] |300| 
    2256 000003c7 5201          CMPB      AL,#1                 ; [CPU_] |300| 
    2257 000003c8 6003          B         $C$L9,NEQ             ; [CPU_] |300| 
    2258                      ; branchcc occurs ; [] |300| 
    2259                      .dwpsn  file "../source/Solar Microinverter_main.c",line 302,column 13,is_stmt,isa 0
    2260              $C$DW$120       .dwtag  DW_TAG_TI_branch
    2261                      .dwattr $C$DW$120, DW_AT_low_pc(0x00)
    2262                      .dwattr $C$DW$120, DW_AT_name("_variablePI")
    2263                      .dwattr $C$DW$120, DW_AT_TI_call
    2264              
    2265 000003c9 7640!         LCR       #_variablePI          ; [CPU_] |302| 
         000003ca 0000 
    2266                      ; call occurs [#_variablePI] ; [] |302| 
    2267 000003cb       $C$L9:    
    2268 000003cb 761F-         MOVW      DP,#_statemachineflag ; [CPU_U] 
         000003cc 0000 
    2269                      .dwpsn  file "../source/Solar Microinverter_main.c",line 308,column 9,is_stmt,isa 0
TMS320C2000 Assembler PC v16.9.6 Tue Mar 06 18:34:46 2018

Tools Copyright (c) 1996-2017 Texas Instruments Incorporated
C:\Users\Admin\AppData\Local\Temp\{ED9AE313-281A-4435-8F2A-5411619B06A2} PAGE   49

    2270 000003cd 9205-         MOV       AL,@_statemachineflag ; [CPU_] |308| 
    2271 000003ce 5201          CMPB      AL,#1                 ; [CPU_] |308| 
    2272 000003cf 60E7          B         $C$L7,NEQ             ; [CPU_] |308| 
    2273                      ; branchcc occurs ; [] |308| 
    2274                      .dwpsn  file "../source/Solar Microinverter_main.c",line 313,column 13,is_stmt,isa 0
    2275 000003d0 2B05-         MOV       @_statemachineflag,#0 ; [CPU_] |313| 
    2276 000003d1 6FE5          B         $C$L7,UNC             ; [CPU_] |313| 
    2277                      ; branch occurs ; [] |313| 
    2278                      .dwattr $C$DW$92, DW_AT_TI_end_file("../source/Solar Microinverter_main.c")
    2279                      .dwattr $C$DW$92, DW_AT_TI_end_line(0x140)
    2280                      .dwattr $C$DW$92, DW_AT_TI_end_column(0x01)
    2281                      .dwendentry
    2282                      .dwendtag $C$DW$92
    2283              
    2284 00000000               .sect   ".text:retain"
    2285                      .retain
    2286                      .retainrefs
    2287                      .global _epwm4_isr
    2288              
    2289              $C$DW$121       .dwtag  DW_TAG_subprogram
    2290                      .dwattr $C$DW$121, DW_AT_name("epwm4_isr")
    2291                      .dwattr $C$DW$121, DW_AT_low_pc(_epwm4_isr)
    2292                      .dwattr $C$DW$121, DW_AT_high_pc(0x00)
    2293                      .dwattr $C$DW$121, DW_AT_TI_symbol_name("_epwm4_isr")
    2294                      .dwattr $C$DW$121, DW_AT_external
    2295                      .dwattr $C$DW$121, DW_AT_TI_begin_file("../source/Solar Microinverter_main.c")
    2296                      .dwattr $C$DW$121, DW_AT_TI_begin_line(0x25d)
    2297                      .dwattr $C$DW$121, DW_AT_TI_begin_column(0x10)
    2298                      .dwattr $C$DW$121, DW_AT_TI_interrupt
    2299                      .dwattr $C$DW$121, DW_AT_TI_max_frame_size(-14)
    2300                      .dwpsn  file "../source/Solar Microinverter_main.c",line 606,column 1,is_stmt,address _epwm4_isr,isa 
    2301              
    2302                      .dwfde $C$DW$CIE, _epwm4_isr
    2303              
    2304              ;***************************************************************
    2305              ;* FNAME: _epwm4_isr                    FR SIZE:  12           *
    2306              ;*                                                             *
    2307              ;* FUNCTION ENVIRONMENT                                        *
    2308              ;*                                                             *
    2309              ;* FUNCTION PROPERTIES                                         *
    2310              ;*                            0 Parameter,  0 Auto, 12 SOE     *
    2311              ;***************************************************************
    2312              
    2313 00000000       _epwm4_isr:
    2314                      .dwcfi  cfa_offset, -2
    2315                      .dwcfi  save_reg_to_mem, 26, 0
    2316 00000000 761B          ASP       ; [CPU_] 
    2317 00000001 0005          PUSH      AR1H:AR0H             ; [CPU_] 
    2318                      .dwcfi  save_reg_to_mem, 5, 2
    2319                      .dwcfi  save_reg_to_mem, 7, 3
    2320                      .dwcfi  cfa_offset, -4
    2321 00000002 FF69          SPM       0                     ; [CPU_] 
    2322 00000003 ABBD          MOVL      *SP++,XT              ; [CPU_] 
    2323                      .dwcfi  save_reg_to_mem, 21, 4
    2324                      .dwcfi  save_reg_to_mem, 22, 5
TMS320C2000 Assembler PC v16.9.6 Tue Mar 06 18:34:46 2018

Tools Copyright (c) 1996-2017 Texas Instruments Incorporated
C:\Users\Admin\AppData\Local\Temp\{ED9AE313-281A-4435-8F2A-5411619B06A2} PAGE   50

    2325                      .dwcfi  cfa_offset, -6
    2326 00000004 A8BD          MOVL      *SP++,XAR4            ; [CPU_] 
    2327                      .dwcfi  save_reg_to_mem, 12, 6
    2328                      .dwcfi  save_reg_to_mem, 13, 7
    2329                      .dwcfi  cfa_offset, -8
    2330 00000005 A0BD          MOVL      *SP++,XAR5            ; [CPU_] 
    2331                      .dwcfi  save_reg_to_mem, 14, 8
    2332                      .dwcfi  save_reg_to_mem, 15, 9
    2333                      .dwcfi  cfa_offset, -10
    2334 00000006 C2BD          MOVL      *SP++,XAR6            ; [CPU_] 
    2335                      .dwcfi  save_reg_to_mem, 16, 10
    2336                      .dwcfi  save_reg_to_mem, 17, 11
    2337                      .dwcfi  cfa_offset, -12
    2338 00000007 C3BD          MOVL      *SP++,XAR7            ; [CPU_] 
    2339                      .dwcfi  save_reg_to_mem, 18, 12
    2340                      .dwcfi  save_reg_to_mem, 19, 13
    2341                      .dwcfi  cfa_offset, -14
    2342 00000008 2942          CLRC      PAGE0,OVM             ; [CPU_] 
    2343 00000009 5616          CLRC      AMODE                 ; [CPU_] 
    2344 0000000a 7622   EALLOW
    2345                      .dwpsn  file "../source/Solar Microinverter_main.c",line 609,column 5,is_stmt,isa 0
    2346 0000000b 7623          OR        IER,#0x0001           ; [CPU_] |609| 
         0000000c 0001 
    2347                      .dwpsn  file "../source/Solar Microinverter_main.c",line 610,column 5,is_stmt,isa 0
    2348 0000000d 7626          AND       IER,#0x0001           ; [CPU_] |610| 
         0000000e 0001 
    2349 0000000f 7700         NOP
    2350 00000010 2910   clrc INTM
    2351 00000011 761F-         MOVW      DP,#_statemachineflag ; [CPU_U] 
         00000012 0000 
    2352 00000013 FF69          SPM       #0                    ; [CPU_] 
    2353                      .dwpsn  file "../source/Solar Microinverter_main.c",line 613,column 5,is_stmt,isa 0
    2354 00000014 56BF-         MOVB      @_statemachineflag,#1,UNC ; [CPU_] |613| 
         00000015 0105 
    2355                      .dwpsn  file "../source/Solar Microinverter_main.c",line 614,column 5,is_stmt,isa 0
    2356              $C$DW$122       .dwtag  DW_TAG_TI_branch
    2357                      .dwattr $C$DW$122, DW_AT_low_pc(0x00)
    2358                      .dwattr $C$DW$122, DW_AT_name("_statemachine")
    2359                      .dwattr $C$DW$122, DW_AT_TI_call
    2360              
    2361 00000016 7640!         LCR       #_statemachine        ; [CPU_] |614| 
         00000017 0000 
    2362                      ; call occurs [#_statemachine] ; [] |614| 
    2363 00000018 761F!         MOVW      DP,#_Tx_timeout       ; [CPU_U] 
         00000019 0000 
    2364                      .dwpsn  file "../source/Solar Microinverter_main.c",line 616,column 5,is_stmt,isa 0
    2365 0000001a 0A00!         INC       @_Tx_timeout          ; [CPU_] |616| 
    2366 0000001b 761F!         MOVW      DP,#_Rx_timeout       ; [CPU_U] 
         0000001c 0000 
    2367                      .dwpsn  file "../source/Solar Microinverter_main.c",line 617,column 5,is_stmt,isa 0
    2368 0000001d 0A00!         INC       @_Rx_timeout          ; [CPU_] |617| 
    2369 0000001e 761F!         MOVW      DP,#_Rx_time_count    ; [CPU_U] 
         0000001f 0000 
    2370                      .dwpsn  file "../source/Solar Microinverter_main.c",line 618,column 5,is_stmt,isa 0
    2371 00000020 0A00!         INC       @_Rx_time_count       ; [CPU_] |618| 
TMS320C2000 Assembler PC v16.9.6 Tue Mar 06 18:34:46 2018

Tools Copyright (c) 1996-2017 Texas Instruments Incorporated
C:\Users\Admin\AppData\Local\Temp\{ED9AE313-281A-4435-8F2A-5411619B06A2} PAGE   51

    2372 00000021 761F!         MOVW      DP,#_GSM_Restart_Count ; [CPU_U] 
         00000022 0000 
    2373                      .dwpsn  file "../source/Solar Microinverter_main.c",line 619,column 5,is_stmt,isa 0
    2374 00000023 0A00!         INC       @_GSM_Restart_Count   ; [CPU_] |619| 
    2375 00000024 761F!         MOVW      DP,#_RS485_TXEnable_Count ; [CPU_U] 
         00000025 0000 
    2376                      .dwpsn  file "../source/Solar Microinverter_main.c",line 621,column 5,is_stmt,isa 0
    2377 00000026 0A00!         INC       @_RS485_TXEnable_Count ; [CPU_] |621| 
    2378 00000027 761F!         MOVW      DP,#_gsm_count        ; [CPU_U] 
         00000028 0000 
    2379                      .dwpsn  file "../source/Solar Microinverter_main.c",line 622,column 5,is_stmt,isa 0
    2380 00000029 0A00!         INC       @_gsm_count           ; [CPU_] |622| 
    2381 0000002a 1B00!         CMP       @_gsm_count,#40000    ; [CPU_] |622| 
         0000002b 9C40 
    2382 0000002c 6903          B         $C$L10,LOS            ; [CPU_] |622| 
    2383                      ; branchcc occurs ; [] |622| 
    2384                      .dwpsn  file "../source/Solar Microinverter_main.c",line 623,column 27,is_stmt,isa 0
    2385 0000002d 2800!         MOV       @_gsm_count,#40000    ; [CPU_] |623| 
         0000002e 9C40 
    2386 0000002f       $C$L10:    
    2387                      .dwpsn  file "../source/Solar Microinverter_main.c",line 624,column 5,is_stmt,isa 0
    2388 0000002f 0201          MOVB      ACC,#1                ; [CPU_] |624| 
    2389 00000030 761F!         MOVW      DP,#_GSM_Repeat_Count ; [CPU_U] 
         00000031 0000 
    2390 00000032 5601!         ADDL      @_GSM_Repeat_Count,ACC ; [CPU_] |624| 
         00000033 0000 
    2391 00000034 761F!         MOVW      DP,#_GSM_DelayCount   ; [CPU_U] 
         00000035 0000 
    2392                      .dwpsn  file "../source/Solar Microinverter_main.c",line 625,column 5,is_stmt,isa 0
    2393 00000036 0A00!         INC       @_GSM_DelayCount      ; [CPU_] |625| 
    2394 00000037 1B00!         CMP       @_GSM_DelayCount,#40000 ; [CPU_] |625| 
         00000038 9C40 
    2395 00000039 6903          B         $C$L11,LOS            ; [CPU_] |625| 
    2396                      ; branchcc occurs ; [] |625| 
    2397                      .dwpsn  file "../source/Solar Microinverter_main.c",line 626,column 33,is_stmt,isa 0
    2398 0000003a 2800!         MOV       @_GSM_DelayCount,#40000 ; [CPU_] |626| 
         0000003b 9C40 
    2399 0000003c       $C$L11:    
    2400 0000003c 761F!         MOVW      DP,#_EPwm4Regs+28     ; [CPU_U] 
         0000003d 0000 
    2401                      .dwpsn  file "../source/Solar Microinverter_main.c",line 629,column 5,is_stmt,isa 0
    2402 0000003e 1A1C!         OR        @_EPwm4Regs+28,#0x0001 ; [CPU_] |629| 
         0000003f 0001 
    2403 00000040 761F!         MOVW      DP,#_PieCtrlRegs+1    ; [CPU_U] 
         00000041 0000 
    2404                      .dwpsn  file "../source/Solar Microinverter_main.c",line 631,column 5,is_stmt,isa 0
    2405 00000042 1A01!         OR        @_PieCtrlRegs+1,#0x0004 ; [CPU_] |631| 
         00000043 0004 
    2406 00000044 3B10   setc INTM
    2407 00000045 761A   EDIS
    2408 00000046 761F!         MOVW      DP,#_GpioDataRegs+5   ; [CPU_U] 
         00000047 0000 
    2409                      .dwpsn  file "../source/Solar Microinverter_main.c",line 634,column 5,is_stmt,isa 0
    2410 00000048 1A05!         OR        @_GpioDataRegs+5,#0x0008 ; [CPU_] |634| 
         00000049 0008 
TMS320C2000 Assembler PC v16.9.6 Tue Mar 06 18:34:46 2018

Tools Copyright (c) 1996-2017 Texas Instruments Incorporated
C:\Users\Admin\AppData\Local\Temp\{ED9AE313-281A-4435-8F2A-5411619B06A2} PAGE   52

    2411 0000004a C5BE          MOVL      XAR7,*--SP            ; [CPU_] 
    2412                      .dwcfi  cfa_offset, -12
    2413                      .dwcfi  restore_reg, 18
    2414 0000004b C4BE          MOVL      XAR6,*--SP            ; [CPU_] 
    2415                      .dwcfi  cfa_offset, -10
    2416                      .dwcfi  restore_reg, 16
    2417 0000004c 83BE          MOVL      XAR5,*--SP            ; [CPU_] 
    2418                      .dwcfi  cfa_offset, -8
    2419                      .dwcfi  restore_reg, 14
    2420 0000004d 8ABE          MOVL      XAR4,*--SP            ; [CPU_] 
    2421                      .dwcfi  cfa_offset, -6
    2422                      .dwcfi  restore_reg, 12
    2423 0000004e 87BE          MOVL      XT,*--SP              ; [CPU_] 
    2424                      .dwcfi  cfa_offset, -4
    2425                      .dwcfi  restore_reg, 22
    2426                      .dwcfi  restore_reg, 21
    2427 0000004f 0003          POP       AR1H:AR0H             ; [CPU_] 
    2428                      .dwcfi  cfa_offset, -2
    2429                      .dwcfi  restore_reg, 5
    2430                      .dwcfi  restore_reg, 7
    2431 00000050 7617          NASP      ; [CPU_] 
    2432              $C$DW$123       .dwtag  DW_TAG_TI_branch
    2433                      .dwattr $C$DW$123, DW_AT_low_pc(0x00)
    2434                      .dwattr $C$DW$123, DW_AT_TI_return
    2435              
    2436 00000051 7602          IRET      ; [CPU_] 
    2437                      ; return occurs ; [] 
    2438                      .dwattr $C$DW$121, DW_AT_TI_end_file("../source/Solar Microinverter_main.c")
    2439                      .dwattr $C$DW$121, DW_AT_TI_end_line(0x27c)
    2440                      .dwattr $C$DW$121, DW_AT_TI_end_column(0x01)
    2441                      .dwendentry
    2442                      .dwendtag $C$DW$121
    2443              
    2444 00000052               .sect   ".text:retain"
    2445                      .retain
    2446                      .retainrefs
    2447                      .global _ecap1_isr
    2448              
    2449              $C$DW$124       .dwtag  DW_TAG_subprogram
    2450                      .dwattr $C$DW$124, DW_AT_name("ecap1_isr")
    2451                      .dwattr $C$DW$124, DW_AT_low_pc(_ecap1_isr)
    2452                      .dwattr $C$DW$124, DW_AT_high_pc(0x00)
    2453                      .dwattr $C$DW$124, DW_AT_TI_symbol_name("_ecap1_isr")
    2454                      .dwattr $C$DW$124, DW_AT_external
    2455                      .dwattr $C$DW$124, DW_AT_TI_begin_file("../source/Solar Microinverter_main.c")
    2456                      .dwattr $C$DW$124, DW_AT_TI_begin_line(0x27f)
    2457                      .dwattr $C$DW$124, DW_AT_TI_begin_column(0x10)
    2458                      .dwattr $C$DW$124, DW_AT_TI_interrupt
    2459                      .dwattr $C$DW$124, DW_AT_TI_max_frame_size(-2)
    2460                      .dwpsn  file "../source/Solar Microinverter_main.c",line 640,column 1,is_stmt,address _ecap1_isr,isa 
    2461              
    2462                      .dwfde $C$DW$CIE, _ecap1_isr
    2463              
    2464              ;***************************************************************
    2465              ;* FNAME: _ecap1_isr                    FR SIZE:   0           *
TMS320C2000 Assembler PC v16.9.6 Tue Mar 06 18:34:46 2018

Tools Copyright (c) 1996-2017 Texas Instruments Incorporated
C:\Users\Admin\AppData\Local\Temp\{ED9AE313-281A-4435-8F2A-5411619B06A2} PAGE   53

    2466              ;*                                                             *
    2467              ;* FUNCTION ENVIRONMENT                                        *
    2468              ;*                                                             *
    2469              ;* FUNCTION PROPERTIES                                         *
    2470              ;*                            0 Parameter,  0 Auto,  0 SOE     *
    2471              ;***************************************************************
    2472              
    2473 00000052       _ecap1_isr:
    2474                      .dwcfi  cfa_offset, -2
    2475                      .dwcfi  save_reg_to_mem, 26, 0
    2476 00000052 761B          ASP       ; [CPU_] 
    2477 00000053 2942          CLRC      PAGE0,OVM             ; [CPU_] 
    2478 00000054 5616          CLRC      AMODE                 ; [CPU_] 
    2479 00000055 7622   EALLOW
    2480 00000056 761F!         MOVW      DP,#_ECap1Regs+4      ; [CPU_U] 
         00000057 0000 
    2481                      .dwpsn  file "../source/Solar Microinverter_main.c",line 644,column 6,is_stmt,isa 0
    2482 00000058 0604!         MOVL      ACC,@_ECap1Regs+4     ; [CPU_] |644| 
    2483 00000059 761F-         MOVW      DP,#_ECAP1            ; [CPU_U] 
         0000005a 0000 
    2484 0000005b 1E0C-         MOVL      @_ECAP1,ACC           ; [CPU_] |644| 
    2485 0000005c 761F!         MOVW      DP,#_ECap1Regs+6      ; [CPU_U] 
         0000005d 0000 
    2486                      .dwpsn  file "../source/Solar Microinverter_main.c",line 645,column 6,is_stmt,isa 0
    2487 0000005e 0606!         MOVL      ACC,@_ECap1Regs+6     ; [CPU_] |645| 
    2488 0000005f 761F-         MOVW      DP,#_ECAP2            ; [CPU_U] 
         00000060 0000 
    2489 00000061 1E12-         MOVL      @_ECAP2,ACC           ; [CPU_] |645| 
    2490                      .dwpsn  file "../source/Solar Microinverter_main.c",line 647,column 6,is_stmt,isa 0
    2491 00000062 7623          OR        IER,#0x0001           ; [CPU_] |647| 
         00000063 0001 
    2492                      .dwpsn  file "../source/Solar Microinverter_main.c",line 648,column 6,is_stmt,isa 0
    2493 00000064 7626          AND       IER,#0x0001           ; [CPU_] |648| 
         00000065 0001 
    2494 00000066 7700         NOP
    2495 00000067 2910   clrc INTM
    2496 00000068 761F!         MOVW      DP,#_ECap1Regs+24     ; [CPU_U] 
         00000069 0000 
    2497                      .dwpsn  file "../source/Solar Microinverter_main.c",line 651,column 6,is_stmt,isa 0
    2498 0000006a 1A18!         OR        @_ECap1Regs+24,#0x0004 ; [CPU_] |651| 
         0000006b 0004 
    2499                      .dwpsn  file "../source/Solar Microinverter_main.c",line 652,column 6,is_stmt,isa 0
    2500 0000006c 1A18!         OR        @_ECap1Regs+24,#0x0001 ; [CPU_] |652| 
         0000006d 0001 
    2501 0000006e 761F!         MOVW      DP,#_PieCtrlRegs+1    ; [CPU_U] 
         0000006f 0000 
    2502                      .dwpsn  file "../source/Solar Microinverter_main.c",line 654,column 5,is_stmt,isa 0
    2503 00000070 56BF!         MOVB      @_PieCtrlRegs+1,#8,UNC ; [CPU_] |654| 
         00000071 0801 
    2504 00000072 3B10   setc INTM
    2505 00000073 761A   EDIS
    2506 00000074 7617          NASP      ; [CPU_] 
    2507              $C$DW$125       .dwtag  DW_TAG_TI_branch
    2508                      .dwattr $C$DW$125, DW_AT_low_pc(0x00)
    2509                      .dwattr $C$DW$125, DW_AT_TI_return
TMS320C2000 Assembler PC v16.9.6 Tue Mar 06 18:34:46 2018

Tools Copyright (c) 1996-2017 Texas Instruments Incorporated
C:\Users\Admin\AppData\Local\Temp\{ED9AE313-281A-4435-8F2A-5411619B06A2} PAGE   54

    2510              
    2511 00000075 7602          IRET      ; [CPU_] 
    2512                      ; return occurs ; [] 
    2513                      .dwattr $C$DW$124, DW_AT_TI_end_file("../source/Solar Microinverter_main.c")
    2514                      .dwattr $C$DW$124, DW_AT_TI_end_line(0x294)
    2515                      .dwattr $C$DW$124, DW_AT_TI_end_column(0x01)
    2516                      .dwendentry
    2517                      .dwendtag $C$DW$124
    2518              
    2519              ;**************************************************************
    2520              ;* UNDEFINED EXTERNAL REFERENCES                              *
    2521              ;**************************************************************
    2522                      .global _variablePI
    2523                      .global _statemachine
    2524                      .global _tx_gsm
    2525                      .global _InitEPwmSyncGpio
    2526                      .global _adc_isr
    2527                      .global _InitPieCtrl
    2528                      .global _InitEPwm3Gpio
    2529                      .global _InitSciaGpio
    2530                      .global _InitPieVectTable
    2531                      .global _InitECap1Gpio
    2532                      .global _InitAdc
    2533                      .global _InitEPwm2Gpio
    2534                      .global _InitEPwm1Gpio
    2535                      .global _oi_uart
    2536                      .global _MemCopy
    2537                      .global _sciRxFifoIsr
    2538                      .global _sciTxFifoIsr
    2539                      .global _InitTzGpio
    2540                      .global _InitSysCtrl
    2541                      .global _InitFlash
    2542                      .global _ServiceDog
    2543                      .global _scia_fifo_init
    2544                      .global _RamconstsLoadEnd
    2545                      .global _RamconstsLoadStart
    2546                      .global _systemState
    2547                      .global _RamconstsRunStart
    2548                      .global _RamfuncsRunStart
    2549                      .global _RamfuncsLoadEnd
    2550                      .global _Rx_timeout
    2551                      .global _Tx_timeout
    2552                      .global _gridFlag
    2553                      .global _acoffset_cal2
    2554                      .global _GSM_Restart_Count
    2555                      .global _GSM_DelayCount
    2556                      .global _RS485_TXEnable_Count
    2557                      .global _VariablePIFlag
    2558                      .global _Rx_time_count
    2559                      .global _gsm_count
    2560                      .global _RamfuncsLoadStart
    2561                      .global _GSM_Repeat_Count
    2562                      .global _Comp2Regs
    2563                      .global _Comp3Regs
    2564                      .global _Comp1Regs
TMS320C2000 Assembler PC v16.9.6 Tue Mar 06 18:34:46 2018

Tools Copyright (c) 1996-2017 Texas Instruments Incorporated
C:\Users\Admin\AppData\Local\Temp\{ED9AE313-281A-4435-8F2A-5411619B06A2} PAGE   55

    2565                      .global _PieCtrlRegs
    2566                      .global _GpioDataRegs
    2567                      .global _ECap1Regs
    2568                      .global _SysCtrlRegs
    2569                      .global _EPwm2Regs
    2570                      .global _EPwm1Regs
    2571                      .global _EPwm3Regs
    2572                      .global _EPwm4Regs
    2573                      .global _GpioCtrlRegs
    2574                      .global _AdcRegs
    2575                      .global _PieVectTable
    2576              
    2577              ;***************************************************************
    2578              ;* TYPE INFORMATION                                            *
    2579              ;***************************************************************
    2580              
    2581              $C$DW$T$20      .dwtag  DW_TAG_structure_type
    2582                      .dwattr $C$DW$T$20, DW_AT_name("ADCCTL1_BITS")
    2583                      .dwattr $C$DW$T$20, DW_AT_byte_size(0x01)
    2584              $C$DW$126       .dwtag  DW_TAG_member
    2585                      .dwattr $C$DW$126, DW_AT_type(*$C$DW$T$19)
    2586                      .dwattr $C$DW$126, DW_AT_name("TEMPCONV")
    2587                      .dwattr $C$DW$126, DW_AT_TI_symbol_name("_TEMPCONV")
    2588                      .dwattr $C$DW$126, DW_AT_bit_offset(0x0f)
    2589                      .dwattr $C$DW$126, DW_AT_bit_size(0x01)
    2590                      .dwattr $C$DW$126, DW_AT_data_member_location[DW_OP_plus_uconst 0x0]
    2591                      .dwattr $C$DW$126, DW_AT_accessibility(DW_ACCESS_public)
    2592              
    2593              $C$DW$127       .dwtag  DW_TAG_member
    2594                      .dwattr $C$DW$127, DW_AT_type(*$C$DW$T$19)
    2595                      .dwattr $C$DW$127, DW_AT_name("VREFLOCONV")
    2596                      .dwattr $C$DW$127, DW_AT_TI_symbol_name("_VREFLOCONV")
    2597                      .dwattr $C$DW$127, DW_AT_bit_offset(0x0e)
    2598                      .dwattr $C$DW$127, DW_AT_bit_size(0x01)
    2599                      .dwattr $C$DW$127, DW_AT_data_member_location[DW_OP_plus_uconst 0x0]
    2600                      .dwattr $C$DW$127, DW_AT_accessibility(DW_ACCESS_public)
    2601              
    2602              $C$DW$128       .dwtag  DW_TAG_member
    2603                      .dwattr $C$DW$128, DW_AT_type(*$C$DW$T$19)
    2604                      .dwattr $C$DW$128, DW_AT_name("INTPULSEPOS")
    2605                      .dwattr $C$DW$128, DW_AT_TI_symbol_name("_INTPULSEPOS")
    2606                      .dwattr $C$DW$128, DW_AT_bit_offset(0x0d)
    2607                      .dwattr $C$DW$128, DW_AT_bit_size(0x01)
    2608                      .dwattr $C$DW$128, DW_AT_data_member_location[DW_OP_plus_uconst 0x0]
    2609                      .dwattr $C$DW$128, DW_AT_accessibility(DW_ACCESS_public)
    2610              
    2611              $C$DW$129       .dwtag  DW_TAG_member
    2612                      .dwattr $C$DW$129, DW_AT_type(*$C$DW$T$19)
    2613                      .dwattr $C$DW$129, DW_AT_name("ADCREFSEL")
    2614                      .dwattr $C$DW$129, DW_AT_TI_symbol_name("_ADCREFSEL")
    2615                      .dwattr $C$DW$129, DW_AT_bit_offset(0x0c)
    2616                      .dwattr $C$DW$129, DW_AT_bit_size(0x01)
    2617                      .dwattr $C$DW$129, DW_AT_data_member_location[DW_OP_plus_uconst 0x0]
    2618                      .dwattr $C$DW$129, DW_AT_accessibility(DW_ACCESS_public)
    2619              
TMS320C2000 Assembler PC v16.9.6 Tue Mar 06 18:34:46 2018

Tools Copyright (c) 1996-2017 Texas Instruments Incorporated
C:\Users\Admin\AppData\Local\Temp\{ED9AE313-281A-4435-8F2A-5411619B06A2} PAGE   56

    2620              $C$DW$130       .dwtag  DW_TAG_member
    2621                      .dwattr $C$DW$130, DW_AT_type(*$C$DW$T$19)
    2622                      .dwattr $C$DW$130, DW_AT_name("rsvd1")
    2623                      .dwattr $C$DW$130, DW_AT_TI_symbol_name("_rsvd1")
    2624                      .dwattr $C$DW$130, DW_AT_bit_offset(0x0b)
    2625                      .dwattr $C$DW$130, DW_AT_bit_size(0x01)
    2626                      .dwattr $C$DW$130, DW_AT_data_member_location[DW_OP_plus_uconst 0x0]
    2627                      .dwattr $C$DW$130, DW_AT_accessibility(DW_ACCESS_public)
    2628              
    2629              $C$DW$131       .dwtag  DW_TAG_member
    2630                      .dwattr $C$DW$131, DW_AT_type(*$C$DW$T$19)
    2631                      .dwattr $C$DW$131, DW_AT_name("ADCREFPWD")
    2632                      .dwattr $C$DW$131, DW_AT_TI_symbol_name("_ADCREFPWD")
    2633                      .dwattr $C$DW$131, DW_AT_bit_offset(0x0a)
    2634                      .dwattr $C$DW$131, DW_AT_bit_size(0x01)
    2635                      .dwattr $C$DW$131, DW_AT_data_member_location[DW_OP_plus_uconst 0x0]
    2636                      .dwattr $C$DW$131, DW_AT_accessibility(DW_ACCESS_public)
    2637              
    2638              $C$DW$132       .dwtag  DW_TAG_member
    2639                      .dwattr $C$DW$132, DW_AT_type(*$C$DW$T$19)
    2640                      .dwattr $C$DW$132, DW_AT_name("ADCBGPWD")
    2641                      .dwattr $C$DW$132, DW_AT_TI_symbol_name("_ADCBGPWD")
    2642                      .dwattr $C$DW$132, DW_AT_bit_offset(0x09)
    2643                      .dwattr $C$DW$132, DW_AT_bit_size(0x01)
    2644                      .dwattr $C$DW$132, DW_AT_data_member_location[DW_OP_plus_uconst 0x0]
    2645                      .dwattr $C$DW$132, DW_AT_accessibility(DW_ACCESS_public)
    2646              
    2647              $C$DW$133       .dwtag  DW_TAG_member
    2648                      .dwattr $C$DW$133, DW_AT_type(*$C$DW$T$19)
    2649                      .dwattr $C$DW$133, DW_AT_name("ADCPWDN")
    2650                      .dwattr $C$DW$133, DW_AT_TI_symbol_name("_ADCPWDN")
    2651                      .dwattr $C$DW$133, DW_AT_bit_offset(0x08)
    2652                      .dwattr $C$DW$133, DW_AT_bit_size(0x01)
    2653                      .dwattr $C$DW$133, DW_AT_data_member_location[DW_OP_plus_uconst 0x0]
    2654                      .dwattr $C$DW$133, DW_AT_accessibility(DW_ACCESS_public)
    2655              
    2656              $C$DW$134       .dwtag  DW_TAG_member
    2657                      .dwattr $C$DW$134, DW_AT_type(*$C$DW$T$19)
    2658                      .dwattr $C$DW$134, DW_AT_name("ADCBSYCHN")
    2659                      .dwattr $C$DW$134, DW_AT_TI_symbol_name("_ADCBSYCHN")
    2660                      .dwattr $C$DW$134, DW_AT_bit_offset(0x03)
    2661                      .dwattr $C$DW$134, DW_AT_bit_size(0x05)
    2662                      .dwattr $C$DW$134, DW_AT_data_member_location[DW_OP_plus_uconst 0x0]
    2663                      .dwattr $C$DW$134, DW_AT_accessibility(DW_ACCESS_public)
    2664              
    2665              $C$DW$135       .dwtag  DW_TAG_member
    2666                      .dwattr $C$DW$135, DW_AT_type(*$C$DW$T$19)
    2667                      .dwattr $C$DW$135, DW_AT_name("ADCBSY")
    2668                      .dwattr $C$DW$135, DW_AT_TI_symbol_name("_ADCBSY")
    2669                      .dwattr $C$DW$135, DW_AT_bit_offset(0x02)
    2670                      .dwattr $C$DW$135, DW_AT_bit_size(0x01)
    2671                      .dwattr $C$DW$135, DW_AT_data_member_location[DW_OP_plus_uconst 0x0]
    2672                      .dwattr $C$DW$135, DW_AT_accessibility(DW_ACCESS_public)
    2673              
    2674              $C$DW$136       .dwtag  DW_TAG_member
TMS320C2000 Assembler PC v16.9.6 Tue Mar 06 18:34:46 2018

Tools Copyright (c) 1996-2017 Texas Instruments Incorporated
C:\Users\Admin\AppData\Local\Temp\{ED9AE313-281A-4435-8F2A-5411619B06A2} PAGE   57

    2675                      .dwattr $C$DW$136, DW_AT_type(*$C$DW$T$19)
    2676                      .dwattr $C$DW$136, DW_AT_name("ADCENABLE")
    2677                      .dwattr $C$DW$136, DW_AT_TI_symbol_name("_ADCENABLE")
    2678                      .dwattr $C$DW$136, DW_AT_bit_offset(0x01)
    2679                      .dwattr $C$DW$136, DW_AT_bit_size(0x01)
    2680                      .dwattr $C$DW$136, DW_AT_data_member_location[DW_OP_plus_uconst 0x0]
    2681                      .dwattr $C$DW$136, DW_AT_accessibility(DW_ACCESS_public)
    2682              
    2683              $C$DW$137       .dwtag  DW_TAG_member
    2684                      .dwattr $C$DW$137, DW_AT_type(*$C$DW$T$19)
    2685                      .dwattr $C$DW$137, DW_AT_name("RESET")
    2686                      .dwattr $C$DW$137, DW_AT_TI_symbol_name("_RESET")
    2687                      .dwattr $C$DW$137, DW_AT_bit_offset(0x00)
    2688                      .dwattr $C$DW$137, DW_AT_bit_size(0x01)
    2689                      .dwattr $C$DW$137, DW_AT_data_member_location[DW_OP_plus_uconst 0x0]
    2690                      .dwattr $C$DW$137, DW_AT_accessibility(DW_ACCESS_public)
    2691              
    2692                      .dwendtag $C$DW$T$20
    2693              
    2694              
    2695              $C$DW$T$21      .dwtag  DW_TAG_union_type
    2696                      .dwattr $C$DW$T$21, DW_AT_name("ADCCTL1_REG")
    2697                      .dwattr $C$DW$T$21, DW_AT_byte_size(0x01)
    2698              $C$DW$138       .dwtag  DW_TAG_member
    2699                      .dwattr $C$DW$138, DW_AT_type(*$C$DW$T$19)
    2700                      .dwattr $C$DW$138, DW_AT_name("all")
    2701                      .dwattr $C$DW$138, DW_AT_TI_symbol_name("_all")
    2702                      .dwattr $C$DW$138, DW_AT_data_member_location[DW_OP_plus_uconst 0x0]
    2703                      .dwattr $C$DW$138, DW_AT_accessibility(DW_ACCESS_public)
    2704              
    2705              $C$DW$139       .dwtag  DW_TAG_member
    2706                      .dwattr $C$DW$139, DW_AT_type(*$C$DW$T$20)
    2707                      .dwattr $C$DW$139, DW_AT_name("bit")
    2708                      .dwattr $C$DW$139, DW_AT_TI_symbol_name("_bit")
    2709                      .dwattr $C$DW$139, DW_AT_data_member_location[DW_OP_plus_uconst 0x0]
    2710                      .dwattr $C$DW$139, DW_AT_accessibility(DW_ACCESS_public)
    2711              
    2712                      .dwendtag $C$DW$T$21
    2713              
    2714              
    2715              $C$DW$T$22      .dwtag  DW_TAG_structure_type
    2716                      .dwattr $C$DW$T$22, DW_AT_name("ADCCTL2_BITS")
    2717                      .dwattr $C$DW$T$22, DW_AT_byte_size(0x01)
    2718              $C$DW$140       .dwtag  DW_TAG_member
    2719                      .dwattr $C$DW$140, DW_AT_type(*$C$DW$T$19)
    2720                      .dwattr $C$DW$140, DW_AT_name("CLKDIV2EN")
    2721                      .dwattr $C$DW$140, DW_AT_TI_symbol_name("_CLKDIV2EN")
    2722                      .dwattr $C$DW$140, DW_AT_bit_offset(0x0f)
    2723                      .dwattr $C$DW$140, DW_AT_bit_size(0x01)
    2724                      .dwattr $C$DW$140, DW_AT_data_member_location[DW_OP_plus_uconst 0x0]
    2725                      .dwattr $C$DW$140, DW_AT_accessibility(DW_ACCESS_public)
    2726              
    2727              $C$DW$141       .dwtag  DW_TAG_member
    2728                      .dwattr $C$DW$141, DW_AT_type(*$C$DW$T$19)
    2729                      .dwattr $C$DW$141, DW_AT_name("ADCNONOVERLAP")
TMS320C2000 Assembler PC v16.9.6 Tue Mar 06 18:34:46 2018

Tools Copyright (c) 1996-2017 Texas Instruments Incorporated
C:\Users\Admin\AppData\Local\Temp\{ED9AE313-281A-4435-8F2A-5411619B06A2} PAGE   58

    2730                      .dwattr $C$DW$141, DW_AT_TI_symbol_name("_ADCNONOVERLAP")
    2731                      .dwattr $C$DW$141, DW_AT_bit_offset(0x0e)
    2732                      .dwattr $C$DW$141, DW_AT_bit_size(0x01)
    2733                      .dwattr $C$DW$141, DW_AT_data_member_location[DW_OP_plus_uconst 0x0]
    2734                      .dwattr $C$DW$141, DW_AT_accessibility(DW_ACCESS_public)
    2735              
    2736              $C$DW$142       .dwtag  DW_TAG_member
    2737                      .dwattr $C$DW$142, DW_AT_type(*$C$DW$T$19)
    2738                      .dwattr $C$DW$142, DW_AT_name("rsvd1")
    2739                      .dwattr $C$DW$142, DW_AT_TI_symbol_name("_rsvd1")
    2740                      .dwattr $C$DW$142, DW_AT_bit_offset(0x00)
    2741                      .dwattr $C$DW$142, DW_AT_bit_size(0x0e)
    2742                      .dwattr $C$DW$142, DW_AT_data_member_location[DW_OP_plus_uconst 0x0]
    2743                      .dwattr $C$DW$142, DW_AT_accessibility(DW_ACCESS_public)
    2744              
    2745                      .dwendtag $C$DW$T$22
    2746              
    2747              
    2748              $C$DW$T$23      .dwtag  DW_TAG_union_type
    2749                      .dwattr $C$DW$T$23, DW_AT_name("ADCCTL2_REG")
    2750                      .dwattr $C$DW$T$23, DW_AT_byte_size(0x01)
    2751              $C$DW$143       .dwtag  DW_TAG_member
    2752                      .dwattr $C$DW$143, DW_AT_type(*$C$DW$T$19)
    2753                      .dwattr $C$DW$143, DW_AT_name("all")
    2754                      .dwattr $C$DW$143, DW_AT_TI_symbol_name("_all")
    2755                      .dwattr $C$DW$143, DW_AT_data_member_location[DW_OP_plus_uconst 0x0]
    2756                      .dwattr $C$DW$143, DW_AT_accessibility(DW_ACCESS_public)
    2757              
    2758              $C$DW$144       .dwtag  DW_TAG_member
    2759                      .dwattr $C$DW$144, DW_AT_type(*$C$DW$T$22)
    2760                      .dwattr $C$DW$144, DW_AT_name("bit")
    2761                      .dwattr $C$DW$144, DW_AT_TI_symbol_name("_bit")
    2762                      .dwattr $C$DW$144, DW_AT_data_member_location[DW_OP_plus_uconst 0x0]
    2763                      .dwattr $C$DW$144, DW_AT_accessibility(DW_ACCESS_public)
    2764              
    2765                      .dwendtag $C$DW$T$23
    2766              
    2767              
    2768              $C$DW$T$24      .dwtag  DW_TAG_structure_type
    2769                      .dwattr $C$DW$T$24, DW_AT_name("ADCINTSOCSEL1_BITS")
    2770                      .dwattr $C$DW$T$24, DW_AT_byte_size(0x01)
    2771              $C$DW$145       .dwtag  DW_TAG_member
    2772                      .dwattr $C$DW$145, DW_AT_type(*$C$DW$T$19)
    2773                      .dwattr $C$DW$145, DW_AT_name("SOC0")
    2774                      .dwattr $C$DW$145, DW_AT_TI_symbol_name("_SOC0")
    2775                      .dwattr $C$DW$145, DW_AT_bit_offset(0x0e)
    2776                      .dwattr $C$DW$145, DW_AT_bit_size(0x02)
    2777                      .dwattr $C$DW$145, DW_AT_data_member_location[DW_OP_plus_uconst 0x0]
    2778                      .dwattr $C$DW$145, DW_AT_accessibility(DW_ACCESS_public)
    2779              
    2780              $C$DW$146       .dwtag  DW_TAG_member
    2781                      .dwattr $C$DW$146, DW_AT_type(*$C$DW$T$19)
    2782                      .dwattr $C$DW$146, DW_AT_name("SOC1")
    2783                      .dwattr $C$DW$146, DW_AT_TI_symbol_name("_SOC1")
    2784                      .dwattr $C$DW$146, DW_AT_bit_offset(0x0c)
TMS320C2000 Assembler PC v16.9.6 Tue Mar 06 18:34:46 2018

Tools Copyright (c) 1996-2017 Texas Instruments Incorporated
C:\Users\Admin\AppData\Local\Temp\{ED9AE313-281A-4435-8F2A-5411619B06A2} PAGE   59

    2785                      .dwattr $C$DW$146, DW_AT_bit_size(0x02)
    2786                      .dwattr $C$DW$146, DW_AT_data_member_location[DW_OP_plus_uconst 0x0]
    2787                      .dwattr $C$DW$146, DW_AT_accessibility(DW_ACCESS_public)
    2788              
    2789              $C$DW$147       .dwtag  DW_TAG_member
    2790                      .dwattr $C$DW$147, DW_AT_type(*$C$DW$T$19)
    2791                      .dwattr $C$DW$147, DW_AT_name("SOC2")
    2792                      .dwattr $C$DW$147, DW_AT_TI_symbol_name("_SOC2")
    2793                      .dwattr $C$DW$147, DW_AT_bit_offset(0x0a)
    2794                      .dwattr $C$DW$147, DW_AT_bit_size(0x02)
    2795                      .dwattr $C$DW$147, DW_AT_data_member_location[DW_OP_plus_uconst 0x0]
    2796                      .dwattr $C$DW$147, DW_AT_accessibility(DW_ACCESS_public)
    2797              
    2798              $C$DW$148       .dwtag  DW_TAG_member
    2799                      .dwattr $C$DW$148, DW_AT_type(*$C$DW$T$19)
    2800                      .dwattr $C$DW$148, DW_AT_name("SOC3")
    2801                      .dwattr $C$DW$148, DW_AT_TI_symbol_name("_SOC3")
    2802                      .dwattr $C$DW$148, DW_AT_bit_offset(0x08)
    2803                      .dwattr $C$DW$148, DW_AT_bit_size(0x02)
    2804                      .dwattr $C$DW$148, DW_AT_data_member_location[DW_OP_plus_uconst 0x0]
    2805                      .dwattr $C$DW$148, DW_AT_accessibility(DW_ACCESS_public)
    2806              
    2807              $C$DW$149       .dwtag  DW_TAG_member
    2808                      .dwattr $C$DW$149, DW_AT_type(*$C$DW$T$19)
    2809                      .dwattr $C$DW$149, DW_AT_name("SOC4")
    2810                      .dwattr $C$DW$149, DW_AT_TI_symbol_name("_SOC4")
    2811                      .dwattr $C$DW$149, DW_AT_bit_offset(0x06)
    2812                      .dwattr $C$DW$149, DW_AT_bit_size(0x02)
    2813                      .dwattr $C$DW$149, DW_AT_data_member_location[DW_OP_plus_uconst 0x0]
    2814                      .dwattr $C$DW$149, DW_AT_accessibility(DW_ACCESS_public)
    2815              
    2816              $C$DW$150       .dwtag  DW_TAG_member
    2817                      .dwattr $C$DW$150, DW_AT_type(*$C$DW$T$19)
    2818                      .dwattr $C$DW$150, DW_AT_name("SOC5")
    2819                      .dwattr $C$DW$150, DW_AT_TI_symbol_name("_SOC5")
    2820                      .dwattr $C$DW$150, DW_AT_bit_offset(0x04)
    2821                      .dwattr $C$DW$150, DW_AT_bit_size(0x02)
    2822                      .dwattr $C$DW$150, DW_AT_data_member_location[DW_OP_plus_uconst 0x0]
    2823                      .dwattr $C$DW$150, DW_AT_accessibility(DW_ACCESS_public)
    2824              
    2825              $C$DW$151       .dwtag  DW_TAG_member
    2826                      .dwattr $C$DW$151, DW_AT_type(*$C$DW$T$19)
    2827                      .dwattr $C$DW$151, DW_AT_name("SOC6")
    2828                      .dwattr $C$DW$151, DW_AT_TI_symbol_name("_SOC6")
    2829                      .dwattr $C$DW$151, DW_AT_bit_offset(0x02)
    2830                      .dwattr $C$DW$151, DW_AT_bit_size(0x02)
    2831                      .dwattr $C$DW$151, DW_AT_data_member_location[DW_OP_plus_uconst 0x0]
    2832                      .dwattr $C$DW$151, DW_AT_accessibility(DW_ACCESS_public)
    2833              
    2834              $C$DW$152       .dwtag  DW_TAG_member
    2835                      .dwattr $C$DW$152, DW_AT_type(*$C$DW$T$19)
    2836                      .dwattr $C$DW$152, DW_AT_name("SOC7")
    2837                      .dwattr $C$DW$152, DW_AT_TI_symbol_name("_SOC7")
    2838                      .dwattr $C$DW$152, DW_AT_bit_offset(0x00)
    2839                      .dwattr $C$DW$152, DW_AT_bit_size(0x02)
TMS320C2000 Assembler PC v16.9.6 Tue Mar 06 18:34:46 2018

Tools Copyright (c) 1996-2017 Texas Instruments Incorporated
C:\Users\Admin\AppData\Local\Temp\{ED9AE313-281A-4435-8F2A-5411619B06A2} PAGE   60

    2840                      .dwattr $C$DW$152, DW_AT_data_member_location[DW_OP_plus_uconst 0x0]
    2841                      .dwattr $C$DW$152, DW_AT_accessibility(DW_ACCESS_public)
    2842              
    2843                      .dwendtag $C$DW$T$24
    2844              
    2845              
    2846              $C$DW$T$25      .dwtag  DW_TAG_union_type
    2847                      .dwattr $C$DW$T$25, DW_AT_name("ADCINTSOCSEL1_REG")
    2848                      .dwattr $C$DW$T$25, DW_AT_byte_size(0x01)
    2849              $C$DW$153       .dwtag  DW_TAG_member
    2850                      .dwattr $C$DW$153, DW_AT_type(*$C$DW$T$19)
    2851                      .dwattr $C$DW$153, DW_AT_name("all")
    2852                      .dwattr $C$DW$153, DW_AT_TI_symbol_name("_all")
    2853                      .dwattr $C$DW$153, DW_AT_data_member_location[DW_OP_plus_uconst 0x0]
    2854                      .dwattr $C$DW$153, DW_AT_accessibility(DW_ACCESS_public)
    2855              
    2856              $C$DW$154       .dwtag  DW_TAG_member
    2857                      .dwattr $C$DW$154, DW_AT_type(*$C$DW$T$24)
    2858                      .dwattr $C$DW$154, DW_AT_name("bit")
    2859                      .dwattr $C$DW$154, DW_AT_TI_symbol_name("_bit")
    2860                      .dwattr $C$DW$154, DW_AT_data_member_location[DW_OP_plus_uconst 0x0]
    2861                      .dwattr $C$DW$154, DW_AT_accessibility(DW_ACCESS_public)
    2862              
    2863                      .dwendtag $C$DW$T$25
    2864              
    2865              
    2866              $C$DW$T$26      .dwtag  DW_TAG_structure_type
    2867                      .dwattr $C$DW$T$26, DW_AT_name("ADCINTSOCSEL2_BITS")
    2868                      .dwattr $C$DW$T$26, DW_AT_byte_size(0x01)
    2869              $C$DW$155       .dwtag  DW_TAG_member
    2870                      .dwattr $C$DW$155, DW_AT_type(*$C$DW$T$19)
    2871                      .dwattr $C$DW$155, DW_AT_name("SOC8")
    2872                      .dwattr $C$DW$155, DW_AT_TI_symbol_name("_SOC8")
    2873                      .dwattr $C$DW$155, DW_AT_bit_offset(0x0e)
    2874                      .dwattr $C$DW$155, DW_AT_bit_size(0x02)
    2875                      .dwattr $C$DW$155, DW_AT_data_member_location[DW_OP_plus_uconst 0x0]
    2876                      .dwattr $C$DW$155, DW_AT_accessibility(DW_ACCESS_public)
    2877              
    2878              $C$DW$156       .dwtag  DW_TAG_member
    2879                      .dwattr $C$DW$156, DW_AT_type(*$C$DW$T$19)
    2880                      .dwattr $C$DW$156, DW_AT_name("SOC9")
    2881                      .dwattr $C$DW$156, DW_AT_TI_symbol_name("_SOC9")
    2882                      .dwattr $C$DW$156, DW_AT_bit_offset(0x0c)
    2883                      .dwattr $C$DW$156, DW_AT_bit_size(0x02)
    2884                      .dwattr $C$DW$156, DW_AT_data_member_location[DW_OP_plus_uconst 0x0]
    2885                      .dwattr $C$DW$156, DW_AT_accessibility(DW_ACCESS_public)
    2886              
    2887              $C$DW$157       .dwtag  DW_TAG_member
    2888                      .dwattr $C$DW$157, DW_AT_type(*$C$DW$T$19)
    2889                      .dwattr $C$DW$157, DW_AT_name("SOC10")
    2890                      .dwattr $C$DW$157, DW_AT_TI_symbol_name("_SOC10")
    2891                      .dwattr $C$DW$157, DW_AT_bit_offset(0x0a)
    2892                      .dwattr $C$DW$157, DW_AT_bit_size(0x02)
    2893                      .dwattr $C$DW$157, DW_AT_data_member_location[DW_OP_plus_uconst 0x0]
    2894                      .dwattr $C$DW$157, DW_AT_accessibility(DW_ACCESS_public)
TMS320C2000 Assembler PC v16.9.6 Tue Mar 06 18:34:46 2018

Tools Copyright (c) 1996-2017 Texas Instruments Incorporated
C:\Users\Admin\AppData\Local\Temp\{ED9AE313-281A-4435-8F2A-5411619B06A2} PAGE   61

    2895              
    2896              $C$DW$158       .dwtag  DW_TAG_member
    2897                      .dwattr $C$DW$158, DW_AT_type(*$C$DW$T$19)
    2898                      .dwattr $C$DW$158, DW_AT_name("SOC11")
    2899                      .dwattr $C$DW$158, DW_AT_TI_symbol_name("_SOC11")
    2900                      .dwattr $C$DW$158, DW_AT_bit_offset(0x08)
    2901                      .dwattr $C$DW$158, DW_AT_bit_size(0x02)
    2902                      .dwattr $C$DW$158, DW_AT_data_member_location[DW_OP_plus_uconst 0x0]
    2903                      .dwattr $C$DW$158, DW_AT_accessibility(DW_ACCESS_public)
    2904              
    2905              $C$DW$159       .dwtag  DW_TAG_member
    2906                      .dwattr $C$DW$159, DW_AT_type(*$C$DW$T$19)
    2907                      .dwattr $C$DW$159, DW_AT_name("SOC12")
    2908                      .dwattr $C$DW$159, DW_AT_TI_symbol_name("_SOC12")
    2909                      .dwattr $C$DW$159, DW_AT_bit_offset(0x06)
    2910                      .dwattr $C$DW$159, DW_AT_bit_size(0x02)
    2911                      .dwattr $C$DW$159, DW_AT_data_member_location[DW_OP_plus_uconst 0x0]
    2912                      .dwattr $C$DW$159, DW_AT_accessibility(DW_ACCESS_public)
    2913              
    2914              $C$DW$160       .dwtag  DW_TAG_member
    2915                      .dwattr $C$DW$160, DW_AT_type(*$C$DW$T$19)
    2916                      .dwattr $C$DW$160, DW_AT_name("SOC13")
    2917                      .dwattr $C$DW$160, DW_AT_TI_symbol_name("_SOC13")
    2918                      .dwattr $C$DW$160, DW_AT_bit_offset(0x04)
    2919                      .dwattr $C$DW$160, DW_AT_bit_size(0x02)
    2920                      .dwattr $C$DW$160, DW_AT_data_member_location[DW_OP_plus_uconst 0x0]
    2921                      .dwattr $C$DW$160, DW_AT_accessibility(DW_ACCESS_public)
    2922              
    2923              $C$DW$161       .dwtag  DW_TAG_member
    2924                      .dwattr $C$DW$161, DW_AT_type(*$C$DW$T$19)
    2925                      .dwattr $C$DW$161, DW_AT_name("SOC14")
    2926                      .dwattr $C$DW$161, DW_AT_TI_symbol_name("_SOC14")
    2927                      .dwattr $C$DW$161, DW_AT_bit_offset(0x02)
    2928                      .dwattr $C$DW$161, DW_AT_bit_size(0x02)
    2929                      .dwattr $C$DW$161, DW_AT_data_member_location[DW_OP_plus_uconst 0x0]
    2930                      .dwattr $C$DW$161, DW_AT_accessibility(DW_ACCESS_public)
    2931              
    2932              $C$DW$162       .dwtag  DW_TAG_member
    2933                      .dwattr $C$DW$162, DW_AT_type(*$C$DW$T$19)
    2934                      .dwattr $C$DW$162, DW_AT_name("SOC15")
    2935                      .dwattr $C$DW$162, DW_AT_TI_symbol_name("_SOC15")
    2936                      .dwattr $C$DW$162, DW_AT_bit_offset(0x00)
    2937                      .dwattr $C$DW$162, DW_AT_bit_size(0x02)
    2938                      .dwattr $C$DW$162, DW_AT_data_member_location[DW_OP_plus_uconst 0x0]
    2939                      .dwattr $C$DW$162, DW_AT_accessibility(DW_ACCESS_public)
    2940              
    2941                      .dwendtag $C$DW$T$26
    2942              
    2943              
    2944              $C$DW$T$27      .dwtag  DW_TAG_union_type
    2945                      .dwattr $C$DW$T$27, DW_AT_name("ADCINTSOCSEL2_REG")
    2946                      .dwattr $C$DW$T$27, DW_AT_byte_size(0x01)
    2947              $C$DW$163       .dwtag  DW_TAG_member
    2948                      .dwattr $C$DW$163, DW_AT_type(*$C$DW$T$19)
    2949                      .dwattr $C$DW$163, DW_AT_name("all")
TMS320C2000 Assembler PC v16.9.6 Tue Mar 06 18:34:46 2018

Tools Copyright (c) 1996-2017 Texas Instruments Incorporated
C:\Users\Admin\AppData\Local\Temp\{ED9AE313-281A-4435-8F2A-5411619B06A2} PAGE   62

    2950                      .dwattr $C$DW$163, DW_AT_TI_symbol_name("_all")
    2951                      .dwattr $C$DW$163, DW_AT_data_member_location[DW_OP_plus_uconst 0x0]
    2952                      .dwattr $C$DW$163, DW_AT_accessibility(DW_ACCESS_public)
    2953              
    2954              $C$DW$164       .dwtag  DW_TAG_member
    2955                      .dwattr $C$DW$164, DW_AT_type(*$C$DW$T$26)
    2956                      .dwattr $C$DW$164, DW_AT_name("bit")
    2957                      .dwattr $C$DW$164, DW_AT_TI_symbol_name("_bit")
    2958                      .dwattr $C$DW$164, DW_AT_data_member_location[DW_OP_plus_uconst 0x0]
    2959                      .dwattr $C$DW$164, DW_AT_accessibility(DW_ACCESS_public)
    2960              
    2961                      .dwendtag $C$DW$T$27
    2962              
    2963              
    2964              $C$DW$T$28      .dwtag  DW_TAG_structure_type
    2965                      .dwattr $C$DW$T$28, DW_AT_name("ADCINT_BITS")
    2966                      .dwattr $C$DW$T$28, DW_AT_byte_size(0x01)
    2967              $C$DW$165       .dwtag  DW_TAG_member
    2968                      .dwattr $C$DW$165, DW_AT_type(*$C$DW$T$19)
    2969                      .dwattr $C$DW$165, DW_AT_name("ADCINT1")
    2970                      .dwattr $C$DW$165, DW_AT_TI_symbol_name("_ADCINT1")
    2971                      .dwattr $C$DW$165, DW_AT_bit_offset(0x0f)
    2972                      .dwattr $C$DW$165, DW_AT_bit_size(0x01)
    2973                      .dwattr $C$DW$165, DW_AT_data_member_location[DW_OP_plus_uconst 0x0]
    2974                      .dwattr $C$DW$165, DW_AT_accessibility(DW_ACCESS_public)
    2975              
    2976              $C$DW$166       .dwtag  DW_TAG_member
    2977                      .dwattr $C$DW$166, DW_AT_type(*$C$DW$T$19)
    2978                      .dwattr $C$DW$166, DW_AT_name("ADCINT2")
    2979                      .dwattr $C$DW$166, DW_AT_TI_symbol_name("_ADCINT2")
    2980                      .dwattr $C$DW$166, DW_AT_bit_offset(0x0e)
    2981                      .dwattr $C$DW$166, DW_AT_bit_size(0x01)
    2982                      .dwattr $C$DW$166, DW_AT_data_member_location[DW_OP_plus_uconst 0x0]
    2983                      .dwattr $C$DW$166, DW_AT_accessibility(DW_ACCESS_public)
    2984              
    2985              $C$DW$167       .dwtag  DW_TAG_member
    2986                      .dwattr $C$DW$167, DW_AT_type(*$C$DW$T$19)
    2987                      .dwattr $C$DW$167, DW_AT_name("ADCINT3")
    2988                      .dwattr $C$DW$167, DW_AT_TI_symbol_name("_ADCINT3")
    2989                      .dwattr $C$DW$167, DW_AT_bit_offset(0x0d)
    2990                      .dwattr $C$DW$167, DW_AT_bit_size(0x01)
    2991                      .dwattr $C$DW$167, DW_AT_data_member_location[DW_OP_plus_uconst 0x0]
    2992                      .dwattr $C$DW$167, DW_AT_accessibility(DW_ACCESS_public)
    2993              
    2994              $C$DW$168       .dwtag  DW_TAG_member
    2995                      .dwattr $C$DW$168, DW_AT_type(*$C$DW$T$19)
    2996                      .dwattr $C$DW$168, DW_AT_name("ADCINT4")
    2997                      .dwattr $C$DW$168, DW_AT_TI_symbol_name("_ADCINT4")
    2998                      .dwattr $C$DW$168, DW_AT_bit_offset(0x0c)
    2999                      .dwattr $C$DW$168, DW_AT_bit_size(0x01)
    3000                      .dwattr $C$DW$168, DW_AT_data_member_location[DW_OP_plus_uconst 0x0]
    3001                      .dwattr $C$DW$168, DW_AT_accessibility(DW_ACCESS_public)
    3002              
    3003              $C$DW$169       .dwtag  DW_TAG_member
    3004                      .dwattr $C$DW$169, DW_AT_type(*$C$DW$T$19)
TMS320C2000 Assembler PC v16.9.6 Tue Mar 06 18:34:46 2018

Tools Copyright (c) 1996-2017 Texas Instruments Incorporated
C:\Users\Admin\AppData\Local\Temp\{ED9AE313-281A-4435-8F2A-5411619B06A2} PAGE   63

    3005                      .dwattr $C$DW$169, DW_AT_name("ADCINT5")
    3006                      .dwattr $C$DW$169, DW_AT_TI_symbol_name("_ADCINT5")
    3007                      .dwattr $C$DW$169, DW_AT_bit_offset(0x0b)
    3008                      .dwattr $C$DW$169, DW_AT_bit_size(0x01)
    3009                      .dwattr $C$DW$169, DW_AT_data_member_location[DW_OP_plus_uconst 0x0]
    3010                      .dwattr $C$DW$169, DW_AT_accessibility(DW_ACCESS_public)
    3011              
    3012              $C$DW$170       .dwtag  DW_TAG_member
    3013                      .dwattr $C$DW$170, DW_AT_type(*$C$DW$T$19)
    3014                      .dwattr $C$DW$170, DW_AT_name("ADCINT6")
    3015                      .dwattr $C$DW$170, DW_AT_TI_symbol_name("_ADCINT6")
    3016                      .dwattr $C$DW$170, DW_AT_bit_offset(0x0a)
    3017                      .dwattr $C$DW$170, DW_AT_bit_size(0x01)
    3018                      .dwattr $C$DW$170, DW_AT_data_member_location[DW_OP_plus_uconst 0x0]
    3019                      .dwattr $C$DW$170, DW_AT_accessibility(DW_ACCESS_public)
    3020              
    3021              $C$DW$171       .dwtag  DW_TAG_member
    3022                      .dwattr $C$DW$171, DW_AT_type(*$C$DW$T$19)
    3023                      .dwattr $C$DW$171, DW_AT_name("ADCINT7")
    3024                      .dwattr $C$DW$171, DW_AT_TI_symbol_name("_ADCINT7")
    3025                      .dwattr $C$DW$171, DW_AT_bit_offset(0x09)
    3026                      .dwattr $C$DW$171, DW_AT_bit_size(0x01)
    3027                      .dwattr $C$DW$171, DW_AT_data_member_location[DW_OP_plus_uconst 0x0]
    3028                      .dwattr $C$DW$171, DW_AT_accessibility(DW_ACCESS_public)
    3029              
    3030              $C$DW$172       .dwtag  DW_TAG_member
    3031                      .dwattr $C$DW$172, DW_AT_type(*$C$DW$T$19)
    3032                      .dwattr $C$DW$172, DW_AT_name("ADCINT8")
    3033                      .dwattr $C$DW$172, DW_AT_TI_symbol_name("_ADCINT8")
    3034                      .dwattr $C$DW$172, DW_AT_bit_offset(0x08)
    3035                      .dwattr $C$DW$172, DW_AT_bit_size(0x01)
    3036                      .dwattr $C$DW$172, DW_AT_data_member_location[DW_OP_plus_uconst 0x0]
    3037                      .dwattr $C$DW$172, DW_AT_accessibility(DW_ACCESS_public)
    3038              
    3039              $C$DW$173       .dwtag  DW_TAG_member
    3040                      .dwattr $C$DW$173, DW_AT_type(*$C$DW$T$19)
    3041                      .dwattr $C$DW$173, DW_AT_name("ADCINT9")
    3042                      .dwattr $C$DW$173, DW_AT_TI_symbol_name("_ADCINT9")
    3043                      .dwattr $C$DW$173, DW_AT_bit_offset(0x07)
    3044                      .dwattr $C$DW$173, DW_AT_bit_size(0x01)
    3045                      .dwattr $C$DW$173, DW_AT_data_member_location[DW_OP_plus_uconst 0x0]
    3046                      .dwattr $C$DW$173, DW_AT_accessibility(DW_ACCESS_public)
    3047              
    3048              $C$DW$174       .dwtag  DW_TAG_member
    3049                      .dwattr $C$DW$174, DW_AT_type(*$C$DW$T$19)
    3050                      .dwattr $C$DW$174, DW_AT_name("rsvd1")
    3051                      .dwattr $C$DW$174, DW_AT_TI_symbol_name("_rsvd1")
    3052                      .dwattr $C$DW$174, DW_AT_bit_offset(0x00)
    3053                      .dwattr $C$DW$174, DW_AT_bit_size(0x07)
    3054                      .dwattr $C$DW$174, DW_AT_data_member_location[DW_OP_plus_uconst 0x0]
    3055                      .dwattr $C$DW$174, DW_AT_accessibility(DW_ACCESS_public)
    3056              
    3057                      .dwendtag $C$DW$T$28
    3058              
    3059              
TMS320C2000 Assembler PC v16.9.6 Tue Mar 06 18:34:46 2018

Tools Copyright (c) 1996-2017 Texas Instruments Incorporated
C:\Users\Admin\AppData\Local\Temp\{ED9AE313-281A-4435-8F2A-5411619B06A2} PAGE   64

    3060              $C$DW$T$29      .dwtag  DW_TAG_union_type
    3061                      .dwattr $C$DW$T$29, DW_AT_name("ADCINT_REG")
    3062                      .dwattr $C$DW$T$29, DW_AT_byte_size(0x01)
    3063              $C$DW$175       .dwtag  DW_TAG_member
    3064                      .dwattr $C$DW$175, DW_AT_type(*$C$DW$T$19)
    3065                      .dwattr $C$DW$175, DW_AT_name("all")
    3066                      .dwattr $C$DW$175, DW_AT_TI_symbol_name("_all")
    3067                      .dwattr $C$DW$175, DW_AT_data_member_location[DW_OP_plus_uconst 0x0]
    3068                      .dwattr $C$DW$175, DW_AT_accessibility(DW_ACCESS_public)
    3069              
    3070              $C$DW$176       .dwtag  DW_TAG_member
    3071                      .dwattr $C$DW$176, DW_AT_type(*$C$DW$T$28)
    3072                      .dwattr $C$DW$176, DW_AT_name("bit")
    3073                      .dwattr $C$DW$176, DW_AT_TI_symbol_name("_bit")
    3074                      .dwattr $C$DW$176, DW_AT_data_member_location[DW_OP_plus_uconst 0x0]
    3075                      .dwattr $C$DW$176, DW_AT_accessibility(DW_ACCESS_public)
    3076              
    3077                      .dwendtag $C$DW$T$29
    3078              
    3079              
    3080              $C$DW$T$31      .dwtag  DW_TAG_structure_type
    3081                      .dwattr $C$DW$T$31, DW_AT_name("ADCOFFTRIM_BITS")
    3082                      .dwattr $C$DW$T$31, DW_AT_byte_size(0x01)
    3083              $C$DW$177       .dwtag  DW_TAG_member
    3084                      .dwattr $C$DW$177, DW_AT_type(*$C$DW$T$30)
    3085                      .dwattr $C$DW$177, DW_AT_name("OFFTRIM")
    3086                      .dwattr $C$DW$177, DW_AT_TI_symbol_name("_OFFTRIM")
    3087                      .dwattr $C$DW$177, DW_AT_bit_offset(0x07)
    3088                      .dwattr $C$DW$177, DW_AT_bit_size(0x09)
    3089                      .dwattr $C$DW$177, DW_AT_data_member_location[DW_OP_plus_uconst 0x0]
    3090                      .dwattr $C$DW$177, DW_AT_accessibility(DW_ACCESS_public)
    3091              
    3092              $C$DW$178       .dwtag  DW_TAG_member
    3093                      .dwattr $C$DW$178, DW_AT_type(*$C$DW$T$19)
    3094                      .dwattr $C$DW$178, DW_AT_name("rsvd1")
    3095                      .dwattr $C$DW$178, DW_AT_TI_symbol_name("_rsvd1")
    3096                      .dwattr $C$DW$178, DW_AT_bit_offset(0x00)
    3097                      .dwattr $C$DW$178, DW_AT_bit_size(0x07)
    3098                      .dwattr $C$DW$178, DW_AT_data_member_location[DW_OP_plus_uconst 0x0]
    3099                      .dwattr $C$DW$178, DW_AT_accessibility(DW_ACCESS_public)
    3100              
    3101                      .dwendtag $C$DW$T$31
    3102              
    3103              
    3104              $C$DW$T$32      .dwtag  DW_TAG_union_type
    3105                      .dwattr $C$DW$T$32, DW_AT_name("ADCOFFTRIM_REG")
    3106                      .dwattr $C$DW$T$32, DW_AT_byte_size(0x01)
    3107              $C$DW$179       .dwtag  DW_TAG_member
    3108                      .dwattr $C$DW$179, DW_AT_type(*$C$DW$T$19)
    3109                      .dwattr $C$DW$179, DW_AT_name("all")
    3110                      .dwattr $C$DW$179, DW_AT_TI_symbol_name("_all")
    3111                      .dwattr $C$DW$179, DW_AT_data_member_location[DW_OP_plus_uconst 0x0]
    3112                      .dwattr $C$DW$179, DW_AT_accessibility(DW_ACCESS_public)
    3113              
    3114              $C$DW$180       .dwtag  DW_TAG_member
TMS320C2000 Assembler PC v16.9.6 Tue Mar 06 18:34:46 2018

Tools Copyright (c) 1996-2017 Texas Instruments Incorporated
C:\Users\Admin\AppData\Local\Temp\{ED9AE313-281A-4435-8F2A-5411619B06A2} PAGE   65

    3115                      .dwattr $C$DW$180, DW_AT_type(*$C$DW$T$31)
    3116                      .dwattr $C$DW$180, DW_AT_name("bit")
    3117                      .dwattr $C$DW$180, DW_AT_TI_symbol_name("_bit")
    3118                      .dwattr $C$DW$180, DW_AT_data_member_location[DW_OP_plus_uconst 0x0]
    3119                      .dwattr $C$DW$180, DW_AT_accessibility(DW_ACCESS_public)
    3120              
    3121                      .dwendtag $C$DW$T$32
    3122              
    3123              
    3124              $C$DW$T$33      .dwtag  DW_TAG_structure_type
    3125                      .dwattr $C$DW$T$33, DW_AT_name("ADCREFTRIM_BITS")
    3126                      .dwattr $C$DW$T$33, DW_AT_byte_size(0x01)
    3127              $C$DW$181       .dwtag  DW_TAG_member
    3128                      .dwattr $C$DW$181, DW_AT_type(*$C$DW$T$19)
    3129                      .dwattr $C$DW$181, DW_AT_name("BG_FINE_TRIM")
    3130                      .dwattr $C$DW$181, DW_AT_TI_symbol_name("_BG_FINE_TRIM")
    3131                      .dwattr $C$DW$181, DW_AT_bit_offset(0x0c)
    3132                      .dwattr $C$DW$181, DW_AT_bit_size(0x04)
    3133                      .dwattr $C$DW$181, DW_AT_data_member_location[DW_OP_plus_uconst 0x0]
    3134                      .dwattr $C$DW$181, DW_AT_accessibility(DW_ACCESS_public)
    3135              
    3136              $C$DW$182       .dwtag  DW_TAG_member
    3137                      .dwattr $C$DW$182, DW_AT_type(*$C$DW$T$19)
    3138                      .dwattr $C$DW$182, DW_AT_name("BG_COARSE_TRIM")
    3139                      .dwattr $C$DW$182, DW_AT_TI_symbol_name("_BG_COARSE_TRIM")
    3140                      .dwattr $C$DW$182, DW_AT_bit_offset(0x07)
    3141                      .dwattr $C$DW$182, DW_AT_bit_size(0x05)
    3142                      .dwattr $C$DW$182, DW_AT_data_member_location[DW_OP_plus_uconst 0x0]
    3143                      .dwattr $C$DW$182, DW_AT_accessibility(DW_ACCESS_public)
    3144              
    3145              $C$DW$183       .dwtag  DW_TAG_member
    3146                      .dwattr $C$DW$183, DW_AT_type(*$C$DW$T$19)
    3147                      .dwattr $C$DW$183, DW_AT_name("EXTREF_FINE_TRIM")
    3148                      .dwattr $C$DW$183, DW_AT_TI_symbol_name("_EXTREF_FINE_TRIM")
    3149                      .dwattr $C$DW$183, DW_AT_bit_offset(0x02)
    3150                      .dwattr $C$DW$183, DW_AT_bit_size(0x05)
    3151                      .dwattr $C$DW$183, DW_AT_data_member_location[DW_OP_plus_uconst 0x0]
    3152                      .dwattr $C$DW$183, DW_AT_accessibility(DW_ACCESS_public)
    3153              
    3154              $C$DW$184       .dwtag  DW_TAG_member
    3155                      .dwattr $C$DW$184, DW_AT_type(*$C$DW$T$19)
    3156                      .dwattr $C$DW$184, DW_AT_name("rsvd1")
    3157                      .dwattr $C$DW$184, DW_AT_TI_symbol_name("_rsvd1")
    3158                      .dwattr $C$DW$184, DW_AT_bit_offset(0x00)
    3159                      .dwattr $C$DW$184, DW_AT_bit_size(0x02)
    3160                      .dwattr $C$DW$184, DW_AT_data_member_location[DW_OP_plus_uconst 0x0]
    3161                      .dwattr $C$DW$184, DW_AT_accessibility(DW_ACCESS_public)
    3162              
    3163                      .dwendtag $C$DW$T$33
    3164              
    3165              
    3166              $C$DW$T$34      .dwtag  DW_TAG_union_type
    3167                      .dwattr $C$DW$T$34, DW_AT_name("ADCREFTRIM_REG")
    3168                      .dwattr $C$DW$T$34, DW_AT_byte_size(0x01)
    3169              $C$DW$185       .dwtag  DW_TAG_member
TMS320C2000 Assembler PC v16.9.6 Tue Mar 06 18:34:46 2018

Tools Copyright (c) 1996-2017 Texas Instruments Incorporated
C:\Users\Admin\AppData\Local\Temp\{ED9AE313-281A-4435-8F2A-5411619B06A2} PAGE   66

    3170                      .dwattr $C$DW$185, DW_AT_type(*$C$DW$T$19)
    3171                      .dwattr $C$DW$185, DW_AT_name("all")
    3172                      .dwattr $C$DW$185, DW_AT_TI_symbol_name("_all")
    3173                      .dwattr $C$DW$185, DW_AT_data_member_location[DW_OP_plus_uconst 0x0]
    3174                      .dwattr $C$DW$185, DW_AT_accessibility(DW_ACCESS_public)
    3175              
    3176              $C$DW$186       .dwtag  DW_TAG_member
    3177                      .dwattr $C$DW$186, DW_AT_type(*$C$DW$T$33)
    3178                      .dwattr $C$DW$186, DW_AT_name("bit")
    3179                      .dwattr $C$DW$186, DW_AT_TI_symbol_name("_bit")
    3180                      .dwattr $C$DW$186, DW_AT_data_member_location[DW_OP_plus_uconst 0x0]
    3181                      .dwattr $C$DW$186, DW_AT_accessibility(DW_ACCESS_public)
    3182              
    3183                      .dwendtag $C$DW$T$34
    3184              
    3185              
    3186              $C$DW$T$35      .dwtag  DW_TAG_structure_type
    3187                      .dwattr $C$DW$T$35, DW_AT_name("ADCSAMPLEMODE_BITS")
    3188                      .dwattr $C$DW$T$35, DW_AT_byte_size(0x01)
    3189              $C$DW$187       .dwtag  DW_TAG_member
    3190                      .dwattr $C$DW$187, DW_AT_type(*$C$DW$T$19)
    3191                      .dwattr $C$DW$187, DW_AT_name("SIMULEN0")
    3192                      .dwattr $C$DW$187, DW_AT_TI_symbol_name("_SIMULEN0")
    3193                      .dwattr $C$DW$187, DW_AT_bit_offset(0x0f)
    3194                      .dwattr $C$DW$187, DW_AT_bit_size(0x01)
    3195                      .dwattr $C$DW$187, DW_AT_data_member_location[DW_OP_plus_uconst 0x0]
    3196                      .dwattr $C$DW$187, DW_AT_accessibility(DW_ACCESS_public)
    3197              
    3198              $C$DW$188       .dwtag  DW_TAG_member
    3199                      .dwattr $C$DW$188, DW_AT_type(*$C$DW$T$19)
    3200                      .dwattr $C$DW$188, DW_AT_name("SIMULEN2")
    3201                      .dwattr $C$DW$188, DW_AT_TI_symbol_name("_SIMULEN2")
    3202                      .dwattr $C$DW$188, DW_AT_bit_offset(0x0e)
    3203                      .dwattr $C$DW$188, DW_AT_bit_size(0x01)
    3204                      .dwattr $C$DW$188, DW_AT_data_member_location[DW_OP_plus_uconst 0x0]
    3205                      .dwattr $C$DW$188, DW_AT_accessibility(DW_ACCESS_public)
    3206              
    3207              $C$DW$189       .dwtag  DW_TAG_member
    3208                      .dwattr $C$DW$189, DW_AT_type(*$C$DW$T$19)
    3209                      .dwattr $C$DW$189, DW_AT_name("SIMULEN4")
    3210                      .dwattr $C$DW$189, DW_AT_TI_symbol_name("_SIMULEN4")
    3211                      .dwattr $C$DW$189, DW_AT_bit_offset(0x0d)
    3212                      .dwattr $C$DW$189, DW_AT_bit_size(0x01)
    3213                      .dwattr $C$DW$189, DW_AT_data_member_location[DW_OP_plus_uconst 0x0]
    3214                      .dwattr $C$DW$189, DW_AT_accessibility(DW_ACCESS_public)
    3215              
    3216              $C$DW$190       .dwtag  DW_TAG_member
    3217                      .dwattr $C$DW$190, DW_AT_type(*$C$DW$T$19)
    3218                      .dwattr $C$DW$190, DW_AT_name("SIMULEN6")
    3219                      .dwattr $C$DW$190, DW_AT_TI_symbol_name("_SIMULEN6")
    3220                      .dwattr $C$DW$190, DW_AT_bit_offset(0x0c)
    3221                      .dwattr $C$DW$190, DW_AT_bit_size(0x01)
    3222                      .dwattr $C$DW$190, DW_AT_data_member_location[DW_OP_plus_uconst 0x0]
    3223                      .dwattr $C$DW$190, DW_AT_accessibility(DW_ACCESS_public)
    3224              
TMS320C2000 Assembler PC v16.9.6 Tue Mar 06 18:34:46 2018

Tools Copyright (c) 1996-2017 Texas Instruments Incorporated
C:\Users\Admin\AppData\Local\Temp\{ED9AE313-281A-4435-8F2A-5411619B06A2} PAGE   67

    3225              $C$DW$191       .dwtag  DW_TAG_member
    3226                      .dwattr $C$DW$191, DW_AT_type(*$C$DW$T$19)
    3227                      .dwattr $C$DW$191, DW_AT_name("SIMULEN8")
    3228                      .dwattr $C$DW$191, DW_AT_TI_symbol_name("_SIMULEN8")
    3229                      .dwattr $C$DW$191, DW_AT_bit_offset(0x0b)
    3230                      .dwattr $C$DW$191, DW_AT_bit_size(0x01)
    3231                      .dwattr $C$DW$191, DW_AT_data_member_location[DW_OP_plus_uconst 0x0]
    3232                      .dwattr $C$DW$191, DW_AT_accessibility(DW_ACCESS_public)
    3233              
    3234              $C$DW$192       .dwtag  DW_TAG_member
    3235                      .dwattr $C$DW$192, DW_AT_type(*$C$DW$T$19)
    3236                      .dwattr $C$DW$192, DW_AT_name("SIMULEN10")
    3237                      .dwattr $C$DW$192, DW_AT_TI_symbol_name("_SIMULEN10")
    3238                      .dwattr $C$DW$192, DW_AT_bit_offset(0x0a)
    3239                      .dwattr $C$DW$192, DW_AT_bit_size(0x01)
    3240                      .dwattr $C$DW$192, DW_AT_data_member_location[DW_OP_plus_uconst 0x0]
    3241                      .dwattr $C$DW$192, DW_AT_accessibility(DW_ACCESS_public)
    3242              
    3243              $C$DW$193       .dwtag  DW_TAG_member
    3244                      .dwattr $C$DW$193, DW_AT_type(*$C$DW$T$19)
    3245                      .dwattr $C$DW$193, DW_AT_name("SIMULEN12")
    3246                      .dwattr $C$DW$193, DW_AT_TI_symbol_name("_SIMULEN12")
    3247                      .dwattr $C$DW$193, DW_AT_bit_offset(0x09)
    3248                      .dwattr $C$DW$193, DW_AT_bit_size(0x01)
    3249                      .dwattr $C$DW$193, DW_AT_data_member_location[DW_OP_plus_uconst 0x0]
    3250                      .dwattr $C$DW$193, DW_AT_accessibility(DW_ACCESS_public)
    3251              
    3252              $C$DW$194       .dwtag  DW_TAG_member
    3253                      .dwattr $C$DW$194, DW_AT_type(*$C$DW$T$19)
    3254                      .dwattr $C$DW$194, DW_AT_name("SIMULEN14")
    3255                      .dwattr $C$DW$194, DW_AT_TI_symbol_name("_SIMULEN14")
    3256                      .dwattr $C$DW$194, DW_AT_bit_offset(0x08)
    3257                      .dwattr $C$DW$194, DW_AT_bit_size(0x01)
    3258                      .dwattr $C$DW$194, DW_AT_data_member_location[DW_OP_plus_uconst 0x0]
    3259                      .dwattr $C$DW$194, DW_AT_accessibility(DW_ACCESS_public)
    3260              
    3261              $C$DW$195       .dwtag  DW_TAG_member
    3262                      .dwattr $C$DW$195, DW_AT_type(*$C$DW$T$19)
    3263                      .dwattr $C$DW$195, DW_AT_name("rsvd1")
    3264                      .dwattr $C$DW$195, DW_AT_TI_symbol_name("_rsvd1")
    3265                      .dwattr $C$DW$195, DW_AT_bit_offset(0x00)
    3266                      .dwattr $C$DW$195, DW_AT_bit_size(0x08)
    3267                      .dwattr $C$DW$195, DW_AT_data_member_location[DW_OP_plus_uconst 0x0]
    3268                      .dwattr $C$DW$195, DW_AT_accessibility(DW_ACCESS_public)
    3269              
    3270                      .dwendtag $C$DW$T$35
    3271              
    3272              
    3273              $C$DW$T$36      .dwtag  DW_TAG_union_type
    3274                      .dwattr $C$DW$T$36, DW_AT_name("ADCSAMPLEMODE_REG")
    3275                      .dwattr $C$DW$T$36, DW_AT_byte_size(0x01)
    3276              $C$DW$196       .dwtag  DW_TAG_member
    3277                      .dwattr $C$DW$196, DW_AT_type(*$C$DW$T$19)
    3278                      .dwattr $C$DW$196, DW_AT_name("all")
    3279                      .dwattr $C$DW$196, DW_AT_TI_symbol_name("_all")
TMS320C2000 Assembler PC v16.9.6 Tue Mar 06 18:34:46 2018

Tools Copyright (c) 1996-2017 Texas Instruments Incorporated
C:\Users\Admin\AppData\Local\Temp\{ED9AE313-281A-4435-8F2A-5411619B06A2} PAGE   68

    3280                      .dwattr $C$DW$196, DW_AT_data_member_location[DW_OP_plus_uconst 0x0]
    3281                      .dwattr $C$DW$196, DW_AT_accessibility(DW_ACCESS_public)
    3282              
    3283              $C$DW$197       .dwtag  DW_TAG_member
    3284                      .dwattr $C$DW$197, DW_AT_type(*$C$DW$T$35)
    3285                      .dwattr $C$DW$197, DW_AT_name("bit")
    3286                      .dwattr $C$DW$197, DW_AT_TI_symbol_name("_bit")
    3287                      .dwattr $C$DW$197, DW_AT_data_member_location[DW_OP_plus_uconst 0x0]
    3288                      .dwattr $C$DW$197, DW_AT_accessibility(DW_ACCESS_public)
    3289              
    3290                      .dwendtag $C$DW$T$36
    3291              
    3292              
    3293              $C$DW$T$37      .dwtag  DW_TAG_structure_type
    3294                      .dwattr $C$DW$T$37, DW_AT_name("ADCSOC_BITS")
    3295                      .dwattr $C$DW$T$37, DW_AT_byte_size(0x01)
    3296              $C$DW$198       .dwtag  DW_TAG_member
    3297                      .dwattr $C$DW$198, DW_AT_type(*$C$DW$T$19)
    3298                      .dwattr $C$DW$198, DW_AT_name("SOC0")
    3299                      .dwattr $C$DW$198, DW_AT_TI_symbol_name("_SOC0")
    3300                      .dwattr $C$DW$198, DW_AT_bit_offset(0x0f)
    3301                      .dwattr $C$DW$198, DW_AT_bit_size(0x01)
    3302                      .dwattr $C$DW$198, DW_AT_data_member_location[DW_OP_plus_uconst 0x0]
    3303                      .dwattr $C$DW$198, DW_AT_accessibility(DW_ACCESS_public)
    3304              
    3305              $C$DW$199       .dwtag  DW_TAG_member
    3306                      .dwattr $C$DW$199, DW_AT_type(*$C$DW$T$19)
    3307                      .dwattr $C$DW$199, DW_AT_name("SOC1")
    3308                      .dwattr $C$DW$199, DW_AT_TI_symbol_name("_SOC1")
    3309                      .dwattr $C$DW$199, DW_AT_bit_offset(0x0e)
    3310                      .dwattr $C$DW$199, DW_AT_bit_size(0x01)
    3311                      .dwattr $C$DW$199, DW_AT_data_member_location[DW_OP_plus_uconst 0x0]
    3312                      .dwattr $C$DW$199, DW_AT_accessibility(DW_ACCESS_public)
    3313              
    3314              $C$DW$200       .dwtag  DW_TAG_member
    3315                      .dwattr $C$DW$200, DW_AT_type(*$C$DW$T$19)
    3316                      .dwattr $C$DW$200, DW_AT_name("SOC2")
    3317                      .dwattr $C$DW$200, DW_AT_TI_symbol_name("_SOC2")
    3318                      .dwattr $C$DW$200, DW_AT_bit_offset(0x0d)
    3319                      .dwattr $C$DW$200, DW_AT_bit_size(0x01)
    3320                      .dwattr $C$DW$200, DW_AT_data_member_location[DW_OP_plus_uconst 0x0]
    3321                      .dwattr $C$DW$200, DW_AT_accessibility(DW_ACCESS_public)
    3322              
    3323              $C$DW$201       .dwtag  DW_TAG_member
    3324                      .dwattr $C$DW$201, DW_AT_type(*$C$DW$T$19)
    3325                      .dwattr $C$DW$201, DW_AT_name("SOC3")
    3326                      .dwattr $C$DW$201, DW_AT_TI_symbol_name("_SOC3")
    3327                      .dwattr $C$DW$201, DW_AT_bit_offset(0x0c)
    3328                      .dwattr $C$DW$201, DW_AT_bit_size(0x01)
    3329                      .dwattr $C$DW$201, DW_AT_data_member_location[DW_OP_plus_uconst 0x0]
    3330                      .dwattr $C$DW$201, DW_AT_accessibility(DW_ACCESS_public)
    3331              
    3332              $C$DW$202       .dwtag  DW_TAG_member
    3333                      .dwattr $C$DW$202, DW_AT_type(*$C$DW$T$19)
    3334                      .dwattr $C$DW$202, DW_AT_name("SOC4")
TMS320C2000 Assembler PC v16.9.6 Tue Mar 06 18:34:46 2018

Tools Copyright (c) 1996-2017 Texas Instruments Incorporated
C:\Users\Admin\AppData\Local\Temp\{ED9AE313-281A-4435-8F2A-5411619B06A2} PAGE   69

    3335                      .dwattr $C$DW$202, DW_AT_TI_symbol_name("_SOC4")
    3336                      .dwattr $C$DW$202, DW_AT_bit_offset(0x0b)
    3337                      .dwattr $C$DW$202, DW_AT_bit_size(0x01)
    3338                      .dwattr $C$DW$202, DW_AT_data_member_location[DW_OP_plus_uconst 0x0]
    3339                      .dwattr $C$DW$202, DW_AT_accessibility(DW_ACCESS_public)
    3340              
    3341              $C$DW$203       .dwtag  DW_TAG_member
    3342                      .dwattr $C$DW$203, DW_AT_type(*$C$DW$T$19)
    3343                      .dwattr $C$DW$203, DW_AT_name("SOC5")
    3344                      .dwattr $C$DW$203, DW_AT_TI_symbol_name("_SOC5")
    3345                      .dwattr $C$DW$203, DW_AT_bit_offset(0x0a)
    3346                      .dwattr $C$DW$203, DW_AT_bit_size(0x01)
    3347                      .dwattr $C$DW$203, DW_AT_data_member_location[DW_OP_plus_uconst 0x0]
    3348                      .dwattr $C$DW$203, DW_AT_accessibility(DW_ACCESS_public)
    3349              
    3350              $C$DW$204       .dwtag  DW_TAG_member
    3351                      .dwattr $C$DW$204, DW_AT_type(*$C$DW$T$19)
    3352                      .dwattr $C$DW$204, DW_AT_name("SOC6")
    3353                      .dwattr $C$DW$204, DW_AT_TI_symbol_name("_SOC6")
    3354                      .dwattr $C$DW$204, DW_AT_bit_offset(0x09)
    3355                      .dwattr $C$DW$204, DW_AT_bit_size(0x01)
    3356                      .dwattr $C$DW$204, DW_AT_data_member_location[DW_OP_plus_uconst 0x0]
    3357                      .dwattr $C$DW$204, DW_AT_accessibility(DW_ACCESS_public)
    3358              
    3359              $C$DW$205       .dwtag  DW_TAG_member
    3360                      .dwattr $C$DW$205, DW_AT_type(*$C$DW$T$19)
    3361                      .dwattr $C$DW$205, DW_AT_name("SOC7")
    3362                      .dwattr $C$DW$205, DW_AT_TI_symbol_name("_SOC7")
    3363                      .dwattr $C$DW$205, DW_AT_bit_offset(0x08)
    3364                      .dwattr $C$DW$205, DW_AT_bit_size(0x01)
    3365                      .dwattr $C$DW$205, DW_AT_data_member_location[DW_OP_plus_uconst 0x0]
    3366                      .dwattr $C$DW$205, DW_AT_accessibility(DW_ACCESS_public)
    3367              
    3368              $C$DW$206       .dwtag  DW_TAG_member
    3369                      .dwattr $C$DW$206, DW_AT_type(*$C$DW$T$19)
    3370                      .dwattr $C$DW$206, DW_AT_name("SOC8")
    3371                      .dwattr $C$DW$206, DW_AT_TI_symbol_name("_SOC8")
    3372                      .dwattr $C$DW$206, DW_AT_bit_offset(0x07)
    3373                      .dwattr $C$DW$206, DW_AT_bit_size(0x01)
    3374                      .dwattr $C$DW$206, DW_AT_data_member_location[DW_OP_plus_uconst 0x0]
    3375                      .dwattr $C$DW$206, DW_AT_accessibility(DW_ACCESS_public)
    3376              
    3377              $C$DW$207       .dwtag  DW_TAG_member
    3378                      .dwattr $C$DW$207, DW_AT_type(*$C$DW$T$19)
    3379                      .dwattr $C$DW$207, DW_AT_name("SOC9")
    3380                      .dwattr $C$DW$207, DW_AT_TI_symbol_name("_SOC9")
    3381                      .dwattr $C$DW$207, DW_AT_bit_offset(0x06)
    3382                      .dwattr $C$DW$207, DW_AT_bit_size(0x01)
    3383                      .dwattr $C$DW$207, DW_AT_data_member_location[DW_OP_plus_uconst 0x0]
    3384                      .dwattr $C$DW$207, DW_AT_accessibility(DW_ACCESS_public)
    3385              
    3386              $C$DW$208       .dwtag  DW_TAG_member
    3387                      .dwattr $C$DW$208, DW_AT_type(*$C$DW$T$19)
    3388                      .dwattr $C$DW$208, DW_AT_name("SOC10")
    3389                      .dwattr $C$DW$208, DW_AT_TI_symbol_name("_SOC10")
TMS320C2000 Assembler PC v16.9.6 Tue Mar 06 18:34:46 2018

Tools Copyright (c) 1996-2017 Texas Instruments Incorporated
C:\Users\Admin\AppData\Local\Temp\{ED9AE313-281A-4435-8F2A-5411619B06A2} PAGE   70

    3390                      .dwattr $C$DW$208, DW_AT_bit_offset(0x05)
    3391                      .dwattr $C$DW$208, DW_AT_bit_size(0x01)
    3392                      .dwattr $C$DW$208, DW_AT_data_member_location[DW_OP_plus_uconst 0x0]
    3393                      .dwattr $C$DW$208, DW_AT_accessibility(DW_ACCESS_public)
    3394              
    3395              $C$DW$209       .dwtag  DW_TAG_member
    3396                      .dwattr $C$DW$209, DW_AT_type(*$C$DW$T$19)
    3397                      .dwattr $C$DW$209, DW_AT_name("SOC11")
    3398                      .dwattr $C$DW$209, DW_AT_TI_symbol_name("_SOC11")
    3399                      .dwattr $C$DW$209, DW_AT_bit_offset(0x04)
    3400                      .dwattr $C$DW$209, DW_AT_bit_size(0x01)
    3401                      .dwattr $C$DW$209, DW_AT_data_member_location[DW_OP_plus_uconst 0x0]
    3402                      .dwattr $C$DW$209, DW_AT_accessibility(DW_ACCESS_public)
    3403              
    3404              $C$DW$210       .dwtag  DW_TAG_member
    3405                      .dwattr $C$DW$210, DW_AT_type(*$C$DW$T$19)
    3406                      .dwattr $C$DW$210, DW_AT_name("SOC12")
    3407                      .dwattr $C$DW$210, DW_AT_TI_symbol_name("_SOC12")
    3408                      .dwattr $C$DW$210, DW_AT_bit_offset(0x03)
    3409                      .dwattr $C$DW$210, DW_AT_bit_size(0x01)
    3410                      .dwattr $C$DW$210, DW_AT_data_member_location[DW_OP_plus_uconst 0x0]
    3411                      .dwattr $C$DW$210, DW_AT_accessibility(DW_ACCESS_public)
    3412              
    3413              $C$DW$211       .dwtag  DW_TAG_member
    3414                      .dwattr $C$DW$211, DW_AT_type(*$C$DW$T$19)
    3415                      .dwattr $C$DW$211, DW_AT_name("SOC13")
    3416                      .dwattr $C$DW$211, DW_AT_TI_symbol_name("_SOC13")
    3417                      .dwattr $C$DW$211, DW_AT_bit_offset(0x02)
    3418                      .dwattr $C$DW$211, DW_AT_bit_size(0x01)
    3419                      .dwattr $C$DW$211, DW_AT_data_member_location[DW_OP_plus_uconst 0x0]
    3420                      .dwattr $C$DW$211, DW_AT_accessibility(DW_ACCESS_public)
    3421              
    3422              $C$DW$212       .dwtag  DW_TAG_member
    3423                      .dwattr $C$DW$212, DW_AT_type(*$C$DW$T$19)
    3424                      .dwattr $C$DW$212, DW_AT_name("SOC14")
    3425                      .dwattr $C$DW$212, DW_AT_TI_symbol_name("_SOC14")
    3426                      .dwattr $C$DW$212, DW_AT_bit_offset(0x01)
    3427                      .dwattr $C$DW$212, DW_AT_bit_size(0x01)
    3428                      .dwattr $C$DW$212, DW_AT_data_member_location[DW_OP_plus_uconst 0x0]
    3429                      .dwattr $C$DW$212, DW_AT_accessibility(DW_ACCESS_public)
    3430              
    3431              $C$DW$213       .dwtag  DW_TAG_member
    3432                      .dwattr $C$DW$213, DW_AT_type(*$C$DW$T$19)
    3433                      .dwattr $C$DW$213, DW_AT_name("SOC15")
    3434                      .dwattr $C$DW$213, DW_AT_TI_symbol_name("_SOC15")
    3435                      .dwattr $C$DW$213, DW_AT_bit_offset(0x00)
    3436                      .dwattr $C$DW$213, DW_AT_bit_size(0x01)
    3437                      .dwattr $C$DW$213, DW_AT_data_member_location[DW_OP_plus_uconst 0x0]
    3438                      .dwattr $C$DW$213, DW_AT_accessibility(DW_ACCESS_public)
    3439              
    3440                      .dwendtag $C$DW$T$37
    3441              
    3442              
    3443              $C$DW$T$38      .dwtag  DW_TAG_union_type
    3444                      .dwattr $C$DW$T$38, DW_AT_name("ADCSOC_REG")
TMS320C2000 Assembler PC v16.9.6 Tue Mar 06 18:34:46 2018

Tools Copyright (c) 1996-2017 Texas Instruments Incorporated
C:\Users\Admin\AppData\Local\Temp\{ED9AE313-281A-4435-8F2A-5411619B06A2} PAGE   71

    3445                      .dwattr $C$DW$T$38, DW_AT_byte_size(0x01)
    3446              $C$DW$214       .dwtag  DW_TAG_member
    3447                      .dwattr $C$DW$214, DW_AT_type(*$C$DW$T$19)
    3448                      .dwattr $C$DW$214, DW_AT_name("all")
    3449                      .dwattr $C$DW$214, DW_AT_TI_symbol_name("_all")
    3450                      .dwattr $C$DW$214, DW_AT_data_member_location[DW_OP_plus_uconst 0x0]
    3451                      .dwattr $C$DW$214, DW_AT_accessibility(DW_ACCESS_public)
    3452              
    3453              $C$DW$215       .dwtag  DW_TAG_member
    3454                      .dwattr $C$DW$215, DW_AT_type(*$C$DW$T$37)
    3455                      .dwattr $C$DW$215, DW_AT_name("bit")
    3456                      .dwattr $C$DW$215, DW_AT_TI_symbol_name("_bit")
    3457                      .dwattr $C$DW$215, DW_AT_data_member_location[DW_OP_plus_uconst 0x0]
    3458                      .dwattr $C$DW$215, DW_AT_accessibility(DW_ACCESS_public)
    3459              
    3460                      .dwendtag $C$DW$T$38
    3461              
    3462              
    3463              $C$DW$T$39      .dwtag  DW_TAG_structure_type
    3464                      .dwattr $C$DW$T$39, DW_AT_name("ADCSOCxCTL_BITS")
    3465                      .dwattr $C$DW$T$39, DW_AT_byte_size(0x01)
    3466              $C$DW$216       .dwtag  DW_TAG_member
    3467                      .dwattr $C$DW$216, DW_AT_type(*$C$DW$T$19)
    3468                      .dwattr $C$DW$216, DW_AT_name("ACQPS")
    3469                      .dwattr $C$DW$216, DW_AT_TI_symbol_name("_ACQPS")
    3470                      .dwattr $C$DW$216, DW_AT_bit_offset(0x0a)
    3471                      .dwattr $C$DW$216, DW_AT_bit_size(0x06)
    3472                      .dwattr $C$DW$216, DW_AT_data_member_location[DW_OP_plus_uconst 0x0]
    3473                      .dwattr $C$DW$216, DW_AT_accessibility(DW_ACCESS_public)
    3474              
    3475              $C$DW$217       .dwtag  DW_TAG_member
    3476                      .dwattr $C$DW$217, DW_AT_type(*$C$DW$T$19)
    3477                      .dwattr $C$DW$217, DW_AT_name("CHSEL")
    3478                      .dwattr $C$DW$217, DW_AT_TI_symbol_name("_CHSEL")
    3479                      .dwattr $C$DW$217, DW_AT_bit_offset(0x06)
    3480                      .dwattr $C$DW$217, DW_AT_bit_size(0x04)
    3481                      .dwattr $C$DW$217, DW_AT_data_member_location[DW_OP_plus_uconst 0x0]
    3482                      .dwattr $C$DW$217, DW_AT_accessibility(DW_ACCESS_public)
    3483              
    3484              $C$DW$218       .dwtag  DW_TAG_member
    3485                      .dwattr $C$DW$218, DW_AT_type(*$C$DW$T$19)
    3486                      .dwattr $C$DW$218, DW_AT_name("rsvd1")
    3487                      .dwattr $C$DW$218, DW_AT_TI_symbol_name("_rsvd1")
    3488                      .dwattr $C$DW$218, DW_AT_bit_offset(0x05)
    3489                      .dwattr $C$DW$218, DW_AT_bit_size(0x01)
    3490                      .dwattr $C$DW$218, DW_AT_data_member_location[DW_OP_plus_uconst 0x0]
    3491                      .dwattr $C$DW$218, DW_AT_accessibility(DW_ACCESS_public)
    3492              
    3493              $C$DW$219       .dwtag  DW_TAG_member
    3494                      .dwattr $C$DW$219, DW_AT_type(*$C$DW$T$19)
    3495                      .dwattr $C$DW$219, DW_AT_name("TRIGSEL")
    3496                      .dwattr $C$DW$219, DW_AT_TI_symbol_name("_TRIGSEL")
    3497                      .dwattr $C$DW$219, DW_AT_bit_offset(0x00)
    3498                      .dwattr $C$DW$219, DW_AT_bit_size(0x05)
    3499                      .dwattr $C$DW$219, DW_AT_data_member_location[DW_OP_plus_uconst 0x0]
TMS320C2000 Assembler PC v16.9.6 Tue Mar 06 18:34:46 2018

Tools Copyright (c) 1996-2017 Texas Instruments Incorporated
C:\Users\Admin\AppData\Local\Temp\{ED9AE313-281A-4435-8F2A-5411619B06A2} PAGE   72

    3500                      .dwattr $C$DW$219, DW_AT_accessibility(DW_ACCESS_public)
    3501              
    3502                      .dwendtag $C$DW$T$39
    3503              
    3504              
    3505              $C$DW$T$40      .dwtag  DW_TAG_union_type
    3506                      .dwattr $C$DW$T$40, DW_AT_name("ADCSOCxCTL_REG")
    3507                      .dwattr $C$DW$T$40, DW_AT_byte_size(0x01)
    3508              $C$DW$220       .dwtag  DW_TAG_member
    3509                      .dwattr $C$DW$220, DW_AT_type(*$C$DW$T$19)
    3510                      .dwattr $C$DW$220, DW_AT_name("all")
    3511                      .dwattr $C$DW$220, DW_AT_TI_symbol_name("_all")
    3512                      .dwattr $C$DW$220, DW_AT_data_member_location[DW_OP_plus_uconst 0x0]
    3513                      .dwattr $C$DW$220, DW_AT_accessibility(DW_ACCESS_public)
    3514              
    3515              $C$DW$221       .dwtag  DW_TAG_member
    3516                      .dwattr $C$DW$221, DW_AT_type(*$C$DW$T$39)
    3517                      .dwattr $C$DW$221, DW_AT_name("bit")
    3518                      .dwattr $C$DW$221, DW_AT_TI_symbol_name("_bit")
    3519                      .dwattr $C$DW$221, DW_AT_data_member_location[DW_OP_plus_uconst 0x0]
    3520                      .dwattr $C$DW$221, DW_AT_accessibility(DW_ACCESS_public)
    3521              
    3522                      .dwendtag $C$DW$T$40
    3523              
    3524              
    3525              $C$DW$T$45      .dwtag  DW_TAG_structure_type
    3526                      .dwattr $C$DW$T$45, DW_AT_name("ADC_REGS")
    3527                      .dwattr $C$DW$T$45, DW_AT_byte_size(0x50)
    3528              $C$DW$222       .dwtag  DW_TAG_member
    3529                      .dwattr $C$DW$222, DW_AT_type(*$C$DW$T$21)
    3530                      .dwattr $C$DW$222, DW_AT_name("ADCCTL1")
    3531                      .dwattr $C$DW$222, DW_AT_TI_symbol_name("_ADCCTL1")
    3532                      .dwattr $C$DW$222, DW_AT_data_member_location[DW_OP_plus_uconst 0x0]
    3533                      .dwattr $C$DW$222, DW_AT_accessibility(DW_ACCESS_public)
    3534              
    3535              $C$DW$223       .dwtag  DW_TAG_member
    3536                      .dwattr $C$DW$223, DW_AT_type(*$C$DW$T$23)
    3537                      .dwattr $C$DW$223, DW_AT_name("ADCCTL2")
    3538                      .dwattr $C$DW$223, DW_AT_TI_symbol_name("_ADCCTL2")
    3539                      .dwattr $C$DW$223, DW_AT_data_member_location[DW_OP_plus_uconst 0x1]
    3540                      .dwattr $C$DW$223, DW_AT_accessibility(DW_ACCESS_public)
    3541              
    3542              $C$DW$224       .dwtag  DW_TAG_member
    3543                      .dwattr $C$DW$224, DW_AT_type(*$C$DW$T$41)
    3544                      .dwattr $C$DW$224, DW_AT_name("rsvd1")
    3545                      .dwattr $C$DW$224, DW_AT_TI_symbol_name("_rsvd1")
    3546                      .dwattr $C$DW$224, DW_AT_data_member_location[DW_OP_plus_uconst 0x2]
    3547                      .dwattr $C$DW$224, DW_AT_accessibility(DW_ACCESS_public)
    3548              
    3549              $C$DW$225       .dwtag  DW_TAG_member
    3550                      .dwattr $C$DW$225, DW_AT_type(*$C$DW$T$29)
    3551                      .dwattr $C$DW$225, DW_AT_name("ADCINTFLG")
    3552                      .dwattr $C$DW$225, DW_AT_TI_symbol_name("_ADCINTFLG")
    3553                      .dwattr $C$DW$225, DW_AT_data_member_location[DW_OP_plus_uconst 0x4]
    3554                      .dwattr $C$DW$225, DW_AT_accessibility(DW_ACCESS_public)
TMS320C2000 Assembler PC v16.9.6 Tue Mar 06 18:34:46 2018

Tools Copyright (c) 1996-2017 Texas Instruments Incorporated
C:\Users\Admin\AppData\Local\Temp\{ED9AE313-281A-4435-8F2A-5411619B06A2} PAGE   73

    3555              
    3556              $C$DW$226       .dwtag  DW_TAG_member
    3557                      .dwattr $C$DW$226, DW_AT_type(*$C$DW$T$29)
    3558                      .dwattr $C$DW$226, DW_AT_name("ADCINTFLGCLR")
    3559                      .dwattr $C$DW$226, DW_AT_TI_symbol_name("_ADCINTFLGCLR")
    3560                      .dwattr $C$DW$226, DW_AT_data_member_location[DW_OP_plus_uconst 0x5]
    3561                      .dwattr $C$DW$226, DW_AT_accessibility(DW_ACCESS_public)
    3562              
    3563              $C$DW$227       .dwtag  DW_TAG_member
    3564                      .dwattr $C$DW$227, DW_AT_type(*$C$DW$T$29)
    3565                      .dwattr $C$DW$227, DW_AT_name("ADCINTOVF")
    3566                      .dwattr $C$DW$227, DW_AT_TI_symbol_name("_ADCINTOVF")
    3567                      .dwattr $C$DW$227, DW_AT_data_member_location[DW_OP_plus_uconst 0x6]
    3568                      .dwattr $C$DW$227, DW_AT_accessibility(DW_ACCESS_public)
    3569              
    3570              $C$DW$228       .dwtag  DW_TAG_member
    3571                      .dwattr $C$DW$228, DW_AT_type(*$C$DW$T$29)
    3572                      .dwattr $C$DW$228, DW_AT_name("ADCINTOVFCLR")
    3573                      .dwattr $C$DW$228, DW_AT_TI_symbol_name("_ADCINTOVFCLR")
    3574                      .dwattr $C$DW$228, DW_AT_data_member_location[DW_OP_plus_uconst 0x7]
    3575                      .dwattr $C$DW$228, DW_AT_accessibility(DW_ACCESS_public)
    3576              
    3577              $C$DW$229       .dwtag  DW_TAG_member
    3578                      .dwattr $C$DW$229, DW_AT_type(*$C$DW$T$133)
    3579                      .dwattr $C$DW$229, DW_AT_name("INTSEL1N2")
    3580                      .dwattr $C$DW$229, DW_AT_TI_symbol_name("_INTSEL1N2")
    3581                      .dwattr $C$DW$229, DW_AT_data_member_location[DW_OP_plus_uconst 0x8]
    3582                      .dwattr $C$DW$229, DW_AT_accessibility(DW_ACCESS_public)
    3583              
    3584              $C$DW$230       .dwtag  DW_TAG_member
    3585                      .dwattr $C$DW$230, DW_AT_type(*$C$DW$T$135)
    3586                      .dwattr $C$DW$230, DW_AT_name("INTSEL3N4")
    3587                      .dwattr $C$DW$230, DW_AT_TI_symbol_name("_INTSEL3N4")
    3588                      .dwattr $C$DW$230, DW_AT_data_member_location[DW_OP_plus_uconst 0x9]
    3589                      .dwattr $C$DW$230, DW_AT_accessibility(DW_ACCESS_public)
    3590              
    3591              $C$DW$231       .dwtag  DW_TAG_member
    3592                      .dwattr $C$DW$231, DW_AT_type(*$C$DW$T$137)
    3593                      .dwattr $C$DW$231, DW_AT_name("INTSEL5N6")
    3594                      .dwattr $C$DW$231, DW_AT_TI_symbol_name("_INTSEL5N6")
    3595                      .dwattr $C$DW$231, DW_AT_data_member_location[DW_OP_plus_uconst 0xa]
    3596                      .dwattr $C$DW$231, DW_AT_accessibility(DW_ACCESS_public)
    3597              
    3598              $C$DW$232       .dwtag  DW_TAG_member
    3599                      .dwattr $C$DW$232, DW_AT_type(*$C$DW$T$139)
    3600                      .dwattr $C$DW$232, DW_AT_name("INTSEL7N8")
    3601                      .dwattr $C$DW$232, DW_AT_TI_symbol_name("_INTSEL7N8")
    3602                      .dwattr $C$DW$232, DW_AT_data_member_location[DW_OP_plus_uconst 0xb]
    3603                      .dwattr $C$DW$232, DW_AT_accessibility(DW_ACCESS_public)
    3604              
    3605              $C$DW$233       .dwtag  DW_TAG_member
    3606                      .dwattr $C$DW$233, DW_AT_type(*$C$DW$T$141)
    3607                      .dwattr $C$DW$233, DW_AT_name("INTSEL9N10")
    3608                      .dwattr $C$DW$233, DW_AT_TI_symbol_name("_INTSEL9N10")
    3609                      .dwattr $C$DW$233, DW_AT_data_member_location[DW_OP_plus_uconst 0xc]
TMS320C2000 Assembler PC v16.9.6 Tue Mar 06 18:34:46 2018

Tools Copyright (c) 1996-2017 Texas Instruments Incorporated
C:\Users\Admin\AppData\Local\Temp\{ED9AE313-281A-4435-8F2A-5411619B06A2} PAGE   74

    3610                      .dwattr $C$DW$233, DW_AT_accessibility(DW_ACCESS_public)
    3611              
    3612              $C$DW$234       .dwtag  DW_TAG_member
    3613                      .dwattr $C$DW$234, DW_AT_type(*$C$DW$T$42)
    3614                      .dwattr $C$DW$234, DW_AT_name("rsvd2")
    3615                      .dwattr $C$DW$234, DW_AT_TI_symbol_name("_rsvd2")
    3616                      .dwattr $C$DW$234, DW_AT_data_member_location[DW_OP_plus_uconst 0xd]
    3617                      .dwattr $C$DW$234, DW_AT_accessibility(DW_ACCESS_public)
    3618              
    3619              $C$DW$235       .dwtag  DW_TAG_member
    3620                      .dwattr $C$DW$235, DW_AT_type(*$C$DW$T$172)
    3621                      .dwattr $C$DW$235, DW_AT_name("SOCPRICTL")
    3622                      .dwattr $C$DW$235, DW_AT_TI_symbol_name("_SOCPRICTL")
    3623                      .dwattr $C$DW$235, DW_AT_data_member_location[DW_OP_plus_uconst 0x10]
    3624                      .dwattr $C$DW$235, DW_AT_accessibility(DW_ACCESS_public)
    3625              
    3626              $C$DW$236       .dwtag  DW_TAG_member
    3627                      .dwattr $C$DW$236, DW_AT_type(*$C$DW$T$19)
    3628                      .dwattr $C$DW$236, DW_AT_name("rsvd3")
    3629                      .dwattr $C$DW$236, DW_AT_TI_symbol_name("_rsvd3")
    3630                      .dwattr $C$DW$236, DW_AT_data_member_location[DW_OP_plus_uconst 0x11]
    3631                      .dwattr $C$DW$236, DW_AT_accessibility(DW_ACCESS_public)
    3632              
    3633              $C$DW$237       .dwtag  DW_TAG_member
    3634                      .dwattr $C$DW$237, DW_AT_type(*$C$DW$T$36)
    3635                      .dwattr $C$DW$237, DW_AT_name("ADCSAMPLEMODE")
    3636                      .dwattr $C$DW$237, DW_AT_TI_symbol_name("_ADCSAMPLEMODE")
    3637                      .dwattr $C$DW$237, DW_AT_data_member_location[DW_OP_plus_uconst 0x12]
    3638                      .dwattr $C$DW$237, DW_AT_accessibility(DW_ACCESS_public)
    3639              
    3640              $C$DW$238       .dwtag  DW_TAG_member
    3641                      .dwattr $C$DW$238, DW_AT_type(*$C$DW$T$19)
    3642                      .dwattr $C$DW$238, DW_AT_name("rsvd4")
    3643                      .dwattr $C$DW$238, DW_AT_TI_symbol_name("_rsvd4")
    3644                      .dwattr $C$DW$238, DW_AT_data_member_location[DW_OP_plus_uconst 0x13]
    3645                      .dwattr $C$DW$238, DW_AT_accessibility(DW_ACCESS_public)
    3646              
    3647              $C$DW$239       .dwtag  DW_TAG_member
    3648                      .dwattr $C$DW$239, DW_AT_type(*$C$DW$T$25)
    3649                      .dwattr $C$DW$239, DW_AT_name("ADCINTSOCSEL1")
    3650                      .dwattr $C$DW$239, DW_AT_TI_symbol_name("_ADCINTSOCSEL1")
    3651                      .dwattr $C$DW$239, DW_AT_data_member_location[DW_OP_plus_uconst 0x14]
    3652                      .dwattr $C$DW$239, DW_AT_accessibility(DW_ACCESS_public)
    3653              
    3654              $C$DW$240       .dwtag  DW_TAG_member
    3655                      .dwattr $C$DW$240, DW_AT_type(*$C$DW$T$27)
    3656                      .dwattr $C$DW$240, DW_AT_name("ADCINTSOCSEL2")
    3657                      .dwattr $C$DW$240, DW_AT_TI_symbol_name("_ADCINTSOCSEL2")
    3658                      .dwattr $C$DW$240, DW_AT_data_member_location[DW_OP_plus_uconst 0x15]
    3659                      .dwattr $C$DW$240, DW_AT_accessibility(DW_ACCESS_public)
    3660              
    3661              $C$DW$241       .dwtag  DW_TAG_member
    3662                      .dwattr $C$DW$241, DW_AT_type(*$C$DW$T$41)
    3663                      .dwattr $C$DW$241, DW_AT_name("rsvd5")
    3664                      .dwattr $C$DW$241, DW_AT_TI_symbol_name("_rsvd5")
TMS320C2000 Assembler PC v16.9.6 Tue Mar 06 18:34:46 2018

Tools Copyright (c) 1996-2017 Texas Instruments Incorporated
C:\Users\Admin\AppData\Local\Temp\{ED9AE313-281A-4435-8F2A-5411619B06A2} PAGE   75

    3665                      .dwattr $C$DW$241, DW_AT_data_member_location[DW_OP_plus_uconst 0x16]
    3666                      .dwattr $C$DW$241, DW_AT_accessibility(DW_ACCESS_public)
    3667              
    3668              $C$DW$242       .dwtag  DW_TAG_member
    3669                      .dwattr $C$DW$242, DW_AT_type(*$C$DW$T$38)
    3670                      .dwattr $C$DW$242, DW_AT_name("ADCSOCFLG1")
    3671                      .dwattr $C$DW$242, DW_AT_TI_symbol_name("_ADCSOCFLG1")
    3672                      .dwattr $C$DW$242, DW_AT_data_member_location[DW_OP_plus_uconst 0x18]
    3673                      .dwattr $C$DW$242, DW_AT_accessibility(DW_ACCESS_public)
    3674              
    3675              $C$DW$243       .dwtag  DW_TAG_member
    3676                      .dwattr $C$DW$243, DW_AT_type(*$C$DW$T$19)
    3677                      .dwattr $C$DW$243, DW_AT_name("rsvd6")
    3678                      .dwattr $C$DW$243, DW_AT_TI_symbol_name("_rsvd6")
    3679                      .dwattr $C$DW$243, DW_AT_data_member_location[DW_OP_plus_uconst 0x19]
    3680                      .dwattr $C$DW$243, DW_AT_accessibility(DW_ACCESS_public)
    3681              
    3682              $C$DW$244       .dwtag  DW_TAG_member
    3683                      .dwattr $C$DW$244, DW_AT_type(*$C$DW$T$38)
    3684                      .dwattr $C$DW$244, DW_AT_name("ADCSOCFRC1")
    3685                      .dwattr $C$DW$244, DW_AT_TI_symbol_name("_ADCSOCFRC1")
    3686                      .dwattr $C$DW$244, DW_AT_data_member_location[DW_OP_plus_uconst 0x1a]
    3687                      .dwattr $C$DW$244, DW_AT_accessibility(DW_ACCESS_public)
    3688              
    3689              $C$DW$245       .dwtag  DW_TAG_member
    3690                      .dwattr $C$DW$245, DW_AT_type(*$C$DW$T$19)
    3691                      .dwattr $C$DW$245, DW_AT_name("rsvd7")
    3692                      .dwattr $C$DW$245, DW_AT_TI_symbol_name("_rsvd7")
    3693                      .dwattr $C$DW$245, DW_AT_data_member_location[DW_OP_plus_uconst 0x1b]
    3694                      .dwattr $C$DW$245, DW_AT_accessibility(DW_ACCESS_public)
    3695              
    3696              $C$DW$246       .dwtag  DW_TAG_member
    3697                      .dwattr $C$DW$246, DW_AT_type(*$C$DW$T$38)
    3698                      .dwattr $C$DW$246, DW_AT_name("ADCSOCOVF1")
    3699                      .dwattr $C$DW$246, DW_AT_TI_symbol_name("_ADCSOCOVF1")
    3700                      .dwattr $C$DW$246, DW_AT_data_member_location[DW_OP_plus_uconst 0x1c]
    3701                      .dwattr $C$DW$246, DW_AT_accessibility(DW_ACCESS_public)
    3702              
    3703              $C$DW$247       .dwtag  DW_TAG_member
    3704                      .dwattr $C$DW$247, DW_AT_type(*$C$DW$T$19)
    3705                      .dwattr $C$DW$247, DW_AT_name("rsvd8")
    3706                      .dwattr $C$DW$247, DW_AT_TI_symbol_name("_rsvd8")
    3707                      .dwattr $C$DW$247, DW_AT_data_member_location[DW_OP_plus_uconst 0x1d]
    3708                      .dwattr $C$DW$247, DW_AT_accessibility(DW_ACCESS_public)
    3709              
    3710              $C$DW$248       .dwtag  DW_TAG_member
    3711                      .dwattr $C$DW$248, DW_AT_type(*$C$DW$T$38)
    3712                      .dwattr $C$DW$248, DW_AT_name("ADCSOCOVFCLR1")
    3713                      .dwattr $C$DW$248, DW_AT_TI_symbol_name("_ADCSOCOVFCLR1")
    3714                      .dwattr $C$DW$248, DW_AT_data_member_location[DW_OP_plus_uconst 0x1e]
    3715                      .dwattr $C$DW$248, DW_AT_accessibility(DW_ACCESS_public)
    3716              
    3717              $C$DW$249       .dwtag  DW_TAG_member
    3718                      .dwattr $C$DW$249, DW_AT_type(*$C$DW$T$19)
    3719                      .dwattr $C$DW$249, DW_AT_name("rsvd9")
TMS320C2000 Assembler PC v16.9.6 Tue Mar 06 18:34:46 2018

Tools Copyright (c) 1996-2017 Texas Instruments Incorporated
C:\Users\Admin\AppData\Local\Temp\{ED9AE313-281A-4435-8F2A-5411619B06A2} PAGE   76

    3720                      .dwattr $C$DW$249, DW_AT_TI_symbol_name("_rsvd9")
    3721                      .dwattr $C$DW$249, DW_AT_data_member_location[DW_OP_plus_uconst 0x1f]
    3722                      .dwattr $C$DW$249, DW_AT_accessibility(DW_ACCESS_public)
    3723              
    3724              $C$DW$250       .dwtag  DW_TAG_member
    3725                      .dwattr $C$DW$250, DW_AT_type(*$C$DW$T$40)
    3726                      .dwattr $C$DW$250, DW_AT_name("ADCSOC0CTL")
    3727                      .dwattr $C$DW$250, DW_AT_TI_symbol_name("_ADCSOC0CTL")
    3728                      .dwattr $C$DW$250, DW_AT_data_member_location[DW_OP_plus_uconst 0x20]
    3729                      .dwattr $C$DW$250, DW_AT_accessibility(DW_ACCESS_public)
    3730              
    3731              $C$DW$251       .dwtag  DW_TAG_member
    3732                      .dwattr $C$DW$251, DW_AT_type(*$C$DW$T$40)
    3733                      .dwattr $C$DW$251, DW_AT_name("ADCSOC1CTL")
    3734                      .dwattr $C$DW$251, DW_AT_TI_symbol_name("_ADCSOC1CTL")
    3735                      .dwattr $C$DW$251, DW_AT_data_member_location[DW_OP_plus_uconst 0x21]
    3736                      .dwattr $C$DW$251, DW_AT_accessibility(DW_ACCESS_public)
    3737              
    3738              $C$DW$252       .dwtag  DW_TAG_member
    3739                      .dwattr $C$DW$252, DW_AT_type(*$C$DW$T$40)
    3740                      .dwattr $C$DW$252, DW_AT_name("ADCSOC2CTL")
    3741                      .dwattr $C$DW$252, DW_AT_TI_symbol_name("_ADCSOC2CTL")
    3742                      .dwattr $C$DW$252, DW_AT_data_member_location[DW_OP_plus_uconst 0x22]
    3743                      .dwattr $C$DW$252, DW_AT_accessibility(DW_ACCESS_public)
    3744              
    3745              $C$DW$253       .dwtag  DW_TAG_member
    3746                      .dwattr $C$DW$253, DW_AT_type(*$C$DW$T$40)
    3747                      .dwattr $C$DW$253, DW_AT_name("ADCSOC3CTL")
    3748                      .dwattr $C$DW$253, DW_AT_TI_symbol_name("_ADCSOC3CTL")
    3749                      .dwattr $C$DW$253, DW_AT_data_member_location[DW_OP_plus_uconst 0x23]
    3750                      .dwattr $C$DW$253, DW_AT_accessibility(DW_ACCESS_public)
    3751              
    3752              $C$DW$254       .dwtag  DW_TAG_member
    3753                      .dwattr $C$DW$254, DW_AT_type(*$C$DW$T$40)
    3754                      .dwattr $C$DW$254, DW_AT_name("ADCSOC4CTL")
    3755                      .dwattr $C$DW$254, DW_AT_TI_symbol_name("_ADCSOC4CTL")
    3756                      .dwattr $C$DW$254, DW_AT_data_member_location[DW_OP_plus_uconst 0x24]
    3757                      .dwattr $C$DW$254, DW_AT_accessibility(DW_ACCESS_public)
    3758              
    3759              $C$DW$255       .dwtag  DW_TAG_member
    3760                      .dwattr $C$DW$255, DW_AT_type(*$C$DW$T$40)
    3761                      .dwattr $C$DW$255, DW_AT_name("ADCSOC5CTL")
    3762                      .dwattr $C$DW$255, DW_AT_TI_symbol_name("_ADCSOC5CTL")
    3763                      .dwattr $C$DW$255, DW_AT_data_member_location[DW_OP_plus_uconst 0x25]
    3764                      .dwattr $C$DW$255, DW_AT_accessibility(DW_ACCESS_public)
    3765              
    3766              $C$DW$256       .dwtag  DW_TAG_member
    3767                      .dwattr $C$DW$256, DW_AT_type(*$C$DW$T$40)
    3768                      .dwattr $C$DW$256, DW_AT_name("ADCSOC6CTL")
    3769                      .dwattr $C$DW$256, DW_AT_TI_symbol_name("_ADCSOC6CTL")
    3770                      .dwattr $C$DW$256, DW_AT_data_member_location[DW_OP_plus_uconst 0x26]
    3771                      .dwattr $C$DW$256, DW_AT_accessibility(DW_ACCESS_public)
    3772              
    3773              $C$DW$257       .dwtag  DW_TAG_member
    3774                      .dwattr $C$DW$257, DW_AT_type(*$C$DW$T$40)
TMS320C2000 Assembler PC v16.9.6 Tue Mar 06 18:34:46 2018

Tools Copyright (c) 1996-2017 Texas Instruments Incorporated
C:\Users\Admin\AppData\Local\Temp\{ED9AE313-281A-4435-8F2A-5411619B06A2} PAGE   77

    3775                      .dwattr $C$DW$257, DW_AT_name("ADCSOC7CTL")
    3776                      .dwattr $C$DW$257, DW_AT_TI_symbol_name("_ADCSOC7CTL")
    3777                      .dwattr $C$DW$257, DW_AT_data_member_location[DW_OP_plus_uconst 0x27]
    3778                      .dwattr $C$DW$257, DW_AT_accessibility(DW_ACCESS_public)
    3779              
    3780              $C$DW$258       .dwtag  DW_TAG_member
    3781                      .dwattr $C$DW$258, DW_AT_type(*$C$DW$T$40)
    3782                      .dwattr $C$DW$258, DW_AT_name("ADCSOC8CTL")
    3783                      .dwattr $C$DW$258, DW_AT_TI_symbol_name("_ADCSOC8CTL")
    3784                      .dwattr $C$DW$258, DW_AT_data_member_location[DW_OP_plus_uconst 0x28]
    3785                      .dwattr $C$DW$258, DW_AT_accessibility(DW_ACCESS_public)
    3786              
    3787              $C$DW$259       .dwtag  DW_TAG_member
    3788                      .dwattr $C$DW$259, DW_AT_type(*$C$DW$T$40)
    3789                      .dwattr $C$DW$259, DW_AT_name("ADCSOC9CTL")
    3790                      .dwattr $C$DW$259, DW_AT_TI_symbol_name("_ADCSOC9CTL")
    3791                      .dwattr $C$DW$259, DW_AT_data_member_location[DW_OP_plus_uconst 0x29]
    3792                      .dwattr $C$DW$259, DW_AT_accessibility(DW_ACCESS_public)
    3793              
    3794              $C$DW$260       .dwtag  DW_TAG_member
    3795                      .dwattr $C$DW$260, DW_AT_type(*$C$DW$T$40)
    3796                      .dwattr $C$DW$260, DW_AT_name("ADCSOC10CTL")
    3797                      .dwattr $C$DW$260, DW_AT_TI_symbol_name("_ADCSOC10CTL")
    3798                      .dwattr $C$DW$260, DW_AT_data_member_location[DW_OP_plus_uconst 0x2a]
    3799                      .dwattr $C$DW$260, DW_AT_accessibility(DW_ACCESS_public)
    3800              
    3801              $C$DW$261       .dwtag  DW_TAG_member
    3802                      .dwattr $C$DW$261, DW_AT_type(*$C$DW$T$40)
    3803                      .dwattr $C$DW$261, DW_AT_name("ADCSOC11CTL")
    3804                      .dwattr $C$DW$261, DW_AT_TI_symbol_name("_ADCSOC11CTL")
    3805                      .dwattr $C$DW$261, DW_AT_data_member_location[DW_OP_plus_uconst 0x2b]
    3806                      .dwattr $C$DW$261, DW_AT_accessibility(DW_ACCESS_public)
    3807              
    3808              $C$DW$262       .dwtag  DW_TAG_member
    3809                      .dwattr $C$DW$262, DW_AT_type(*$C$DW$T$40)
    3810                      .dwattr $C$DW$262, DW_AT_name("ADCSOC12CTL")
    3811                      .dwattr $C$DW$262, DW_AT_TI_symbol_name("_ADCSOC12CTL")
    3812                      .dwattr $C$DW$262, DW_AT_data_member_location[DW_OP_plus_uconst 0x2c]
    3813                      .dwattr $C$DW$262, DW_AT_accessibility(DW_ACCESS_public)
    3814              
    3815              $C$DW$263       .dwtag  DW_TAG_member
    3816                      .dwattr $C$DW$263, DW_AT_type(*$C$DW$T$40)
    3817                      .dwattr $C$DW$263, DW_AT_name("ADCSOC13CTL")
    3818                      .dwattr $C$DW$263, DW_AT_TI_symbol_name("_ADCSOC13CTL")
    3819                      .dwattr $C$DW$263, DW_AT_data_member_location[DW_OP_plus_uconst 0x2d]
    3820                      .dwattr $C$DW$263, DW_AT_accessibility(DW_ACCESS_public)
    3821              
    3822              $C$DW$264       .dwtag  DW_TAG_member
    3823                      .dwattr $C$DW$264, DW_AT_type(*$C$DW$T$40)
    3824                      .dwattr $C$DW$264, DW_AT_name("ADCSOC14CTL")
    3825                      .dwattr $C$DW$264, DW_AT_TI_symbol_name("_ADCSOC14CTL")
    3826                      .dwattr $C$DW$264, DW_AT_data_member_location[DW_OP_plus_uconst 0x2e]
    3827                      .dwattr $C$DW$264, DW_AT_accessibility(DW_ACCESS_public)
    3828              
    3829              $C$DW$265       .dwtag  DW_TAG_member
TMS320C2000 Assembler PC v16.9.6 Tue Mar 06 18:34:46 2018

Tools Copyright (c) 1996-2017 Texas Instruments Incorporated
C:\Users\Admin\AppData\Local\Temp\{ED9AE313-281A-4435-8F2A-5411619B06A2} PAGE   78

    3830                      .dwattr $C$DW$265, DW_AT_type(*$C$DW$T$40)
    3831                      .dwattr $C$DW$265, DW_AT_name("ADCSOC15CTL")
    3832                      .dwattr $C$DW$265, DW_AT_TI_symbol_name("_ADCSOC15CTL")
    3833                      .dwattr $C$DW$265, DW_AT_data_member_location[DW_OP_plus_uconst 0x2f]
    3834                      .dwattr $C$DW$265, DW_AT_accessibility(DW_ACCESS_public)
    3835              
    3836              $C$DW$266       .dwtag  DW_TAG_member
    3837                      .dwattr $C$DW$266, DW_AT_type(*$C$DW$T$43)
    3838                      .dwattr $C$DW$266, DW_AT_name("rsvd10")
    3839                      .dwattr $C$DW$266, DW_AT_TI_symbol_name("_rsvd10")
    3840                      .dwattr $C$DW$266, DW_AT_data_member_location[DW_OP_plus_uconst 0x30]
    3841                      .dwattr $C$DW$266, DW_AT_accessibility(DW_ACCESS_public)
    3842              
    3843              $C$DW$267       .dwtag  DW_TAG_member
    3844                      .dwattr $C$DW$267, DW_AT_type(*$C$DW$T$34)
    3845                      .dwattr $C$DW$267, DW_AT_name("ADCREFTRIM")
    3846                      .dwattr $C$DW$267, DW_AT_TI_symbol_name("_ADCREFTRIM")
    3847                      .dwattr $C$DW$267, DW_AT_data_member_location[DW_OP_plus_uconst 0x40]
    3848                      .dwattr $C$DW$267, DW_AT_accessibility(DW_ACCESS_public)
    3849              
    3850              $C$DW$268       .dwtag  DW_TAG_member
    3851                      .dwattr $C$DW$268, DW_AT_type(*$C$DW$T$32)
    3852                      .dwattr $C$DW$268, DW_AT_name("ADCOFFTRIM")
    3853                      .dwattr $C$DW$268, DW_AT_TI_symbol_name("_ADCOFFTRIM")
    3854                      .dwattr $C$DW$268, DW_AT_data_member_location[DW_OP_plus_uconst 0x41]
    3855                      .dwattr $C$DW$268, DW_AT_accessibility(DW_ACCESS_public)
    3856              
    3857              $C$DW$269       .dwtag  DW_TAG_member
    3858                      .dwattr $C$DW$269, DW_AT_type(*$C$DW$T$44)
    3859                      .dwattr $C$DW$269, DW_AT_name("rsvd11")
    3860                      .dwattr $C$DW$269, DW_AT_TI_symbol_name("_rsvd11")
    3861                      .dwattr $C$DW$269, DW_AT_data_member_location[DW_OP_plus_uconst 0x42]
    3862                      .dwattr $C$DW$269, DW_AT_accessibility(DW_ACCESS_public)
    3863              
    3864                      .dwendtag $C$DW$T$45
    3865              
    3866              $C$DW$270       .dwtag  DW_TAG_TI_far_type
    3867                      .dwattr $C$DW$270, DW_AT_type(*$C$DW$T$45)
    3868              
    3869              $C$DW$T$200     .dwtag  DW_TAG_volatile_type
    3870                      .dwattr $C$DW$T$200, DW_AT_type(*$C$DW$270)
    3871              
    3872              
    3873              $C$DW$T$46      .dwtag  DW_TAG_structure_type
    3874                      .dwattr $C$DW$T$46, DW_AT_name("AIODAT_BITS")
    3875                      .dwattr $C$DW$T$46, DW_AT_byte_size(0x01)
    3876              $C$DW$271       .dwtag  DW_TAG_member
    3877                      .dwattr $C$DW$271, DW_AT_type(*$C$DW$T$19)
    3878                      .dwattr $C$DW$271, DW_AT_name("rsvd1")
    3879                      .dwattr $C$DW$271, DW_AT_TI_symbol_name("_rsvd1")
    3880                      .dwattr $C$DW$271, DW_AT_bit_offset(0x0f)
    3881                      .dwattr $C$DW$271, DW_AT_bit_size(0x01)
    3882                      .dwattr $C$DW$271, DW_AT_data_member_location[DW_OP_plus_uconst 0x0]
    3883                      .dwattr $C$DW$271, DW_AT_accessibility(DW_ACCESS_public)
    3884              
TMS320C2000 Assembler PC v16.9.6 Tue Mar 06 18:34:46 2018

Tools Copyright (c) 1996-2017 Texas Instruments Incorporated
C:\Users\Admin\AppData\Local\Temp\{ED9AE313-281A-4435-8F2A-5411619B06A2} PAGE   79

    3885              $C$DW$272       .dwtag  DW_TAG_member
    3886                      .dwattr $C$DW$272, DW_AT_type(*$C$DW$T$19)
    3887                      .dwattr $C$DW$272, DW_AT_name("rsvd2")
    3888                      .dwattr $C$DW$272, DW_AT_TI_symbol_name("_rsvd2")
    3889                      .dwattr $C$DW$272, DW_AT_bit_offset(0x0e)
    3890                      .dwattr $C$DW$272, DW_AT_bit_size(0x01)
    3891                      .dwattr $C$DW$272, DW_AT_data_member_location[DW_OP_plus_uconst 0x0]
    3892                      .dwattr $C$DW$272, DW_AT_accessibility(DW_ACCESS_public)
    3893              
    3894              $C$DW$273       .dwtag  DW_TAG_member
    3895                      .dwattr $C$DW$273, DW_AT_type(*$C$DW$T$19)
    3896                      .dwattr $C$DW$273, DW_AT_name("AIO2")
    3897                      .dwattr $C$DW$273, DW_AT_TI_symbol_name("_AIO2")
    3898                      .dwattr $C$DW$273, DW_AT_bit_offset(0x0d)
    3899                      .dwattr $C$DW$273, DW_AT_bit_size(0x01)
    3900                      .dwattr $C$DW$273, DW_AT_data_member_location[DW_OP_plus_uconst 0x0]
    3901                      .dwattr $C$DW$273, DW_AT_accessibility(DW_ACCESS_public)
    3902              
    3903              $C$DW$274       .dwtag  DW_TAG_member
    3904                      .dwattr $C$DW$274, DW_AT_type(*$C$DW$T$19)
    3905                      .dwattr $C$DW$274, DW_AT_name("rsvd3")
    3906                      .dwattr $C$DW$274, DW_AT_TI_symbol_name("_rsvd3")
    3907                      .dwattr $C$DW$274, DW_AT_bit_offset(0x0c)
    3908                      .dwattr $C$DW$274, DW_AT_bit_size(0x01)
    3909                      .dwattr $C$DW$274, DW_AT_data_member_location[DW_OP_plus_uconst 0x0]
    3910                      .dwattr $C$DW$274, DW_AT_accessibility(DW_ACCESS_public)
    3911              
    3912              $C$DW$275       .dwtag  DW_TAG_member
    3913                      .dwattr $C$DW$275, DW_AT_type(*$C$DW$T$19)
    3914                      .dwattr $C$DW$275, DW_AT_name("AIO4")
    3915                      .dwattr $C$DW$275, DW_AT_TI_symbol_name("_AIO4")
    3916                      .dwattr $C$DW$275, DW_AT_bit_offset(0x0b)
    3917                      .dwattr $C$DW$275, DW_AT_bit_size(0x01)
    3918                      .dwattr $C$DW$275, DW_AT_data_member_location[DW_OP_plus_uconst 0x0]
    3919                      .dwattr $C$DW$275, DW_AT_accessibility(DW_ACCESS_public)
    3920              
    3921              $C$DW$276       .dwtag  DW_TAG_member
    3922                      .dwattr $C$DW$276, DW_AT_type(*$C$DW$T$19)
    3923                      .dwattr $C$DW$276, DW_AT_name("rsvd4")
    3924                      .dwattr $C$DW$276, DW_AT_TI_symbol_name("_rsvd4")
    3925                      .dwattr $C$DW$276, DW_AT_bit_offset(0x0a)
    3926                      .dwattr $C$DW$276, DW_AT_bit_size(0x01)
    3927                      .dwattr $C$DW$276, DW_AT_data_member_location[DW_OP_plus_uconst 0x0]
    3928                      .dwattr $C$DW$276, DW_AT_accessibility(DW_ACCESS_public)
    3929              
    3930              $C$DW$277       .dwtag  DW_TAG_member
    3931                      .dwattr $C$DW$277, DW_AT_type(*$C$DW$T$19)
    3932                      .dwattr $C$DW$277, DW_AT_name("AIO6")
    3933                      .dwattr $C$DW$277, DW_AT_TI_symbol_name("_AIO6")
    3934                      .dwattr $C$DW$277, DW_AT_bit_offset(0x09)
    3935                      .dwattr $C$DW$277, DW_AT_bit_size(0x01)
    3936                      .dwattr $C$DW$277, DW_AT_data_member_location[DW_OP_plus_uconst 0x0]
    3937                      .dwattr $C$DW$277, DW_AT_accessibility(DW_ACCESS_public)
    3938              
    3939              $C$DW$278       .dwtag  DW_TAG_member
TMS320C2000 Assembler PC v16.9.6 Tue Mar 06 18:34:46 2018

Tools Copyright (c) 1996-2017 Texas Instruments Incorporated
C:\Users\Admin\AppData\Local\Temp\{ED9AE313-281A-4435-8F2A-5411619B06A2} PAGE   80

    3940                      .dwattr $C$DW$278, DW_AT_type(*$C$DW$T$19)
    3941                      .dwattr $C$DW$278, DW_AT_name("rsvd5")
    3942                      .dwattr $C$DW$278, DW_AT_TI_symbol_name("_rsvd5")
    3943                      .dwattr $C$DW$278, DW_AT_bit_offset(0x08)
    3944                      .dwattr $C$DW$278, DW_AT_bit_size(0x01)
    3945                      .dwattr $C$DW$278, DW_AT_data_member_location[DW_OP_plus_uconst 0x0]
    3946                      .dwattr $C$DW$278, DW_AT_accessibility(DW_ACCESS_public)
    3947              
    3948              $C$DW$279       .dwtag  DW_TAG_member
    3949                      .dwattr $C$DW$279, DW_AT_type(*$C$DW$T$19)
    3950                      .dwattr $C$DW$279, DW_AT_name("rsvd6")
    3951                      .dwattr $C$DW$279, DW_AT_TI_symbol_name("_rsvd6")
    3952                      .dwattr $C$DW$279, DW_AT_bit_offset(0x07)
    3953                      .dwattr $C$DW$279, DW_AT_bit_size(0x01)
    3954                      .dwattr $C$DW$279, DW_AT_data_member_location[DW_OP_plus_uconst 0x0]
    3955                      .dwattr $C$DW$279, DW_AT_accessibility(DW_ACCESS_public)
    3956              
    3957              $C$DW$280       .dwtag  DW_TAG_member
    3958                      .dwattr $C$DW$280, DW_AT_type(*$C$DW$T$19)
    3959                      .dwattr $C$DW$280, DW_AT_name("rsvd7")
    3960                      .dwattr $C$DW$280, DW_AT_TI_symbol_name("_rsvd7")
    3961                      .dwattr $C$DW$280, DW_AT_bit_offset(0x06)
    3962                      .dwattr $C$DW$280, DW_AT_bit_size(0x01)
    3963                      .dwattr $C$DW$280, DW_AT_data_member_location[DW_OP_plus_uconst 0x0]
    3964                      .dwattr $C$DW$280, DW_AT_accessibility(DW_ACCESS_public)
    3965              
    3966              $C$DW$281       .dwtag  DW_TAG_member
    3967                      .dwattr $C$DW$281, DW_AT_type(*$C$DW$T$19)
    3968                      .dwattr $C$DW$281, DW_AT_name("AIO10")
    3969                      .dwattr $C$DW$281, DW_AT_TI_symbol_name("_AIO10")
    3970                      .dwattr $C$DW$281, DW_AT_bit_offset(0x05)
    3971                      .dwattr $C$DW$281, DW_AT_bit_size(0x01)
    3972                      .dwattr $C$DW$281, DW_AT_data_member_location[DW_OP_plus_uconst 0x0]
    3973                      .dwattr $C$DW$281, DW_AT_accessibility(DW_ACCESS_public)
    3974              
    3975              $C$DW$282       .dwtag  DW_TAG_member
    3976                      .dwattr $C$DW$282, DW_AT_type(*$C$DW$T$19)
    3977                      .dwattr $C$DW$282, DW_AT_name("rsvd8")
    3978                      .dwattr $C$DW$282, DW_AT_TI_symbol_name("_rsvd8")
    3979                      .dwattr $C$DW$282, DW_AT_bit_offset(0x04)
    3980                      .dwattr $C$DW$282, DW_AT_bit_size(0x01)
    3981                      .dwattr $C$DW$282, DW_AT_data_member_location[DW_OP_plus_uconst 0x0]
    3982                      .dwattr $C$DW$282, DW_AT_accessibility(DW_ACCESS_public)
    3983              
    3984              $C$DW$283       .dwtag  DW_TAG_member
    3985                      .dwattr $C$DW$283, DW_AT_type(*$C$DW$T$19)
    3986                      .dwattr $C$DW$283, DW_AT_name("AIO12")
    3987                      .dwattr $C$DW$283, DW_AT_TI_symbol_name("_AIO12")
    3988                      .dwattr $C$DW$283, DW_AT_bit_offset(0x03)
    3989                      .dwattr $C$DW$283, DW_AT_bit_size(0x01)
    3990                      .dwattr $C$DW$283, DW_AT_data_member_location[DW_OP_plus_uconst 0x0]
    3991                      .dwattr $C$DW$283, DW_AT_accessibility(DW_ACCESS_public)
    3992              
    3993              $C$DW$284       .dwtag  DW_TAG_member
    3994                      .dwattr $C$DW$284, DW_AT_type(*$C$DW$T$19)
TMS320C2000 Assembler PC v16.9.6 Tue Mar 06 18:34:46 2018

Tools Copyright (c) 1996-2017 Texas Instruments Incorporated
C:\Users\Admin\AppData\Local\Temp\{ED9AE313-281A-4435-8F2A-5411619B06A2} PAGE   81

    3995                      .dwattr $C$DW$284, DW_AT_name("rsvd9")
    3996                      .dwattr $C$DW$284, DW_AT_TI_symbol_name("_rsvd9")
    3997                      .dwattr $C$DW$284, DW_AT_bit_offset(0x02)
    3998                      .dwattr $C$DW$284, DW_AT_bit_size(0x01)
    3999                      .dwattr $C$DW$284, DW_AT_data_member_location[DW_OP_plus_uconst 0x0]
    4000                      .dwattr $C$DW$284, DW_AT_accessibility(DW_ACCESS_public)
    4001              
    4002              $C$DW$285       .dwtag  DW_TAG_member
    4003                      .dwattr $C$DW$285, DW_AT_type(*$C$DW$T$19)
    4004                      .dwattr $C$DW$285, DW_AT_name("AIO14")
    4005                      .dwattr $C$DW$285, DW_AT_TI_symbol_name("_AIO14")
    4006                      .dwattr $C$DW$285, DW_AT_bit_offset(0x01)
    4007                      .dwattr $C$DW$285, DW_AT_bit_size(0x01)
    4008                      .dwattr $C$DW$285, DW_AT_data_member_location[DW_OP_plus_uconst 0x0]
    4009                      .dwattr $C$DW$285, DW_AT_accessibility(DW_ACCESS_public)
    4010              
    4011              $C$DW$286       .dwtag  DW_TAG_member
    4012                      .dwattr $C$DW$286, DW_AT_type(*$C$DW$T$19)
    4013                      .dwattr $C$DW$286, DW_AT_name("rsvd10")
    4014                      .dwattr $C$DW$286, DW_AT_TI_symbol_name("_rsvd10")
    4015                      .dwattr $C$DW$286, DW_AT_bit_offset(0x00)
    4016                      .dwattr $C$DW$286, DW_AT_bit_size(0x01)
    4017                      .dwattr $C$DW$286, DW_AT_data_member_location[DW_OP_plus_uconst 0x0]
    4018                      .dwattr $C$DW$286, DW_AT_accessibility(DW_ACCESS_public)
    4019              
    4020                      .dwendtag $C$DW$T$46
    4021              
    4022              
    4023              $C$DW$T$47      .dwtag  DW_TAG_union_type
    4024                      .dwattr $C$DW$T$47, DW_AT_name("AIODAT_REG")
    4025                      .dwattr $C$DW$T$47, DW_AT_byte_size(0x01)
    4026              $C$DW$287       .dwtag  DW_TAG_member
    4027                      .dwattr $C$DW$287, DW_AT_type(*$C$DW$T$19)
    4028                      .dwattr $C$DW$287, DW_AT_name("all")
    4029                      .dwattr $C$DW$287, DW_AT_TI_symbol_name("_all")
    4030                      .dwattr $C$DW$287, DW_AT_data_member_location[DW_OP_plus_uconst 0x0]
    4031                      .dwattr $C$DW$287, DW_AT_accessibility(DW_ACCESS_public)
    4032              
    4033              $C$DW$288       .dwtag  DW_TAG_member
    4034                      .dwattr $C$DW$288, DW_AT_type(*$C$DW$T$46)
    4035                      .dwattr $C$DW$288, DW_AT_name("bit")
    4036                      .dwattr $C$DW$288, DW_AT_TI_symbol_name("_bit")
    4037                      .dwattr $C$DW$288, DW_AT_data_member_location[DW_OP_plus_uconst 0x0]
    4038                      .dwattr $C$DW$288, DW_AT_accessibility(DW_ACCESS_public)
    4039              
    4040                      .dwendtag $C$DW$T$47
    4041              
    4042              
    4043              $C$DW$T$48      .dwtag  DW_TAG_structure_type
    4044                      .dwattr $C$DW$T$48, DW_AT_name("AIO_BITS")
    4045                      .dwattr $C$DW$T$48, DW_AT_byte_size(0x02)
    4046              $C$DW$289       .dwtag  DW_TAG_member
    4047                      .dwattr $C$DW$289, DW_AT_type(*$C$DW$T$19)
    4048                      .dwattr $C$DW$289, DW_AT_name("rsvd1")
    4049                      .dwattr $C$DW$289, DW_AT_TI_symbol_name("_rsvd1")
TMS320C2000 Assembler PC v16.9.6 Tue Mar 06 18:34:46 2018

Tools Copyright (c) 1996-2017 Texas Instruments Incorporated
C:\Users\Admin\AppData\Local\Temp\{ED9AE313-281A-4435-8F2A-5411619B06A2} PAGE   82

    4050                      .dwattr $C$DW$289, DW_AT_bit_offset(0x0e)
    4051                      .dwattr $C$DW$289, DW_AT_bit_size(0x02)
    4052                      .dwattr $C$DW$289, DW_AT_data_member_location[DW_OP_plus_uconst 0x0]
    4053                      .dwattr $C$DW$289, DW_AT_accessibility(DW_ACCESS_public)
    4054              
    4055              $C$DW$290       .dwtag  DW_TAG_member
    4056                      .dwattr $C$DW$290, DW_AT_type(*$C$DW$T$19)
    4057                      .dwattr $C$DW$290, DW_AT_name("rsvd2")
    4058                      .dwattr $C$DW$290, DW_AT_TI_symbol_name("_rsvd2")
    4059                      .dwattr $C$DW$290, DW_AT_bit_offset(0x0c)
    4060                      .dwattr $C$DW$290, DW_AT_bit_size(0x02)
    4061                      .dwattr $C$DW$290, DW_AT_data_member_location[DW_OP_plus_uconst 0x0]
    4062                      .dwattr $C$DW$290, DW_AT_accessibility(DW_ACCESS_public)
    4063              
    4064              $C$DW$291       .dwtag  DW_TAG_member
    4065                      .dwattr $C$DW$291, DW_AT_type(*$C$DW$T$19)
    4066                      .dwattr $C$DW$291, DW_AT_name("AIO2")
    4067                      .dwattr $C$DW$291, DW_AT_TI_symbol_name("_AIO2")
    4068                      .dwattr $C$DW$291, DW_AT_bit_offset(0x0a)
    4069                      .dwattr $C$DW$291, DW_AT_bit_size(0x02)
    4070                      .dwattr $C$DW$291, DW_AT_data_member_location[DW_OP_plus_uconst 0x0]
    4071                      .dwattr $C$DW$291, DW_AT_accessibility(DW_ACCESS_public)
    4072              
    4073              $C$DW$292       .dwtag  DW_TAG_member
    4074                      .dwattr $C$DW$292, DW_AT_type(*$C$DW$T$19)
    4075                      .dwattr $C$DW$292, DW_AT_name("rsvd3")
    4076                      .dwattr $C$DW$292, DW_AT_TI_symbol_name("_rsvd3")
    4077                      .dwattr $C$DW$292, DW_AT_bit_offset(0x08)
    4078                      .dwattr $C$DW$292, DW_AT_bit_size(0x02)
    4079                      .dwattr $C$DW$292, DW_AT_data_member_location[DW_OP_plus_uconst 0x0]
    4080                      .dwattr $C$DW$292, DW_AT_accessibility(DW_ACCESS_public)
    4081              
    4082              $C$DW$293       .dwtag  DW_TAG_member
    4083                      .dwattr $C$DW$293, DW_AT_type(*$C$DW$T$19)
    4084                      .dwattr $C$DW$293, DW_AT_name("AIO4")
    4085                      .dwattr $C$DW$293, DW_AT_TI_symbol_name("_AIO4")
    4086                      .dwattr $C$DW$293, DW_AT_bit_offset(0x06)
    4087                      .dwattr $C$DW$293, DW_AT_bit_size(0x02)
    4088                      .dwattr $C$DW$293, DW_AT_data_member_location[DW_OP_plus_uconst 0x0]
    4089                      .dwattr $C$DW$293, DW_AT_accessibility(DW_ACCESS_public)
    4090              
    4091              $C$DW$294       .dwtag  DW_TAG_member
    4092                      .dwattr $C$DW$294, DW_AT_type(*$C$DW$T$19)
    4093                      .dwattr $C$DW$294, DW_AT_name("rsvd4")
    4094                      .dwattr $C$DW$294, DW_AT_TI_symbol_name("_rsvd4")
    4095                      .dwattr $C$DW$294, DW_AT_bit_offset(0x04)
    4096                      .dwattr $C$DW$294, DW_AT_bit_size(0x02)
    4097                      .dwattr $C$DW$294, DW_AT_data_member_location[DW_OP_plus_uconst 0x0]
    4098                      .dwattr $C$DW$294, DW_AT_accessibility(DW_ACCESS_public)
    4099              
    4100              $C$DW$295       .dwtag  DW_TAG_member
    4101                      .dwattr $C$DW$295, DW_AT_type(*$C$DW$T$19)
    4102                      .dwattr $C$DW$295, DW_AT_name("AIO6")
    4103                      .dwattr $C$DW$295, DW_AT_TI_symbol_name("_AIO6")
    4104                      .dwattr $C$DW$295, DW_AT_bit_offset(0x02)
TMS320C2000 Assembler PC v16.9.6 Tue Mar 06 18:34:46 2018

Tools Copyright (c) 1996-2017 Texas Instruments Incorporated
C:\Users\Admin\AppData\Local\Temp\{ED9AE313-281A-4435-8F2A-5411619B06A2} PAGE   83

    4105                      .dwattr $C$DW$295, DW_AT_bit_size(0x02)
    4106                      .dwattr $C$DW$295, DW_AT_data_member_location[DW_OP_plus_uconst 0x0]
    4107                      .dwattr $C$DW$295, DW_AT_accessibility(DW_ACCESS_public)
    4108              
    4109              $C$DW$296       .dwtag  DW_TAG_member
    4110                      .dwattr $C$DW$296, DW_AT_type(*$C$DW$T$19)
    4111                      .dwattr $C$DW$296, DW_AT_name("rsvd5")
    4112                      .dwattr $C$DW$296, DW_AT_TI_symbol_name("_rsvd5")
    4113                      .dwattr $C$DW$296, DW_AT_bit_offset(0x00)
    4114                      .dwattr $C$DW$296, DW_AT_bit_size(0x02)
    4115                      .dwattr $C$DW$296, DW_AT_data_member_location[DW_OP_plus_uconst 0x0]
    4116                      .dwattr $C$DW$296, DW_AT_accessibility(DW_ACCESS_public)
    4117              
    4118              $C$DW$297       .dwtag  DW_TAG_member
    4119                      .dwattr $C$DW$297, DW_AT_type(*$C$DW$T$19)
    4120                      .dwattr $C$DW$297, DW_AT_name("rsvd6")
    4121                      .dwattr $C$DW$297, DW_AT_TI_symbol_name("_rsvd6")
    4122                      .dwattr $C$DW$297, DW_AT_bit_offset(0x0e)
    4123                      .dwattr $C$DW$297, DW_AT_bit_size(0x02)
    4124                      .dwattr $C$DW$297, DW_AT_data_member_location[DW_OP_plus_uconst 0x1]
    4125                      .dwattr $C$DW$297, DW_AT_accessibility(DW_ACCESS_public)
    4126              
    4127              $C$DW$298       .dwtag  DW_TAG_member
    4128                      .dwattr $C$DW$298, DW_AT_type(*$C$DW$T$19)
    4129                      .dwattr $C$DW$298, DW_AT_name("rsvd7")
    4130                      .dwattr $C$DW$298, DW_AT_TI_symbol_name("_rsvd7")
    4131                      .dwattr $C$DW$298, DW_AT_bit_offset(0x0c)
    4132                      .dwattr $C$DW$298, DW_AT_bit_size(0x02)
    4133                      .dwattr $C$DW$298, DW_AT_data_member_location[DW_OP_plus_uconst 0x1]
    4134                      .dwattr $C$DW$298, DW_AT_accessibility(DW_ACCESS_public)
    4135              
    4136              $C$DW$299       .dwtag  DW_TAG_member
    4137                      .dwattr $C$DW$299, DW_AT_type(*$C$DW$T$19)
    4138                      .dwattr $C$DW$299, DW_AT_name("AIO10")
    4139                      .dwattr $C$DW$299, DW_AT_TI_symbol_name("_AIO10")
    4140                      .dwattr $C$DW$299, DW_AT_bit_offset(0x0a)
    4141                      .dwattr $C$DW$299, DW_AT_bit_size(0x02)
    4142                      .dwattr $C$DW$299, DW_AT_data_member_location[DW_OP_plus_uconst 0x1]
    4143                      .dwattr $C$DW$299, DW_AT_accessibility(DW_ACCESS_public)
    4144              
    4145              $C$DW$300       .dwtag  DW_TAG_member
    4146                      .dwattr $C$DW$300, DW_AT_type(*$C$DW$T$19)
    4147                      .dwattr $C$DW$300, DW_AT_name("rsvd8")
    4148                      .dwattr $C$DW$300, DW_AT_TI_symbol_name("_rsvd8")
    4149                      .dwattr $C$DW$300, DW_AT_bit_offset(0x08)
    4150                      .dwattr $C$DW$300, DW_AT_bit_size(0x02)
    4151                      .dwattr $C$DW$300, DW_AT_data_member_location[DW_OP_plus_uconst 0x1]
    4152                      .dwattr $C$DW$300, DW_AT_accessibility(DW_ACCESS_public)
    4153              
    4154              $C$DW$301       .dwtag  DW_TAG_member
    4155                      .dwattr $C$DW$301, DW_AT_type(*$C$DW$T$19)
    4156                      .dwattr $C$DW$301, DW_AT_name("AIO12")
    4157                      .dwattr $C$DW$301, DW_AT_TI_symbol_name("_AIO12")
    4158                      .dwattr $C$DW$301, DW_AT_bit_offset(0x06)
    4159                      .dwattr $C$DW$301, DW_AT_bit_size(0x02)
TMS320C2000 Assembler PC v16.9.6 Tue Mar 06 18:34:46 2018

Tools Copyright (c) 1996-2017 Texas Instruments Incorporated
C:\Users\Admin\AppData\Local\Temp\{ED9AE313-281A-4435-8F2A-5411619B06A2} PAGE   84

    4160                      .dwattr $C$DW$301, DW_AT_data_member_location[DW_OP_plus_uconst 0x1]
    4161                      .dwattr $C$DW$301, DW_AT_accessibility(DW_ACCESS_public)
    4162              
    4163              $C$DW$302       .dwtag  DW_TAG_member
    4164                      .dwattr $C$DW$302, DW_AT_type(*$C$DW$T$19)
    4165                      .dwattr $C$DW$302, DW_AT_name("rsvd9")
    4166                      .dwattr $C$DW$302, DW_AT_TI_symbol_name("_rsvd9")
    4167                      .dwattr $C$DW$302, DW_AT_bit_offset(0x04)
    4168                      .dwattr $C$DW$302, DW_AT_bit_size(0x02)
    4169                      .dwattr $C$DW$302, DW_AT_data_member_location[DW_OP_plus_uconst 0x1]
    4170                      .dwattr $C$DW$302, DW_AT_accessibility(DW_ACCESS_public)
    4171              
    4172              $C$DW$303       .dwtag  DW_TAG_member
    4173                      .dwattr $C$DW$303, DW_AT_type(*$C$DW$T$19)
    4174                      .dwattr $C$DW$303, DW_AT_name("AIO14")
    4175                      .dwattr $C$DW$303, DW_AT_TI_symbol_name("_AIO14")
    4176                      .dwattr $C$DW$303, DW_AT_bit_offset(0x02)
    4177                      .dwattr $C$DW$303, DW_AT_bit_size(0x02)
    4178                      .dwattr $C$DW$303, DW_AT_data_member_location[DW_OP_plus_uconst 0x1]
    4179                      .dwattr $C$DW$303, DW_AT_accessibility(DW_ACCESS_public)
    4180              
    4181              $C$DW$304       .dwtag  DW_TAG_member
    4182                      .dwattr $C$DW$304, DW_AT_type(*$C$DW$T$19)
    4183                      .dwattr $C$DW$304, DW_AT_name("rsvd10")
    4184                      .dwattr $C$DW$304, DW_AT_TI_symbol_name("_rsvd10")
    4185                      .dwattr $C$DW$304, DW_AT_bit_offset(0x00)
    4186                      .dwattr $C$DW$304, DW_AT_bit_size(0x02)
    4187                      .dwattr $C$DW$304, DW_AT_data_member_location[DW_OP_plus_uconst 0x1]
    4188                      .dwattr $C$DW$304, DW_AT_accessibility(DW_ACCESS_public)
    4189              
    4190                      .dwendtag $C$DW$T$48
    4191              
    4192              
    4193              $C$DW$T$50      .dwtag  DW_TAG_union_type
    4194                      .dwattr $C$DW$T$50, DW_AT_name("AIO_REG")
    4195                      .dwattr $C$DW$T$50, DW_AT_byte_size(0x02)
    4196              $C$DW$305       .dwtag  DW_TAG_member
    4197                      .dwattr $C$DW$305, DW_AT_type(*$C$DW$T$49)
    4198                      .dwattr $C$DW$305, DW_AT_name("all")
    4199                      .dwattr $C$DW$305, DW_AT_TI_symbol_name("_all")
    4200                      .dwattr $C$DW$305, DW_AT_data_member_location[DW_OP_plus_uconst 0x0]
    4201                      .dwattr $C$DW$305, DW_AT_accessibility(DW_ACCESS_public)
    4202              
    4203              $C$DW$306       .dwtag  DW_TAG_member
    4204                      .dwattr $C$DW$306, DW_AT_type(*$C$DW$T$48)
    4205                      .dwattr $C$DW$306, DW_AT_name("bit")
    4206                      .dwattr $C$DW$306, DW_AT_TI_symbol_name("_bit")
    4207                      .dwattr $C$DW$306, DW_AT_data_member_location[DW_OP_plus_uconst 0x0]
    4208                      .dwattr $C$DW$306, DW_AT_accessibility(DW_ACCESS_public)
    4209              
    4210                      .dwendtag $C$DW$T$50
    4211              
    4212              
    4213              $C$DW$T$51      .dwtag  DW_TAG_structure_type
    4214                      .dwattr $C$DW$T$51, DW_AT_name("AQCSFRC_BITS")
TMS320C2000 Assembler PC v16.9.6 Tue Mar 06 18:34:46 2018

Tools Copyright (c) 1996-2017 Texas Instruments Incorporated
C:\Users\Admin\AppData\Local\Temp\{ED9AE313-281A-4435-8F2A-5411619B06A2} PAGE   85

    4215                      .dwattr $C$DW$T$51, DW_AT_byte_size(0x01)
    4216              $C$DW$307       .dwtag  DW_TAG_member
    4217                      .dwattr $C$DW$307, DW_AT_type(*$C$DW$T$19)
    4218                      .dwattr $C$DW$307, DW_AT_name("CSFA")
    4219                      .dwattr $C$DW$307, DW_AT_TI_symbol_name("_CSFA")
    4220                      .dwattr $C$DW$307, DW_AT_bit_offset(0x0e)
    4221                      .dwattr $C$DW$307, DW_AT_bit_size(0x02)
    4222                      .dwattr $C$DW$307, DW_AT_data_member_location[DW_OP_plus_uconst 0x0]
    4223                      .dwattr $C$DW$307, DW_AT_accessibility(DW_ACCESS_public)
    4224              
    4225              $C$DW$308       .dwtag  DW_TAG_member
    4226                      .dwattr $C$DW$308, DW_AT_type(*$C$DW$T$19)
    4227                      .dwattr $C$DW$308, DW_AT_name("CSFB")
    4228                      .dwattr $C$DW$308, DW_AT_TI_symbol_name("_CSFB")
    4229                      .dwattr $C$DW$308, DW_AT_bit_offset(0x0c)
    4230                      .dwattr $C$DW$308, DW_AT_bit_size(0x02)
    4231                      .dwattr $C$DW$308, DW_AT_data_member_location[DW_OP_plus_uconst 0x0]
    4232                      .dwattr $C$DW$308, DW_AT_accessibility(DW_ACCESS_public)
    4233              
    4234              $C$DW$309       .dwtag  DW_TAG_member
    4235                      .dwattr $C$DW$309, DW_AT_type(*$C$DW$T$19)
    4236                      .dwattr $C$DW$309, DW_AT_name("rsvd1")
    4237                      .dwattr $C$DW$309, DW_AT_TI_symbol_name("_rsvd1")
    4238                      .dwattr $C$DW$309, DW_AT_bit_offset(0x00)
    4239                      .dwattr $C$DW$309, DW_AT_bit_size(0x0c)
    4240                      .dwattr $C$DW$309, DW_AT_data_member_location[DW_OP_plus_uconst 0x0]
    4241                      .dwattr $C$DW$309, DW_AT_accessibility(DW_ACCESS_public)
    4242              
    4243                      .dwendtag $C$DW$T$51
    4244              
    4245              
    4246              $C$DW$T$52      .dwtag  DW_TAG_union_type
    4247                      .dwattr $C$DW$T$52, DW_AT_name("AQCSFRC_REG")
    4248                      .dwattr $C$DW$T$52, DW_AT_byte_size(0x01)
    4249              $C$DW$310       .dwtag  DW_TAG_member
    4250                      .dwattr $C$DW$310, DW_AT_type(*$C$DW$T$19)
    4251                      .dwattr $C$DW$310, DW_AT_name("all")
    4252                      .dwattr $C$DW$310, DW_AT_TI_symbol_name("_all")
    4253                      .dwattr $C$DW$310, DW_AT_data_member_location[DW_OP_plus_uconst 0x0]
    4254                      .dwattr $C$DW$310, DW_AT_accessibility(DW_ACCESS_public)
    4255              
    4256              $C$DW$311       .dwtag  DW_TAG_member
    4257                      .dwattr $C$DW$311, DW_AT_type(*$C$DW$T$51)
    4258                      .dwattr $C$DW$311, DW_AT_name("bit")
    4259                      .dwattr $C$DW$311, DW_AT_TI_symbol_name("_bit")
    4260                      .dwattr $C$DW$311, DW_AT_data_member_location[DW_OP_plus_uconst 0x0]
    4261                      .dwattr $C$DW$311, DW_AT_accessibility(DW_ACCESS_public)
    4262              
    4263                      .dwendtag $C$DW$T$52
    4264              
    4265              
    4266              $C$DW$T$53      .dwtag  DW_TAG_structure_type
    4267                      .dwattr $C$DW$T$53, DW_AT_name("AQCTL_BITS")
    4268                      .dwattr $C$DW$T$53, DW_AT_byte_size(0x01)
    4269              $C$DW$312       .dwtag  DW_TAG_member
TMS320C2000 Assembler PC v16.9.6 Tue Mar 06 18:34:46 2018

Tools Copyright (c) 1996-2017 Texas Instruments Incorporated
C:\Users\Admin\AppData\Local\Temp\{ED9AE313-281A-4435-8F2A-5411619B06A2} PAGE   86

    4270                      .dwattr $C$DW$312, DW_AT_type(*$C$DW$T$19)
    4271                      .dwattr $C$DW$312, DW_AT_name("ZRO")
    4272                      .dwattr $C$DW$312, DW_AT_TI_symbol_name("_ZRO")
    4273                      .dwattr $C$DW$312, DW_AT_bit_offset(0x0e)
    4274                      .dwattr $C$DW$312, DW_AT_bit_size(0x02)
    4275                      .dwattr $C$DW$312, DW_AT_data_member_location[DW_OP_plus_uconst 0x0]
    4276                      .dwattr $C$DW$312, DW_AT_accessibility(DW_ACCESS_public)
    4277              
    4278              $C$DW$313       .dwtag  DW_TAG_member
    4279                      .dwattr $C$DW$313, DW_AT_type(*$C$DW$T$19)
    4280                      .dwattr $C$DW$313, DW_AT_name("PRD")
    4281                      .dwattr $C$DW$313, DW_AT_TI_symbol_name("_PRD")
    4282                      .dwattr $C$DW$313, DW_AT_bit_offset(0x0c)
    4283                      .dwattr $C$DW$313, DW_AT_bit_size(0x02)
    4284                      .dwattr $C$DW$313, DW_AT_data_member_location[DW_OP_plus_uconst 0x0]
    4285                      .dwattr $C$DW$313, DW_AT_accessibility(DW_ACCESS_public)
    4286              
    4287              $C$DW$314       .dwtag  DW_TAG_member
    4288                      .dwattr $C$DW$314, DW_AT_type(*$C$DW$T$19)
    4289                      .dwattr $C$DW$314, DW_AT_name("CAU")
    4290                      .dwattr $C$DW$314, DW_AT_TI_symbol_name("_CAU")
    4291                      .dwattr $C$DW$314, DW_AT_bit_offset(0x0a)
    4292                      .dwattr $C$DW$314, DW_AT_bit_size(0x02)
    4293                      .dwattr $C$DW$314, DW_AT_data_member_location[DW_OP_plus_uconst 0x0]
    4294                      .dwattr $C$DW$314, DW_AT_accessibility(DW_ACCESS_public)
    4295              
    4296              $C$DW$315       .dwtag  DW_TAG_member
    4297                      .dwattr $C$DW$315, DW_AT_type(*$C$DW$T$19)
    4298                      .dwattr $C$DW$315, DW_AT_name("CAD")
    4299                      .dwattr $C$DW$315, DW_AT_TI_symbol_name("_CAD")
    4300                      .dwattr $C$DW$315, DW_AT_bit_offset(0x08)
    4301                      .dwattr $C$DW$315, DW_AT_bit_size(0x02)
    4302                      .dwattr $C$DW$315, DW_AT_data_member_location[DW_OP_plus_uconst 0x0]
    4303                      .dwattr $C$DW$315, DW_AT_accessibility(DW_ACCESS_public)
    4304              
    4305              $C$DW$316       .dwtag  DW_TAG_member
    4306                      .dwattr $C$DW$316, DW_AT_type(*$C$DW$T$19)
    4307                      .dwattr $C$DW$316, DW_AT_name("CBU")
    4308                      .dwattr $C$DW$316, DW_AT_TI_symbol_name("_CBU")
    4309                      .dwattr $C$DW$316, DW_AT_bit_offset(0x06)
    4310                      .dwattr $C$DW$316, DW_AT_bit_size(0x02)
    4311                      .dwattr $C$DW$316, DW_AT_data_member_location[DW_OP_plus_uconst 0x0]
    4312                      .dwattr $C$DW$316, DW_AT_accessibility(DW_ACCESS_public)
    4313              
    4314              $C$DW$317       .dwtag  DW_TAG_member
    4315                      .dwattr $C$DW$317, DW_AT_type(*$C$DW$T$19)
    4316                      .dwattr $C$DW$317, DW_AT_name("CBD")
    4317                      .dwattr $C$DW$317, DW_AT_TI_symbol_name("_CBD")
    4318                      .dwattr $C$DW$317, DW_AT_bit_offset(0x04)
    4319                      .dwattr $C$DW$317, DW_AT_bit_size(0x02)
    4320                      .dwattr $C$DW$317, DW_AT_data_member_location[DW_OP_plus_uconst 0x0]
    4321                      .dwattr $C$DW$317, DW_AT_accessibility(DW_ACCESS_public)
    4322              
    4323              $C$DW$318       .dwtag  DW_TAG_member
    4324                      .dwattr $C$DW$318, DW_AT_type(*$C$DW$T$19)
TMS320C2000 Assembler PC v16.9.6 Tue Mar 06 18:34:46 2018

Tools Copyright (c) 1996-2017 Texas Instruments Incorporated
C:\Users\Admin\AppData\Local\Temp\{ED9AE313-281A-4435-8F2A-5411619B06A2} PAGE   87

    4325                      .dwattr $C$DW$318, DW_AT_name("rsvd")
    4326                      .dwattr $C$DW$318, DW_AT_TI_symbol_name("_rsvd")
    4327                      .dwattr $C$DW$318, DW_AT_bit_offset(0x00)
    4328                      .dwattr $C$DW$318, DW_AT_bit_size(0x04)
    4329                      .dwattr $C$DW$318, DW_AT_data_member_location[DW_OP_plus_uconst 0x0]
    4330                      .dwattr $C$DW$318, DW_AT_accessibility(DW_ACCESS_public)
    4331              
    4332                      .dwendtag $C$DW$T$53
    4333              
    4334              
    4335              $C$DW$T$54      .dwtag  DW_TAG_union_type
    4336                      .dwattr $C$DW$T$54, DW_AT_name("AQCTL_REG")
    4337                      .dwattr $C$DW$T$54, DW_AT_byte_size(0x01)
    4338              $C$DW$319       .dwtag  DW_TAG_member
    4339                      .dwattr $C$DW$319, DW_AT_type(*$C$DW$T$19)
    4340                      .dwattr $C$DW$319, DW_AT_name("all")
    4341                      .dwattr $C$DW$319, DW_AT_TI_symbol_name("_all")
    4342                      .dwattr $C$DW$319, DW_AT_data_member_location[DW_OP_plus_uconst 0x0]
    4343                      .dwattr $C$DW$319, DW_AT_accessibility(DW_ACCESS_public)
    4344              
    4345              $C$DW$320       .dwtag  DW_TAG_member
    4346                      .dwattr $C$DW$320, DW_AT_type(*$C$DW$T$53)
    4347                      .dwattr $C$DW$320, DW_AT_name("bit")
    4348                      .dwattr $C$DW$320, DW_AT_TI_symbol_name("_bit")
    4349                      .dwattr $C$DW$320, DW_AT_data_member_location[DW_OP_plus_uconst 0x0]
    4350                      .dwattr $C$DW$320, DW_AT_accessibility(DW_ACCESS_public)
    4351              
    4352                      .dwendtag $C$DW$T$54
    4353              
    4354              
    4355              $C$DW$T$55      .dwtag  DW_TAG_structure_type
    4356                      .dwattr $C$DW$T$55, DW_AT_name("AQSFRC_BITS")
    4357                      .dwattr $C$DW$T$55, DW_AT_byte_size(0x01)
    4358              $C$DW$321       .dwtag  DW_TAG_member
    4359                      .dwattr $C$DW$321, DW_AT_type(*$C$DW$T$19)
    4360                      .dwattr $C$DW$321, DW_AT_name("ACTSFA")
    4361                      .dwattr $C$DW$321, DW_AT_TI_symbol_name("_ACTSFA")
    4362                      .dwattr $C$DW$321, DW_AT_bit_offset(0x0e)
    4363                      .dwattr $C$DW$321, DW_AT_bit_size(0x02)
    4364                      .dwattr $C$DW$321, DW_AT_data_member_location[DW_OP_plus_uconst 0x0]
    4365                      .dwattr $C$DW$321, DW_AT_accessibility(DW_ACCESS_public)
    4366              
    4367              $C$DW$322       .dwtag  DW_TAG_member
    4368                      .dwattr $C$DW$322, DW_AT_type(*$C$DW$T$19)
    4369                      .dwattr $C$DW$322, DW_AT_name("OTSFA")
    4370                      .dwattr $C$DW$322, DW_AT_TI_symbol_name("_OTSFA")
    4371                      .dwattr $C$DW$322, DW_AT_bit_offset(0x0d)
    4372                      .dwattr $C$DW$322, DW_AT_bit_size(0x01)
    4373                      .dwattr $C$DW$322, DW_AT_data_member_location[DW_OP_plus_uconst 0x0]
    4374                      .dwattr $C$DW$322, DW_AT_accessibility(DW_ACCESS_public)
    4375              
    4376              $C$DW$323       .dwtag  DW_TAG_member
    4377                      .dwattr $C$DW$323, DW_AT_type(*$C$DW$T$19)
    4378                      .dwattr $C$DW$323, DW_AT_name("ACTSFB")
    4379                      .dwattr $C$DW$323, DW_AT_TI_symbol_name("_ACTSFB")
TMS320C2000 Assembler PC v16.9.6 Tue Mar 06 18:34:46 2018

Tools Copyright (c) 1996-2017 Texas Instruments Incorporated
C:\Users\Admin\AppData\Local\Temp\{ED9AE313-281A-4435-8F2A-5411619B06A2} PAGE   88

    4380                      .dwattr $C$DW$323, DW_AT_bit_offset(0x0b)
    4381                      .dwattr $C$DW$323, DW_AT_bit_size(0x02)
    4382                      .dwattr $C$DW$323, DW_AT_data_member_location[DW_OP_plus_uconst 0x0]
    4383                      .dwattr $C$DW$323, DW_AT_accessibility(DW_ACCESS_public)
    4384              
    4385              $C$DW$324       .dwtag  DW_TAG_member
    4386                      .dwattr $C$DW$324, DW_AT_type(*$C$DW$T$19)
    4387                      .dwattr $C$DW$324, DW_AT_name("OTSFB")
    4388                      .dwattr $C$DW$324, DW_AT_TI_symbol_name("_OTSFB")
    4389                      .dwattr $C$DW$324, DW_AT_bit_offset(0x0a)
    4390                      .dwattr $C$DW$324, DW_AT_bit_size(0x01)
    4391                      .dwattr $C$DW$324, DW_AT_data_member_location[DW_OP_plus_uconst 0x0]
    4392                      .dwattr $C$DW$324, DW_AT_accessibility(DW_ACCESS_public)
    4393              
    4394              $C$DW$325       .dwtag  DW_TAG_member
    4395                      .dwattr $C$DW$325, DW_AT_type(*$C$DW$T$19)
    4396                      .dwattr $C$DW$325, DW_AT_name("RLDCSF")
    4397                      .dwattr $C$DW$325, DW_AT_TI_symbol_name("_RLDCSF")
    4398                      .dwattr $C$DW$325, DW_AT_bit_offset(0x08)
    4399                      .dwattr $C$DW$325, DW_AT_bit_size(0x02)
    4400                      .dwattr $C$DW$325, DW_AT_data_member_location[DW_OP_plus_uconst 0x0]
    4401                      .dwattr $C$DW$325, DW_AT_accessibility(DW_ACCESS_public)
    4402              
    4403              $C$DW$326       .dwtag  DW_TAG_member
    4404                      .dwattr $C$DW$326, DW_AT_type(*$C$DW$T$19)
    4405                      .dwattr $C$DW$326, DW_AT_name("rsvd1")
    4406                      .dwattr $C$DW$326, DW_AT_TI_symbol_name("_rsvd1")
    4407                      .dwattr $C$DW$326, DW_AT_bit_offset(0x00)
    4408                      .dwattr $C$DW$326, DW_AT_bit_size(0x08)
    4409                      .dwattr $C$DW$326, DW_AT_data_member_location[DW_OP_plus_uconst 0x0]
    4410                      .dwattr $C$DW$326, DW_AT_accessibility(DW_ACCESS_public)
    4411              
    4412                      .dwendtag $C$DW$T$55
    4413              
    4414              
    4415              $C$DW$T$56      .dwtag  DW_TAG_union_type
    4416                      .dwattr $C$DW$T$56, DW_AT_name("AQSFRC_REG")
    4417                      .dwattr $C$DW$T$56, DW_AT_byte_size(0x01)
    4418              $C$DW$327       .dwtag  DW_TAG_member
    4419                      .dwattr $C$DW$327, DW_AT_type(*$C$DW$T$19)
    4420                      .dwattr $C$DW$327, DW_AT_name("all")
    4421                      .dwattr $C$DW$327, DW_AT_TI_symbol_name("_all")
    4422                      .dwattr $C$DW$327, DW_AT_data_member_location[DW_OP_plus_uconst 0x0]
    4423                      .dwattr $C$DW$327, DW_AT_accessibility(DW_ACCESS_public)
    4424              
    4425              $C$DW$328       .dwtag  DW_TAG_member
    4426                      .dwattr $C$DW$328, DW_AT_type(*$C$DW$T$55)
    4427                      .dwattr $C$DW$328, DW_AT_name("bit")
    4428                      .dwattr $C$DW$328, DW_AT_TI_symbol_name("_bit")
    4429                      .dwattr $C$DW$328, DW_AT_data_member_location[DW_OP_plus_uconst 0x0]
    4430                      .dwattr $C$DW$328, DW_AT_accessibility(DW_ACCESS_public)
    4431              
    4432                      .dwendtag $C$DW$T$56
    4433              
    4434              
TMS320C2000 Assembler PC v16.9.6 Tue Mar 06 18:34:46 2018

Tools Copyright (c) 1996-2017 Texas Instruments Incorporated
C:\Users\Admin\AppData\Local\Temp\{ED9AE313-281A-4435-8F2A-5411619B06A2} PAGE   89

    4435              $C$DW$T$57      .dwtag  DW_TAG_structure_type
    4436                      .dwattr $C$DW$T$57, DW_AT_name("CLKCTL_BITS")
    4437                      .dwattr $C$DW$T$57, DW_AT_byte_size(0x01)
    4438              $C$DW$329       .dwtag  DW_TAG_member
    4439                      .dwattr $C$DW$329, DW_AT_type(*$C$DW$T$19)
    4440                      .dwattr $C$DW$329, DW_AT_name("OSCCLKSRCSEL")
    4441                      .dwattr $C$DW$329, DW_AT_TI_symbol_name("_OSCCLKSRCSEL")
    4442                      .dwattr $C$DW$329, DW_AT_bit_offset(0x0f)
    4443                      .dwattr $C$DW$329, DW_AT_bit_size(0x01)
    4444                      .dwattr $C$DW$329, DW_AT_data_member_location[DW_OP_plus_uconst 0x0]
    4445                      .dwattr $C$DW$329, DW_AT_accessibility(DW_ACCESS_public)
    4446              
    4447              $C$DW$330       .dwtag  DW_TAG_member
    4448                      .dwattr $C$DW$330, DW_AT_type(*$C$DW$T$19)
    4449                      .dwattr $C$DW$330, DW_AT_name("OSCCLKSRC2SEL")
    4450                      .dwattr $C$DW$330, DW_AT_TI_symbol_name("_OSCCLKSRC2SEL")
    4451                      .dwattr $C$DW$330, DW_AT_bit_offset(0x0e)
    4452                      .dwattr $C$DW$330, DW_AT_bit_size(0x01)
    4453                      .dwattr $C$DW$330, DW_AT_data_member_location[DW_OP_plus_uconst 0x0]
    4454                      .dwattr $C$DW$330, DW_AT_accessibility(DW_ACCESS_public)
    4455              
    4456              $C$DW$331       .dwtag  DW_TAG_member
    4457                      .dwattr $C$DW$331, DW_AT_type(*$C$DW$T$19)
    4458                      .dwattr $C$DW$331, DW_AT_name("WDCLKSRCSEL")
    4459                      .dwattr $C$DW$331, DW_AT_TI_symbol_name("_WDCLKSRCSEL")
    4460                      .dwattr $C$DW$331, DW_AT_bit_offset(0x0d)
    4461                      .dwattr $C$DW$331, DW_AT_bit_size(0x01)
    4462                      .dwattr $C$DW$331, DW_AT_data_member_location[DW_OP_plus_uconst 0x0]
    4463                      .dwattr $C$DW$331, DW_AT_accessibility(DW_ACCESS_public)
    4464              
    4465              $C$DW$332       .dwtag  DW_TAG_member
    4466                      .dwattr $C$DW$332, DW_AT_type(*$C$DW$T$19)
    4467                      .dwattr $C$DW$332, DW_AT_name("TMR2CLKSRCSEL")
    4468                      .dwattr $C$DW$332, DW_AT_TI_symbol_name("_TMR2CLKSRCSEL")
    4469                      .dwattr $C$DW$332, DW_AT_bit_offset(0x0b)
    4470                      .dwattr $C$DW$332, DW_AT_bit_size(0x02)
    4471                      .dwattr $C$DW$332, DW_AT_data_member_location[DW_OP_plus_uconst 0x0]
    4472                      .dwattr $C$DW$332, DW_AT_accessibility(DW_ACCESS_public)
    4473              
    4474              $C$DW$333       .dwtag  DW_TAG_member
    4475                      .dwattr $C$DW$333, DW_AT_type(*$C$DW$T$19)
    4476                      .dwattr $C$DW$333, DW_AT_name("TMR2CLKPRESCALE")
    4477                      .dwattr $C$DW$333, DW_AT_TI_symbol_name("_TMR2CLKPRESCALE")
    4478                      .dwattr $C$DW$333, DW_AT_bit_offset(0x08)
    4479                      .dwattr $C$DW$333, DW_AT_bit_size(0x03)
    4480                      .dwattr $C$DW$333, DW_AT_data_member_location[DW_OP_plus_uconst 0x0]
    4481                      .dwattr $C$DW$333, DW_AT_accessibility(DW_ACCESS_public)
    4482              
    4483              $C$DW$334       .dwtag  DW_TAG_member
    4484                      .dwattr $C$DW$334, DW_AT_type(*$C$DW$T$19)
    4485                      .dwattr $C$DW$334, DW_AT_name("INTOSC1OFF")
    4486                      .dwattr $C$DW$334, DW_AT_TI_symbol_name("_INTOSC1OFF")
    4487                      .dwattr $C$DW$334, DW_AT_bit_offset(0x07)
    4488                      .dwattr $C$DW$334, DW_AT_bit_size(0x01)
    4489                      .dwattr $C$DW$334, DW_AT_data_member_location[DW_OP_plus_uconst 0x0]
TMS320C2000 Assembler PC v16.9.6 Tue Mar 06 18:34:46 2018

Tools Copyright (c) 1996-2017 Texas Instruments Incorporated
C:\Users\Admin\AppData\Local\Temp\{ED9AE313-281A-4435-8F2A-5411619B06A2} PAGE   90

    4490                      .dwattr $C$DW$334, DW_AT_accessibility(DW_ACCESS_public)
    4491              
    4492              $C$DW$335       .dwtag  DW_TAG_member
    4493                      .dwattr $C$DW$335, DW_AT_type(*$C$DW$T$19)
    4494                      .dwattr $C$DW$335, DW_AT_name("INTOSC1HALTI")
    4495                      .dwattr $C$DW$335, DW_AT_TI_symbol_name("_INTOSC1HALTI")
    4496                      .dwattr $C$DW$335, DW_AT_bit_offset(0x06)
    4497                      .dwattr $C$DW$335, DW_AT_bit_size(0x01)
    4498                      .dwattr $C$DW$335, DW_AT_data_member_location[DW_OP_plus_uconst 0x0]
    4499                      .dwattr $C$DW$335, DW_AT_accessibility(DW_ACCESS_public)
    4500              
    4501              $C$DW$336       .dwtag  DW_TAG_member
    4502                      .dwattr $C$DW$336, DW_AT_type(*$C$DW$T$19)
    4503                      .dwattr $C$DW$336, DW_AT_name("INTOSC2OFF")
    4504                      .dwattr $C$DW$336, DW_AT_TI_symbol_name("_INTOSC2OFF")
    4505                      .dwattr $C$DW$336, DW_AT_bit_offset(0x05)
    4506                      .dwattr $C$DW$336, DW_AT_bit_size(0x01)
    4507                      .dwattr $C$DW$336, DW_AT_data_member_location[DW_OP_plus_uconst 0x0]
    4508                      .dwattr $C$DW$336, DW_AT_accessibility(DW_ACCESS_public)
    4509              
    4510              $C$DW$337       .dwtag  DW_TAG_member
    4511                      .dwattr $C$DW$337, DW_AT_type(*$C$DW$T$19)
    4512                      .dwattr $C$DW$337, DW_AT_name("INTOSC2HALTI")
    4513                      .dwattr $C$DW$337, DW_AT_TI_symbol_name("_INTOSC2HALTI")
    4514                      .dwattr $C$DW$337, DW_AT_bit_offset(0x04)
    4515                      .dwattr $C$DW$337, DW_AT_bit_size(0x01)
    4516                      .dwattr $C$DW$337, DW_AT_data_member_location[DW_OP_plus_uconst 0x0]
    4517                      .dwattr $C$DW$337, DW_AT_accessibility(DW_ACCESS_public)
    4518              
    4519              $C$DW$338       .dwtag  DW_TAG_member
    4520                      .dwattr $C$DW$338, DW_AT_type(*$C$DW$T$19)
    4521                      .dwattr $C$DW$338, DW_AT_name("WDHALTI")
    4522                      .dwattr $C$DW$338, DW_AT_TI_symbol_name("_WDHALTI")
    4523                      .dwattr $C$DW$338, DW_AT_bit_offset(0x03)
    4524                      .dwattr $C$DW$338, DW_AT_bit_size(0x01)
    4525                      .dwattr $C$DW$338, DW_AT_data_member_location[DW_OP_plus_uconst 0x0]
    4526                      .dwattr $C$DW$338, DW_AT_accessibility(DW_ACCESS_public)
    4527              
    4528              $C$DW$339       .dwtag  DW_TAG_member
    4529                      .dwattr $C$DW$339, DW_AT_type(*$C$DW$T$19)
    4530                      .dwattr $C$DW$339, DW_AT_name("XCLKINOFF")
    4531                      .dwattr $C$DW$339, DW_AT_TI_symbol_name("_XCLKINOFF")
    4532                      .dwattr $C$DW$339, DW_AT_bit_offset(0x02)
    4533                      .dwattr $C$DW$339, DW_AT_bit_size(0x01)
    4534                      .dwattr $C$DW$339, DW_AT_data_member_location[DW_OP_plus_uconst 0x0]
    4535                      .dwattr $C$DW$339, DW_AT_accessibility(DW_ACCESS_public)
    4536              
    4537              $C$DW$340       .dwtag  DW_TAG_member
    4538                      .dwattr $C$DW$340, DW_AT_type(*$C$DW$T$19)
    4539                      .dwattr $C$DW$340, DW_AT_name("XTALOSCOFF")
    4540                      .dwattr $C$DW$340, DW_AT_TI_symbol_name("_XTALOSCOFF")
    4541                      .dwattr $C$DW$340, DW_AT_bit_offset(0x01)
    4542                      .dwattr $C$DW$340, DW_AT_bit_size(0x01)
    4543                      .dwattr $C$DW$340, DW_AT_data_member_location[DW_OP_plus_uconst 0x0]
    4544                      .dwattr $C$DW$340, DW_AT_accessibility(DW_ACCESS_public)
TMS320C2000 Assembler PC v16.9.6 Tue Mar 06 18:34:46 2018

Tools Copyright (c) 1996-2017 Texas Instruments Incorporated
C:\Users\Admin\AppData\Local\Temp\{ED9AE313-281A-4435-8F2A-5411619B06A2} PAGE   91

    4545              
    4546              $C$DW$341       .dwtag  DW_TAG_member
    4547                      .dwattr $C$DW$341, DW_AT_type(*$C$DW$T$19)
    4548                      .dwattr $C$DW$341, DW_AT_name("NMIRESETSEL")
    4549                      .dwattr $C$DW$341, DW_AT_TI_symbol_name("_NMIRESETSEL")
    4550                      .dwattr $C$DW$341, DW_AT_bit_offset(0x00)
    4551                      .dwattr $C$DW$341, DW_AT_bit_size(0x01)
    4552                      .dwattr $C$DW$341, DW_AT_data_member_location[DW_OP_plus_uconst 0x0]
    4553                      .dwattr $C$DW$341, DW_AT_accessibility(DW_ACCESS_public)
    4554              
    4555                      .dwendtag $C$DW$T$57
    4556              
    4557              
    4558              $C$DW$T$58      .dwtag  DW_TAG_union_type
    4559                      .dwattr $C$DW$T$58, DW_AT_name("CLKCTL_REG")
    4560                      .dwattr $C$DW$T$58, DW_AT_byte_size(0x01)
    4561              $C$DW$342       .dwtag  DW_TAG_member
    4562                      .dwattr $C$DW$342, DW_AT_type(*$C$DW$T$19)
    4563                      .dwattr $C$DW$342, DW_AT_name("all")
    4564                      .dwattr $C$DW$342, DW_AT_TI_symbol_name("_all")
    4565                      .dwattr $C$DW$342, DW_AT_data_member_location[DW_OP_plus_uconst 0x0]
    4566                      .dwattr $C$DW$342, DW_AT_accessibility(DW_ACCESS_public)
    4567              
    4568              $C$DW$343       .dwtag  DW_TAG_member
    4569                      .dwattr $C$DW$343, DW_AT_type(*$C$DW$T$57)
    4570                      .dwattr $C$DW$343, DW_AT_name("bit")
    4571                      .dwattr $C$DW$343, DW_AT_TI_symbol_name("_bit")
    4572                      .dwattr $C$DW$343, DW_AT_data_member_location[DW_OP_plus_uconst 0x0]
    4573                      .dwattr $C$DW$343, DW_AT_accessibility(DW_ACCESS_public)
    4574              
    4575                      .dwendtag $C$DW$T$58
    4576              
    4577              
    4578              $C$DW$T$59      .dwtag  DW_TAG_union_type
    4579                      .dwattr $C$DW$T$59, DW_AT_name("CMPA_HRPWM_GROUP")
    4580                      .dwattr $C$DW$T$59, DW_AT_byte_size(0x02)
    4581              $C$DW$344       .dwtag  DW_TAG_member
    4582                      .dwattr $C$DW$344, DW_AT_type(*$C$DW$T$49)
    4583                      .dwattr $C$DW$344, DW_AT_name("all")
    4584                      .dwattr $C$DW$344, DW_AT_TI_symbol_name("_all")
    4585                      .dwattr $C$DW$344, DW_AT_data_member_location[DW_OP_plus_uconst 0x0]
    4586                      .dwattr $C$DW$344, DW_AT_accessibility(DW_ACCESS_public)
    4587              
    4588              $C$DW$345       .dwtag  DW_TAG_member
    4589                      .dwattr $C$DW$345, DW_AT_type(*$C$DW$T$60)
    4590                      .dwattr $C$DW$345, DW_AT_name("half")
    4591                      .dwattr $C$DW$345, DW_AT_TI_symbol_name("_half")
    4592                      .dwattr $C$DW$345, DW_AT_data_member_location[DW_OP_plus_uconst 0x0]
    4593                      .dwattr $C$DW$345, DW_AT_accessibility(DW_ACCESS_public)
    4594              
    4595                      .dwendtag $C$DW$T$59
    4596              
    4597              
    4598              $C$DW$T$60      .dwtag  DW_TAG_structure_type
    4599                      .dwattr $C$DW$T$60, DW_AT_name("CMPA_HRPWM_REG")
TMS320C2000 Assembler PC v16.9.6 Tue Mar 06 18:34:46 2018

Tools Copyright (c) 1996-2017 Texas Instruments Incorporated
C:\Users\Admin\AppData\Local\Temp\{ED9AE313-281A-4435-8F2A-5411619B06A2} PAGE   92

    4600                      .dwattr $C$DW$T$60, DW_AT_byte_size(0x02)
    4601              $C$DW$346       .dwtag  DW_TAG_member
    4602                      .dwattr $C$DW$346, DW_AT_type(*$C$DW$T$19)
    4603                      .dwattr $C$DW$346, DW_AT_name("CMPAHR")
    4604                      .dwattr $C$DW$346, DW_AT_TI_symbol_name("_CMPAHR")
    4605                      .dwattr $C$DW$346, DW_AT_data_member_location[DW_OP_plus_uconst 0x0]
    4606                      .dwattr $C$DW$346, DW_AT_accessibility(DW_ACCESS_public)
    4607              
    4608              $C$DW$347       .dwtag  DW_TAG_member
    4609                      .dwattr $C$DW$347, DW_AT_type(*$C$DW$T$19)
    4610                      .dwattr $C$DW$347, DW_AT_name("CMPA")
    4611                      .dwattr $C$DW$347, DW_AT_TI_symbol_name("_CMPA")
    4612                      .dwattr $C$DW$347, DW_AT_data_member_location[DW_OP_plus_uconst 0x1]
    4613                      .dwattr $C$DW$347, DW_AT_accessibility(DW_ACCESS_public)
    4614              
    4615                      .dwendtag $C$DW$T$60
    4616              
    4617              
    4618              $C$DW$T$61      .dwtag  DW_TAG_structure_type
    4619                      .dwattr $C$DW$T$61, DW_AT_name("CMPCTL_BITS")
    4620                      .dwattr $C$DW$T$61, DW_AT_byte_size(0x01)
    4621              $C$DW$348       .dwtag  DW_TAG_member
    4622                      .dwattr $C$DW$348, DW_AT_type(*$C$DW$T$19)
    4623                      .dwattr $C$DW$348, DW_AT_name("LOADAMODE")
    4624                      .dwattr $C$DW$348, DW_AT_TI_symbol_name("_LOADAMODE")
    4625                      .dwattr $C$DW$348, DW_AT_bit_offset(0x0e)
    4626                      .dwattr $C$DW$348, DW_AT_bit_size(0x02)
    4627                      .dwattr $C$DW$348, DW_AT_data_member_location[DW_OP_plus_uconst 0x0]
    4628                      .dwattr $C$DW$348, DW_AT_accessibility(DW_ACCESS_public)
    4629              
    4630              $C$DW$349       .dwtag  DW_TAG_member
    4631                      .dwattr $C$DW$349, DW_AT_type(*$C$DW$T$19)
    4632                      .dwattr $C$DW$349, DW_AT_name("LOADBMODE")
    4633                      .dwattr $C$DW$349, DW_AT_TI_symbol_name("_LOADBMODE")
    4634                      .dwattr $C$DW$349, DW_AT_bit_offset(0x0c)
    4635                      .dwattr $C$DW$349, DW_AT_bit_size(0x02)
    4636                      .dwattr $C$DW$349, DW_AT_data_member_location[DW_OP_plus_uconst 0x0]
    4637                      .dwattr $C$DW$349, DW_AT_accessibility(DW_ACCESS_public)
    4638              
    4639              $C$DW$350       .dwtag  DW_TAG_member
    4640                      .dwattr $C$DW$350, DW_AT_type(*$C$DW$T$19)
    4641                      .dwattr $C$DW$350, DW_AT_name("SHDWAMODE")
    4642                      .dwattr $C$DW$350, DW_AT_TI_symbol_name("_SHDWAMODE")
    4643                      .dwattr $C$DW$350, DW_AT_bit_offset(0x0b)
    4644                      .dwattr $C$DW$350, DW_AT_bit_size(0x01)
    4645                      .dwattr $C$DW$350, DW_AT_data_member_location[DW_OP_plus_uconst 0x0]
    4646                      .dwattr $C$DW$350, DW_AT_accessibility(DW_ACCESS_public)
    4647              
    4648              $C$DW$351       .dwtag  DW_TAG_member
    4649                      .dwattr $C$DW$351, DW_AT_type(*$C$DW$T$19)
    4650                      .dwattr $C$DW$351, DW_AT_name("rsvd1")
    4651                      .dwattr $C$DW$351, DW_AT_TI_symbol_name("_rsvd1")
    4652                      .dwattr $C$DW$351, DW_AT_bit_offset(0x0a)
    4653                      .dwattr $C$DW$351, DW_AT_bit_size(0x01)
    4654                      .dwattr $C$DW$351, DW_AT_data_member_location[DW_OP_plus_uconst 0x0]
TMS320C2000 Assembler PC v16.9.6 Tue Mar 06 18:34:46 2018

Tools Copyright (c) 1996-2017 Texas Instruments Incorporated
C:\Users\Admin\AppData\Local\Temp\{ED9AE313-281A-4435-8F2A-5411619B06A2} PAGE   93

    4655                      .dwattr $C$DW$351, DW_AT_accessibility(DW_ACCESS_public)
    4656              
    4657              $C$DW$352       .dwtag  DW_TAG_member
    4658                      .dwattr $C$DW$352, DW_AT_type(*$C$DW$T$19)
    4659                      .dwattr $C$DW$352, DW_AT_name("SHDWBMODE")
    4660                      .dwattr $C$DW$352, DW_AT_TI_symbol_name("_SHDWBMODE")
    4661                      .dwattr $C$DW$352, DW_AT_bit_offset(0x09)
    4662                      .dwattr $C$DW$352, DW_AT_bit_size(0x01)
    4663                      .dwattr $C$DW$352, DW_AT_data_member_location[DW_OP_plus_uconst 0x0]
    4664                      .dwattr $C$DW$352, DW_AT_accessibility(DW_ACCESS_public)
    4665              
    4666              $C$DW$353       .dwtag  DW_TAG_member
    4667                      .dwattr $C$DW$353, DW_AT_type(*$C$DW$T$19)
    4668                      .dwattr $C$DW$353, DW_AT_name("rsvd2")
    4669                      .dwattr $C$DW$353, DW_AT_TI_symbol_name("_rsvd2")
    4670                      .dwattr $C$DW$353, DW_AT_bit_offset(0x08)
    4671                      .dwattr $C$DW$353, DW_AT_bit_size(0x01)
    4672                      .dwattr $C$DW$353, DW_AT_data_member_location[DW_OP_plus_uconst 0x0]
    4673                      .dwattr $C$DW$353, DW_AT_accessibility(DW_ACCESS_public)
    4674              
    4675              $C$DW$354       .dwtag  DW_TAG_member
    4676                      .dwattr $C$DW$354, DW_AT_type(*$C$DW$T$19)
    4677                      .dwattr $C$DW$354, DW_AT_name("SHDWAFULL")
    4678                      .dwattr $C$DW$354, DW_AT_TI_symbol_name("_SHDWAFULL")
    4679                      .dwattr $C$DW$354, DW_AT_bit_offset(0x07)
    4680                      .dwattr $C$DW$354, DW_AT_bit_size(0x01)
    4681                      .dwattr $C$DW$354, DW_AT_data_member_location[DW_OP_plus_uconst 0x0]
    4682                      .dwattr $C$DW$354, DW_AT_accessibility(DW_ACCESS_public)
    4683              
    4684              $C$DW$355       .dwtag  DW_TAG_member
    4685                      .dwattr $C$DW$355, DW_AT_type(*$C$DW$T$19)
    4686                      .dwattr $C$DW$355, DW_AT_name("SHDWBFULL")
    4687                      .dwattr $C$DW$355, DW_AT_TI_symbol_name("_SHDWBFULL")
    4688                      .dwattr $C$DW$355, DW_AT_bit_offset(0x06)
    4689                      .dwattr $C$DW$355, DW_AT_bit_size(0x01)
    4690                      .dwattr $C$DW$355, DW_AT_data_member_location[DW_OP_plus_uconst 0x0]
    4691                      .dwattr $C$DW$355, DW_AT_accessibility(DW_ACCESS_public)
    4692              
    4693              $C$DW$356       .dwtag  DW_TAG_member
    4694                      .dwattr $C$DW$356, DW_AT_type(*$C$DW$T$19)
    4695                      .dwattr $C$DW$356, DW_AT_name("rsvd3")
    4696                      .dwattr $C$DW$356, DW_AT_TI_symbol_name("_rsvd3")
    4697                      .dwattr $C$DW$356, DW_AT_bit_offset(0x00)
    4698                      .dwattr $C$DW$356, DW_AT_bit_size(0x06)
    4699                      .dwattr $C$DW$356, DW_AT_data_member_location[DW_OP_plus_uconst 0x0]
    4700                      .dwattr $C$DW$356, DW_AT_accessibility(DW_ACCESS_public)
    4701              
    4702                      .dwendtag $C$DW$T$61
    4703              
    4704              
    4705              $C$DW$T$62      .dwtag  DW_TAG_union_type
    4706                      .dwattr $C$DW$T$62, DW_AT_name("CMPCTL_REG")
    4707                      .dwattr $C$DW$T$62, DW_AT_byte_size(0x01)
    4708              $C$DW$357       .dwtag  DW_TAG_member
    4709                      .dwattr $C$DW$357, DW_AT_type(*$C$DW$T$19)
TMS320C2000 Assembler PC v16.9.6 Tue Mar 06 18:34:46 2018

Tools Copyright (c) 1996-2017 Texas Instruments Incorporated
C:\Users\Admin\AppData\Local\Temp\{ED9AE313-281A-4435-8F2A-5411619B06A2} PAGE   94

    4710                      .dwattr $C$DW$357, DW_AT_name("all")
    4711                      .dwattr $C$DW$357, DW_AT_TI_symbol_name("_all")
    4712                      .dwattr $C$DW$357, DW_AT_data_member_location[DW_OP_plus_uconst 0x0]
    4713                      .dwattr $C$DW$357, DW_AT_accessibility(DW_ACCESS_public)
    4714              
    4715              $C$DW$358       .dwtag  DW_TAG_member
    4716                      .dwattr $C$DW$358, DW_AT_type(*$C$DW$T$61)
    4717                      .dwattr $C$DW$358, DW_AT_name("bit")
    4718                      .dwattr $C$DW$358, DW_AT_TI_symbol_name("_bit")
    4719                      .dwattr $C$DW$358, DW_AT_data_member_location[DW_OP_plus_uconst 0x0]
    4720                      .dwattr $C$DW$358, DW_AT_accessibility(DW_ACCESS_public)
    4721              
    4722                      .dwendtag $C$DW$T$62
    4723              
    4724              
    4725              $C$DW$T$63      .dwtag  DW_TAG_structure_type
    4726                      .dwattr $C$DW$T$63, DW_AT_name("COMPCTL_BITS")
    4727                      .dwattr $C$DW$T$63, DW_AT_byte_size(0x01)
    4728              $C$DW$359       .dwtag  DW_TAG_member
    4729                      .dwattr $C$DW$359, DW_AT_type(*$C$DW$T$19)
    4730                      .dwattr $C$DW$359, DW_AT_name("COMPDACEN")
    4731                      .dwattr $C$DW$359, DW_AT_TI_symbol_name("_COMPDACEN")
    4732                      .dwattr $C$DW$359, DW_AT_bit_offset(0x0f)
    4733                      .dwattr $C$DW$359, DW_AT_bit_size(0x01)
    4734                      .dwattr $C$DW$359, DW_AT_data_member_location[DW_OP_plus_uconst 0x0]
    4735                      .dwattr $C$DW$359, DW_AT_accessibility(DW_ACCESS_public)
    4736              
    4737              $C$DW$360       .dwtag  DW_TAG_member
    4738                      .dwattr $C$DW$360, DW_AT_type(*$C$DW$T$19)
    4739                      .dwattr $C$DW$360, DW_AT_name("COMPSOURCE")
    4740                      .dwattr $C$DW$360, DW_AT_TI_symbol_name("_COMPSOURCE")
    4741                      .dwattr $C$DW$360, DW_AT_bit_offset(0x0e)
    4742                      .dwattr $C$DW$360, DW_AT_bit_size(0x01)
    4743                      .dwattr $C$DW$360, DW_AT_data_member_location[DW_OP_plus_uconst 0x0]
    4744                      .dwattr $C$DW$360, DW_AT_accessibility(DW_ACCESS_public)
    4745              
    4746              $C$DW$361       .dwtag  DW_TAG_member
    4747                      .dwattr $C$DW$361, DW_AT_type(*$C$DW$T$19)
    4748                      .dwattr $C$DW$361, DW_AT_name("CMPINV")
    4749                      .dwattr $C$DW$361, DW_AT_TI_symbol_name("_CMPINV")
    4750                      .dwattr $C$DW$361, DW_AT_bit_offset(0x0d)
    4751                      .dwattr $C$DW$361, DW_AT_bit_size(0x01)
    4752                      .dwattr $C$DW$361, DW_AT_data_member_location[DW_OP_plus_uconst 0x0]
    4753                      .dwattr $C$DW$361, DW_AT_accessibility(DW_ACCESS_public)
    4754              
    4755              $C$DW$362       .dwtag  DW_TAG_member
    4756                      .dwattr $C$DW$362, DW_AT_type(*$C$DW$T$19)
    4757                      .dwattr $C$DW$362, DW_AT_name("QUALSEL")
    4758                      .dwattr $C$DW$362, DW_AT_TI_symbol_name("_QUALSEL")
    4759                      .dwattr $C$DW$362, DW_AT_bit_offset(0x08)
    4760                      .dwattr $C$DW$362, DW_AT_bit_size(0x05)
    4761                      .dwattr $C$DW$362, DW_AT_data_member_location[DW_OP_plus_uconst 0x0]
    4762                      .dwattr $C$DW$362, DW_AT_accessibility(DW_ACCESS_public)
    4763              
    4764              $C$DW$363       .dwtag  DW_TAG_member
TMS320C2000 Assembler PC v16.9.6 Tue Mar 06 18:34:46 2018

Tools Copyright (c) 1996-2017 Texas Instruments Incorporated
C:\Users\Admin\AppData\Local\Temp\{ED9AE313-281A-4435-8F2A-5411619B06A2} PAGE   95

    4765                      .dwattr $C$DW$363, DW_AT_type(*$C$DW$T$19)
    4766                      .dwattr $C$DW$363, DW_AT_name("SYNCSEL")
    4767                      .dwattr $C$DW$363, DW_AT_TI_symbol_name("_SYNCSEL")
    4768                      .dwattr $C$DW$363, DW_AT_bit_offset(0x07)
    4769                      .dwattr $C$DW$363, DW_AT_bit_size(0x01)
    4770                      .dwattr $C$DW$363, DW_AT_data_member_location[DW_OP_plus_uconst 0x0]
    4771                      .dwattr $C$DW$363, DW_AT_accessibility(DW_ACCESS_public)
    4772              
    4773              $C$DW$364       .dwtag  DW_TAG_member
    4774                      .dwattr $C$DW$364, DW_AT_type(*$C$DW$T$19)
    4775                      .dwattr $C$DW$364, DW_AT_name("rsvd1")
    4776                      .dwattr $C$DW$364, DW_AT_TI_symbol_name("_rsvd1")
    4777                      .dwattr $C$DW$364, DW_AT_bit_offset(0x00)
    4778                      .dwattr $C$DW$364, DW_AT_bit_size(0x07)
    4779                      .dwattr $C$DW$364, DW_AT_data_member_location[DW_OP_plus_uconst 0x0]
    4780                      .dwattr $C$DW$364, DW_AT_accessibility(DW_ACCESS_public)
    4781              
    4782                      .dwendtag $C$DW$T$63
    4783              
    4784              
    4785              $C$DW$T$64      .dwtag  DW_TAG_union_type
    4786                      .dwattr $C$DW$T$64, DW_AT_name("COMPCTL_REG")
    4787                      .dwattr $C$DW$T$64, DW_AT_byte_size(0x01)
    4788              $C$DW$365       .dwtag  DW_TAG_member
    4789                      .dwattr $C$DW$365, DW_AT_type(*$C$DW$T$19)
    4790                      .dwattr $C$DW$365, DW_AT_name("all")
    4791                      .dwattr $C$DW$365, DW_AT_TI_symbol_name("_all")
    4792                      .dwattr $C$DW$365, DW_AT_data_member_location[DW_OP_plus_uconst 0x0]
    4793                      .dwattr $C$DW$365, DW_AT_accessibility(DW_ACCESS_public)
    4794              
    4795              $C$DW$366       .dwtag  DW_TAG_member
    4796                      .dwattr $C$DW$366, DW_AT_type(*$C$DW$T$63)
    4797                      .dwattr $C$DW$366, DW_AT_name("bit")
    4798                      .dwattr $C$DW$366, DW_AT_TI_symbol_name("_bit")
    4799                      .dwattr $C$DW$366, DW_AT_data_member_location[DW_OP_plus_uconst 0x0]
    4800                      .dwattr $C$DW$366, DW_AT_accessibility(DW_ACCESS_public)
    4801              
    4802                      .dwendtag $C$DW$T$64
    4803              
    4804              
    4805              $C$DW$T$65      .dwtag  DW_TAG_structure_type
    4806                      .dwattr $C$DW$T$65, DW_AT_name("COMPSTS_BITS")
    4807                      .dwattr $C$DW$T$65, DW_AT_byte_size(0x01)
    4808              $C$DW$367       .dwtag  DW_TAG_member
    4809                      .dwattr $C$DW$367, DW_AT_type(*$C$DW$T$19)
    4810                      .dwattr $C$DW$367, DW_AT_name("COMPSTS")
    4811                      .dwattr $C$DW$367, DW_AT_TI_symbol_name("_COMPSTS")
    4812                      .dwattr $C$DW$367, DW_AT_bit_offset(0x0f)
    4813                      .dwattr $C$DW$367, DW_AT_bit_size(0x01)
    4814                      .dwattr $C$DW$367, DW_AT_data_member_location[DW_OP_plus_uconst 0x0]
    4815                      .dwattr $C$DW$367, DW_AT_accessibility(DW_ACCESS_public)
    4816              
    4817              $C$DW$368       .dwtag  DW_TAG_member
    4818                      .dwattr $C$DW$368, DW_AT_type(*$C$DW$T$19)
    4819                      .dwattr $C$DW$368, DW_AT_name("rsvd1")
TMS320C2000 Assembler PC v16.9.6 Tue Mar 06 18:34:46 2018

Tools Copyright (c) 1996-2017 Texas Instruments Incorporated
C:\Users\Admin\AppData\Local\Temp\{ED9AE313-281A-4435-8F2A-5411619B06A2} PAGE   96

    4820                      .dwattr $C$DW$368, DW_AT_TI_symbol_name("_rsvd1")
    4821                      .dwattr $C$DW$368, DW_AT_bit_offset(0x00)
    4822                      .dwattr $C$DW$368, DW_AT_bit_size(0x0f)
    4823                      .dwattr $C$DW$368, DW_AT_data_member_location[DW_OP_plus_uconst 0x0]
    4824                      .dwattr $C$DW$368, DW_AT_accessibility(DW_ACCESS_public)
    4825              
    4826                      .dwendtag $C$DW$T$65
    4827              
    4828              
    4829              $C$DW$T$66      .dwtag  DW_TAG_union_type
    4830                      .dwattr $C$DW$T$66, DW_AT_name("COMPSTS_REG")
    4831                      .dwattr $C$DW$T$66, DW_AT_byte_size(0x01)
    4832              $C$DW$369       .dwtag  DW_TAG_member
    4833                      .dwattr $C$DW$369, DW_AT_type(*$C$DW$T$19)
    4834                      .dwattr $C$DW$369, DW_AT_name("all")
    4835                      .dwattr $C$DW$369, DW_AT_TI_symbol_name("_all")
    4836                      .dwattr $C$DW$369, DW_AT_data_member_location[DW_OP_plus_uconst 0x0]
    4837                      .dwattr $C$DW$369, DW_AT_accessibility(DW_ACCESS_public)
    4838              
    4839              $C$DW$370       .dwtag  DW_TAG_member
    4840                      .dwattr $C$DW$370, DW_AT_type(*$C$DW$T$65)
    4841                      .dwattr $C$DW$370, DW_AT_name("bit")
    4842                      .dwattr $C$DW$370, DW_AT_TI_symbol_name("_bit")
    4843                      .dwattr $C$DW$370, DW_AT_data_member_location[DW_OP_plus_uconst 0x0]
    4844                      .dwattr $C$DW$370, DW_AT_accessibility(DW_ACCESS_public)
    4845              
    4846                      .dwendtag $C$DW$T$66
    4847              
    4848              
    4849              $C$DW$T$68      .dwtag  DW_TAG_structure_type
    4850                      .dwattr $C$DW$T$68, DW_AT_name("COMP_REGS")
    4851                      .dwattr $C$DW$T$68, DW_AT_byte_size(0x11)
    4852              $C$DW$371       .dwtag  DW_TAG_member
    4853                      .dwattr $C$DW$371, DW_AT_type(*$C$DW$T$64)
    4854                      .dwattr $C$DW$371, DW_AT_name("COMPCTL")
    4855                      .dwattr $C$DW$371, DW_AT_TI_symbol_name("_COMPCTL")
    4856                      .dwattr $C$DW$371, DW_AT_data_member_location[DW_OP_plus_uconst 0x0]
    4857                      .dwattr $C$DW$371, DW_AT_accessibility(DW_ACCESS_public)
    4858              
    4859              $C$DW$372       .dwtag  DW_TAG_member
    4860                      .dwattr $C$DW$372, DW_AT_type(*$C$DW$T$19)
    4861                      .dwattr $C$DW$372, DW_AT_name("rsvd1")
    4862                      .dwattr $C$DW$372, DW_AT_TI_symbol_name("_rsvd1")
    4863                      .dwattr $C$DW$372, DW_AT_data_member_location[DW_OP_plus_uconst 0x1]
    4864                      .dwattr $C$DW$372, DW_AT_accessibility(DW_ACCESS_public)
    4865              
    4866              $C$DW$373       .dwtag  DW_TAG_member
    4867                      .dwattr $C$DW$373, DW_AT_type(*$C$DW$T$66)
    4868                      .dwattr $C$DW$373, DW_AT_name("COMPSTS")
    4869                      .dwattr $C$DW$373, DW_AT_TI_symbol_name("_COMPSTS")
    4870                      .dwattr $C$DW$373, DW_AT_data_member_location[DW_OP_plus_uconst 0x2]
    4871                      .dwattr $C$DW$373, DW_AT_accessibility(DW_ACCESS_public)
    4872              
    4873              $C$DW$374       .dwtag  DW_TAG_member
    4874                      .dwattr $C$DW$374, DW_AT_type(*$C$DW$T$42)
TMS320C2000 Assembler PC v16.9.6 Tue Mar 06 18:34:46 2018

Tools Copyright (c) 1996-2017 Texas Instruments Incorporated
C:\Users\Admin\AppData\Local\Temp\{ED9AE313-281A-4435-8F2A-5411619B06A2} PAGE   97

    4875                      .dwattr $C$DW$374, DW_AT_name("rsvd2")
    4876                      .dwattr $C$DW$374, DW_AT_TI_symbol_name("_rsvd2")
    4877                      .dwattr $C$DW$374, DW_AT_data_member_location[DW_OP_plus_uconst 0x3]
    4878                      .dwattr $C$DW$374, DW_AT_accessibility(DW_ACCESS_public)
    4879              
    4880              $C$DW$375       .dwtag  DW_TAG_member
    4881                      .dwattr $C$DW$375, DW_AT_type(*$C$DW$T$70)
    4882                      .dwattr $C$DW$375, DW_AT_name("DACVAL")
    4883                      .dwattr $C$DW$375, DW_AT_TI_symbol_name("_DACVAL")
    4884                      .dwattr $C$DW$375, DW_AT_data_member_location[DW_OP_plus_uconst 0x6]
    4885                      .dwattr $C$DW$375, DW_AT_accessibility(DW_ACCESS_public)
    4886              
    4887              $C$DW$376       .dwtag  DW_TAG_member
    4888                      .dwattr $C$DW$376, DW_AT_type(*$C$DW$T$67)
    4889                      .dwattr $C$DW$376, DW_AT_name("rsvd4")
    4890                      .dwattr $C$DW$376, DW_AT_TI_symbol_name("_rsvd4")
    4891                      .dwattr $C$DW$376, DW_AT_data_member_location[DW_OP_plus_uconst 0x7]
    4892                      .dwattr $C$DW$376, DW_AT_accessibility(DW_ACCESS_public)
    4893              
    4894                      .dwendtag $C$DW$T$68
    4895              
    4896              $C$DW$377       .dwtag  DW_TAG_TI_far_type
    4897                      .dwattr $C$DW$377, DW_AT_type(*$C$DW$T$68)
    4898              
    4899              $C$DW$T$208     .dwtag  DW_TAG_volatile_type
    4900                      .dwattr $C$DW$T$208, DW_AT_type(*$C$DW$377)
    4901              
    4902              
    4903              $C$DW$T$69      .dwtag  DW_TAG_structure_type
    4904                      .dwattr $C$DW$T$69, DW_AT_name("DACVAL_BITS")
    4905                      .dwattr $C$DW$T$69, DW_AT_byte_size(0x01)
    4906              $C$DW$378       .dwtag  DW_TAG_member
    4907                      .dwattr $C$DW$378, DW_AT_type(*$C$DW$T$19)
    4908                      .dwattr $C$DW$378, DW_AT_name("DACVAL")
    4909                      .dwattr $C$DW$378, DW_AT_TI_symbol_name("_DACVAL")
    4910                      .dwattr $C$DW$378, DW_AT_bit_offset(0x06)
    4911                      .dwattr $C$DW$378, DW_AT_bit_size(0x0a)
    4912                      .dwattr $C$DW$378, DW_AT_data_member_location[DW_OP_plus_uconst 0x0]
    4913                      .dwattr $C$DW$378, DW_AT_accessibility(DW_ACCESS_public)
    4914              
    4915              $C$DW$379       .dwtag  DW_TAG_member
    4916                      .dwattr $C$DW$379, DW_AT_type(*$C$DW$T$19)
    4917                      .dwattr $C$DW$379, DW_AT_name("rsvd1")
    4918                      .dwattr $C$DW$379, DW_AT_TI_symbol_name("_rsvd1")
    4919                      .dwattr $C$DW$379, DW_AT_bit_offset(0x00)
    4920                      .dwattr $C$DW$379, DW_AT_bit_size(0x06)
    4921                      .dwattr $C$DW$379, DW_AT_data_member_location[DW_OP_plus_uconst 0x0]
    4922                      .dwattr $C$DW$379, DW_AT_accessibility(DW_ACCESS_public)
    4923              
    4924                      .dwendtag $C$DW$T$69
    4925              
    4926              
    4927              $C$DW$T$70      .dwtag  DW_TAG_union_type
    4928                      .dwattr $C$DW$T$70, DW_AT_name("DACVAL_REG")
    4929                      .dwattr $C$DW$T$70, DW_AT_byte_size(0x01)
TMS320C2000 Assembler PC v16.9.6 Tue Mar 06 18:34:46 2018

Tools Copyright (c) 1996-2017 Texas Instruments Incorporated
C:\Users\Admin\AppData\Local\Temp\{ED9AE313-281A-4435-8F2A-5411619B06A2} PAGE   98

    4930              $C$DW$380       .dwtag  DW_TAG_member
    4931                      .dwattr $C$DW$380, DW_AT_type(*$C$DW$T$19)
    4932                      .dwattr $C$DW$380, DW_AT_name("all")
    4933                      .dwattr $C$DW$380, DW_AT_TI_symbol_name("_all")
    4934                      .dwattr $C$DW$380, DW_AT_data_member_location[DW_OP_plus_uconst 0x0]
    4935                      .dwattr $C$DW$380, DW_AT_accessibility(DW_ACCESS_public)
    4936              
    4937              $C$DW$381       .dwtag  DW_TAG_member
    4938                      .dwattr $C$DW$381, DW_AT_type(*$C$DW$T$69)
    4939                      .dwattr $C$DW$381, DW_AT_name("bit")
    4940                      .dwattr $C$DW$381, DW_AT_TI_symbol_name("_bit")
    4941                      .dwattr $C$DW$381, DW_AT_data_member_location[DW_OP_plus_uconst 0x0]
    4942                      .dwattr $C$DW$381, DW_AT_accessibility(DW_ACCESS_public)
    4943              
    4944                      .dwendtag $C$DW$T$70
    4945              
    4946              
    4947              $C$DW$T$71      .dwtag  DW_TAG_structure_type
    4948                      .dwattr $C$DW$T$71, DW_AT_name("DBCTL_BITS")
    4949                      .dwattr $C$DW$T$71, DW_AT_byte_size(0x01)
    4950              $C$DW$382       .dwtag  DW_TAG_member
    4951                      .dwattr $C$DW$382, DW_AT_type(*$C$DW$T$19)
    4952                      .dwattr $C$DW$382, DW_AT_name("OUT_MODE")
    4953                      .dwattr $C$DW$382, DW_AT_TI_symbol_name("_OUT_MODE")
    4954                      .dwattr $C$DW$382, DW_AT_bit_offset(0x0e)
    4955                      .dwattr $C$DW$382, DW_AT_bit_size(0x02)
    4956                      .dwattr $C$DW$382, DW_AT_data_member_location[DW_OP_plus_uconst 0x0]
    4957                      .dwattr $C$DW$382, DW_AT_accessibility(DW_ACCESS_public)
    4958              
    4959              $C$DW$383       .dwtag  DW_TAG_member
    4960                      .dwattr $C$DW$383, DW_AT_type(*$C$DW$T$19)
    4961                      .dwattr $C$DW$383, DW_AT_name("POLSEL")
    4962                      .dwattr $C$DW$383, DW_AT_TI_symbol_name("_POLSEL")
    4963                      .dwattr $C$DW$383, DW_AT_bit_offset(0x0c)
    4964                      .dwattr $C$DW$383, DW_AT_bit_size(0x02)
    4965                      .dwattr $C$DW$383, DW_AT_data_member_location[DW_OP_plus_uconst 0x0]
    4966                      .dwattr $C$DW$383, DW_AT_accessibility(DW_ACCESS_public)
    4967              
    4968              $C$DW$384       .dwtag  DW_TAG_member
    4969                      .dwattr $C$DW$384, DW_AT_type(*$C$DW$T$19)
    4970                      .dwattr $C$DW$384, DW_AT_name("IN_MODE")
    4971                      .dwattr $C$DW$384, DW_AT_TI_symbol_name("_IN_MODE")
    4972                      .dwattr $C$DW$384, DW_AT_bit_offset(0x0a)
    4973                      .dwattr $C$DW$384, DW_AT_bit_size(0x02)
    4974                      .dwattr $C$DW$384, DW_AT_data_member_location[DW_OP_plus_uconst 0x0]
    4975                      .dwattr $C$DW$384, DW_AT_accessibility(DW_ACCESS_public)
    4976              
    4977              $C$DW$385       .dwtag  DW_TAG_member
    4978                      .dwattr $C$DW$385, DW_AT_type(*$C$DW$T$19)
    4979                      .dwattr $C$DW$385, DW_AT_name("rsvd1")
    4980                      .dwattr $C$DW$385, DW_AT_TI_symbol_name("_rsvd1")
    4981                      .dwattr $C$DW$385, DW_AT_bit_offset(0x01)
    4982                      .dwattr $C$DW$385, DW_AT_bit_size(0x09)
    4983                      .dwattr $C$DW$385, DW_AT_data_member_location[DW_OP_plus_uconst 0x0]
    4984                      .dwattr $C$DW$385, DW_AT_accessibility(DW_ACCESS_public)
TMS320C2000 Assembler PC v16.9.6 Tue Mar 06 18:34:46 2018

Tools Copyright (c) 1996-2017 Texas Instruments Incorporated
C:\Users\Admin\AppData\Local\Temp\{ED9AE313-281A-4435-8F2A-5411619B06A2} PAGE   99

    4985              
    4986              $C$DW$386       .dwtag  DW_TAG_member
    4987                      .dwattr $C$DW$386, DW_AT_type(*$C$DW$T$19)
    4988                      .dwattr $C$DW$386, DW_AT_name("HALFCYCLE")
    4989                      .dwattr $C$DW$386, DW_AT_TI_symbol_name("_HALFCYCLE")
    4990                      .dwattr $C$DW$386, DW_AT_bit_offset(0x00)
    4991                      .dwattr $C$DW$386, DW_AT_bit_size(0x01)
    4992                      .dwattr $C$DW$386, DW_AT_data_member_location[DW_OP_plus_uconst 0x0]
    4993                      .dwattr $C$DW$386, DW_AT_accessibility(DW_ACCESS_public)
    4994              
    4995                      .dwendtag $C$DW$T$71
    4996              
    4997              
    4998              $C$DW$T$72      .dwtag  DW_TAG_union_type
    4999                      .dwattr $C$DW$T$72, DW_AT_name("DBCTL_REG")
    5000                      .dwattr $C$DW$T$72, DW_AT_byte_size(0x01)
    5001              $C$DW$387       .dwtag  DW_TAG_member
    5002                      .dwattr $C$DW$387, DW_AT_type(*$C$DW$T$19)
    5003                      .dwattr $C$DW$387, DW_AT_name("all")
    5004                      .dwattr $C$DW$387, DW_AT_TI_symbol_name("_all")
    5005                      .dwattr $C$DW$387, DW_AT_data_member_location[DW_OP_plus_uconst 0x0]
    5006                      .dwattr $C$DW$387, DW_AT_accessibility(DW_ACCESS_public)
    5007              
    5008              $C$DW$388       .dwtag  DW_TAG_member
    5009                      .dwattr $C$DW$388, DW_AT_type(*$C$DW$T$71)
    5010                      .dwattr $C$DW$388, DW_AT_name("bit")
    5011                      .dwattr $C$DW$388, DW_AT_TI_symbol_name("_bit")
    5012                      .dwattr $C$DW$388, DW_AT_data_member_location[DW_OP_plus_uconst 0x0]
    5013                      .dwattr $C$DW$388, DW_AT_accessibility(DW_ACCESS_public)
    5014              
    5015                      .dwendtag $C$DW$T$72
    5016              
    5017              
    5018              $C$DW$T$73      .dwtag  DW_TAG_structure_type
    5019                      .dwattr $C$DW$T$73, DW_AT_name("DCCAPCTL_BITS")
    5020                      .dwattr $C$DW$T$73, DW_AT_byte_size(0x01)
    5021              $C$DW$389       .dwtag  DW_TAG_member
    5022                      .dwattr $C$DW$389, DW_AT_type(*$C$DW$T$19)
    5023                      .dwattr $C$DW$389, DW_AT_name("CAPE")
    5024                      .dwattr $C$DW$389, DW_AT_TI_symbol_name("_CAPE")
    5025                      .dwattr $C$DW$389, DW_AT_bit_offset(0x0f)
    5026                      .dwattr $C$DW$389, DW_AT_bit_size(0x01)
    5027                      .dwattr $C$DW$389, DW_AT_data_member_location[DW_OP_plus_uconst 0x0]
    5028                      .dwattr $C$DW$389, DW_AT_accessibility(DW_ACCESS_public)
    5029              
    5030              $C$DW$390       .dwtag  DW_TAG_member
    5031                      .dwattr $C$DW$390, DW_AT_type(*$C$DW$T$19)
    5032                      .dwattr $C$DW$390, DW_AT_name("SHDWMODE")
    5033                      .dwattr $C$DW$390, DW_AT_TI_symbol_name("_SHDWMODE")
    5034                      .dwattr $C$DW$390, DW_AT_bit_offset(0x0e)
    5035                      .dwattr $C$DW$390, DW_AT_bit_size(0x01)
    5036                      .dwattr $C$DW$390, DW_AT_data_member_location[DW_OP_plus_uconst 0x0]
    5037                      .dwattr $C$DW$390, DW_AT_accessibility(DW_ACCESS_public)
    5038              
    5039              $C$DW$391       .dwtag  DW_TAG_member
TMS320C2000 Assembler PC v16.9.6 Tue Mar 06 18:34:46 2018

Tools Copyright (c) 1996-2017 Texas Instruments Incorporated
C:\Users\Admin\AppData\Local\Temp\{ED9AE313-281A-4435-8F2A-5411619B06A2} PAGE  100

    5040                      .dwattr $C$DW$391, DW_AT_type(*$C$DW$T$19)
    5041                      .dwattr $C$DW$391, DW_AT_name("rsvd")
    5042                      .dwattr $C$DW$391, DW_AT_TI_symbol_name("_rsvd")
    5043                      .dwattr $C$DW$391, DW_AT_bit_offset(0x00)
    5044                      .dwattr $C$DW$391, DW_AT_bit_size(0x0e)
    5045                      .dwattr $C$DW$391, DW_AT_data_member_location[DW_OP_plus_uconst 0x0]
    5046                      .dwattr $C$DW$391, DW_AT_accessibility(DW_ACCESS_public)
    5047              
    5048                      .dwendtag $C$DW$T$73
    5049              
    5050              
    5051              $C$DW$T$74      .dwtag  DW_TAG_union_type
    5052                      .dwattr $C$DW$T$74, DW_AT_name("DCCAPCTL_REG")
    5053                      .dwattr $C$DW$T$74, DW_AT_byte_size(0x01)
    5054              $C$DW$392       .dwtag  DW_TAG_member
    5055                      .dwattr $C$DW$392, DW_AT_type(*$C$DW$T$19)
    5056                      .dwattr $C$DW$392, DW_AT_name("all")
    5057                      .dwattr $C$DW$392, DW_AT_TI_symbol_name("_all")
    5058                      .dwattr $C$DW$392, DW_AT_data_member_location[DW_OP_plus_uconst 0x0]
    5059                      .dwattr $C$DW$392, DW_AT_accessibility(DW_ACCESS_public)
    5060              
    5061              $C$DW$393       .dwtag  DW_TAG_member
    5062                      .dwattr $C$DW$393, DW_AT_type(*$C$DW$T$73)
    5063                      .dwattr $C$DW$393, DW_AT_name("bit")
    5064                      .dwattr $C$DW$393, DW_AT_TI_symbol_name("_bit")
    5065                      .dwattr $C$DW$393, DW_AT_data_member_location[DW_OP_plus_uconst 0x0]
    5066                      .dwattr $C$DW$393, DW_AT_accessibility(DW_ACCESS_public)
    5067              
    5068                      .dwendtag $C$DW$T$74
    5069              
    5070              
    5071              $C$DW$T$75      .dwtag  DW_TAG_structure_type
    5072                      .dwattr $C$DW$T$75, DW_AT_name("DCCTL_BITS")
    5073                      .dwattr $C$DW$T$75, DW_AT_byte_size(0x01)
    5074              $C$DW$394       .dwtag  DW_TAG_member
    5075                      .dwattr $C$DW$394, DW_AT_type(*$C$DW$T$19)
    5076                      .dwattr $C$DW$394, DW_AT_name("EVT1SRCSEL")
    5077                      .dwattr $C$DW$394, DW_AT_TI_symbol_name("_EVT1SRCSEL")
    5078                      .dwattr $C$DW$394, DW_AT_bit_offset(0x0f)
    5079                      .dwattr $C$DW$394, DW_AT_bit_size(0x01)
    5080                      .dwattr $C$DW$394, DW_AT_data_member_location[DW_OP_plus_uconst 0x0]
    5081                      .dwattr $C$DW$394, DW_AT_accessibility(DW_ACCESS_public)
    5082              
    5083              $C$DW$395       .dwtag  DW_TAG_member
    5084                      .dwattr $C$DW$395, DW_AT_type(*$C$DW$T$19)
    5085                      .dwattr $C$DW$395, DW_AT_name("EVT1FRCSYNCSEL")
    5086                      .dwattr $C$DW$395, DW_AT_TI_symbol_name("_EVT1FRCSYNCSEL")
    5087                      .dwattr $C$DW$395, DW_AT_bit_offset(0x0e)
    5088                      .dwattr $C$DW$395, DW_AT_bit_size(0x01)
    5089                      .dwattr $C$DW$395, DW_AT_data_member_location[DW_OP_plus_uconst 0x0]
    5090                      .dwattr $C$DW$395, DW_AT_accessibility(DW_ACCESS_public)
    5091              
    5092              $C$DW$396       .dwtag  DW_TAG_member
    5093                      .dwattr $C$DW$396, DW_AT_type(*$C$DW$T$19)
    5094                      .dwattr $C$DW$396, DW_AT_name("EVT1SOCE")
TMS320C2000 Assembler PC v16.9.6 Tue Mar 06 18:34:46 2018

Tools Copyright (c) 1996-2017 Texas Instruments Incorporated
C:\Users\Admin\AppData\Local\Temp\{ED9AE313-281A-4435-8F2A-5411619B06A2} PAGE  101

    5095                      .dwattr $C$DW$396, DW_AT_TI_symbol_name("_EVT1SOCE")
    5096                      .dwattr $C$DW$396, DW_AT_bit_offset(0x0d)
    5097                      .dwattr $C$DW$396, DW_AT_bit_size(0x01)
    5098                      .dwattr $C$DW$396, DW_AT_data_member_location[DW_OP_plus_uconst 0x0]
    5099                      .dwattr $C$DW$396, DW_AT_accessibility(DW_ACCESS_public)
    5100              
    5101              $C$DW$397       .dwtag  DW_TAG_member
    5102                      .dwattr $C$DW$397, DW_AT_type(*$C$DW$T$19)
    5103                      .dwattr $C$DW$397, DW_AT_name("EVT1SYNCE")
    5104                      .dwattr $C$DW$397, DW_AT_TI_symbol_name("_EVT1SYNCE")
    5105                      .dwattr $C$DW$397, DW_AT_bit_offset(0x0c)
    5106                      .dwattr $C$DW$397, DW_AT_bit_size(0x01)
    5107                      .dwattr $C$DW$397, DW_AT_data_member_location[DW_OP_plus_uconst 0x0]
    5108                      .dwattr $C$DW$397, DW_AT_accessibility(DW_ACCESS_public)
    5109              
    5110              $C$DW$398       .dwtag  DW_TAG_member
    5111                      .dwattr $C$DW$398, DW_AT_type(*$C$DW$T$19)
    5112                      .dwattr $C$DW$398, DW_AT_name("rsvd1")
    5113                      .dwattr $C$DW$398, DW_AT_TI_symbol_name("_rsvd1")
    5114                      .dwattr $C$DW$398, DW_AT_bit_offset(0x08)
    5115                      .dwattr $C$DW$398, DW_AT_bit_size(0x04)
    5116                      .dwattr $C$DW$398, DW_AT_data_member_location[DW_OP_plus_uconst 0x0]
    5117                      .dwattr $C$DW$398, DW_AT_accessibility(DW_ACCESS_public)
    5118              
    5119              $C$DW$399       .dwtag  DW_TAG_member
    5120                      .dwattr $C$DW$399, DW_AT_type(*$C$DW$T$19)
    5121                      .dwattr $C$DW$399, DW_AT_name("EVT2SRCSEL")
    5122                      .dwattr $C$DW$399, DW_AT_TI_symbol_name("_EVT2SRCSEL")
    5123                      .dwattr $C$DW$399, DW_AT_bit_offset(0x07)
    5124                      .dwattr $C$DW$399, DW_AT_bit_size(0x01)
    5125                      .dwattr $C$DW$399, DW_AT_data_member_location[DW_OP_plus_uconst 0x0]
    5126                      .dwattr $C$DW$399, DW_AT_accessibility(DW_ACCESS_public)
    5127              
    5128              $C$DW$400       .dwtag  DW_TAG_member
    5129                      .dwattr $C$DW$400, DW_AT_type(*$C$DW$T$19)
    5130                      .dwattr $C$DW$400, DW_AT_name("EVT2FRCSYNCSEL")
    5131                      .dwattr $C$DW$400, DW_AT_TI_symbol_name("_EVT2FRCSYNCSEL")
    5132                      .dwattr $C$DW$400, DW_AT_bit_offset(0x06)
    5133                      .dwattr $C$DW$400, DW_AT_bit_size(0x01)
    5134                      .dwattr $C$DW$400, DW_AT_data_member_location[DW_OP_plus_uconst 0x0]
    5135                      .dwattr $C$DW$400, DW_AT_accessibility(DW_ACCESS_public)
    5136              
    5137              $C$DW$401       .dwtag  DW_TAG_member
    5138                      .dwattr $C$DW$401, DW_AT_type(*$C$DW$T$19)
    5139                      .dwattr $C$DW$401, DW_AT_name("rsvd2")
    5140                      .dwattr $C$DW$401, DW_AT_TI_symbol_name("_rsvd2")
    5141                      .dwattr $C$DW$401, DW_AT_bit_offset(0x00)
    5142                      .dwattr $C$DW$401, DW_AT_bit_size(0x06)
    5143                      .dwattr $C$DW$401, DW_AT_data_member_location[DW_OP_plus_uconst 0x0]
    5144                      .dwattr $C$DW$401, DW_AT_accessibility(DW_ACCESS_public)
    5145              
    5146                      .dwendtag $C$DW$T$75
    5147              
    5148              
    5149              $C$DW$T$76      .dwtag  DW_TAG_union_type
TMS320C2000 Assembler PC v16.9.6 Tue Mar 06 18:34:46 2018

Tools Copyright (c) 1996-2017 Texas Instruments Incorporated
C:\Users\Admin\AppData\Local\Temp\{ED9AE313-281A-4435-8F2A-5411619B06A2} PAGE  102

    5150                      .dwattr $C$DW$T$76, DW_AT_name("DCCTL_REG")
    5151                      .dwattr $C$DW$T$76, DW_AT_byte_size(0x01)
    5152              $C$DW$402       .dwtag  DW_TAG_member
    5153                      .dwattr $C$DW$402, DW_AT_type(*$C$DW$T$19)
    5154                      .dwattr $C$DW$402, DW_AT_name("all")
    5155                      .dwattr $C$DW$402, DW_AT_TI_symbol_name("_all")
    5156                      .dwattr $C$DW$402, DW_AT_data_member_location[DW_OP_plus_uconst 0x0]
    5157                      .dwattr $C$DW$402, DW_AT_accessibility(DW_ACCESS_public)
    5158              
    5159              $C$DW$403       .dwtag  DW_TAG_member
    5160                      .dwattr $C$DW$403, DW_AT_type(*$C$DW$T$75)
    5161                      .dwattr $C$DW$403, DW_AT_name("bit")
    5162                      .dwattr $C$DW$403, DW_AT_TI_symbol_name("_bit")
    5163                      .dwattr $C$DW$403, DW_AT_data_member_location[DW_OP_plus_uconst 0x0]
    5164                      .dwattr $C$DW$403, DW_AT_accessibility(DW_ACCESS_public)
    5165              
    5166                      .dwendtag $C$DW$T$76
    5167              
    5168              
    5169              $C$DW$T$77      .dwtag  DW_TAG_structure_type
    5170                      .dwattr $C$DW$T$77, DW_AT_name("DCFCTL_BITS")
    5171                      .dwattr $C$DW$T$77, DW_AT_byte_size(0x01)
    5172              $C$DW$404       .dwtag  DW_TAG_member
    5173                      .dwattr $C$DW$404, DW_AT_type(*$C$DW$T$19)
    5174                      .dwattr $C$DW$404, DW_AT_name("SRCSEL")
    5175                      .dwattr $C$DW$404, DW_AT_TI_symbol_name("_SRCSEL")
    5176                      .dwattr $C$DW$404, DW_AT_bit_offset(0x0e)
    5177                      .dwattr $C$DW$404, DW_AT_bit_size(0x02)
    5178                      .dwattr $C$DW$404, DW_AT_data_member_location[DW_OP_plus_uconst 0x0]
    5179                      .dwattr $C$DW$404, DW_AT_accessibility(DW_ACCESS_public)
    5180              
    5181              $C$DW$405       .dwtag  DW_TAG_member
    5182                      .dwattr $C$DW$405, DW_AT_type(*$C$DW$T$19)
    5183                      .dwattr $C$DW$405, DW_AT_name("BLANKE")
    5184                      .dwattr $C$DW$405, DW_AT_TI_symbol_name("_BLANKE")
    5185                      .dwattr $C$DW$405, DW_AT_bit_offset(0x0d)
    5186                      .dwattr $C$DW$405, DW_AT_bit_size(0x01)
    5187                      .dwattr $C$DW$405, DW_AT_data_member_location[DW_OP_plus_uconst 0x0]
    5188                      .dwattr $C$DW$405, DW_AT_accessibility(DW_ACCESS_public)
    5189              
    5190              $C$DW$406       .dwtag  DW_TAG_member
    5191                      .dwattr $C$DW$406, DW_AT_type(*$C$DW$T$19)
    5192                      .dwattr $C$DW$406, DW_AT_name("BLANKINV")
    5193                      .dwattr $C$DW$406, DW_AT_TI_symbol_name("_BLANKINV")
    5194                      .dwattr $C$DW$406, DW_AT_bit_offset(0x0c)
    5195                      .dwattr $C$DW$406, DW_AT_bit_size(0x01)
    5196                      .dwattr $C$DW$406, DW_AT_data_member_location[DW_OP_plus_uconst 0x0]
    5197                      .dwattr $C$DW$406, DW_AT_accessibility(DW_ACCESS_public)
    5198              
    5199              $C$DW$407       .dwtag  DW_TAG_member
    5200                      .dwattr $C$DW$407, DW_AT_type(*$C$DW$T$19)
    5201                      .dwattr $C$DW$407, DW_AT_name("PULSESEL")
    5202                      .dwattr $C$DW$407, DW_AT_TI_symbol_name("_PULSESEL")
    5203                      .dwattr $C$DW$407, DW_AT_bit_offset(0x0a)
    5204                      .dwattr $C$DW$407, DW_AT_bit_size(0x02)
TMS320C2000 Assembler PC v16.9.6 Tue Mar 06 18:34:46 2018

Tools Copyright (c) 1996-2017 Texas Instruments Incorporated
C:\Users\Admin\AppData\Local\Temp\{ED9AE313-281A-4435-8F2A-5411619B06A2} PAGE  103

    5205                      .dwattr $C$DW$407, DW_AT_data_member_location[DW_OP_plus_uconst 0x0]
    5206                      .dwattr $C$DW$407, DW_AT_accessibility(DW_ACCESS_public)
    5207              
    5208              $C$DW$408       .dwtag  DW_TAG_member
    5209                      .dwattr $C$DW$408, DW_AT_type(*$C$DW$T$19)
    5210                      .dwattr $C$DW$408, DW_AT_name("rsvd")
    5211                      .dwattr $C$DW$408, DW_AT_TI_symbol_name("_rsvd")
    5212                      .dwattr $C$DW$408, DW_AT_bit_offset(0x00)
    5213                      .dwattr $C$DW$408, DW_AT_bit_size(0x0a)
    5214                      .dwattr $C$DW$408, DW_AT_data_member_location[DW_OP_plus_uconst 0x0]
    5215                      .dwattr $C$DW$408, DW_AT_accessibility(DW_ACCESS_public)
    5216              
    5217                      .dwendtag $C$DW$T$77
    5218              
    5219              
    5220              $C$DW$T$78      .dwtag  DW_TAG_union_type
    5221                      .dwattr $C$DW$T$78, DW_AT_name("DCFCTL_REG")
    5222                      .dwattr $C$DW$T$78, DW_AT_byte_size(0x01)
    5223              $C$DW$409       .dwtag  DW_TAG_member
    5224                      .dwattr $C$DW$409, DW_AT_type(*$C$DW$T$19)
    5225                      .dwattr $C$DW$409, DW_AT_name("all")
    5226                      .dwattr $C$DW$409, DW_AT_TI_symbol_name("_all")
    5227                      .dwattr $C$DW$409, DW_AT_data_member_location[DW_OP_plus_uconst 0x0]
    5228                      .dwattr $C$DW$409, DW_AT_accessibility(DW_ACCESS_public)
    5229              
    5230              $C$DW$410       .dwtag  DW_TAG_member
    5231                      .dwattr $C$DW$410, DW_AT_type(*$C$DW$T$77)
    5232                      .dwattr $C$DW$410, DW_AT_name("bit")
    5233                      .dwattr $C$DW$410, DW_AT_TI_symbol_name("_bit")
    5234                      .dwattr $C$DW$410, DW_AT_data_member_location[DW_OP_plus_uconst 0x0]
    5235                      .dwattr $C$DW$410, DW_AT_accessibility(DW_ACCESS_public)
    5236              
    5237                      .dwendtag $C$DW$T$78
    5238              
    5239              
    5240              $C$DW$T$79      .dwtag  DW_TAG_structure_type
    5241                      .dwattr $C$DW$T$79, DW_AT_name("DCTRIPSEL_BITS")
    5242                      .dwattr $C$DW$T$79, DW_AT_byte_size(0x01)
    5243              $C$DW$411       .dwtag  DW_TAG_member
    5244                      .dwattr $C$DW$411, DW_AT_type(*$C$DW$T$19)
    5245                      .dwattr $C$DW$411, DW_AT_name("DCAHCOMPSEL")
    5246                      .dwattr $C$DW$411, DW_AT_TI_symbol_name("_DCAHCOMPSEL")
    5247                      .dwattr $C$DW$411, DW_AT_bit_offset(0x0c)
    5248                      .dwattr $C$DW$411, DW_AT_bit_size(0x04)
    5249                      .dwattr $C$DW$411, DW_AT_data_member_location[DW_OP_plus_uconst 0x0]
    5250                      .dwattr $C$DW$411, DW_AT_accessibility(DW_ACCESS_public)
    5251              
    5252              $C$DW$412       .dwtag  DW_TAG_member
    5253                      .dwattr $C$DW$412, DW_AT_type(*$C$DW$T$19)
    5254                      .dwattr $C$DW$412, DW_AT_name("DCALCOMPSEL")
    5255                      .dwattr $C$DW$412, DW_AT_TI_symbol_name("_DCALCOMPSEL")
    5256                      .dwattr $C$DW$412, DW_AT_bit_offset(0x08)
    5257                      .dwattr $C$DW$412, DW_AT_bit_size(0x04)
    5258                      .dwattr $C$DW$412, DW_AT_data_member_location[DW_OP_plus_uconst 0x0]
    5259                      .dwattr $C$DW$412, DW_AT_accessibility(DW_ACCESS_public)
TMS320C2000 Assembler PC v16.9.6 Tue Mar 06 18:34:46 2018

Tools Copyright (c) 1996-2017 Texas Instruments Incorporated
C:\Users\Admin\AppData\Local\Temp\{ED9AE313-281A-4435-8F2A-5411619B06A2} PAGE  104

    5260              
    5261              $C$DW$413       .dwtag  DW_TAG_member
    5262                      .dwattr $C$DW$413, DW_AT_type(*$C$DW$T$19)
    5263                      .dwattr $C$DW$413, DW_AT_name("DCBHCOMPSEL")
    5264                      .dwattr $C$DW$413, DW_AT_TI_symbol_name("_DCBHCOMPSEL")
    5265                      .dwattr $C$DW$413, DW_AT_bit_offset(0x04)
    5266                      .dwattr $C$DW$413, DW_AT_bit_size(0x04)
    5267                      .dwattr $C$DW$413, DW_AT_data_member_location[DW_OP_plus_uconst 0x0]
    5268                      .dwattr $C$DW$413, DW_AT_accessibility(DW_ACCESS_public)
    5269              
    5270              $C$DW$414       .dwtag  DW_TAG_member
    5271                      .dwattr $C$DW$414, DW_AT_type(*$C$DW$T$19)
    5272                      .dwattr $C$DW$414, DW_AT_name("DCBLCOMPSEL")
    5273                      .dwattr $C$DW$414, DW_AT_TI_symbol_name("_DCBLCOMPSEL")
    5274                      .dwattr $C$DW$414, DW_AT_bit_offset(0x00)
    5275                      .dwattr $C$DW$414, DW_AT_bit_size(0x04)
    5276                      .dwattr $C$DW$414, DW_AT_data_member_location[DW_OP_plus_uconst 0x0]
    5277                      .dwattr $C$DW$414, DW_AT_accessibility(DW_ACCESS_public)
    5278              
    5279                      .dwendtag $C$DW$T$79
    5280              
    5281              
    5282              $C$DW$T$80      .dwtag  DW_TAG_union_type
    5283                      .dwattr $C$DW$T$80, DW_AT_name("DCTRIPSEL_REG")
    5284                      .dwattr $C$DW$T$80, DW_AT_byte_size(0x01)
    5285              $C$DW$415       .dwtag  DW_TAG_member
    5286                      .dwattr $C$DW$415, DW_AT_type(*$C$DW$T$19)
    5287                      .dwattr $C$DW$415, DW_AT_name("all")
    5288                      .dwattr $C$DW$415, DW_AT_TI_symbol_name("_all")
    5289                      .dwattr $C$DW$415, DW_AT_data_member_location[DW_OP_plus_uconst 0x0]
    5290                      .dwattr $C$DW$415, DW_AT_accessibility(DW_ACCESS_public)
    5291              
    5292              $C$DW$416       .dwtag  DW_TAG_member
    5293                      .dwattr $C$DW$416, DW_AT_type(*$C$DW$T$79)
    5294                      .dwattr $C$DW$416, DW_AT_name("bit")
    5295                      .dwattr $C$DW$416, DW_AT_TI_symbol_name("_bit")
    5296                      .dwattr $C$DW$416, DW_AT_data_member_location[DW_OP_plus_uconst 0x0]
    5297                      .dwattr $C$DW$416, DW_AT_accessibility(DW_ACCESS_public)
    5298              
    5299                      .dwendtag $C$DW$T$80
    5300              
    5301              
    5302              $C$DW$T$83      .dwtag  DW_TAG_structure_type
    5303                      .dwattr $C$DW$T$83, DW_AT_name("ECAP_REGS")
    5304                      .dwattr $C$DW$T$83, DW_AT_byte_size(0x20)
    5305              $C$DW$417       .dwtag  DW_TAG_member
    5306                      .dwattr $C$DW$417, DW_AT_type(*$C$DW$T$49)
    5307                      .dwattr $C$DW$417, DW_AT_name("TSCTR")
    5308                      .dwattr $C$DW$417, DW_AT_TI_symbol_name("_TSCTR")
    5309                      .dwattr $C$DW$417, DW_AT_data_member_location[DW_OP_plus_uconst 0x0]
    5310                      .dwattr $C$DW$417, DW_AT_accessibility(DW_ACCESS_public)
    5311              
    5312              $C$DW$418       .dwtag  DW_TAG_member
    5313                      .dwattr $C$DW$418, DW_AT_type(*$C$DW$T$49)
    5314                      .dwattr $C$DW$418, DW_AT_name("CTRPHS")
TMS320C2000 Assembler PC v16.9.6 Tue Mar 06 18:34:46 2018

Tools Copyright (c) 1996-2017 Texas Instruments Incorporated
C:\Users\Admin\AppData\Local\Temp\{ED9AE313-281A-4435-8F2A-5411619B06A2} PAGE  105

    5315                      .dwattr $C$DW$418, DW_AT_TI_symbol_name("_CTRPHS")
    5316                      .dwattr $C$DW$418, DW_AT_data_member_location[DW_OP_plus_uconst 0x2]
    5317                      .dwattr $C$DW$418, DW_AT_accessibility(DW_ACCESS_public)
    5318              
    5319              $C$DW$419       .dwtag  DW_TAG_member
    5320                      .dwattr $C$DW$419, DW_AT_type(*$C$DW$T$49)
    5321                      .dwattr $C$DW$419, DW_AT_name("CAP1")
    5322                      .dwattr $C$DW$419, DW_AT_TI_symbol_name("_CAP1")
    5323                      .dwattr $C$DW$419, DW_AT_data_member_location[DW_OP_plus_uconst 0x4]
    5324                      .dwattr $C$DW$419, DW_AT_accessibility(DW_ACCESS_public)
    5325              
    5326              $C$DW$420       .dwtag  DW_TAG_member
    5327                      .dwattr $C$DW$420, DW_AT_type(*$C$DW$T$49)
    5328                      .dwattr $C$DW$420, DW_AT_name("CAP2")
    5329                      .dwattr $C$DW$420, DW_AT_TI_symbol_name("_CAP2")
    5330                      .dwattr $C$DW$420, DW_AT_data_member_location[DW_OP_plus_uconst 0x6]
    5331                      .dwattr $C$DW$420, DW_AT_accessibility(DW_ACCESS_public)
    5332              
    5333              $C$DW$421       .dwtag  DW_TAG_member
    5334                      .dwattr $C$DW$421, DW_AT_type(*$C$DW$T$49)
    5335                      .dwattr $C$DW$421, DW_AT_name("CAP3")
    5336                      .dwattr $C$DW$421, DW_AT_TI_symbol_name("_CAP3")
    5337                      .dwattr $C$DW$421, DW_AT_data_member_location[DW_OP_plus_uconst 0x8]
    5338                      .dwattr $C$DW$421, DW_AT_accessibility(DW_ACCESS_public)
    5339              
    5340              $C$DW$422       .dwtag  DW_TAG_member
    5341                      .dwattr $C$DW$422, DW_AT_type(*$C$DW$T$49)
    5342                      .dwattr $C$DW$422, DW_AT_name("CAP4")
    5343                      .dwattr $C$DW$422, DW_AT_TI_symbol_name("_CAP4")
    5344                      .dwattr $C$DW$422, DW_AT_data_member_location[DW_OP_plus_uconst 0xa]
    5345                      .dwattr $C$DW$422, DW_AT_accessibility(DW_ACCESS_public)
    5346              
    5347              $C$DW$423       .dwtag  DW_TAG_member
    5348                      .dwattr $C$DW$423, DW_AT_type(*$C$DW$T$81)
    5349                      .dwattr $C$DW$423, DW_AT_name("rsvd1")
    5350                      .dwattr $C$DW$423, DW_AT_TI_symbol_name("_rsvd1")
    5351                      .dwattr $C$DW$423, DW_AT_data_member_location[DW_OP_plus_uconst 0xc]
    5352                      .dwattr $C$DW$423, DW_AT_accessibility(DW_ACCESS_public)
    5353              
    5354              $C$DW$424       .dwtag  DW_TAG_member
    5355                      .dwattr $C$DW$424, DW_AT_type(*$C$DW$T$85)
    5356                      .dwattr $C$DW$424, DW_AT_name("ECCTL1")
    5357                      .dwattr $C$DW$424, DW_AT_TI_symbol_name("_ECCTL1")
    5358                      .dwattr $C$DW$424, DW_AT_data_member_location[DW_OP_plus_uconst 0x14]
    5359                      .dwattr $C$DW$424, DW_AT_accessibility(DW_ACCESS_public)
    5360              
    5361              $C$DW$425       .dwtag  DW_TAG_member
    5362                      .dwattr $C$DW$425, DW_AT_type(*$C$DW$T$87)
    5363                      .dwattr $C$DW$425, DW_AT_name("ECCTL2")
    5364                      .dwattr $C$DW$425, DW_AT_TI_symbol_name("_ECCTL2")
    5365                      .dwattr $C$DW$425, DW_AT_data_member_location[DW_OP_plus_uconst 0x15]
    5366                      .dwattr $C$DW$425, DW_AT_accessibility(DW_ACCESS_public)
    5367              
    5368              $C$DW$426       .dwtag  DW_TAG_member
    5369                      .dwattr $C$DW$426, DW_AT_type(*$C$DW$T$89)
TMS320C2000 Assembler PC v16.9.6 Tue Mar 06 18:34:46 2018

Tools Copyright (c) 1996-2017 Texas Instruments Incorporated
C:\Users\Admin\AppData\Local\Temp\{ED9AE313-281A-4435-8F2A-5411619B06A2} PAGE  106

    5370                      .dwattr $C$DW$426, DW_AT_name("ECEINT")
    5371                      .dwattr $C$DW$426, DW_AT_TI_symbol_name("_ECEINT")
    5372                      .dwattr $C$DW$426, DW_AT_data_member_location[DW_OP_plus_uconst 0x16]
    5373                      .dwattr $C$DW$426, DW_AT_accessibility(DW_ACCESS_public)
    5374              
    5375              $C$DW$427       .dwtag  DW_TAG_member
    5376                      .dwattr $C$DW$427, DW_AT_type(*$C$DW$T$91)
    5377                      .dwattr $C$DW$427, DW_AT_name("ECFLG")
    5378                      .dwattr $C$DW$427, DW_AT_TI_symbol_name("_ECFLG")
    5379                      .dwattr $C$DW$427, DW_AT_data_member_location[DW_OP_plus_uconst 0x17]
    5380                      .dwattr $C$DW$427, DW_AT_accessibility(DW_ACCESS_public)
    5381              
    5382              $C$DW$428       .dwtag  DW_TAG_member
    5383                      .dwattr $C$DW$428, DW_AT_type(*$C$DW$T$91)
    5384                      .dwattr $C$DW$428, DW_AT_name("ECCLR")
    5385                      .dwattr $C$DW$428, DW_AT_TI_symbol_name("_ECCLR")
    5386                      .dwattr $C$DW$428, DW_AT_data_member_location[DW_OP_plus_uconst 0x18]
    5387                      .dwattr $C$DW$428, DW_AT_accessibility(DW_ACCESS_public)
    5388              
    5389              $C$DW$429       .dwtag  DW_TAG_member
    5390                      .dwattr $C$DW$429, DW_AT_type(*$C$DW$T$89)
    5391                      .dwattr $C$DW$429, DW_AT_name("ECFRC")
    5392                      .dwattr $C$DW$429, DW_AT_TI_symbol_name("_ECFRC")
    5393                      .dwattr $C$DW$429, DW_AT_data_member_location[DW_OP_plus_uconst 0x19]
    5394                      .dwattr $C$DW$429, DW_AT_accessibility(DW_ACCESS_public)
    5395              
    5396              $C$DW$430       .dwtag  DW_TAG_member
    5397                      .dwattr $C$DW$430, DW_AT_type(*$C$DW$T$82)
    5398                      .dwattr $C$DW$430, DW_AT_name("rsvd2")
    5399                      .dwattr $C$DW$430, DW_AT_TI_symbol_name("_rsvd2")
    5400                      .dwattr $C$DW$430, DW_AT_data_member_location[DW_OP_plus_uconst 0x1a]
    5401                      .dwattr $C$DW$430, DW_AT_accessibility(DW_ACCESS_public)
    5402              
    5403                      .dwendtag $C$DW$T$83
    5404              
    5405              $C$DW$431       .dwtag  DW_TAG_TI_far_type
    5406                      .dwattr $C$DW$431, DW_AT_type(*$C$DW$T$83)
    5407              
    5408              $C$DW$T$220     .dwtag  DW_TAG_volatile_type
    5409                      .dwattr $C$DW$T$220, DW_AT_type(*$C$DW$431)
    5410              
    5411              
    5412              $C$DW$T$84      .dwtag  DW_TAG_structure_type
    5413                      .dwattr $C$DW$T$84, DW_AT_name("ECCTL1_BITS")
    5414                      .dwattr $C$DW$T$84, DW_AT_byte_size(0x01)
    5415              $C$DW$432       .dwtag  DW_TAG_member
    5416                      .dwattr $C$DW$432, DW_AT_type(*$C$DW$T$19)
    5417                      .dwattr $C$DW$432, DW_AT_name("CAP1POL")
    5418                      .dwattr $C$DW$432, DW_AT_TI_symbol_name("_CAP1POL")
    5419                      .dwattr $C$DW$432, DW_AT_bit_offset(0x0f)
    5420                      .dwattr $C$DW$432, DW_AT_bit_size(0x01)
    5421                      .dwattr $C$DW$432, DW_AT_data_member_location[DW_OP_plus_uconst 0x0]
    5422                      .dwattr $C$DW$432, DW_AT_accessibility(DW_ACCESS_public)
    5423              
    5424              $C$DW$433       .dwtag  DW_TAG_member
TMS320C2000 Assembler PC v16.9.6 Tue Mar 06 18:34:46 2018

Tools Copyright (c) 1996-2017 Texas Instruments Incorporated
C:\Users\Admin\AppData\Local\Temp\{ED9AE313-281A-4435-8F2A-5411619B06A2} PAGE  107

    5425                      .dwattr $C$DW$433, DW_AT_type(*$C$DW$T$19)
    5426                      .dwattr $C$DW$433, DW_AT_name("CTRRST1")
    5427                      .dwattr $C$DW$433, DW_AT_TI_symbol_name("_CTRRST1")
    5428                      .dwattr $C$DW$433, DW_AT_bit_offset(0x0e)
    5429                      .dwattr $C$DW$433, DW_AT_bit_size(0x01)
    5430                      .dwattr $C$DW$433, DW_AT_data_member_location[DW_OP_plus_uconst 0x0]
    5431                      .dwattr $C$DW$433, DW_AT_accessibility(DW_ACCESS_public)
    5432              
    5433              $C$DW$434       .dwtag  DW_TAG_member
    5434                      .dwattr $C$DW$434, DW_AT_type(*$C$DW$T$19)
    5435                      .dwattr $C$DW$434, DW_AT_name("CAP2POL")
    5436                      .dwattr $C$DW$434, DW_AT_TI_symbol_name("_CAP2POL")
    5437                      .dwattr $C$DW$434, DW_AT_bit_offset(0x0d)
    5438                      .dwattr $C$DW$434, DW_AT_bit_size(0x01)
    5439                      .dwattr $C$DW$434, DW_AT_data_member_location[DW_OP_plus_uconst 0x0]
    5440                      .dwattr $C$DW$434, DW_AT_accessibility(DW_ACCESS_public)
    5441              
    5442              $C$DW$435       .dwtag  DW_TAG_member
    5443                      .dwattr $C$DW$435, DW_AT_type(*$C$DW$T$19)
    5444                      .dwattr $C$DW$435, DW_AT_name("CTRRST2")
    5445                      .dwattr $C$DW$435, DW_AT_TI_symbol_name("_CTRRST2")
    5446                      .dwattr $C$DW$435, DW_AT_bit_offset(0x0c)
    5447                      .dwattr $C$DW$435, DW_AT_bit_size(0x01)
    5448                      .dwattr $C$DW$435, DW_AT_data_member_location[DW_OP_plus_uconst 0x0]
    5449                      .dwattr $C$DW$435, DW_AT_accessibility(DW_ACCESS_public)
    5450              
    5451              $C$DW$436       .dwtag  DW_TAG_member
    5452                      .dwattr $C$DW$436, DW_AT_type(*$C$DW$T$19)
    5453                      .dwattr $C$DW$436, DW_AT_name("CAP3POL")
    5454                      .dwattr $C$DW$436, DW_AT_TI_symbol_name("_CAP3POL")
    5455                      .dwattr $C$DW$436, DW_AT_bit_offset(0x0b)
    5456                      .dwattr $C$DW$436, DW_AT_bit_size(0x01)
    5457                      .dwattr $C$DW$436, DW_AT_data_member_location[DW_OP_plus_uconst 0x0]
    5458                      .dwattr $C$DW$436, DW_AT_accessibility(DW_ACCESS_public)
    5459              
    5460              $C$DW$437       .dwtag  DW_TAG_member
    5461                      .dwattr $C$DW$437, DW_AT_type(*$C$DW$T$19)
    5462                      .dwattr $C$DW$437, DW_AT_name("CTRRST3")
    5463                      .dwattr $C$DW$437, DW_AT_TI_symbol_name("_CTRRST3")
    5464                      .dwattr $C$DW$437, DW_AT_bit_offset(0x0a)
    5465                      .dwattr $C$DW$437, DW_AT_bit_size(0x01)
    5466                      .dwattr $C$DW$437, DW_AT_data_member_location[DW_OP_plus_uconst 0x0]
    5467                      .dwattr $C$DW$437, DW_AT_accessibility(DW_ACCESS_public)
    5468              
    5469              $C$DW$438       .dwtag  DW_TAG_member
    5470                      .dwattr $C$DW$438, DW_AT_type(*$C$DW$T$19)
    5471                      .dwattr $C$DW$438, DW_AT_name("CAP4POL")
    5472                      .dwattr $C$DW$438, DW_AT_TI_symbol_name("_CAP4POL")
    5473                      .dwattr $C$DW$438, DW_AT_bit_offset(0x09)
    5474                      .dwattr $C$DW$438, DW_AT_bit_size(0x01)
    5475                      .dwattr $C$DW$438, DW_AT_data_member_location[DW_OP_plus_uconst 0x0]
    5476                      .dwattr $C$DW$438, DW_AT_accessibility(DW_ACCESS_public)
    5477              
    5478              $C$DW$439       .dwtag  DW_TAG_member
    5479                      .dwattr $C$DW$439, DW_AT_type(*$C$DW$T$19)
TMS320C2000 Assembler PC v16.9.6 Tue Mar 06 18:34:46 2018

Tools Copyright (c) 1996-2017 Texas Instruments Incorporated
C:\Users\Admin\AppData\Local\Temp\{ED9AE313-281A-4435-8F2A-5411619B06A2} PAGE  108

    5480                      .dwattr $C$DW$439, DW_AT_name("CTRRST4")
    5481                      .dwattr $C$DW$439, DW_AT_TI_symbol_name("_CTRRST4")
    5482                      .dwattr $C$DW$439, DW_AT_bit_offset(0x08)
    5483                      .dwattr $C$DW$439, DW_AT_bit_size(0x01)
    5484                      .dwattr $C$DW$439, DW_AT_data_member_location[DW_OP_plus_uconst 0x0]
    5485                      .dwattr $C$DW$439, DW_AT_accessibility(DW_ACCESS_public)
    5486              
    5487              $C$DW$440       .dwtag  DW_TAG_member
    5488                      .dwattr $C$DW$440, DW_AT_type(*$C$DW$T$19)
    5489                      .dwattr $C$DW$440, DW_AT_name("CAPLDEN")
    5490                      .dwattr $C$DW$440, DW_AT_TI_symbol_name("_CAPLDEN")
    5491                      .dwattr $C$DW$440, DW_AT_bit_offset(0x07)
    5492                      .dwattr $C$DW$440, DW_AT_bit_size(0x01)
    5493                      .dwattr $C$DW$440, DW_AT_data_member_location[DW_OP_plus_uconst 0x0]
    5494                      .dwattr $C$DW$440, DW_AT_accessibility(DW_ACCESS_public)
    5495              
    5496              $C$DW$441       .dwtag  DW_TAG_member
    5497                      .dwattr $C$DW$441, DW_AT_type(*$C$DW$T$19)
    5498                      .dwattr $C$DW$441, DW_AT_name("PRESCALE")
    5499                      .dwattr $C$DW$441, DW_AT_TI_symbol_name("_PRESCALE")
    5500                      .dwattr $C$DW$441, DW_AT_bit_offset(0x02)
    5501                      .dwattr $C$DW$441, DW_AT_bit_size(0x05)
    5502                      .dwattr $C$DW$441, DW_AT_data_member_location[DW_OP_plus_uconst 0x0]
    5503                      .dwattr $C$DW$441, DW_AT_accessibility(DW_ACCESS_public)
    5504              
    5505              $C$DW$442       .dwtag  DW_TAG_member
    5506                      .dwattr $C$DW$442, DW_AT_type(*$C$DW$T$19)
    5507                      .dwattr $C$DW$442, DW_AT_name("FREE_SOFT")
    5508                      .dwattr $C$DW$442, DW_AT_TI_symbol_name("_FREE_SOFT")
    5509                      .dwattr $C$DW$442, DW_AT_bit_offset(0x00)
    5510                      .dwattr $C$DW$442, DW_AT_bit_size(0x02)
    5511                      .dwattr $C$DW$442, DW_AT_data_member_location[DW_OP_plus_uconst 0x0]
    5512                      .dwattr $C$DW$442, DW_AT_accessibility(DW_ACCESS_public)
    5513              
    5514                      .dwendtag $C$DW$T$84
    5515              
    5516              
    5517              $C$DW$T$85      .dwtag  DW_TAG_union_type
    5518                      .dwattr $C$DW$T$85, DW_AT_name("ECCTL1_REG")
    5519                      .dwattr $C$DW$T$85, DW_AT_byte_size(0x01)
    5520              $C$DW$443       .dwtag  DW_TAG_member
    5521                      .dwattr $C$DW$443, DW_AT_type(*$C$DW$T$19)
    5522                      .dwattr $C$DW$443, DW_AT_name("all")
    5523                      .dwattr $C$DW$443, DW_AT_TI_symbol_name("_all")
    5524                      .dwattr $C$DW$443, DW_AT_data_member_location[DW_OP_plus_uconst 0x0]
    5525                      .dwattr $C$DW$443, DW_AT_accessibility(DW_ACCESS_public)
    5526              
    5527              $C$DW$444       .dwtag  DW_TAG_member
    5528                      .dwattr $C$DW$444, DW_AT_type(*$C$DW$T$84)
    5529                      .dwattr $C$DW$444, DW_AT_name("bit")
    5530                      .dwattr $C$DW$444, DW_AT_TI_symbol_name("_bit")
    5531                      .dwattr $C$DW$444, DW_AT_data_member_location[DW_OP_plus_uconst 0x0]
    5532                      .dwattr $C$DW$444, DW_AT_accessibility(DW_ACCESS_public)
    5533              
    5534                      .dwendtag $C$DW$T$85
TMS320C2000 Assembler PC v16.9.6 Tue Mar 06 18:34:46 2018

Tools Copyright (c) 1996-2017 Texas Instruments Incorporated
C:\Users\Admin\AppData\Local\Temp\{ED9AE313-281A-4435-8F2A-5411619B06A2} PAGE  109

    5535              
    5536              
    5537              $C$DW$T$86      .dwtag  DW_TAG_structure_type
    5538                      .dwattr $C$DW$T$86, DW_AT_name("ECCTL2_BITS")
    5539                      .dwattr $C$DW$T$86, DW_AT_byte_size(0x01)
    5540              $C$DW$445       .dwtag  DW_TAG_member
    5541                      .dwattr $C$DW$445, DW_AT_type(*$C$DW$T$19)
    5542                      .dwattr $C$DW$445, DW_AT_name("CONT_ONESHT")
    5543                      .dwattr $C$DW$445, DW_AT_TI_symbol_name("_CONT_ONESHT")
    5544                      .dwattr $C$DW$445, DW_AT_bit_offset(0x0f)
    5545                      .dwattr $C$DW$445, DW_AT_bit_size(0x01)
    5546                      .dwattr $C$DW$445, DW_AT_data_member_location[DW_OP_plus_uconst 0x0]
    5547                      .dwattr $C$DW$445, DW_AT_accessibility(DW_ACCESS_public)
    5548              
    5549              $C$DW$446       .dwtag  DW_TAG_member
    5550                      .dwattr $C$DW$446, DW_AT_type(*$C$DW$T$19)
    5551                      .dwattr $C$DW$446, DW_AT_name("STOP_WRAP")
    5552                      .dwattr $C$DW$446, DW_AT_TI_symbol_name("_STOP_WRAP")
    5553                      .dwattr $C$DW$446, DW_AT_bit_offset(0x0d)
    5554                      .dwattr $C$DW$446, DW_AT_bit_size(0x02)
    5555                      .dwattr $C$DW$446, DW_AT_data_member_location[DW_OP_plus_uconst 0x0]
    5556                      .dwattr $C$DW$446, DW_AT_accessibility(DW_ACCESS_public)
    5557              
    5558              $C$DW$447       .dwtag  DW_TAG_member
    5559                      .dwattr $C$DW$447, DW_AT_type(*$C$DW$T$19)
    5560                      .dwattr $C$DW$447, DW_AT_name("REARM")
    5561                      .dwattr $C$DW$447, DW_AT_TI_symbol_name("_REARM")
    5562                      .dwattr $C$DW$447, DW_AT_bit_offset(0x0c)
    5563                      .dwattr $C$DW$447, DW_AT_bit_size(0x01)
    5564                      .dwattr $C$DW$447, DW_AT_data_member_location[DW_OP_plus_uconst 0x0]
    5565                      .dwattr $C$DW$447, DW_AT_accessibility(DW_ACCESS_public)
    5566              
    5567              $C$DW$448       .dwtag  DW_TAG_member
    5568                      .dwattr $C$DW$448, DW_AT_type(*$C$DW$T$19)
    5569                      .dwattr $C$DW$448, DW_AT_name("TSCTRSTOP")
    5570                      .dwattr $C$DW$448, DW_AT_TI_symbol_name("_TSCTRSTOP")
    5571                      .dwattr $C$DW$448, DW_AT_bit_offset(0x0b)
    5572                      .dwattr $C$DW$448, DW_AT_bit_size(0x01)
    5573                      .dwattr $C$DW$448, DW_AT_data_member_location[DW_OP_plus_uconst 0x0]
    5574                      .dwattr $C$DW$448, DW_AT_accessibility(DW_ACCESS_public)
    5575              
    5576              $C$DW$449       .dwtag  DW_TAG_member
    5577                      .dwattr $C$DW$449, DW_AT_type(*$C$DW$T$19)
    5578                      .dwattr $C$DW$449, DW_AT_name("SYNCI_EN")
    5579                      .dwattr $C$DW$449, DW_AT_TI_symbol_name("_SYNCI_EN")
    5580                      .dwattr $C$DW$449, DW_AT_bit_offset(0x0a)
    5581                      .dwattr $C$DW$449, DW_AT_bit_size(0x01)
    5582                      .dwattr $C$DW$449, DW_AT_data_member_location[DW_OP_plus_uconst 0x0]
    5583                      .dwattr $C$DW$449, DW_AT_accessibility(DW_ACCESS_public)
    5584              
    5585              $C$DW$450       .dwtag  DW_TAG_member
    5586                      .dwattr $C$DW$450, DW_AT_type(*$C$DW$T$19)
    5587                      .dwattr $C$DW$450, DW_AT_name("SYNCO_SEL")
    5588                      .dwattr $C$DW$450, DW_AT_TI_symbol_name("_SYNCO_SEL")
    5589                      .dwattr $C$DW$450, DW_AT_bit_offset(0x08)
TMS320C2000 Assembler PC v16.9.6 Tue Mar 06 18:34:46 2018

Tools Copyright (c) 1996-2017 Texas Instruments Incorporated
C:\Users\Admin\AppData\Local\Temp\{ED9AE313-281A-4435-8F2A-5411619B06A2} PAGE  110

    5590                      .dwattr $C$DW$450, DW_AT_bit_size(0x02)
    5591                      .dwattr $C$DW$450, DW_AT_data_member_location[DW_OP_plus_uconst 0x0]
    5592                      .dwattr $C$DW$450, DW_AT_accessibility(DW_ACCESS_public)
    5593              
    5594              $C$DW$451       .dwtag  DW_TAG_member
    5595                      .dwattr $C$DW$451, DW_AT_type(*$C$DW$T$19)
    5596                      .dwattr $C$DW$451, DW_AT_name("SWSYNC")
    5597                      .dwattr $C$DW$451, DW_AT_TI_symbol_name("_SWSYNC")
    5598                      .dwattr $C$DW$451, DW_AT_bit_offset(0x07)
    5599                      .dwattr $C$DW$451, DW_AT_bit_size(0x01)
    5600                      .dwattr $C$DW$451, DW_AT_data_member_location[DW_OP_plus_uconst 0x0]
    5601                      .dwattr $C$DW$451, DW_AT_accessibility(DW_ACCESS_public)
    5602              
    5603              $C$DW$452       .dwtag  DW_TAG_member
    5604                      .dwattr $C$DW$452, DW_AT_type(*$C$DW$T$19)
    5605                      .dwattr $C$DW$452, DW_AT_name("CAP_APWM")
    5606                      .dwattr $C$DW$452, DW_AT_TI_symbol_name("_CAP_APWM")
    5607                      .dwattr $C$DW$452, DW_AT_bit_offset(0x06)
    5608                      .dwattr $C$DW$452, DW_AT_bit_size(0x01)
    5609                      .dwattr $C$DW$452, DW_AT_data_member_location[DW_OP_plus_uconst 0x0]
    5610                      .dwattr $C$DW$452, DW_AT_accessibility(DW_ACCESS_public)
    5611              
    5612              $C$DW$453       .dwtag  DW_TAG_member
    5613                      .dwattr $C$DW$453, DW_AT_type(*$C$DW$T$19)
    5614                      .dwattr $C$DW$453, DW_AT_name("APWMPOL")
    5615                      .dwattr $C$DW$453, DW_AT_TI_symbol_name("_APWMPOL")
    5616                      .dwattr $C$DW$453, DW_AT_bit_offset(0x05)
    5617                      .dwattr $C$DW$453, DW_AT_bit_size(0x01)
    5618                      .dwattr $C$DW$453, DW_AT_data_member_location[DW_OP_plus_uconst 0x0]
    5619                      .dwattr $C$DW$453, DW_AT_accessibility(DW_ACCESS_public)
    5620              
    5621              $C$DW$454       .dwtag  DW_TAG_member
    5622                      .dwattr $C$DW$454, DW_AT_type(*$C$DW$T$19)
    5623                      .dwattr $C$DW$454, DW_AT_name("rsvd1")
    5624                      .dwattr $C$DW$454, DW_AT_TI_symbol_name("_rsvd1")
    5625                      .dwattr $C$DW$454, DW_AT_bit_offset(0x00)
    5626                      .dwattr $C$DW$454, DW_AT_bit_size(0x05)
    5627                      .dwattr $C$DW$454, DW_AT_data_member_location[DW_OP_plus_uconst 0x0]
    5628                      .dwattr $C$DW$454, DW_AT_accessibility(DW_ACCESS_public)
    5629              
    5630                      .dwendtag $C$DW$T$86
    5631              
    5632              
    5633              $C$DW$T$87      .dwtag  DW_TAG_union_type
    5634                      .dwattr $C$DW$T$87, DW_AT_name("ECCTL2_REG")
    5635                      .dwattr $C$DW$T$87, DW_AT_byte_size(0x01)
    5636              $C$DW$455       .dwtag  DW_TAG_member
    5637                      .dwattr $C$DW$455, DW_AT_type(*$C$DW$T$19)
    5638                      .dwattr $C$DW$455, DW_AT_name("all")
    5639                      .dwattr $C$DW$455, DW_AT_TI_symbol_name("_all")
    5640                      .dwattr $C$DW$455, DW_AT_data_member_location[DW_OP_plus_uconst 0x0]
    5641                      .dwattr $C$DW$455, DW_AT_accessibility(DW_ACCESS_public)
    5642              
    5643              $C$DW$456       .dwtag  DW_TAG_member
    5644                      .dwattr $C$DW$456, DW_AT_type(*$C$DW$T$86)
TMS320C2000 Assembler PC v16.9.6 Tue Mar 06 18:34:46 2018

Tools Copyright (c) 1996-2017 Texas Instruments Incorporated
C:\Users\Admin\AppData\Local\Temp\{ED9AE313-281A-4435-8F2A-5411619B06A2} PAGE  111

    5645                      .dwattr $C$DW$456, DW_AT_name("bit")
    5646                      .dwattr $C$DW$456, DW_AT_TI_symbol_name("_bit")
    5647                      .dwattr $C$DW$456, DW_AT_data_member_location[DW_OP_plus_uconst 0x0]
    5648                      .dwattr $C$DW$456, DW_AT_accessibility(DW_ACCESS_public)
    5649              
    5650                      .dwendtag $C$DW$T$87
    5651              
    5652              
    5653              $C$DW$T$88      .dwtag  DW_TAG_structure_type
    5654                      .dwattr $C$DW$T$88, DW_AT_name("ECEINT_BITS")
    5655                      .dwattr $C$DW$T$88, DW_AT_byte_size(0x01)
    5656              $C$DW$457       .dwtag  DW_TAG_member
    5657                      .dwattr $C$DW$457, DW_AT_type(*$C$DW$T$19)
    5658                      .dwattr $C$DW$457, DW_AT_name("rsvd1")
    5659                      .dwattr $C$DW$457, DW_AT_TI_symbol_name("_rsvd1")
    5660                      .dwattr $C$DW$457, DW_AT_bit_offset(0x0f)
    5661                      .dwattr $C$DW$457, DW_AT_bit_size(0x01)
    5662                      .dwattr $C$DW$457, DW_AT_data_member_location[DW_OP_plus_uconst 0x0]
    5663                      .dwattr $C$DW$457, DW_AT_accessibility(DW_ACCESS_public)
    5664              
    5665              $C$DW$458       .dwtag  DW_TAG_member
    5666                      .dwattr $C$DW$458, DW_AT_type(*$C$DW$T$19)
    5667                      .dwattr $C$DW$458, DW_AT_name("CEVT1")
    5668                      .dwattr $C$DW$458, DW_AT_TI_symbol_name("_CEVT1")
    5669                      .dwattr $C$DW$458, DW_AT_bit_offset(0x0e)
    5670                      .dwattr $C$DW$458, DW_AT_bit_size(0x01)
    5671                      .dwattr $C$DW$458, DW_AT_data_member_location[DW_OP_plus_uconst 0x0]
    5672                      .dwattr $C$DW$458, DW_AT_accessibility(DW_ACCESS_public)
    5673              
    5674              $C$DW$459       .dwtag  DW_TAG_member
    5675                      .dwattr $C$DW$459, DW_AT_type(*$C$DW$T$19)
    5676                      .dwattr $C$DW$459, DW_AT_name("CEVT2")
    5677                      .dwattr $C$DW$459, DW_AT_TI_symbol_name("_CEVT2")
    5678                      .dwattr $C$DW$459, DW_AT_bit_offset(0x0d)
    5679                      .dwattr $C$DW$459, DW_AT_bit_size(0x01)
    5680                      .dwattr $C$DW$459, DW_AT_data_member_location[DW_OP_plus_uconst 0x0]
    5681                      .dwattr $C$DW$459, DW_AT_accessibility(DW_ACCESS_public)
    5682              
    5683              $C$DW$460       .dwtag  DW_TAG_member
    5684                      .dwattr $C$DW$460, DW_AT_type(*$C$DW$T$19)
    5685                      .dwattr $C$DW$460, DW_AT_name("CEVT3")
    5686                      .dwattr $C$DW$460, DW_AT_TI_symbol_name("_CEVT3")
    5687                      .dwattr $C$DW$460, DW_AT_bit_offset(0x0c)
    5688                      .dwattr $C$DW$460, DW_AT_bit_size(0x01)
    5689                      .dwattr $C$DW$460, DW_AT_data_member_location[DW_OP_plus_uconst 0x0]
    5690                      .dwattr $C$DW$460, DW_AT_accessibility(DW_ACCESS_public)
    5691              
    5692              $C$DW$461       .dwtag  DW_TAG_member
    5693                      .dwattr $C$DW$461, DW_AT_type(*$C$DW$T$19)
    5694                      .dwattr $C$DW$461, DW_AT_name("CEVT4")
    5695                      .dwattr $C$DW$461, DW_AT_TI_symbol_name("_CEVT4")
    5696                      .dwattr $C$DW$461, DW_AT_bit_offset(0x0b)
    5697                      .dwattr $C$DW$461, DW_AT_bit_size(0x01)
    5698                      .dwattr $C$DW$461, DW_AT_data_member_location[DW_OP_plus_uconst 0x0]
    5699                      .dwattr $C$DW$461, DW_AT_accessibility(DW_ACCESS_public)
TMS320C2000 Assembler PC v16.9.6 Tue Mar 06 18:34:46 2018

Tools Copyright (c) 1996-2017 Texas Instruments Incorporated
C:\Users\Admin\AppData\Local\Temp\{ED9AE313-281A-4435-8F2A-5411619B06A2} PAGE  112

    5700              
    5701              $C$DW$462       .dwtag  DW_TAG_member
    5702                      .dwattr $C$DW$462, DW_AT_type(*$C$DW$T$19)
    5703                      .dwattr $C$DW$462, DW_AT_name("CTROVF")
    5704                      .dwattr $C$DW$462, DW_AT_TI_symbol_name("_CTROVF")
    5705                      .dwattr $C$DW$462, DW_AT_bit_offset(0x0a)
    5706                      .dwattr $C$DW$462, DW_AT_bit_size(0x01)
    5707                      .dwattr $C$DW$462, DW_AT_data_member_location[DW_OP_plus_uconst 0x0]
    5708                      .dwattr $C$DW$462, DW_AT_accessibility(DW_ACCESS_public)
    5709              
    5710              $C$DW$463       .dwtag  DW_TAG_member
    5711                      .dwattr $C$DW$463, DW_AT_type(*$C$DW$T$19)
    5712                      .dwattr $C$DW$463, DW_AT_name("CTR_EQ_PRD")
    5713                      .dwattr $C$DW$463, DW_AT_TI_symbol_name("_CTR_EQ_PRD")
    5714                      .dwattr $C$DW$463, DW_AT_bit_offset(0x09)
    5715                      .dwattr $C$DW$463, DW_AT_bit_size(0x01)
    5716                      .dwattr $C$DW$463, DW_AT_data_member_location[DW_OP_plus_uconst 0x0]
    5717                      .dwattr $C$DW$463, DW_AT_accessibility(DW_ACCESS_public)
    5718              
    5719              $C$DW$464       .dwtag  DW_TAG_member
    5720                      .dwattr $C$DW$464, DW_AT_type(*$C$DW$T$19)
    5721                      .dwattr $C$DW$464, DW_AT_name("CTR_EQ_CMP")
    5722                      .dwattr $C$DW$464, DW_AT_TI_symbol_name("_CTR_EQ_CMP")
    5723                      .dwattr $C$DW$464, DW_AT_bit_offset(0x08)
    5724                      .dwattr $C$DW$464, DW_AT_bit_size(0x01)
    5725                      .dwattr $C$DW$464, DW_AT_data_member_location[DW_OP_plus_uconst 0x0]
    5726                      .dwattr $C$DW$464, DW_AT_accessibility(DW_ACCESS_public)
    5727              
    5728              $C$DW$465       .dwtag  DW_TAG_member
    5729                      .dwattr $C$DW$465, DW_AT_type(*$C$DW$T$19)
    5730                      .dwattr $C$DW$465, DW_AT_name("rsvd2")
    5731                      .dwattr $C$DW$465, DW_AT_TI_symbol_name("_rsvd2")
    5732                      .dwattr $C$DW$465, DW_AT_bit_offset(0x00)
    5733                      .dwattr $C$DW$465, DW_AT_bit_size(0x08)
    5734                      .dwattr $C$DW$465, DW_AT_data_member_location[DW_OP_plus_uconst 0x0]
    5735                      .dwattr $C$DW$465, DW_AT_accessibility(DW_ACCESS_public)
    5736              
    5737                      .dwendtag $C$DW$T$88
    5738              
    5739              
    5740              $C$DW$T$89      .dwtag  DW_TAG_union_type
    5741                      .dwattr $C$DW$T$89, DW_AT_name("ECEINT_REG")
    5742                      .dwattr $C$DW$T$89, DW_AT_byte_size(0x01)
    5743              $C$DW$466       .dwtag  DW_TAG_member
    5744                      .dwattr $C$DW$466, DW_AT_type(*$C$DW$T$19)
    5745                      .dwattr $C$DW$466, DW_AT_name("all")
    5746                      .dwattr $C$DW$466, DW_AT_TI_symbol_name("_all")
    5747                      .dwattr $C$DW$466, DW_AT_data_member_location[DW_OP_plus_uconst 0x0]
    5748                      .dwattr $C$DW$466, DW_AT_accessibility(DW_ACCESS_public)
    5749              
    5750              $C$DW$467       .dwtag  DW_TAG_member
    5751                      .dwattr $C$DW$467, DW_AT_type(*$C$DW$T$88)
    5752                      .dwattr $C$DW$467, DW_AT_name("bit")
    5753                      .dwattr $C$DW$467, DW_AT_TI_symbol_name("_bit")
    5754                      .dwattr $C$DW$467, DW_AT_data_member_location[DW_OP_plus_uconst 0x0]
TMS320C2000 Assembler PC v16.9.6 Tue Mar 06 18:34:46 2018

Tools Copyright (c) 1996-2017 Texas Instruments Incorporated
C:\Users\Admin\AppData\Local\Temp\{ED9AE313-281A-4435-8F2A-5411619B06A2} PAGE  113

    5755                      .dwattr $C$DW$467, DW_AT_accessibility(DW_ACCESS_public)
    5756              
    5757                      .dwendtag $C$DW$T$89
    5758              
    5759              
    5760              $C$DW$T$90      .dwtag  DW_TAG_structure_type
    5761                      .dwattr $C$DW$T$90, DW_AT_name("ECFLG_BITS")
    5762                      .dwattr $C$DW$T$90, DW_AT_byte_size(0x01)
    5763              $C$DW$468       .dwtag  DW_TAG_member
    5764                      .dwattr $C$DW$468, DW_AT_type(*$C$DW$T$19)
    5765                      .dwattr $C$DW$468, DW_AT_name("INT")
    5766                      .dwattr $C$DW$468, DW_AT_TI_symbol_name("_INT")
    5767                      .dwattr $C$DW$468, DW_AT_bit_offset(0x0f)
    5768                      .dwattr $C$DW$468, DW_AT_bit_size(0x01)
    5769                      .dwattr $C$DW$468, DW_AT_data_member_location[DW_OP_plus_uconst 0x0]
    5770                      .dwattr $C$DW$468, DW_AT_accessibility(DW_ACCESS_public)
    5771              
    5772              $C$DW$469       .dwtag  DW_TAG_member
    5773                      .dwattr $C$DW$469, DW_AT_type(*$C$DW$T$19)
    5774                      .dwattr $C$DW$469, DW_AT_name("CEVT1")
    5775                      .dwattr $C$DW$469, DW_AT_TI_symbol_name("_CEVT1")
    5776                      .dwattr $C$DW$469, DW_AT_bit_offset(0x0e)
    5777                      .dwattr $C$DW$469, DW_AT_bit_size(0x01)
    5778                      .dwattr $C$DW$469, DW_AT_data_member_location[DW_OP_plus_uconst 0x0]
    5779                      .dwattr $C$DW$469, DW_AT_accessibility(DW_ACCESS_public)
    5780              
    5781              $C$DW$470       .dwtag  DW_TAG_member
    5782                      .dwattr $C$DW$470, DW_AT_type(*$C$DW$T$19)
    5783                      .dwattr $C$DW$470, DW_AT_name("CEVT2")
    5784                      .dwattr $C$DW$470, DW_AT_TI_symbol_name("_CEVT2")
    5785                      .dwattr $C$DW$470, DW_AT_bit_offset(0x0d)
    5786                      .dwattr $C$DW$470, DW_AT_bit_size(0x01)
    5787                      .dwattr $C$DW$470, DW_AT_data_member_location[DW_OP_plus_uconst 0x0]
    5788                      .dwattr $C$DW$470, DW_AT_accessibility(DW_ACCESS_public)
    5789              
    5790              $C$DW$471       .dwtag  DW_TAG_member
    5791                      .dwattr $C$DW$471, DW_AT_type(*$C$DW$T$19)
    5792                      .dwattr $C$DW$471, DW_AT_name("CEVT3")
    5793                      .dwattr $C$DW$471, DW_AT_TI_symbol_name("_CEVT3")
    5794                      .dwattr $C$DW$471, DW_AT_bit_offset(0x0c)
    5795                      .dwattr $C$DW$471, DW_AT_bit_size(0x01)
    5796                      .dwattr $C$DW$471, DW_AT_data_member_location[DW_OP_plus_uconst 0x0]
    5797                      .dwattr $C$DW$471, DW_AT_accessibility(DW_ACCESS_public)
    5798              
    5799              $C$DW$472       .dwtag  DW_TAG_member
    5800                      .dwattr $C$DW$472, DW_AT_type(*$C$DW$T$19)
    5801                      .dwattr $C$DW$472, DW_AT_name("CEVT4")
    5802                      .dwattr $C$DW$472, DW_AT_TI_symbol_name("_CEVT4")
    5803                      .dwattr $C$DW$472, DW_AT_bit_offset(0x0b)
    5804                      .dwattr $C$DW$472, DW_AT_bit_size(0x01)
    5805                      .dwattr $C$DW$472, DW_AT_data_member_location[DW_OP_plus_uconst 0x0]
    5806                      .dwattr $C$DW$472, DW_AT_accessibility(DW_ACCESS_public)
    5807              
    5808              $C$DW$473       .dwtag  DW_TAG_member
    5809                      .dwattr $C$DW$473, DW_AT_type(*$C$DW$T$19)
TMS320C2000 Assembler PC v16.9.6 Tue Mar 06 18:34:46 2018

Tools Copyright (c) 1996-2017 Texas Instruments Incorporated
C:\Users\Admin\AppData\Local\Temp\{ED9AE313-281A-4435-8F2A-5411619B06A2} PAGE  114

    5810                      .dwattr $C$DW$473, DW_AT_name("CTROVF")
    5811                      .dwattr $C$DW$473, DW_AT_TI_symbol_name("_CTROVF")
    5812                      .dwattr $C$DW$473, DW_AT_bit_offset(0x0a)
    5813                      .dwattr $C$DW$473, DW_AT_bit_size(0x01)
    5814                      .dwattr $C$DW$473, DW_AT_data_member_location[DW_OP_plus_uconst 0x0]
    5815                      .dwattr $C$DW$473, DW_AT_accessibility(DW_ACCESS_public)
    5816              
    5817              $C$DW$474       .dwtag  DW_TAG_member
    5818                      .dwattr $C$DW$474, DW_AT_type(*$C$DW$T$19)
    5819                      .dwattr $C$DW$474, DW_AT_name("CTR_EQ_PRD")
    5820                      .dwattr $C$DW$474, DW_AT_TI_symbol_name("_CTR_EQ_PRD")
    5821                      .dwattr $C$DW$474, DW_AT_bit_offset(0x09)
    5822                      .dwattr $C$DW$474, DW_AT_bit_size(0x01)
    5823                      .dwattr $C$DW$474, DW_AT_data_member_location[DW_OP_plus_uconst 0x0]
    5824                      .dwattr $C$DW$474, DW_AT_accessibility(DW_ACCESS_public)
    5825              
    5826              $C$DW$475       .dwtag  DW_TAG_member
    5827                      .dwattr $C$DW$475, DW_AT_type(*$C$DW$T$19)
    5828                      .dwattr $C$DW$475, DW_AT_name("CTR_EQ_CMP")
    5829                      .dwattr $C$DW$475, DW_AT_TI_symbol_name("_CTR_EQ_CMP")
    5830                      .dwattr $C$DW$475, DW_AT_bit_offset(0x08)
    5831                      .dwattr $C$DW$475, DW_AT_bit_size(0x01)
    5832                      .dwattr $C$DW$475, DW_AT_data_member_location[DW_OP_plus_uconst 0x0]
    5833                      .dwattr $C$DW$475, DW_AT_accessibility(DW_ACCESS_public)
    5834              
    5835              $C$DW$476       .dwtag  DW_TAG_member
    5836                      .dwattr $C$DW$476, DW_AT_type(*$C$DW$T$19)
    5837                      .dwattr $C$DW$476, DW_AT_name("rsvd2")
    5838                      .dwattr $C$DW$476, DW_AT_TI_symbol_name("_rsvd2")
    5839                      .dwattr $C$DW$476, DW_AT_bit_offset(0x00)
    5840                      .dwattr $C$DW$476, DW_AT_bit_size(0x08)
    5841                      .dwattr $C$DW$476, DW_AT_data_member_location[DW_OP_plus_uconst 0x0]
    5842                      .dwattr $C$DW$476, DW_AT_accessibility(DW_ACCESS_public)
    5843              
    5844                      .dwendtag $C$DW$T$90
    5845              
    5846              
    5847              $C$DW$T$91      .dwtag  DW_TAG_union_type
    5848                      .dwattr $C$DW$T$91, DW_AT_name("ECFLG_REG")
    5849                      .dwattr $C$DW$T$91, DW_AT_byte_size(0x01)
    5850              $C$DW$477       .dwtag  DW_TAG_member
    5851                      .dwattr $C$DW$477, DW_AT_type(*$C$DW$T$19)
    5852                      .dwattr $C$DW$477, DW_AT_name("all")
    5853                      .dwattr $C$DW$477, DW_AT_TI_symbol_name("_all")
    5854                      .dwattr $C$DW$477, DW_AT_data_member_location[DW_OP_plus_uconst 0x0]
    5855                      .dwattr $C$DW$477, DW_AT_accessibility(DW_ACCESS_public)
    5856              
    5857              $C$DW$478       .dwtag  DW_TAG_member
    5858                      .dwattr $C$DW$478, DW_AT_type(*$C$DW$T$90)
    5859                      .dwattr $C$DW$478, DW_AT_name("bit")
    5860                      .dwattr $C$DW$478, DW_AT_TI_symbol_name("_bit")
    5861                      .dwattr $C$DW$478, DW_AT_data_member_location[DW_OP_plus_uconst 0x0]
    5862                      .dwattr $C$DW$478, DW_AT_accessibility(DW_ACCESS_public)
    5863              
    5864                      .dwendtag $C$DW$T$91
TMS320C2000 Assembler PC v16.9.6 Tue Mar 06 18:34:46 2018

Tools Copyright (c) 1996-2017 Texas Instruments Incorporated
C:\Users\Admin\AppData\Local\Temp\{ED9AE313-281A-4435-8F2A-5411619B06A2} PAGE  115

    5865              
    5866              
    5867              $C$DW$T$93      .dwtag  DW_TAG_structure_type
    5868                      .dwattr $C$DW$T$93, DW_AT_name("EPWM_REGS")
    5869                      .dwattr $C$DW$T$93, DW_AT_byte_size(0x3a)
    5870              $C$DW$479       .dwtag  DW_TAG_member
    5871                      .dwattr $C$DW$479, DW_AT_type(*$C$DW$T$175)
    5872                      .dwattr $C$DW$479, DW_AT_name("TBCTL")
    5873                      .dwattr $C$DW$479, DW_AT_TI_symbol_name("_TBCTL")
    5874                      .dwattr $C$DW$479, DW_AT_data_member_location[DW_OP_plus_uconst 0x0]
    5875                      .dwattr $C$DW$479, DW_AT_accessibility(DW_ACCESS_public)
    5876              
    5877              $C$DW$480       .dwtag  DW_TAG_member
    5878                      .dwattr $C$DW$480, DW_AT_type(*$C$DW$T$181)
    5879                      .dwattr $C$DW$480, DW_AT_name("TBSTS")
    5880                      .dwattr $C$DW$480, DW_AT_TI_symbol_name("_TBSTS")
    5881                      .dwattr $C$DW$480, DW_AT_data_member_location[DW_OP_plus_uconst 0x1]
    5882                      .dwattr $C$DW$480, DW_AT_accessibility(DW_ACCESS_public)
    5883              
    5884              $C$DW$481       .dwtag  DW_TAG_member
    5885                      .dwattr $C$DW$481, DW_AT_type(*$C$DW$T$176)
    5886                      .dwattr $C$DW$481, DW_AT_name("TBPHS")
    5887                      .dwattr $C$DW$481, DW_AT_TI_symbol_name("_TBPHS")
    5888                      .dwattr $C$DW$481, DW_AT_data_member_location[DW_OP_plus_uconst 0x2]
    5889                      .dwattr $C$DW$481, DW_AT_accessibility(DW_ACCESS_public)
    5890              
    5891              $C$DW$482       .dwtag  DW_TAG_member
    5892                      .dwattr $C$DW$482, DW_AT_type(*$C$DW$T$19)
    5893                      .dwattr $C$DW$482, DW_AT_name("TBCTR")
    5894                      .dwattr $C$DW$482, DW_AT_TI_symbol_name("_TBCTR")
    5895                      .dwattr $C$DW$482, DW_AT_data_member_location[DW_OP_plus_uconst 0x4]
    5896                      .dwattr $C$DW$482, DW_AT_accessibility(DW_ACCESS_public)
    5897              
    5898              $C$DW$483       .dwtag  DW_TAG_member
    5899                      .dwattr $C$DW$483, DW_AT_type(*$C$DW$T$19)
    5900                      .dwattr $C$DW$483, DW_AT_name("TBPRD")
    5901                      .dwattr $C$DW$483, DW_AT_TI_symbol_name("_TBPRD")
    5902                      .dwattr $C$DW$483, DW_AT_data_member_location[DW_OP_plus_uconst 0x5]
    5903                      .dwattr $C$DW$483, DW_AT_accessibility(DW_ACCESS_public)
    5904              
    5905              $C$DW$484       .dwtag  DW_TAG_member
    5906                      .dwattr $C$DW$484, DW_AT_type(*$C$DW$T$19)
    5907                      .dwattr $C$DW$484, DW_AT_name("TBPRDHR")
    5908                      .dwattr $C$DW$484, DW_AT_TI_symbol_name("_TBPRDHR")
    5909                      .dwattr $C$DW$484, DW_AT_data_member_location[DW_OP_plus_uconst 0x6]
    5910                      .dwattr $C$DW$484, DW_AT_accessibility(DW_ACCESS_public)
    5911              
    5912              $C$DW$485       .dwtag  DW_TAG_member
    5913                      .dwattr $C$DW$485, DW_AT_type(*$C$DW$T$62)
    5914                      .dwattr $C$DW$485, DW_AT_name("CMPCTL")
    5915                      .dwattr $C$DW$485, DW_AT_TI_symbol_name("_CMPCTL")
    5916                      .dwattr $C$DW$485, DW_AT_data_member_location[DW_OP_plus_uconst 0x7]
    5917                      .dwattr $C$DW$485, DW_AT_accessibility(DW_ACCESS_public)
    5918              
    5919              $C$DW$486       .dwtag  DW_TAG_member
TMS320C2000 Assembler PC v16.9.6 Tue Mar 06 18:34:46 2018

Tools Copyright (c) 1996-2017 Texas Instruments Incorporated
C:\Users\Admin\AppData\Local\Temp\{ED9AE313-281A-4435-8F2A-5411619B06A2} PAGE  116

    5920                      .dwattr $C$DW$486, DW_AT_type(*$C$DW$T$59)
    5921                      .dwattr $C$DW$486, DW_AT_name("CMPA")
    5922                      .dwattr $C$DW$486, DW_AT_TI_symbol_name("_CMPA")
    5923                      .dwattr $C$DW$486, DW_AT_data_member_location[DW_OP_plus_uconst 0x8]
    5924                      .dwattr $C$DW$486, DW_AT_accessibility(DW_ACCESS_public)
    5925              
    5926              $C$DW$487       .dwtag  DW_TAG_member
    5927                      .dwattr $C$DW$487, DW_AT_type(*$C$DW$T$19)
    5928                      .dwattr $C$DW$487, DW_AT_name("CMPB")
    5929                      .dwattr $C$DW$487, DW_AT_TI_symbol_name("_CMPB")
    5930                      .dwattr $C$DW$487, DW_AT_data_member_location[DW_OP_plus_uconst 0xa]
    5931                      .dwattr $C$DW$487, DW_AT_accessibility(DW_ACCESS_public)
    5932              
    5933              $C$DW$488       .dwtag  DW_TAG_member
    5934                      .dwattr $C$DW$488, DW_AT_type(*$C$DW$T$54)
    5935                      .dwattr $C$DW$488, DW_AT_name("AQCTLA")
    5936                      .dwattr $C$DW$488, DW_AT_TI_symbol_name("_AQCTLA")
    5937                      .dwattr $C$DW$488, DW_AT_data_member_location[DW_OP_plus_uconst 0xb]
    5938                      .dwattr $C$DW$488, DW_AT_accessibility(DW_ACCESS_public)
    5939              
    5940              $C$DW$489       .dwtag  DW_TAG_member
    5941                      .dwattr $C$DW$489, DW_AT_type(*$C$DW$T$54)
    5942                      .dwattr $C$DW$489, DW_AT_name("AQCTLB")
    5943                      .dwattr $C$DW$489, DW_AT_TI_symbol_name("_AQCTLB")
    5944                      .dwattr $C$DW$489, DW_AT_data_member_location[DW_OP_plus_uconst 0xc]
    5945                      .dwattr $C$DW$489, DW_AT_accessibility(DW_ACCESS_public)
    5946              
    5947              $C$DW$490       .dwtag  DW_TAG_member
    5948                      .dwattr $C$DW$490, DW_AT_type(*$C$DW$T$56)
    5949                      .dwattr $C$DW$490, DW_AT_name("AQSFRC")
    5950                      .dwattr $C$DW$490, DW_AT_TI_symbol_name("_AQSFRC")
    5951                      .dwattr $C$DW$490, DW_AT_data_member_location[DW_OP_plus_uconst 0xd]
    5952                      .dwattr $C$DW$490, DW_AT_accessibility(DW_ACCESS_public)
    5953              
    5954              $C$DW$491       .dwtag  DW_TAG_member
    5955                      .dwattr $C$DW$491, DW_AT_type(*$C$DW$T$52)
    5956                      .dwattr $C$DW$491, DW_AT_name("AQCSFRC")
    5957                      .dwattr $C$DW$491, DW_AT_TI_symbol_name("_AQCSFRC")
    5958                      .dwattr $C$DW$491, DW_AT_data_member_location[DW_OP_plus_uconst 0xe]
    5959                      .dwattr $C$DW$491, DW_AT_accessibility(DW_ACCESS_public)
    5960              
    5961              $C$DW$492       .dwtag  DW_TAG_member
    5962                      .dwattr $C$DW$492, DW_AT_type(*$C$DW$T$72)
    5963                      .dwattr $C$DW$492, DW_AT_name("DBCTL")
    5964                      .dwattr $C$DW$492, DW_AT_TI_symbol_name("_DBCTL")
    5965                      .dwattr $C$DW$492, DW_AT_data_member_location[DW_OP_plus_uconst 0xf]
    5966                      .dwattr $C$DW$492, DW_AT_accessibility(DW_ACCESS_public)
    5967              
    5968              $C$DW$493       .dwtag  DW_TAG_member
    5969                      .dwattr $C$DW$493, DW_AT_type(*$C$DW$T$19)
    5970                      .dwattr $C$DW$493, DW_AT_name("DBRED")
    5971                      .dwattr $C$DW$493, DW_AT_TI_symbol_name("_DBRED")
    5972                      .dwattr $C$DW$493, DW_AT_data_member_location[DW_OP_plus_uconst 0x10]
    5973                      .dwattr $C$DW$493, DW_AT_accessibility(DW_ACCESS_public)
    5974              
TMS320C2000 Assembler PC v16.9.6 Tue Mar 06 18:34:46 2018

Tools Copyright (c) 1996-2017 Texas Instruments Incorporated
C:\Users\Admin\AppData\Local\Temp\{ED9AE313-281A-4435-8F2A-5411619B06A2} PAGE  117

    5975              $C$DW$494       .dwtag  DW_TAG_member
    5976                      .dwattr $C$DW$494, DW_AT_type(*$C$DW$T$19)
    5977                      .dwattr $C$DW$494, DW_AT_name("DBFED")
    5978                      .dwattr $C$DW$494, DW_AT_TI_symbol_name("_DBFED")
    5979                      .dwattr $C$DW$494, DW_AT_data_member_location[DW_OP_plus_uconst 0x11]
    5980                      .dwattr $C$DW$494, DW_AT_accessibility(DW_ACCESS_public)
    5981              
    5982              $C$DW$495       .dwtag  DW_TAG_member
    5983                      .dwattr $C$DW$495, DW_AT_type(*$C$DW$T$195)
    5984                      .dwattr $C$DW$495, DW_AT_name("TZSEL")
    5985                      .dwattr $C$DW$495, DW_AT_TI_symbol_name("_TZSEL")
    5986                      .dwattr $C$DW$495, DW_AT_data_member_location[DW_OP_plus_uconst 0x12]
    5987                      .dwattr $C$DW$495, DW_AT_accessibility(DW_ACCESS_public)
    5988              
    5989              $C$DW$496       .dwtag  DW_TAG_member
    5990                      .dwattr $C$DW$496, DW_AT_type(*$C$DW$T$187)
    5991                      .dwattr $C$DW$496, DW_AT_name("TZDCSEL")
    5992                      .dwattr $C$DW$496, DW_AT_TI_symbol_name("_TZDCSEL")
    5993                      .dwattr $C$DW$496, DW_AT_data_member_location[DW_OP_plus_uconst 0x13]
    5994                      .dwattr $C$DW$496, DW_AT_accessibility(DW_ACCESS_public)
    5995              
    5996              $C$DW$497       .dwtag  DW_TAG_member
    5997                      .dwattr $C$DW$497, DW_AT_type(*$C$DW$T$185)
    5998                      .dwattr $C$DW$497, DW_AT_name("TZCTL")
    5999                      .dwattr $C$DW$497, DW_AT_TI_symbol_name("_TZCTL")
    6000                      .dwattr $C$DW$497, DW_AT_data_member_location[DW_OP_plus_uconst 0x14]
    6001                      .dwattr $C$DW$497, DW_AT_accessibility(DW_ACCESS_public)
    6002              
    6003              $C$DW$498       .dwtag  DW_TAG_member
    6004                      .dwattr $C$DW$498, DW_AT_type(*$C$DW$T$189)
    6005                      .dwattr $C$DW$498, DW_AT_name("TZEINT")
    6006                      .dwattr $C$DW$498, DW_AT_TI_symbol_name("_TZEINT")
    6007                      .dwattr $C$DW$498, DW_AT_data_member_location[DW_OP_plus_uconst 0x15]
    6008                      .dwattr $C$DW$498, DW_AT_accessibility(DW_ACCESS_public)
    6009              
    6010              $C$DW$499       .dwtag  DW_TAG_member
    6011                      .dwattr $C$DW$499, DW_AT_type(*$C$DW$T$191)
    6012                      .dwattr $C$DW$499, DW_AT_name("TZFLG")
    6013                      .dwattr $C$DW$499, DW_AT_TI_symbol_name("_TZFLG")
    6014                      .dwattr $C$DW$499, DW_AT_data_member_location[DW_OP_plus_uconst 0x16]
    6015                      .dwattr $C$DW$499, DW_AT_accessibility(DW_ACCESS_public)
    6016              
    6017              $C$DW$500       .dwtag  DW_TAG_member
    6018                      .dwattr $C$DW$500, DW_AT_type(*$C$DW$T$183)
    6019                      .dwattr $C$DW$500, DW_AT_name("TZCLR")
    6020                      .dwattr $C$DW$500, DW_AT_TI_symbol_name("_TZCLR")
    6021                      .dwattr $C$DW$500, DW_AT_data_member_location[DW_OP_plus_uconst 0x17]
    6022                      .dwattr $C$DW$500, DW_AT_accessibility(DW_ACCESS_public)
    6023              
    6024              $C$DW$501       .dwtag  DW_TAG_member
    6025                      .dwattr $C$DW$501, DW_AT_type(*$C$DW$T$193)
    6026                      .dwattr $C$DW$501, DW_AT_name("TZFRC")
    6027                      .dwattr $C$DW$501, DW_AT_TI_symbol_name("_TZFRC")
    6028                      .dwattr $C$DW$501, DW_AT_data_member_location[DW_OP_plus_uconst 0x18]
    6029                      .dwattr $C$DW$501, DW_AT_accessibility(DW_ACCESS_public)
TMS320C2000 Assembler PC v16.9.6 Tue Mar 06 18:34:46 2018

Tools Copyright (c) 1996-2017 Texas Instruments Incorporated
C:\Users\Admin\AppData\Local\Temp\{ED9AE313-281A-4435-8F2A-5411619B06A2} PAGE  118

    6030              
    6031              $C$DW$502       .dwtag  DW_TAG_member
    6032                      .dwattr $C$DW$502, DW_AT_type(*$C$DW$T$103)
    6033                      .dwattr $C$DW$502, DW_AT_name("ETSEL")
    6034                      .dwattr $C$DW$502, DW_AT_TI_symbol_name("_ETSEL")
    6035                      .dwattr $C$DW$502, DW_AT_data_member_location[DW_OP_plus_uconst 0x19]
    6036                      .dwattr $C$DW$502, DW_AT_accessibility(DW_ACCESS_public)
    6037              
    6038              $C$DW$503       .dwtag  DW_TAG_member
    6039                      .dwattr $C$DW$503, DW_AT_type(*$C$DW$T$101)
    6040                      .dwattr $C$DW$503, DW_AT_name("ETPS")
    6041                      .dwattr $C$DW$503, DW_AT_TI_symbol_name("_ETPS")
    6042                      .dwattr $C$DW$503, DW_AT_data_member_location[DW_OP_plus_uconst 0x1a]
    6043                      .dwattr $C$DW$503, DW_AT_accessibility(DW_ACCESS_public)
    6044              
    6045              $C$DW$504       .dwtag  DW_TAG_member
    6046                      .dwattr $C$DW$504, DW_AT_type(*$C$DW$T$97)
    6047                      .dwattr $C$DW$504, DW_AT_name("ETFLG")
    6048                      .dwattr $C$DW$504, DW_AT_TI_symbol_name("_ETFLG")
    6049                      .dwattr $C$DW$504, DW_AT_data_member_location[DW_OP_plus_uconst 0x1b]
    6050                      .dwattr $C$DW$504, DW_AT_accessibility(DW_ACCESS_public)
    6051              
    6052              $C$DW$505       .dwtag  DW_TAG_member
    6053                      .dwattr $C$DW$505, DW_AT_type(*$C$DW$T$95)
    6054                      .dwattr $C$DW$505, DW_AT_name("ETCLR")
    6055                      .dwattr $C$DW$505, DW_AT_TI_symbol_name("_ETCLR")
    6056                      .dwattr $C$DW$505, DW_AT_data_member_location[DW_OP_plus_uconst 0x1c]
    6057                      .dwattr $C$DW$505, DW_AT_accessibility(DW_ACCESS_public)
    6058              
    6059              $C$DW$506       .dwtag  DW_TAG_member
    6060                      .dwattr $C$DW$506, DW_AT_type(*$C$DW$T$99)
    6061                      .dwattr $C$DW$506, DW_AT_name("ETFRC")
    6062                      .dwattr $C$DW$506, DW_AT_TI_symbol_name("_ETFRC")
    6063                      .dwattr $C$DW$506, DW_AT_data_member_location[DW_OP_plus_uconst 0x1d]
    6064                      .dwattr $C$DW$506, DW_AT_accessibility(DW_ACCESS_public)
    6065              
    6066              $C$DW$507       .dwtag  DW_TAG_member
    6067                      .dwattr $C$DW$507, DW_AT_type(*$C$DW$T$147)
    6068                      .dwattr $C$DW$507, DW_AT_name("PCCTL")
    6069                      .dwattr $C$DW$507, DW_AT_TI_symbol_name("_PCCTL")
    6070                      .dwattr $C$DW$507, DW_AT_data_member_location[DW_OP_plus_uconst 0x1e]
    6071                      .dwattr $C$DW$507, DW_AT_accessibility(DW_ACCESS_public)
    6072              
    6073              $C$DW$508       .dwtag  DW_TAG_member
    6074                      .dwattr $C$DW$508, DW_AT_type(*$C$DW$T$19)
    6075                      .dwattr $C$DW$508, DW_AT_name("rsvd3")
    6076                      .dwattr $C$DW$508, DW_AT_TI_symbol_name("_rsvd3")
    6077                      .dwattr $C$DW$508, DW_AT_data_member_location[DW_OP_plus_uconst 0x1f]
    6078                      .dwattr $C$DW$508, DW_AT_accessibility(DW_ACCESS_public)
    6079              
    6080              $C$DW$509       .dwtag  DW_TAG_member
    6081                      .dwattr $C$DW$509, DW_AT_type(*$C$DW$T$123)
    6082                      .dwattr $C$DW$509, DW_AT_name("HRCNFG")
    6083                      .dwattr $C$DW$509, DW_AT_TI_symbol_name("_HRCNFG")
    6084                      .dwattr $C$DW$509, DW_AT_data_member_location[DW_OP_plus_uconst 0x20]
TMS320C2000 Assembler PC v16.9.6 Tue Mar 06 18:34:46 2018

Tools Copyright (c) 1996-2017 Texas Instruments Incorporated
C:\Users\Admin\AppData\Local\Temp\{ED9AE313-281A-4435-8F2A-5411619B06A2} PAGE  119

    6085                      .dwattr $C$DW$509, DW_AT_accessibility(DW_ACCESS_public)
    6086              
    6087              $C$DW$510       .dwtag  DW_TAG_member
    6088                      .dwattr $C$DW$510, DW_AT_type(*$C$DW$T$127)
    6089                      .dwattr $C$DW$510, DW_AT_name("HRPWR")
    6090                      .dwattr $C$DW$510, DW_AT_TI_symbol_name("_HRPWR")
    6091                      .dwattr $C$DW$510, DW_AT_data_member_location[DW_OP_plus_uconst 0x21]
    6092                      .dwattr $C$DW$510, DW_AT_accessibility(DW_ACCESS_public)
    6093              
    6094              $C$DW$511       .dwtag  DW_TAG_member
    6095                      .dwattr $C$DW$511, DW_AT_type(*$C$DW$T$92)
    6096                      .dwattr $C$DW$511, DW_AT_name("rsvd4")
    6097                      .dwattr $C$DW$511, DW_AT_TI_symbol_name("_rsvd4")
    6098                      .dwattr $C$DW$511, DW_AT_data_member_location[DW_OP_plus_uconst 0x22]
    6099                      .dwattr $C$DW$511, DW_AT_accessibility(DW_ACCESS_public)
    6100              
    6101              $C$DW$512       .dwtag  DW_TAG_member
    6102                      .dwattr $C$DW$512, DW_AT_type(*$C$DW$T$19)
    6103                      .dwattr $C$DW$512, DW_AT_name("HRMSTEP")
    6104                      .dwattr $C$DW$512, DW_AT_TI_symbol_name("_HRMSTEP")
    6105                      .dwattr $C$DW$512, DW_AT_data_member_location[DW_OP_plus_uconst 0x26]
    6106                      .dwattr $C$DW$512, DW_AT_accessibility(DW_ACCESS_public)
    6107              
    6108              $C$DW$513       .dwtag  DW_TAG_member
    6109                      .dwattr $C$DW$513, DW_AT_type(*$C$DW$T$19)
    6110                      .dwattr $C$DW$513, DW_AT_name("rsvd5")
    6111                      .dwattr $C$DW$513, DW_AT_TI_symbol_name("_rsvd5")
    6112                      .dwattr $C$DW$513, DW_AT_data_member_location[DW_OP_plus_uconst 0x27]
    6113                      .dwattr $C$DW$513, DW_AT_accessibility(DW_ACCESS_public)
    6114              
    6115              $C$DW$514       .dwtag  DW_TAG_member
    6116                      .dwattr $C$DW$514, DW_AT_type(*$C$DW$T$125)
    6117                      .dwattr $C$DW$514, DW_AT_name("HRPCTL")
    6118                      .dwattr $C$DW$514, DW_AT_TI_symbol_name("_HRPCTL")
    6119                      .dwattr $C$DW$514, DW_AT_data_member_location[DW_OP_plus_uconst 0x28]
    6120                      .dwattr $C$DW$514, DW_AT_accessibility(DW_ACCESS_public)
    6121              
    6122              $C$DW$515       .dwtag  DW_TAG_member
    6123                      .dwattr $C$DW$515, DW_AT_type(*$C$DW$T$19)
    6124                      .dwattr $C$DW$515, DW_AT_name("rsvd6")
    6125                      .dwattr $C$DW$515, DW_AT_TI_symbol_name("_rsvd6")
    6126                      .dwattr $C$DW$515, DW_AT_data_member_location[DW_OP_plus_uconst 0x29]
    6127                      .dwattr $C$DW$515, DW_AT_accessibility(DW_ACCESS_public)
    6128              
    6129              $C$DW$516       .dwtag  DW_TAG_member
    6130                      .dwattr $C$DW$516, DW_AT_type(*$C$DW$T$178)
    6131                      .dwattr $C$DW$516, DW_AT_name("TBPRDM")
    6132                      .dwattr $C$DW$516, DW_AT_TI_symbol_name("_TBPRDM")
    6133                      .dwattr $C$DW$516, DW_AT_data_member_location[DW_OP_plus_uconst 0x2a]
    6134                      .dwattr $C$DW$516, DW_AT_accessibility(DW_ACCESS_public)
    6135              
    6136              $C$DW$517       .dwtag  DW_TAG_member
    6137                      .dwattr $C$DW$517, DW_AT_type(*$C$DW$T$59)
    6138                      .dwattr $C$DW$517, DW_AT_name("CMPAM")
    6139                      .dwattr $C$DW$517, DW_AT_TI_symbol_name("_CMPAM")
TMS320C2000 Assembler PC v16.9.6 Tue Mar 06 18:34:46 2018

Tools Copyright (c) 1996-2017 Texas Instruments Incorporated
C:\Users\Admin\AppData\Local\Temp\{ED9AE313-281A-4435-8F2A-5411619B06A2} PAGE  120

    6140                      .dwattr $C$DW$517, DW_AT_data_member_location[DW_OP_plus_uconst 0x2c]
    6141                      .dwattr $C$DW$517, DW_AT_accessibility(DW_ACCESS_public)
    6142              
    6143              $C$DW$518       .dwtag  DW_TAG_member
    6144                      .dwattr $C$DW$518, DW_AT_type(*$C$DW$T$41)
    6145                      .dwattr $C$DW$518, DW_AT_name("rsvd7")
    6146                      .dwattr $C$DW$518, DW_AT_TI_symbol_name("_rsvd7")
    6147                      .dwattr $C$DW$518, DW_AT_data_member_location[DW_OP_plus_uconst 0x2e]
    6148                      .dwattr $C$DW$518, DW_AT_accessibility(DW_ACCESS_public)
    6149              
    6150              $C$DW$519       .dwtag  DW_TAG_member
    6151                      .dwattr $C$DW$519, DW_AT_type(*$C$DW$T$80)
    6152                      .dwattr $C$DW$519, DW_AT_name("DCTRIPSEL")
    6153                      .dwattr $C$DW$519, DW_AT_TI_symbol_name("_DCTRIPSEL")
    6154                      .dwattr $C$DW$519, DW_AT_data_member_location[DW_OP_plus_uconst 0x30]
    6155                      .dwattr $C$DW$519, DW_AT_accessibility(DW_ACCESS_public)
    6156              
    6157              $C$DW$520       .dwtag  DW_TAG_member
    6158                      .dwattr $C$DW$520, DW_AT_type(*$C$DW$T$76)
    6159                      .dwattr $C$DW$520, DW_AT_name("DCACTL")
    6160                      .dwattr $C$DW$520, DW_AT_TI_symbol_name("_DCACTL")
    6161                      .dwattr $C$DW$520, DW_AT_data_member_location[DW_OP_plus_uconst 0x31]
    6162                      .dwattr $C$DW$520, DW_AT_accessibility(DW_ACCESS_public)
    6163              
    6164              $C$DW$521       .dwtag  DW_TAG_member
    6165                      .dwattr $C$DW$521, DW_AT_type(*$C$DW$T$76)
    6166                      .dwattr $C$DW$521, DW_AT_name("DCBCTL")
    6167                      .dwattr $C$DW$521, DW_AT_TI_symbol_name("_DCBCTL")
    6168                      .dwattr $C$DW$521, DW_AT_data_member_location[DW_OP_plus_uconst 0x32]
    6169                      .dwattr $C$DW$521, DW_AT_accessibility(DW_ACCESS_public)
    6170              
    6171              $C$DW$522       .dwtag  DW_TAG_member
    6172                      .dwattr $C$DW$522, DW_AT_type(*$C$DW$T$78)
    6173                      .dwattr $C$DW$522, DW_AT_name("DCFCTL")
    6174                      .dwattr $C$DW$522, DW_AT_TI_symbol_name("_DCFCTL")
    6175                      .dwattr $C$DW$522, DW_AT_data_member_location[DW_OP_plus_uconst 0x33]
    6176                      .dwattr $C$DW$522, DW_AT_accessibility(DW_ACCESS_public)
    6177              
    6178              $C$DW$523       .dwtag  DW_TAG_member
    6179                      .dwattr $C$DW$523, DW_AT_type(*$C$DW$T$74)
    6180                      .dwattr $C$DW$523, DW_AT_name("DCCAPCTL")
    6181                      .dwattr $C$DW$523, DW_AT_TI_symbol_name("_DCCAPCTL")
    6182                      .dwattr $C$DW$523, DW_AT_data_member_location[DW_OP_plus_uconst 0x34]
    6183                      .dwattr $C$DW$523, DW_AT_accessibility(DW_ACCESS_public)
    6184              
    6185              $C$DW$524       .dwtag  DW_TAG_member
    6186                      .dwattr $C$DW$524, DW_AT_type(*$C$DW$T$19)
    6187                      .dwattr $C$DW$524, DW_AT_name("DCFOFFSET")
    6188                      .dwattr $C$DW$524, DW_AT_TI_symbol_name("_DCFOFFSET")
    6189                      .dwattr $C$DW$524, DW_AT_data_member_location[DW_OP_plus_uconst 0x35]
    6190                      .dwattr $C$DW$524, DW_AT_accessibility(DW_ACCESS_public)
    6191              
    6192              $C$DW$525       .dwtag  DW_TAG_member
    6193                      .dwattr $C$DW$525, DW_AT_type(*$C$DW$T$19)
    6194                      .dwattr $C$DW$525, DW_AT_name("DCFOFFSETCNT")
TMS320C2000 Assembler PC v16.9.6 Tue Mar 06 18:34:46 2018

Tools Copyright (c) 1996-2017 Texas Instruments Incorporated
C:\Users\Admin\AppData\Local\Temp\{ED9AE313-281A-4435-8F2A-5411619B06A2} PAGE  121

    6195                      .dwattr $C$DW$525, DW_AT_TI_symbol_name("_DCFOFFSETCNT")
    6196                      .dwattr $C$DW$525, DW_AT_data_member_location[DW_OP_plus_uconst 0x36]
    6197                      .dwattr $C$DW$525, DW_AT_accessibility(DW_ACCESS_public)
    6198              
    6199              $C$DW$526       .dwtag  DW_TAG_member
    6200                      .dwattr $C$DW$526, DW_AT_type(*$C$DW$T$19)
    6201                      .dwattr $C$DW$526, DW_AT_name("DCFWINDOW")
    6202                      .dwattr $C$DW$526, DW_AT_TI_symbol_name("_DCFWINDOW")
    6203                      .dwattr $C$DW$526, DW_AT_data_member_location[DW_OP_plus_uconst 0x37]
    6204                      .dwattr $C$DW$526, DW_AT_accessibility(DW_ACCESS_public)
    6205              
    6206              $C$DW$527       .dwtag  DW_TAG_member
    6207                      .dwattr $C$DW$527, DW_AT_type(*$C$DW$T$19)
    6208                      .dwattr $C$DW$527, DW_AT_name("DCFWINDOWCNT")
    6209                      .dwattr $C$DW$527, DW_AT_TI_symbol_name("_DCFWINDOWCNT")
    6210                      .dwattr $C$DW$527, DW_AT_data_member_location[DW_OP_plus_uconst 0x38]
    6211                      .dwattr $C$DW$527, DW_AT_accessibility(DW_ACCESS_public)
    6212              
    6213              $C$DW$528       .dwtag  DW_TAG_member
    6214                      .dwattr $C$DW$528, DW_AT_type(*$C$DW$T$19)
    6215                      .dwattr $C$DW$528, DW_AT_name("DCCAP")
    6216                      .dwattr $C$DW$528, DW_AT_TI_symbol_name("_DCCAP")
    6217                      .dwattr $C$DW$528, DW_AT_data_member_location[DW_OP_plus_uconst 0x39]
    6218                      .dwattr $C$DW$528, DW_AT_accessibility(DW_ACCESS_public)
    6219              
    6220                      .dwendtag $C$DW$T$93
    6221              
    6222              $C$DW$529       .dwtag  DW_TAG_TI_far_type
    6223                      .dwattr $C$DW$529, DW_AT_type(*$C$DW$T$93)
    6224              
    6225              $C$DW$T$232     .dwtag  DW_TAG_volatile_type
    6226                      .dwattr $C$DW$T$232, DW_AT_type(*$C$DW$529)
    6227              
    6228              
    6229              $C$DW$T$94      .dwtag  DW_TAG_structure_type
    6230                      .dwattr $C$DW$T$94, DW_AT_name("ETCLR_BITS")
    6231                      .dwattr $C$DW$T$94, DW_AT_byte_size(0x01)
    6232              $C$DW$530       .dwtag  DW_TAG_member
    6233                      .dwattr $C$DW$530, DW_AT_type(*$C$DW$T$19)
    6234                      .dwattr $C$DW$530, DW_AT_name("INT")
    6235                      .dwattr $C$DW$530, DW_AT_TI_symbol_name("_INT")
    6236                      .dwattr $C$DW$530, DW_AT_bit_offset(0x0f)
    6237                      .dwattr $C$DW$530, DW_AT_bit_size(0x01)
    6238                      .dwattr $C$DW$530, DW_AT_data_member_location[DW_OP_plus_uconst 0x0]
    6239                      .dwattr $C$DW$530, DW_AT_accessibility(DW_ACCESS_public)
    6240              
    6241              $C$DW$531       .dwtag  DW_TAG_member
    6242                      .dwattr $C$DW$531, DW_AT_type(*$C$DW$T$19)
    6243                      .dwattr $C$DW$531, DW_AT_name("rsvd1")
    6244                      .dwattr $C$DW$531, DW_AT_TI_symbol_name("_rsvd1")
    6245                      .dwattr $C$DW$531, DW_AT_bit_offset(0x0e)
    6246                      .dwattr $C$DW$531, DW_AT_bit_size(0x01)
    6247                      .dwattr $C$DW$531, DW_AT_data_member_location[DW_OP_plus_uconst 0x0]
    6248                      .dwattr $C$DW$531, DW_AT_accessibility(DW_ACCESS_public)
    6249              
TMS320C2000 Assembler PC v16.9.6 Tue Mar 06 18:34:46 2018

Tools Copyright (c) 1996-2017 Texas Instruments Incorporated
C:\Users\Admin\AppData\Local\Temp\{ED9AE313-281A-4435-8F2A-5411619B06A2} PAGE  122

    6250              $C$DW$532       .dwtag  DW_TAG_member
    6251                      .dwattr $C$DW$532, DW_AT_type(*$C$DW$T$19)
    6252                      .dwattr $C$DW$532, DW_AT_name("SOCA")
    6253                      .dwattr $C$DW$532, DW_AT_TI_symbol_name("_SOCA")
    6254                      .dwattr $C$DW$532, DW_AT_bit_offset(0x0d)
    6255                      .dwattr $C$DW$532, DW_AT_bit_size(0x01)
    6256                      .dwattr $C$DW$532, DW_AT_data_member_location[DW_OP_plus_uconst 0x0]
    6257                      .dwattr $C$DW$532, DW_AT_accessibility(DW_ACCESS_public)
    6258              
    6259              $C$DW$533       .dwtag  DW_TAG_member
    6260                      .dwattr $C$DW$533, DW_AT_type(*$C$DW$T$19)
    6261                      .dwattr $C$DW$533, DW_AT_name("SOCB")
    6262                      .dwattr $C$DW$533, DW_AT_TI_symbol_name("_SOCB")
    6263                      .dwattr $C$DW$533, DW_AT_bit_offset(0x0c)
    6264                      .dwattr $C$DW$533, DW_AT_bit_size(0x01)
    6265                      .dwattr $C$DW$533, DW_AT_data_member_location[DW_OP_plus_uconst 0x0]
    6266                      .dwattr $C$DW$533, DW_AT_accessibility(DW_ACCESS_public)
    6267              
    6268              $C$DW$534       .dwtag  DW_TAG_member
    6269                      .dwattr $C$DW$534, DW_AT_type(*$C$DW$T$19)
    6270                      .dwattr $C$DW$534, DW_AT_name("rsvd2")
    6271                      .dwattr $C$DW$534, DW_AT_TI_symbol_name("_rsvd2")
    6272                      .dwattr $C$DW$534, DW_AT_bit_offset(0x00)
    6273                      .dwattr $C$DW$534, DW_AT_bit_size(0x0c)
    6274                      .dwattr $C$DW$534, DW_AT_data_member_location[DW_OP_plus_uconst 0x0]
    6275                      .dwattr $C$DW$534, DW_AT_accessibility(DW_ACCESS_public)
    6276              
    6277                      .dwendtag $C$DW$T$94
    6278              
    6279              
    6280              $C$DW$T$95      .dwtag  DW_TAG_union_type
    6281                      .dwattr $C$DW$T$95, DW_AT_name("ETCLR_REG")
    6282                      .dwattr $C$DW$T$95, DW_AT_byte_size(0x01)
    6283              $C$DW$535       .dwtag  DW_TAG_member
    6284                      .dwattr $C$DW$535, DW_AT_type(*$C$DW$T$19)
    6285                      .dwattr $C$DW$535, DW_AT_name("all")
    6286                      .dwattr $C$DW$535, DW_AT_TI_symbol_name("_all")
    6287                      .dwattr $C$DW$535, DW_AT_data_member_location[DW_OP_plus_uconst 0x0]
    6288                      .dwattr $C$DW$535, DW_AT_accessibility(DW_ACCESS_public)
    6289              
    6290              $C$DW$536       .dwtag  DW_TAG_member
    6291                      .dwattr $C$DW$536, DW_AT_type(*$C$DW$T$94)
    6292                      .dwattr $C$DW$536, DW_AT_name("bit")
    6293                      .dwattr $C$DW$536, DW_AT_TI_symbol_name("_bit")
    6294                      .dwattr $C$DW$536, DW_AT_data_member_location[DW_OP_plus_uconst 0x0]
    6295                      .dwattr $C$DW$536, DW_AT_accessibility(DW_ACCESS_public)
    6296              
    6297                      .dwendtag $C$DW$T$95
    6298              
    6299              
    6300              $C$DW$T$96      .dwtag  DW_TAG_structure_type
    6301                      .dwattr $C$DW$T$96, DW_AT_name("ETFLG_BITS")
    6302                      .dwattr $C$DW$T$96, DW_AT_byte_size(0x01)
    6303              $C$DW$537       .dwtag  DW_TAG_member
    6304                      .dwattr $C$DW$537, DW_AT_type(*$C$DW$T$19)
TMS320C2000 Assembler PC v16.9.6 Tue Mar 06 18:34:46 2018

Tools Copyright (c) 1996-2017 Texas Instruments Incorporated
C:\Users\Admin\AppData\Local\Temp\{ED9AE313-281A-4435-8F2A-5411619B06A2} PAGE  123

    6305                      .dwattr $C$DW$537, DW_AT_name("INT")
    6306                      .dwattr $C$DW$537, DW_AT_TI_symbol_name("_INT")
    6307                      .dwattr $C$DW$537, DW_AT_bit_offset(0x0f)
    6308                      .dwattr $C$DW$537, DW_AT_bit_size(0x01)
    6309                      .dwattr $C$DW$537, DW_AT_data_member_location[DW_OP_plus_uconst 0x0]
    6310                      .dwattr $C$DW$537, DW_AT_accessibility(DW_ACCESS_public)
    6311              
    6312              $C$DW$538       .dwtag  DW_TAG_member
    6313                      .dwattr $C$DW$538, DW_AT_type(*$C$DW$T$19)
    6314                      .dwattr $C$DW$538, DW_AT_name("rsvd1")
    6315                      .dwattr $C$DW$538, DW_AT_TI_symbol_name("_rsvd1")
    6316                      .dwattr $C$DW$538, DW_AT_bit_offset(0x0e)
    6317                      .dwattr $C$DW$538, DW_AT_bit_size(0x01)
    6318                      .dwattr $C$DW$538, DW_AT_data_member_location[DW_OP_plus_uconst 0x0]
    6319                      .dwattr $C$DW$538, DW_AT_accessibility(DW_ACCESS_public)
    6320              
    6321              $C$DW$539       .dwtag  DW_TAG_member
    6322                      .dwattr $C$DW$539, DW_AT_type(*$C$DW$T$19)
    6323                      .dwattr $C$DW$539, DW_AT_name("SOCA")
    6324                      .dwattr $C$DW$539, DW_AT_TI_symbol_name("_SOCA")
    6325                      .dwattr $C$DW$539, DW_AT_bit_offset(0x0d)
    6326                      .dwattr $C$DW$539, DW_AT_bit_size(0x01)
    6327                      .dwattr $C$DW$539, DW_AT_data_member_location[DW_OP_plus_uconst 0x0]
    6328                      .dwattr $C$DW$539, DW_AT_accessibility(DW_ACCESS_public)
    6329              
    6330              $C$DW$540       .dwtag  DW_TAG_member
    6331                      .dwattr $C$DW$540, DW_AT_type(*$C$DW$T$19)
    6332                      .dwattr $C$DW$540, DW_AT_name("SOCB")
    6333                      .dwattr $C$DW$540, DW_AT_TI_symbol_name("_SOCB")
    6334                      .dwattr $C$DW$540, DW_AT_bit_offset(0x0c)
    6335                      .dwattr $C$DW$540, DW_AT_bit_size(0x01)
    6336                      .dwattr $C$DW$540, DW_AT_data_member_location[DW_OP_plus_uconst 0x0]
    6337                      .dwattr $C$DW$540, DW_AT_accessibility(DW_ACCESS_public)
    6338              
    6339              $C$DW$541       .dwtag  DW_TAG_member
    6340                      .dwattr $C$DW$541, DW_AT_type(*$C$DW$T$19)
    6341                      .dwattr $C$DW$541, DW_AT_name("rsvd2")
    6342                      .dwattr $C$DW$541, DW_AT_TI_symbol_name("_rsvd2")
    6343                      .dwattr $C$DW$541, DW_AT_bit_offset(0x00)
    6344                      .dwattr $C$DW$541, DW_AT_bit_size(0x0c)
    6345                      .dwattr $C$DW$541, DW_AT_data_member_location[DW_OP_plus_uconst 0x0]
    6346                      .dwattr $C$DW$541, DW_AT_accessibility(DW_ACCESS_public)
    6347              
    6348                      .dwendtag $C$DW$T$96
    6349              
    6350              
    6351              $C$DW$T$97      .dwtag  DW_TAG_union_type
    6352                      .dwattr $C$DW$T$97, DW_AT_name("ETFLG_REG")
    6353                      .dwattr $C$DW$T$97, DW_AT_byte_size(0x01)
    6354              $C$DW$542       .dwtag  DW_TAG_member
    6355                      .dwattr $C$DW$542, DW_AT_type(*$C$DW$T$19)
    6356                      .dwattr $C$DW$542, DW_AT_name("all")
    6357                      .dwattr $C$DW$542, DW_AT_TI_symbol_name("_all")
    6358                      .dwattr $C$DW$542, DW_AT_data_member_location[DW_OP_plus_uconst 0x0]
    6359                      .dwattr $C$DW$542, DW_AT_accessibility(DW_ACCESS_public)
TMS320C2000 Assembler PC v16.9.6 Tue Mar 06 18:34:46 2018

Tools Copyright (c) 1996-2017 Texas Instruments Incorporated
C:\Users\Admin\AppData\Local\Temp\{ED9AE313-281A-4435-8F2A-5411619B06A2} PAGE  124

    6360              
    6361              $C$DW$543       .dwtag  DW_TAG_member
    6362                      .dwattr $C$DW$543, DW_AT_type(*$C$DW$T$96)
    6363                      .dwattr $C$DW$543, DW_AT_name("bit")
    6364                      .dwattr $C$DW$543, DW_AT_TI_symbol_name("_bit")
    6365                      .dwattr $C$DW$543, DW_AT_data_member_location[DW_OP_plus_uconst 0x0]
    6366                      .dwattr $C$DW$543, DW_AT_accessibility(DW_ACCESS_public)
    6367              
    6368                      .dwendtag $C$DW$T$97
    6369              
    6370              
    6371              $C$DW$T$98      .dwtag  DW_TAG_structure_type
    6372                      .dwattr $C$DW$T$98, DW_AT_name("ETFRC_BITS")
    6373                      .dwattr $C$DW$T$98, DW_AT_byte_size(0x01)
    6374              $C$DW$544       .dwtag  DW_TAG_member
    6375                      .dwattr $C$DW$544, DW_AT_type(*$C$DW$T$19)
    6376                      .dwattr $C$DW$544, DW_AT_name("INT")
    6377                      .dwattr $C$DW$544, DW_AT_TI_symbol_name("_INT")
    6378                      .dwattr $C$DW$544, DW_AT_bit_offset(0x0f)
    6379                      .dwattr $C$DW$544, DW_AT_bit_size(0x01)
    6380                      .dwattr $C$DW$544, DW_AT_data_member_location[DW_OP_plus_uconst 0x0]
    6381                      .dwattr $C$DW$544, DW_AT_accessibility(DW_ACCESS_public)
    6382              
    6383              $C$DW$545       .dwtag  DW_TAG_member
    6384                      .dwattr $C$DW$545, DW_AT_type(*$C$DW$T$19)
    6385                      .dwattr $C$DW$545, DW_AT_name("rsvd1")
    6386                      .dwattr $C$DW$545, DW_AT_TI_symbol_name("_rsvd1")
    6387                      .dwattr $C$DW$545, DW_AT_bit_offset(0x0e)
    6388                      .dwattr $C$DW$545, DW_AT_bit_size(0x01)
    6389                      .dwattr $C$DW$545, DW_AT_data_member_location[DW_OP_plus_uconst 0x0]
    6390                      .dwattr $C$DW$545, DW_AT_accessibility(DW_ACCESS_public)
    6391              
    6392              $C$DW$546       .dwtag  DW_TAG_member
    6393                      .dwattr $C$DW$546, DW_AT_type(*$C$DW$T$19)
    6394                      .dwattr $C$DW$546, DW_AT_name("SOCA")
    6395                      .dwattr $C$DW$546, DW_AT_TI_symbol_name("_SOCA")
    6396                      .dwattr $C$DW$546, DW_AT_bit_offset(0x0d)
    6397                      .dwattr $C$DW$546, DW_AT_bit_size(0x01)
    6398                      .dwattr $C$DW$546, DW_AT_data_member_location[DW_OP_plus_uconst 0x0]
    6399                      .dwattr $C$DW$546, DW_AT_accessibility(DW_ACCESS_public)
    6400              
    6401              $C$DW$547       .dwtag  DW_TAG_member
    6402                      .dwattr $C$DW$547, DW_AT_type(*$C$DW$T$19)
    6403                      .dwattr $C$DW$547, DW_AT_name("SOCB")
    6404                      .dwattr $C$DW$547, DW_AT_TI_symbol_name("_SOCB")
    6405                      .dwattr $C$DW$547, DW_AT_bit_offset(0x0c)
    6406                      .dwattr $C$DW$547, DW_AT_bit_size(0x01)
    6407                      .dwattr $C$DW$547, DW_AT_data_member_location[DW_OP_plus_uconst 0x0]
    6408                      .dwattr $C$DW$547, DW_AT_accessibility(DW_ACCESS_public)
    6409              
    6410              $C$DW$548       .dwtag  DW_TAG_member
    6411                      .dwattr $C$DW$548, DW_AT_type(*$C$DW$T$19)
    6412                      .dwattr $C$DW$548, DW_AT_name("rsvd2")
    6413                      .dwattr $C$DW$548, DW_AT_TI_symbol_name("_rsvd2")
    6414                      .dwattr $C$DW$548, DW_AT_bit_offset(0x00)
TMS320C2000 Assembler PC v16.9.6 Tue Mar 06 18:34:46 2018

Tools Copyright (c) 1996-2017 Texas Instruments Incorporated
C:\Users\Admin\AppData\Local\Temp\{ED9AE313-281A-4435-8F2A-5411619B06A2} PAGE  125

    6415                      .dwattr $C$DW$548, DW_AT_bit_size(0x0c)
    6416                      .dwattr $C$DW$548, DW_AT_data_member_location[DW_OP_plus_uconst 0x0]
    6417                      .dwattr $C$DW$548, DW_AT_accessibility(DW_ACCESS_public)
    6418              
    6419                      .dwendtag $C$DW$T$98
    6420              
    6421              
    6422              $C$DW$T$99      .dwtag  DW_TAG_union_type
    6423                      .dwattr $C$DW$T$99, DW_AT_name("ETFRC_REG")
    6424                      .dwattr $C$DW$T$99, DW_AT_byte_size(0x01)
    6425              $C$DW$549       .dwtag  DW_TAG_member
    6426                      .dwattr $C$DW$549, DW_AT_type(*$C$DW$T$19)
    6427                      .dwattr $C$DW$549, DW_AT_name("all")
    6428                      .dwattr $C$DW$549, DW_AT_TI_symbol_name("_all")
    6429                      .dwattr $C$DW$549, DW_AT_data_member_location[DW_OP_plus_uconst 0x0]
    6430                      .dwattr $C$DW$549, DW_AT_accessibility(DW_ACCESS_public)
    6431              
    6432              $C$DW$550       .dwtag  DW_TAG_member
    6433                      .dwattr $C$DW$550, DW_AT_type(*$C$DW$T$98)
    6434                      .dwattr $C$DW$550, DW_AT_name("bit")
    6435                      .dwattr $C$DW$550, DW_AT_TI_symbol_name("_bit")
    6436                      .dwattr $C$DW$550, DW_AT_data_member_location[DW_OP_plus_uconst 0x0]
    6437                      .dwattr $C$DW$550, DW_AT_accessibility(DW_ACCESS_public)
    6438              
    6439                      .dwendtag $C$DW$T$99
    6440              
    6441              
    6442              $C$DW$T$100     .dwtag  DW_TAG_structure_type
    6443                      .dwattr $C$DW$T$100, DW_AT_name("ETPS_BITS")
    6444                      .dwattr $C$DW$T$100, DW_AT_byte_size(0x01)
    6445              $C$DW$551       .dwtag  DW_TAG_member
    6446                      .dwattr $C$DW$551, DW_AT_type(*$C$DW$T$19)
    6447                      .dwattr $C$DW$551, DW_AT_name("INTPRD")
    6448                      .dwattr $C$DW$551, DW_AT_TI_symbol_name("_INTPRD")
    6449                      .dwattr $C$DW$551, DW_AT_bit_offset(0x0e)
    6450                      .dwattr $C$DW$551, DW_AT_bit_size(0x02)
    6451                      .dwattr $C$DW$551, DW_AT_data_member_location[DW_OP_plus_uconst 0x0]
    6452                      .dwattr $C$DW$551, DW_AT_accessibility(DW_ACCESS_public)
    6453              
    6454              $C$DW$552       .dwtag  DW_TAG_member
    6455                      .dwattr $C$DW$552, DW_AT_type(*$C$DW$T$19)
    6456                      .dwattr $C$DW$552, DW_AT_name("INTCNT")
    6457                      .dwattr $C$DW$552, DW_AT_TI_symbol_name("_INTCNT")
    6458                      .dwattr $C$DW$552, DW_AT_bit_offset(0x0c)
    6459                      .dwattr $C$DW$552, DW_AT_bit_size(0x02)
    6460                      .dwattr $C$DW$552, DW_AT_data_member_location[DW_OP_plus_uconst 0x0]
    6461                      .dwattr $C$DW$552, DW_AT_accessibility(DW_ACCESS_public)
    6462              
    6463              $C$DW$553       .dwtag  DW_TAG_member
    6464                      .dwattr $C$DW$553, DW_AT_type(*$C$DW$T$19)
    6465                      .dwattr $C$DW$553, DW_AT_name("rsvd1")
    6466                      .dwattr $C$DW$553, DW_AT_TI_symbol_name("_rsvd1")
    6467                      .dwattr $C$DW$553, DW_AT_bit_offset(0x08)
    6468                      .dwattr $C$DW$553, DW_AT_bit_size(0x04)
    6469                      .dwattr $C$DW$553, DW_AT_data_member_location[DW_OP_plus_uconst 0x0]
TMS320C2000 Assembler PC v16.9.6 Tue Mar 06 18:34:46 2018

Tools Copyright (c) 1996-2017 Texas Instruments Incorporated
C:\Users\Admin\AppData\Local\Temp\{ED9AE313-281A-4435-8F2A-5411619B06A2} PAGE  126

    6470                      .dwattr $C$DW$553, DW_AT_accessibility(DW_ACCESS_public)
    6471              
    6472              $C$DW$554       .dwtag  DW_TAG_member
    6473                      .dwattr $C$DW$554, DW_AT_type(*$C$DW$T$19)
    6474                      .dwattr $C$DW$554, DW_AT_name("SOCAPRD")
    6475                      .dwattr $C$DW$554, DW_AT_TI_symbol_name("_SOCAPRD")
    6476                      .dwattr $C$DW$554, DW_AT_bit_offset(0x06)
    6477                      .dwattr $C$DW$554, DW_AT_bit_size(0x02)
    6478                      .dwattr $C$DW$554, DW_AT_data_member_location[DW_OP_plus_uconst 0x0]
    6479                      .dwattr $C$DW$554, DW_AT_accessibility(DW_ACCESS_public)
    6480              
    6481              $C$DW$555       .dwtag  DW_TAG_member
    6482                      .dwattr $C$DW$555, DW_AT_type(*$C$DW$T$19)
    6483                      .dwattr $C$DW$555, DW_AT_name("SOCACNT")
    6484                      .dwattr $C$DW$555, DW_AT_TI_symbol_name("_SOCACNT")
    6485                      .dwattr $C$DW$555, DW_AT_bit_offset(0x04)
    6486                      .dwattr $C$DW$555, DW_AT_bit_size(0x02)
    6487                      .dwattr $C$DW$555, DW_AT_data_member_location[DW_OP_plus_uconst 0x0]
    6488                      .dwattr $C$DW$555, DW_AT_accessibility(DW_ACCESS_public)
    6489              
    6490              $C$DW$556       .dwtag  DW_TAG_member
    6491                      .dwattr $C$DW$556, DW_AT_type(*$C$DW$T$19)
    6492                      .dwattr $C$DW$556, DW_AT_name("SOCBPRD")
    6493                      .dwattr $C$DW$556, DW_AT_TI_symbol_name("_SOCBPRD")
    6494                      .dwattr $C$DW$556, DW_AT_bit_offset(0x02)
    6495                      .dwattr $C$DW$556, DW_AT_bit_size(0x02)
    6496                      .dwattr $C$DW$556, DW_AT_data_member_location[DW_OP_plus_uconst 0x0]
    6497                      .dwattr $C$DW$556, DW_AT_accessibility(DW_ACCESS_public)
    6498              
    6499              $C$DW$557       .dwtag  DW_TAG_member
    6500                      .dwattr $C$DW$557, DW_AT_type(*$C$DW$T$19)
    6501                      .dwattr $C$DW$557, DW_AT_name("SOCBCNT")
    6502                      .dwattr $C$DW$557, DW_AT_TI_symbol_name("_SOCBCNT")
    6503                      .dwattr $C$DW$557, DW_AT_bit_offset(0x00)
    6504                      .dwattr $C$DW$557, DW_AT_bit_size(0x02)
    6505                      .dwattr $C$DW$557, DW_AT_data_member_location[DW_OP_plus_uconst 0x0]
    6506                      .dwattr $C$DW$557, DW_AT_accessibility(DW_ACCESS_public)
    6507              
    6508                      .dwendtag $C$DW$T$100
    6509              
    6510              
    6511              $C$DW$T$101     .dwtag  DW_TAG_union_type
    6512                      .dwattr $C$DW$T$101, DW_AT_name("ETPS_REG")
    6513                      .dwattr $C$DW$T$101, DW_AT_byte_size(0x01)
    6514              $C$DW$558       .dwtag  DW_TAG_member
    6515                      .dwattr $C$DW$558, DW_AT_type(*$C$DW$T$19)
    6516                      .dwattr $C$DW$558, DW_AT_name("all")
    6517                      .dwattr $C$DW$558, DW_AT_TI_symbol_name("_all")
    6518                      .dwattr $C$DW$558, DW_AT_data_member_location[DW_OP_plus_uconst 0x0]
    6519                      .dwattr $C$DW$558, DW_AT_accessibility(DW_ACCESS_public)
    6520              
    6521              $C$DW$559       .dwtag  DW_TAG_member
    6522                      .dwattr $C$DW$559, DW_AT_type(*$C$DW$T$100)
    6523                      .dwattr $C$DW$559, DW_AT_name("bit")
    6524                      .dwattr $C$DW$559, DW_AT_TI_symbol_name("_bit")
TMS320C2000 Assembler PC v16.9.6 Tue Mar 06 18:34:46 2018

Tools Copyright (c) 1996-2017 Texas Instruments Incorporated
C:\Users\Admin\AppData\Local\Temp\{ED9AE313-281A-4435-8F2A-5411619B06A2} PAGE  127

    6525                      .dwattr $C$DW$559, DW_AT_data_member_location[DW_OP_plus_uconst 0x0]
    6526                      .dwattr $C$DW$559, DW_AT_accessibility(DW_ACCESS_public)
    6527              
    6528                      .dwendtag $C$DW$T$101
    6529              
    6530              
    6531              $C$DW$T$102     .dwtag  DW_TAG_structure_type
    6532                      .dwattr $C$DW$T$102, DW_AT_name("ETSEL_BITS")
    6533                      .dwattr $C$DW$T$102, DW_AT_byte_size(0x01)
    6534              $C$DW$560       .dwtag  DW_TAG_member
    6535                      .dwattr $C$DW$560, DW_AT_type(*$C$DW$T$19)
    6536                      .dwattr $C$DW$560, DW_AT_name("INTSEL")
    6537                      .dwattr $C$DW$560, DW_AT_TI_symbol_name("_INTSEL")
    6538                      .dwattr $C$DW$560, DW_AT_bit_offset(0x0d)
    6539                      .dwattr $C$DW$560, DW_AT_bit_size(0x03)
    6540                      .dwattr $C$DW$560, DW_AT_data_member_location[DW_OP_plus_uconst 0x0]
    6541                      .dwattr $C$DW$560, DW_AT_accessibility(DW_ACCESS_public)
    6542              
    6543              $C$DW$561       .dwtag  DW_TAG_member
    6544                      .dwattr $C$DW$561, DW_AT_type(*$C$DW$T$19)
    6545                      .dwattr $C$DW$561, DW_AT_name("INTEN")
    6546                      .dwattr $C$DW$561, DW_AT_TI_symbol_name("_INTEN")
    6547                      .dwattr $C$DW$561, DW_AT_bit_offset(0x0c)
    6548                      .dwattr $C$DW$561, DW_AT_bit_size(0x01)
    6549                      .dwattr $C$DW$561, DW_AT_data_member_location[DW_OP_plus_uconst 0x0]
    6550                      .dwattr $C$DW$561, DW_AT_accessibility(DW_ACCESS_public)
    6551              
    6552              $C$DW$562       .dwtag  DW_TAG_member
    6553                      .dwattr $C$DW$562, DW_AT_type(*$C$DW$T$19)
    6554                      .dwattr $C$DW$562, DW_AT_name("rsvd1")
    6555                      .dwattr $C$DW$562, DW_AT_TI_symbol_name("_rsvd1")
    6556                      .dwattr $C$DW$562, DW_AT_bit_offset(0x08)
    6557                      .dwattr $C$DW$562, DW_AT_bit_size(0x04)
    6558                      .dwattr $C$DW$562, DW_AT_data_member_location[DW_OP_plus_uconst 0x0]
    6559                      .dwattr $C$DW$562, DW_AT_accessibility(DW_ACCESS_public)
    6560              
    6561              $C$DW$563       .dwtag  DW_TAG_member
    6562                      .dwattr $C$DW$563, DW_AT_type(*$C$DW$T$19)
    6563                      .dwattr $C$DW$563, DW_AT_name("SOCASEL")
    6564                      .dwattr $C$DW$563, DW_AT_TI_symbol_name("_SOCASEL")
    6565                      .dwattr $C$DW$563, DW_AT_bit_offset(0x05)
    6566                      .dwattr $C$DW$563, DW_AT_bit_size(0x03)
    6567                      .dwattr $C$DW$563, DW_AT_data_member_location[DW_OP_plus_uconst 0x0]
    6568                      .dwattr $C$DW$563, DW_AT_accessibility(DW_ACCESS_public)
    6569              
    6570              $C$DW$564       .dwtag  DW_TAG_member
    6571                      .dwattr $C$DW$564, DW_AT_type(*$C$DW$T$19)
    6572                      .dwattr $C$DW$564, DW_AT_name("SOCAEN")
    6573                      .dwattr $C$DW$564, DW_AT_TI_symbol_name("_SOCAEN")
    6574                      .dwattr $C$DW$564, DW_AT_bit_offset(0x04)
    6575                      .dwattr $C$DW$564, DW_AT_bit_size(0x01)
    6576                      .dwattr $C$DW$564, DW_AT_data_member_location[DW_OP_plus_uconst 0x0]
    6577                      .dwattr $C$DW$564, DW_AT_accessibility(DW_ACCESS_public)
    6578              
    6579              $C$DW$565       .dwtag  DW_TAG_member
TMS320C2000 Assembler PC v16.9.6 Tue Mar 06 18:34:46 2018

Tools Copyright (c) 1996-2017 Texas Instruments Incorporated
C:\Users\Admin\AppData\Local\Temp\{ED9AE313-281A-4435-8F2A-5411619B06A2} PAGE  128

    6580                      .dwattr $C$DW$565, DW_AT_type(*$C$DW$T$19)
    6581                      .dwattr $C$DW$565, DW_AT_name("SOCBSEL")
    6582                      .dwattr $C$DW$565, DW_AT_TI_symbol_name("_SOCBSEL")
    6583                      .dwattr $C$DW$565, DW_AT_bit_offset(0x01)
    6584                      .dwattr $C$DW$565, DW_AT_bit_size(0x03)
    6585                      .dwattr $C$DW$565, DW_AT_data_member_location[DW_OP_plus_uconst 0x0]
    6586                      .dwattr $C$DW$565, DW_AT_accessibility(DW_ACCESS_public)
    6587              
    6588              $C$DW$566       .dwtag  DW_TAG_member
    6589                      .dwattr $C$DW$566, DW_AT_type(*$C$DW$T$19)
    6590                      .dwattr $C$DW$566, DW_AT_name("SOCBEN")
    6591                      .dwattr $C$DW$566, DW_AT_TI_symbol_name("_SOCBEN")
    6592                      .dwattr $C$DW$566, DW_AT_bit_offset(0x00)
    6593                      .dwattr $C$DW$566, DW_AT_bit_size(0x01)
    6594                      .dwattr $C$DW$566, DW_AT_data_member_location[DW_OP_plus_uconst 0x0]
    6595                      .dwattr $C$DW$566, DW_AT_accessibility(DW_ACCESS_public)
    6596              
    6597                      .dwendtag $C$DW$T$102
    6598              
    6599              
    6600              $C$DW$T$103     .dwtag  DW_TAG_union_type
    6601                      .dwattr $C$DW$T$103, DW_AT_name("ETSEL_REG")
    6602                      .dwattr $C$DW$T$103, DW_AT_byte_size(0x01)
    6603              $C$DW$567       .dwtag  DW_TAG_member
    6604                      .dwattr $C$DW$567, DW_AT_type(*$C$DW$T$19)
    6605                      .dwattr $C$DW$567, DW_AT_name("all")
    6606                      .dwattr $C$DW$567, DW_AT_TI_symbol_name("_all")
    6607                      .dwattr $C$DW$567, DW_AT_data_member_location[DW_OP_plus_uconst 0x0]
    6608                      .dwattr $C$DW$567, DW_AT_accessibility(DW_ACCESS_public)
    6609              
    6610              $C$DW$568       .dwtag  DW_TAG_member
    6611                      .dwattr $C$DW$568, DW_AT_type(*$C$DW$T$102)
    6612                      .dwattr $C$DW$568, DW_AT_name("bit")
    6613                      .dwattr $C$DW$568, DW_AT_TI_symbol_name("_bit")
    6614                      .dwattr $C$DW$568, DW_AT_data_member_location[DW_OP_plus_uconst 0x0]
    6615                      .dwattr $C$DW$568, DW_AT_accessibility(DW_ACCESS_public)
    6616              
    6617                      .dwendtag $C$DW$T$103
    6618              
    6619              
    6620              $C$DW$T$104     .dwtag  DW_TAG_structure_type
    6621                      .dwattr $C$DW$T$104, DW_AT_name("GPA1_BITS")
    6622                      .dwattr $C$DW$T$104, DW_AT_byte_size(0x02)
    6623              $C$DW$569       .dwtag  DW_TAG_member
    6624                      .dwattr $C$DW$569, DW_AT_type(*$C$DW$T$19)
    6625                      .dwattr $C$DW$569, DW_AT_name("GPIO0")
    6626                      .dwattr $C$DW$569, DW_AT_TI_symbol_name("_GPIO0")
    6627                      .dwattr $C$DW$569, DW_AT_bit_offset(0x0e)
    6628                      .dwattr $C$DW$569, DW_AT_bit_size(0x02)
    6629                      .dwattr $C$DW$569, DW_AT_data_member_location[DW_OP_plus_uconst 0x0]
    6630                      .dwattr $C$DW$569, DW_AT_accessibility(DW_ACCESS_public)
    6631              
    6632              $C$DW$570       .dwtag  DW_TAG_member
    6633                      .dwattr $C$DW$570, DW_AT_type(*$C$DW$T$19)
    6634                      .dwattr $C$DW$570, DW_AT_name("GPIO1")
TMS320C2000 Assembler PC v16.9.6 Tue Mar 06 18:34:46 2018

Tools Copyright (c) 1996-2017 Texas Instruments Incorporated
C:\Users\Admin\AppData\Local\Temp\{ED9AE313-281A-4435-8F2A-5411619B06A2} PAGE  129

    6635                      .dwattr $C$DW$570, DW_AT_TI_symbol_name("_GPIO1")
    6636                      .dwattr $C$DW$570, DW_AT_bit_offset(0x0c)
    6637                      .dwattr $C$DW$570, DW_AT_bit_size(0x02)
    6638                      .dwattr $C$DW$570, DW_AT_data_member_location[DW_OP_plus_uconst 0x0]
    6639                      .dwattr $C$DW$570, DW_AT_accessibility(DW_ACCESS_public)
    6640              
    6641              $C$DW$571       .dwtag  DW_TAG_member
    6642                      .dwattr $C$DW$571, DW_AT_type(*$C$DW$T$19)
    6643                      .dwattr $C$DW$571, DW_AT_name("GPIO2")
    6644                      .dwattr $C$DW$571, DW_AT_TI_symbol_name("_GPIO2")
    6645                      .dwattr $C$DW$571, DW_AT_bit_offset(0x0a)
    6646                      .dwattr $C$DW$571, DW_AT_bit_size(0x02)
    6647                      .dwattr $C$DW$571, DW_AT_data_member_location[DW_OP_plus_uconst 0x0]
    6648                      .dwattr $C$DW$571, DW_AT_accessibility(DW_ACCESS_public)
    6649              
    6650              $C$DW$572       .dwtag  DW_TAG_member
    6651                      .dwattr $C$DW$572, DW_AT_type(*$C$DW$T$19)
    6652                      .dwattr $C$DW$572, DW_AT_name("GPIO3")
    6653                      .dwattr $C$DW$572, DW_AT_TI_symbol_name("_GPIO3")
    6654                      .dwattr $C$DW$572, DW_AT_bit_offset(0x08)
    6655                      .dwattr $C$DW$572, DW_AT_bit_size(0x02)
    6656                      .dwattr $C$DW$572, DW_AT_data_member_location[DW_OP_plus_uconst 0x0]
    6657                      .dwattr $C$DW$572, DW_AT_accessibility(DW_ACCESS_public)
    6658              
    6659              $C$DW$573       .dwtag  DW_TAG_member
    6660                      .dwattr $C$DW$573, DW_AT_type(*$C$DW$T$19)
    6661                      .dwattr $C$DW$573, DW_AT_name("GPIO4")
    6662                      .dwattr $C$DW$573, DW_AT_TI_symbol_name("_GPIO4")
    6663                      .dwattr $C$DW$573, DW_AT_bit_offset(0x06)
    6664                      .dwattr $C$DW$573, DW_AT_bit_size(0x02)
    6665                      .dwattr $C$DW$573, DW_AT_data_member_location[DW_OP_plus_uconst 0x0]
    6666                      .dwattr $C$DW$573, DW_AT_accessibility(DW_ACCESS_public)
    6667              
    6668              $C$DW$574       .dwtag  DW_TAG_member
    6669                      .dwattr $C$DW$574, DW_AT_type(*$C$DW$T$19)
    6670                      .dwattr $C$DW$574, DW_AT_name("GPIO5")
    6671                      .dwattr $C$DW$574, DW_AT_TI_symbol_name("_GPIO5")
    6672                      .dwattr $C$DW$574, DW_AT_bit_offset(0x04)
    6673                      .dwattr $C$DW$574, DW_AT_bit_size(0x02)
    6674                      .dwattr $C$DW$574, DW_AT_data_member_location[DW_OP_plus_uconst 0x0]
    6675                      .dwattr $C$DW$574, DW_AT_accessibility(DW_ACCESS_public)
    6676              
    6677              $C$DW$575       .dwtag  DW_TAG_member
    6678                      .dwattr $C$DW$575, DW_AT_type(*$C$DW$T$19)
    6679                      .dwattr $C$DW$575, DW_AT_name("GPIO6")
    6680                      .dwattr $C$DW$575, DW_AT_TI_symbol_name("_GPIO6")
    6681                      .dwattr $C$DW$575, DW_AT_bit_offset(0x02)
    6682                      .dwattr $C$DW$575, DW_AT_bit_size(0x02)
    6683                      .dwattr $C$DW$575, DW_AT_data_member_location[DW_OP_plus_uconst 0x0]
    6684                      .dwattr $C$DW$575, DW_AT_accessibility(DW_ACCESS_public)
    6685              
    6686              $C$DW$576       .dwtag  DW_TAG_member
    6687                      .dwattr $C$DW$576, DW_AT_type(*$C$DW$T$19)
    6688                      .dwattr $C$DW$576, DW_AT_name("GPIO7")
    6689                      .dwattr $C$DW$576, DW_AT_TI_symbol_name("_GPIO7")
TMS320C2000 Assembler PC v16.9.6 Tue Mar 06 18:34:46 2018

Tools Copyright (c) 1996-2017 Texas Instruments Incorporated
C:\Users\Admin\AppData\Local\Temp\{ED9AE313-281A-4435-8F2A-5411619B06A2} PAGE  130

    6690                      .dwattr $C$DW$576, DW_AT_bit_offset(0x00)
    6691                      .dwattr $C$DW$576, DW_AT_bit_size(0x02)
    6692                      .dwattr $C$DW$576, DW_AT_data_member_location[DW_OP_plus_uconst 0x0]
    6693                      .dwattr $C$DW$576, DW_AT_accessibility(DW_ACCESS_public)
    6694              
    6695              $C$DW$577       .dwtag  DW_TAG_member
    6696                      .dwattr $C$DW$577, DW_AT_type(*$C$DW$T$19)
    6697                      .dwattr $C$DW$577, DW_AT_name("GPIO8")
    6698                      .dwattr $C$DW$577, DW_AT_TI_symbol_name("_GPIO8")
    6699                      .dwattr $C$DW$577, DW_AT_bit_offset(0x0e)
    6700                      .dwattr $C$DW$577, DW_AT_bit_size(0x02)
    6701                      .dwattr $C$DW$577, DW_AT_data_member_location[DW_OP_plus_uconst 0x1]
    6702                      .dwattr $C$DW$577, DW_AT_accessibility(DW_ACCESS_public)
    6703              
    6704              $C$DW$578       .dwtag  DW_TAG_member
    6705                      .dwattr $C$DW$578, DW_AT_type(*$C$DW$T$19)
    6706                      .dwattr $C$DW$578, DW_AT_name("GPIO9")
    6707                      .dwattr $C$DW$578, DW_AT_TI_symbol_name("_GPIO9")
    6708                      .dwattr $C$DW$578, DW_AT_bit_offset(0x0c)
    6709                      .dwattr $C$DW$578, DW_AT_bit_size(0x02)
    6710                      .dwattr $C$DW$578, DW_AT_data_member_location[DW_OP_plus_uconst 0x1]
    6711                      .dwattr $C$DW$578, DW_AT_accessibility(DW_ACCESS_public)
    6712              
    6713              $C$DW$579       .dwtag  DW_TAG_member
    6714                      .dwattr $C$DW$579, DW_AT_type(*$C$DW$T$19)
    6715                      .dwattr $C$DW$579, DW_AT_name("GPIO10")
    6716                      .dwattr $C$DW$579, DW_AT_TI_symbol_name("_GPIO10")
    6717                      .dwattr $C$DW$579, DW_AT_bit_offset(0x0a)
    6718                      .dwattr $C$DW$579, DW_AT_bit_size(0x02)
    6719                      .dwattr $C$DW$579, DW_AT_data_member_location[DW_OP_plus_uconst 0x1]
    6720                      .dwattr $C$DW$579, DW_AT_accessibility(DW_ACCESS_public)
    6721              
    6722              $C$DW$580       .dwtag  DW_TAG_member
    6723                      .dwattr $C$DW$580, DW_AT_type(*$C$DW$T$19)
    6724                      .dwattr $C$DW$580, DW_AT_name("GPIO11")
    6725                      .dwattr $C$DW$580, DW_AT_TI_symbol_name("_GPIO11")
    6726                      .dwattr $C$DW$580, DW_AT_bit_offset(0x08)
    6727                      .dwattr $C$DW$580, DW_AT_bit_size(0x02)
    6728                      .dwattr $C$DW$580, DW_AT_data_member_location[DW_OP_plus_uconst 0x1]
    6729                      .dwattr $C$DW$580, DW_AT_accessibility(DW_ACCESS_public)
    6730              
    6731              $C$DW$581       .dwtag  DW_TAG_member
    6732                      .dwattr $C$DW$581, DW_AT_type(*$C$DW$T$19)
    6733                      .dwattr $C$DW$581, DW_AT_name("GPIO12")
    6734                      .dwattr $C$DW$581, DW_AT_TI_symbol_name("_GPIO12")
    6735                      .dwattr $C$DW$581, DW_AT_bit_offset(0x06)
    6736                      .dwattr $C$DW$581, DW_AT_bit_size(0x02)
    6737                      .dwattr $C$DW$581, DW_AT_data_member_location[DW_OP_plus_uconst 0x1]
    6738                      .dwattr $C$DW$581, DW_AT_accessibility(DW_ACCESS_public)
    6739              
    6740              $C$DW$582       .dwtag  DW_TAG_member
    6741                      .dwattr $C$DW$582, DW_AT_type(*$C$DW$T$19)
    6742                      .dwattr $C$DW$582, DW_AT_name("GPIO13")
    6743                      .dwattr $C$DW$582, DW_AT_TI_symbol_name("_GPIO13")
    6744                      .dwattr $C$DW$582, DW_AT_bit_offset(0x04)
TMS320C2000 Assembler PC v16.9.6 Tue Mar 06 18:34:46 2018

Tools Copyright (c) 1996-2017 Texas Instruments Incorporated
C:\Users\Admin\AppData\Local\Temp\{ED9AE313-281A-4435-8F2A-5411619B06A2} PAGE  131

    6745                      .dwattr $C$DW$582, DW_AT_bit_size(0x02)
    6746                      .dwattr $C$DW$582, DW_AT_data_member_location[DW_OP_plus_uconst 0x1]
    6747                      .dwattr $C$DW$582, DW_AT_accessibility(DW_ACCESS_public)
    6748              
    6749              $C$DW$583       .dwtag  DW_TAG_member
    6750                      .dwattr $C$DW$583, DW_AT_type(*$C$DW$T$19)
    6751                      .dwattr $C$DW$583, DW_AT_name("GPIO14")
    6752                      .dwattr $C$DW$583, DW_AT_TI_symbol_name("_GPIO14")
    6753                      .dwattr $C$DW$583, DW_AT_bit_offset(0x02)
    6754                      .dwattr $C$DW$583, DW_AT_bit_size(0x02)
    6755                      .dwattr $C$DW$583, DW_AT_data_member_location[DW_OP_plus_uconst 0x1]
    6756                      .dwattr $C$DW$583, DW_AT_accessibility(DW_ACCESS_public)
    6757              
    6758              $C$DW$584       .dwtag  DW_TAG_member
    6759                      .dwattr $C$DW$584, DW_AT_type(*$C$DW$T$19)
    6760                      .dwattr $C$DW$584, DW_AT_name("GPIO15")
    6761                      .dwattr $C$DW$584, DW_AT_TI_symbol_name("_GPIO15")
    6762                      .dwattr $C$DW$584, DW_AT_bit_offset(0x00)
    6763                      .dwattr $C$DW$584, DW_AT_bit_size(0x02)
    6764                      .dwattr $C$DW$584, DW_AT_data_member_location[DW_OP_plus_uconst 0x1]
    6765                      .dwattr $C$DW$584, DW_AT_accessibility(DW_ACCESS_public)
    6766              
    6767                      .dwendtag $C$DW$T$104
    6768              
    6769              
    6770              $C$DW$T$105     .dwtag  DW_TAG_union_type
    6771                      .dwattr $C$DW$T$105, DW_AT_name("GPA1_REG")
    6772                      .dwattr $C$DW$T$105, DW_AT_byte_size(0x02)
    6773              $C$DW$585       .dwtag  DW_TAG_member
    6774                      .dwattr $C$DW$585, DW_AT_type(*$C$DW$T$49)
    6775                      .dwattr $C$DW$585, DW_AT_name("all")
    6776                      .dwattr $C$DW$585, DW_AT_TI_symbol_name("_all")
    6777                      .dwattr $C$DW$585, DW_AT_data_member_location[DW_OP_plus_uconst 0x0]
    6778                      .dwattr $C$DW$585, DW_AT_accessibility(DW_ACCESS_public)
    6779              
    6780              $C$DW$586       .dwtag  DW_TAG_member
    6781                      .dwattr $C$DW$586, DW_AT_type(*$C$DW$T$104)
    6782                      .dwattr $C$DW$586, DW_AT_name("bit")
    6783                      .dwattr $C$DW$586, DW_AT_TI_symbol_name("_bit")
    6784                      .dwattr $C$DW$586, DW_AT_data_member_location[DW_OP_plus_uconst 0x0]
    6785                      .dwattr $C$DW$586, DW_AT_accessibility(DW_ACCESS_public)
    6786              
    6787                      .dwendtag $C$DW$T$105
    6788              
    6789              
    6790              $C$DW$T$106     .dwtag  DW_TAG_structure_type
    6791                      .dwattr $C$DW$T$106, DW_AT_name("GPA2_BITS")
    6792                      .dwattr $C$DW$T$106, DW_AT_byte_size(0x02)
    6793              $C$DW$587       .dwtag  DW_TAG_member
    6794                      .dwattr $C$DW$587, DW_AT_type(*$C$DW$T$19)
    6795                      .dwattr $C$DW$587, DW_AT_name("GPIO16")
    6796                      .dwattr $C$DW$587, DW_AT_TI_symbol_name("_GPIO16")
    6797                      .dwattr $C$DW$587, DW_AT_bit_offset(0x0e)
    6798                      .dwattr $C$DW$587, DW_AT_bit_size(0x02)
    6799                      .dwattr $C$DW$587, DW_AT_data_member_location[DW_OP_plus_uconst 0x0]
TMS320C2000 Assembler PC v16.9.6 Tue Mar 06 18:34:46 2018

Tools Copyright (c) 1996-2017 Texas Instruments Incorporated
C:\Users\Admin\AppData\Local\Temp\{ED9AE313-281A-4435-8F2A-5411619B06A2} PAGE  132

    6800                      .dwattr $C$DW$587, DW_AT_accessibility(DW_ACCESS_public)
    6801              
    6802              $C$DW$588       .dwtag  DW_TAG_member
    6803                      .dwattr $C$DW$588, DW_AT_type(*$C$DW$T$19)
    6804                      .dwattr $C$DW$588, DW_AT_name("GPIO17")
    6805                      .dwattr $C$DW$588, DW_AT_TI_symbol_name("_GPIO17")
    6806                      .dwattr $C$DW$588, DW_AT_bit_offset(0x0c)
    6807                      .dwattr $C$DW$588, DW_AT_bit_size(0x02)
    6808                      .dwattr $C$DW$588, DW_AT_data_member_location[DW_OP_plus_uconst 0x0]
    6809                      .dwattr $C$DW$588, DW_AT_accessibility(DW_ACCESS_public)
    6810              
    6811              $C$DW$589       .dwtag  DW_TAG_member
    6812                      .dwattr $C$DW$589, DW_AT_type(*$C$DW$T$19)
    6813                      .dwattr $C$DW$589, DW_AT_name("GPIO18")
    6814                      .dwattr $C$DW$589, DW_AT_TI_symbol_name("_GPIO18")
    6815                      .dwattr $C$DW$589, DW_AT_bit_offset(0x0a)
    6816                      .dwattr $C$DW$589, DW_AT_bit_size(0x02)
    6817                      .dwattr $C$DW$589, DW_AT_data_member_location[DW_OP_plus_uconst 0x0]
    6818                      .dwattr $C$DW$589, DW_AT_accessibility(DW_ACCESS_public)
    6819              
    6820              $C$DW$590       .dwtag  DW_TAG_member
    6821                      .dwattr $C$DW$590, DW_AT_type(*$C$DW$T$19)
    6822                      .dwattr $C$DW$590, DW_AT_name("GPIO19")
    6823                      .dwattr $C$DW$590, DW_AT_TI_symbol_name("_GPIO19")
    6824                      .dwattr $C$DW$590, DW_AT_bit_offset(0x08)
    6825                      .dwattr $C$DW$590, DW_AT_bit_size(0x02)
    6826                      .dwattr $C$DW$590, DW_AT_data_member_location[DW_OP_plus_uconst 0x0]
    6827                      .dwattr $C$DW$590, DW_AT_accessibility(DW_ACCESS_public)
    6828              
    6829              $C$DW$591       .dwtag  DW_TAG_member
    6830                      .dwattr $C$DW$591, DW_AT_type(*$C$DW$T$19)
    6831                      .dwattr $C$DW$591, DW_AT_name("GPIO20")
    6832                      .dwattr $C$DW$591, DW_AT_TI_symbol_name("_GPIO20")
    6833                      .dwattr $C$DW$591, DW_AT_bit_offset(0x06)
    6834                      .dwattr $C$DW$591, DW_AT_bit_size(0x02)
    6835                      .dwattr $C$DW$591, DW_AT_data_member_location[DW_OP_plus_uconst 0x0]
    6836                      .dwattr $C$DW$591, DW_AT_accessibility(DW_ACCESS_public)
    6837              
    6838              $C$DW$592       .dwtag  DW_TAG_member
    6839                      .dwattr $C$DW$592, DW_AT_type(*$C$DW$T$19)
    6840                      .dwattr $C$DW$592, DW_AT_name("GPIO21")
    6841                      .dwattr $C$DW$592, DW_AT_TI_symbol_name("_GPIO21")
    6842                      .dwattr $C$DW$592, DW_AT_bit_offset(0x04)
    6843                      .dwattr $C$DW$592, DW_AT_bit_size(0x02)
    6844                      .dwattr $C$DW$592, DW_AT_data_member_location[DW_OP_plus_uconst 0x0]
    6845                      .dwattr $C$DW$592, DW_AT_accessibility(DW_ACCESS_public)
    6846              
    6847              $C$DW$593       .dwtag  DW_TAG_member
    6848                      .dwattr $C$DW$593, DW_AT_type(*$C$DW$T$19)
    6849                      .dwattr $C$DW$593, DW_AT_name("GPIO22")
    6850                      .dwattr $C$DW$593, DW_AT_TI_symbol_name("_GPIO22")
    6851                      .dwattr $C$DW$593, DW_AT_bit_offset(0x02)
    6852                      .dwattr $C$DW$593, DW_AT_bit_size(0x02)
    6853                      .dwattr $C$DW$593, DW_AT_data_member_location[DW_OP_plus_uconst 0x0]
    6854                      .dwattr $C$DW$593, DW_AT_accessibility(DW_ACCESS_public)
TMS320C2000 Assembler PC v16.9.6 Tue Mar 06 18:34:46 2018

Tools Copyright (c) 1996-2017 Texas Instruments Incorporated
C:\Users\Admin\AppData\Local\Temp\{ED9AE313-281A-4435-8F2A-5411619B06A2} PAGE  133

    6855              
    6856              $C$DW$594       .dwtag  DW_TAG_member
    6857                      .dwattr $C$DW$594, DW_AT_type(*$C$DW$T$19)
    6858                      .dwattr $C$DW$594, DW_AT_name("GPIO23")
    6859                      .dwattr $C$DW$594, DW_AT_TI_symbol_name("_GPIO23")
    6860                      .dwattr $C$DW$594, DW_AT_bit_offset(0x00)
    6861                      .dwattr $C$DW$594, DW_AT_bit_size(0x02)
    6862                      .dwattr $C$DW$594, DW_AT_data_member_location[DW_OP_plus_uconst 0x0]
    6863                      .dwattr $C$DW$594, DW_AT_accessibility(DW_ACCESS_public)
    6864              
    6865              $C$DW$595       .dwtag  DW_TAG_member
    6866                      .dwattr $C$DW$595, DW_AT_type(*$C$DW$T$19)
    6867                      .dwattr $C$DW$595, DW_AT_name("GPIO24")
    6868                      .dwattr $C$DW$595, DW_AT_TI_symbol_name("_GPIO24")
    6869                      .dwattr $C$DW$595, DW_AT_bit_offset(0x0e)
    6870                      .dwattr $C$DW$595, DW_AT_bit_size(0x02)
    6871                      .dwattr $C$DW$595, DW_AT_data_member_location[DW_OP_plus_uconst 0x1]
    6872                      .dwattr $C$DW$595, DW_AT_accessibility(DW_ACCESS_public)
    6873              
    6874              $C$DW$596       .dwtag  DW_TAG_member
    6875                      .dwattr $C$DW$596, DW_AT_type(*$C$DW$T$19)
    6876                      .dwattr $C$DW$596, DW_AT_name("GPIO25")
    6877                      .dwattr $C$DW$596, DW_AT_TI_symbol_name("_GPIO25")
    6878                      .dwattr $C$DW$596, DW_AT_bit_offset(0x0c)
    6879                      .dwattr $C$DW$596, DW_AT_bit_size(0x02)
    6880                      .dwattr $C$DW$596, DW_AT_data_member_location[DW_OP_plus_uconst 0x1]
    6881                      .dwattr $C$DW$596, DW_AT_accessibility(DW_ACCESS_public)
    6882              
    6883              $C$DW$597       .dwtag  DW_TAG_member
    6884                      .dwattr $C$DW$597, DW_AT_type(*$C$DW$T$19)
    6885                      .dwattr $C$DW$597, DW_AT_name("GPIO26")
    6886                      .dwattr $C$DW$597, DW_AT_TI_symbol_name("_GPIO26")
    6887                      .dwattr $C$DW$597, DW_AT_bit_offset(0x0a)
    6888                      .dwattr $C$DW$597, DW_AT_bit_size(0x02)
    6889                      .dwattr $C$DW$597, DW_AT_data_member_location[DW_OP_plus_uconst 0x1]
    6890                      .dwattr $C$DW$597, DW_AT_accessibility(DW_ACCESS_public)
    6891              
    6892              $C$DW$598       .dwtag  DW_TAG_member
    6893                      .dwattr $C$DW$598, DW_AT_type(*$C$DW$T$19)
    6894                      .dwattr $C$DW$598, DW_AT_name("GPIO27")
    6895                      .dwattr $C$DW$598, DW_AT_TI_symbol_name("_GPIO27")
    6896                      .dwattr $C$DW$598, DW_AT_bit_offset(0x08)
    6897                      .dwattr $C$DW$598, DW_AT_bit_size(0x02)
    6898                      .dwattr $C$DW$598, DW_AT_data_member_location[DW_OP_plus_uconst 0x1]
    6899                      .dwattr $C$DW$598, DW_AT_accessibility(DW_ACCESS_public)
    6900              
    6901              $C$DW$599       .dwtag  DW_TAG_member
    6902                      .dwattr $C$DW$599, DW_AT_type(*$C$DW$T$19)
    6903                      .dwattr $C$DW$599, DW_AT_name("GPIO28")
    6904                      .dwattr $C$DW$599, DW_AT_TI_symbol_name("_GPIO28")
    6905                      .dwattr $C$DW$599, DW_AT_bit_offset(0x06)
    6906                      .dwattr $C$DW$599, DW_AT_bit_size(0x02)
    6907                      .dwattr $C$DW$599, DW_AT_data_member_location[DW_OP_plus_uconst 0x1]
    6908                      .dwattr $C$DW$599, DW_AT_accessibility(DW_ACCESS_public)
    6909              
TMS320C2000 Assembler PC v16.9.6 Tue Mar 06 18:34:46 2018

Tools Copyright (c) 1996-2017 Texas Instruments Incorporated
C:\Users\Admin\AppData\Local\Temp\{ED9AE313-281A-4435-8F2A-5411619B06A2} PAGE  134

    6910              $C$DW$600       .dwtag  DW_TAG_member
    6911                      .dwattr $C$DW$600, DW_AT_type(*$C$DW$T$19)
    6912                      .dwattr $C$DW$600, DW_AT_name("GPIO29")
    6913                      .dwattr $C$DW$600, DW_AT_TI_symbol_name("_GPIO29")
    6914                      .dwattr $C$DW$600, DW_AT_bit_offset(0x04)
    6915                      .dwattr $C$DW$600, DW_AT_bit_size(0x02)
    6916                      .dwattr $C$DW$600, DW_AT_data_member_location[DW_OP_plus_uconst 0x1]
    6917                      .dwattr $C$DW$600, DW_AT_accessibility(DW_ACCESS_public)
    6918              
    6919              $C$DW$601       .dwtag  DW_TAG_member
    6920                      .dwattr $C$DW$601, DW_AT_type(*$C$DW$T$19)
    6921                      .dwattr $C$DW$601, DW_AT_name("GPIO30")
    6922                      .dwattr $C$DW$601, DW_AT_TI_symbol_name("_GPIO30")
    6923                      .dwattr $C$DW$601, DW_AT_bit_offset(0x02)
    6924                      .dwattr $C$DW$601, DW_AT_bit_size(0x02)
    6925                      .dwattr $C$DW$601, DW_AT_data_member_location[DW_OP_plus_uconst 0x1]
    6926                      .dwattr $C$DW$601, DW_AT_accessibility(DW_ACCESS_public)
    6927              
    6928              $C$DW$602       .dwtag  DW_TAG_member
    6929                      .dwattr $C$DW$602, DW_AT_type(*$C$DW$T$19)
    6930                      .dwattr $C$DW$602, DW_AT_name("GPIO31")
    6931                      .dwattr $C$DW$602, DW_AT_TI_symbol_name("_GPIO31")
    6932                      .dwattr $C$DW$602, DW_AT_bit_offset(0x00)
    6933                      .dwattr $C$DW$602, DW_AT_bit_size(0x02)
    6934                      .dwattr $C$DW$602, DW_AT_data_member_location[DW_OP_plus_uconst 0x1]
    6935                      .dwattr $C$DW$602, DW_AT_accessibility(DW_ACCESS_public)
    6936              
    6937                      .dwendtag $C$DW$T$106
    6938              
    6939              
    6940              $C$DW$T$107     .dwtag  DW_TAG_union_type
    6941                      .dwattr $C$DW$T$107, DW_AT_name("GPA2_REG")
    6942                      .dwattr $C$DW$T$107, DW_AT_byte_size(0x02)
    6943              $C$DW$603       .dwtag  DW_TAG_member
    6944                      .dwattr $C$DW$603, DW_AT_type(*$C$DW$T$49)
    6945                      .dwattr $C$DW$603, DW_AT_name("all")
    6946                      .dwattr $C$DW$603, DW_AT_TI_symbol_name("_all")
    6947                      .dwattr $C$DW$603, DW_AT_data_member_location[DW_OP_plus_uconst 0x0]
    6948                      .dwattr $C$DW$603, DW_AT_accessibility(DW_ACCESS_public)
    6949              
    6950              $C$DW$604       .dwtag  DW_TAG_member
    6951                      .dwattr $C$DW$604, DW_AT_type(*$C$DW$T$106)
    6952                      .dwattr $C$DW$604, DW_AT_name("bit")
    6953                      .dwattr $C$DW$604, DW_AT_TI_symbol_name("_bit")
    6954                      .dwattr $C$DW$604, DW_AT_data_member_location[DW_OP_plus_uconst 0x0]
    6955                      .dwattr $C$DW$604, DW_AT_accessibility(DW_ACCESS_public)
    6956              
    6957                      .dwendtag $C$DW$T$107
    6958              
    6959              
    6960              $C$DW$T$108     .dwtag  DW_TAG_structure_type
    6961                      .dwattr $C$DW$T$108, DW_AT_name("GPACTRL_BITS")
    6962                      .dwattr $C$DW$T$108, DW_AT_byte_size(0x02)
    6963              $C$DW$605       .dwtag  DW_TAG_member
    6964                      .dwattr $C$DW$605, DW_AT_type(*$C$DW$T$19)
TMS320C2000 Assembler PC v16.9.6 Tue Mar 06 18:34:46 2018

Tools Copyright (c) 1996-2017 Texas Instruments Incorporated
C:\Users\Admin\AppData\Local\Temp\{ED9AE313-281A-4435-8F2A-5411619B06A2} PAGE  135

    6965                      .dwattr $C$DW$605, DW_AT_name("QUALPRD0")
    6966                      .dwattr $C$DW$605, DW_AT_TI_symbol_name("_QUALPRD0")
    6967                      .dwattr $C$DW$605, DW_AT_bit_offset(0x08)
    6968                      .dwattr $C$DW$605, DW_AT_bit_size(0x08)
    6969                      .dwattr $C$DW$605, DW_AT_data_member_location[DW_OP_plus_uconst 0x0]
    6970                      .dwattr $C$DW$605, DW_AT_accessibility(DW_ACCESS_public)
    6971              
    6972              $C$DW$606       .dwtag  DW_TAG_member
    6973                      .dwattr $C$DW$606, DW_AT_type(*$C$DW$T$19)
    6974                      .dwattr $C$DW$606, DW_AT_name("QUALPRD1")
    6975                      .dwattr $C$DW$606, DW_AT_TI_symbol_name("_QUALPRD1")
    6976                      .dwattr $C$DW$606, DW_AT_bit_offset(0x00)
    6977                      .dwattr $C$DW$606, DW_AT_bit_size(0x08)
    6978                      .dwattr $C$DW$606, DW_AT_data_member_location[DW_OP_plus_uconst 0x0]
    6979                      .dwattr $C$DW$606, DW_AT_accessibility(DW_ACCESS_public)
    6980              
    6981              $C$DW$607       .dwtag  DW_TAG_member
    6982                      .dwattr $C$DW$607, DW_AT_type(*$C$DW$T$19)
    6983                      .dwattr $C$DW$607, DW_AT_name("QUALPRD2")
    6984                      .dwattr $C$DW$607, DW_AT_TI_symbol_name("_QUALPRD2")
    6985                      .dwattr $C$DW$607, DW_AT_bit_offset(0x08)
    6986                      .dwattr $C$DW$607, DW_AT_bit_size(0x08)
    6987                      .dwattr $C$DW$607, DW_AT_data_member_location[DW_OP_plus_uconst 0x1]
    6988                      .dwattr $C$DW$607, DW_AT_accessibility(DW_ACCESS_public)
    6989              
    6990              $C$DW$608       .dwtag  DW_TAG_member
    6991                      .dwattr $C$DW$608, DW_AT_type(*$C$DW$T$19)
    6992                      .dwattr $C$DW$608, DW_AT_name("QUALPRD3")
    6993                      .dwattr $C$DW$608, DW_AT_TI_symbol_name("_QUALPRD3")
    6994                      .dwattr $C$DW$608, DW_AT_bit_offset(0x00)
    6995                      .dwattr $C$DW$608, DW_AT_bit_size(0x08)
    6996                      .dwattr $C$DW$608, DW_AT_data_member_location[DW_OP_plus_uconst 0x1]
    6997                      .dwattr $C$DW$608, DW_AT_accessibility(DW_ACCESS_public)
    6998              
    6999                      .dwendtag $C$DW$T$108
    7000              
    7001              
    7002              $C$DW$T$109     .dwtag  DW_TAG_union_type
    7003                      .dwattr $C$DW$T$109, DW_AT_name("GPACTRL_REG")
    7004                      .dwattr $C$DW$T$109, DW_AT_byte_size(0x02)
    7005              $C$DW$609       .dwtag  DW_TAG_member
    7006                      .dwattr $C$DW$609, DW_AT_type(*$C$DW$T$49)
    7007                      .dwattr $C$DW$609, DW_AT_name("all")
    7008                      .dwattr $C$DW$609, DW_AT_TI_symbol_name("_all")
    7009                      .dwattr $C$DW$609, DW_AT_data_member_location[DW_OP_plus_uconst 0x0]
    7010                      .dwattr $C$DW$609, DW_AT_accessibility(DW_ACCESS_public)
    7011              
    7012              $C$DW$610       .dwtag  DW_TAG_member
    7013                      .dwattr $C$DW$610, DW_AT_type(*$C$DW$T$108)
    7014                      .dwattr $C$DW$610, DW_AT_name("bit")
    7015                      .dwattr $C$DW$610, DW_AT_TI_symbol_name("_bit")
    7016                      .dwattr $C$DW$610, DW_AT_data_member_location[DW_OP_plus_uconst 0x0]
    7017                      .dwattr $C$DW$610, DW_AT_accessibility(DW_ACCESS_public)
    7018              
    7019                      .dwendtag $C$DW$T$109
TMS320C2000 Assembler PC v16.9.6 Tue Mar 06 18:34:46 2018

Tools Copyright (c) 1996-2017 Texas Instruments Incorporated
C:\Users\Admin\AppData\Local\Temp\{ED9AE313-281A-4435-8F2A-5411619B06A2} PAGE  136

    7020              
    7021              
    7022              $C$DW$T$110     .dwtag  DW_TAG_structure_type
    7023                      .dwattr $C$DW$T$110, DW_AT_name("GPADAT_BITS")
    7024                      .dwattr $C$DW$T$110, DW_AT_byte_size(0x02)
    7025              $C$DW$611       .dwtag  DW_TAG_member
    7026                      .dwattr $C$DW$611, DW_AT_type(*$C$DW$T$19)
    7027                      .dwattr $C$DW$611, DW_AT_name("GPIO0")
    7028                      .dwattr $C$DW$611, DW_AT_TI_symbol_name("_GPIO0")
    7029                      .dwattr $C$DW$611, DW_AT_bit_offset(0x0f)
    7030                      .dwattr $C$DW$611, DW_AT_bit_size(0x01)
    7031                      .dwattr $C$DW$611, DW_AT_data_member_location[DW_OP_plus_uconst 0x0]
    7032                      .dwattr $C$DW$611, DW_AT_accessibility(DW_ACCESS_public)
    7033              
    7034              $C$DW$612       .dwtag  DW_TAG_member
    7035                      .dwattr $C$DW$612, DW_AT_type(*$C$DW$T$19)
    7036                      .dwattr $C$DW$612, DW_AT_name("GPIO1")
    7037                      .dwattr $C$DW$612, DW_AT_TI_symbol_name("_GPIO1")
    7038                      .dwattr $C$DW$612, DW_AT_bit_offset(0x0e)
    7039                      .dwattr $C$DW$612, DW_AT_bit_size(0x01)
    7040                      .dwattr $C$DW$612, DW_AT_data_member_location[DW_OP_plus_uconst 0x0]
    7041                      .dwattr $C$DW$612, DW_AT_accessibility(DW_ACCESS_public)
    7042              
    7043              $C$DW$613       .dwtag  DW_TAG_member
    7044                      .dwattr $C$DW$613, DW_AT_type(*$C$DW$T$19)
    7045                      .dwattr $C$DW$613, DW_AT_name("GPIO2")
    7046                      .dwattr $C$DW$613, DW_AT_TI_symbol_name("_GPIO2")
    7047                      .dwattr $C$DW$613, DW_AT_bit_offset(0x0d)
    7048                      .dwattr $C$DW$613, DW_AT_bit_size(0x01)
    7049                      .dwattr $C$DW$613, DW_AT_data_member_location[DW_OP_plus_uconst 0x0]
    7050                      .dwattr $C$DW$613, DW_AT_accessibility(DW_ACCESS_public)
    7051              
    7052              $C$DW$614       .dwtag  DW_TAG_member
    7053                      .dwattr $C$DW$614, DW_AT_type(*$C$DW$T$19)
    7054                      .dwattr $C$DW$614, DW_AT_name("GPIO3")
    7055                      .dwattr $C$DW$614, DW_AT_TI_symbol_name("_GPIO3")
    7056                      .dwattr $C$DW$614, DW_AT_bit_offset(0x0c)
    7057                      .dwattr $C$DW$614, DW_AT_bit_size(0x01)
    7058                      .dwattr $C$DW$614, DW_AT_data_member_location[DW_OP_plus_uconst 0x0]
    7059                      .dwattr $C$DW$614, DW_AT_accessibility(DW_ACCESS_public)
    7060              
    7061              $C$DW$615       .dwtag  DW_TAG_member
    7062                      .dwattr $C$DW$615, DW_AT_type(*$C$DW$T$19)
    7063                      .dwattr $C$DW$615, DW_AT_name("GPIO4")
    7064                      .dwattr $C$DW$615, DW_AT_TI_symbol_name("_GPIO4")
    7065                      .dwattr $C$DW$615, DW_AT_bit_offset(0x0b)
    7066                      .dwattr $C$DW$615, DW_AT_bit_size(0x01)
    7067                      .dwattr $C$DW$615, DW_AT_data_member_location[DW_OP_plus_uconst 0x0]
    7068                      .dwattr $C$DW$615, DW_AT_accessibility(DW_ACCESS_public)
    7069              
    7070              $C$DW$616       .dwtag  DW_TAG_member
    7071                      .dwattr $C$DW$616, DW_AT_type(*$C$DW$T$19)
    7072                      .dwattr $C$DW$616, DW_AT_name("GPIO5")
    7073                      .dwattr $C$DW$616, DW_AT_TI_symbol_name("_GPIO5")
    7074                      .dwattr $C$DW$616, DW_AT_bit_offset(0x0a)
TMS320C2000 Assembler PC v16.9.6 Tue Mar 06 18:34:46 2018

Tools Copyright (c) 1996-2017 Texas Instruments Incorporated
C:\Users\Admin\AppData\Local\Temp\{ED9AE313-281A-4435-8F2A-5411619B06A2} PAGE  137

    7075                      .dwattr $C$DW$616, DW_AT_bit_size(0x01)
    7076                      .dwattr $C$DW$616, DW_AT_data_member_location[DW_OP_plus_uconst 0x0]
    7077                      .dwattr $C$DW$616, DW_AT_accessibility(DW_ACCESS_public)
    7078              
    7079              $C$DW$617       .dwtag  DW_TAG_member
    7080                      .dwattr $C$DW$617, DW_AT_type(*$C$DW$T$19)
    7081                      .dwattr $C$DW$617, DW_AT_name("GPIO6")
    7082                      .dwattr $C$DW$617, DW_AT_TI_symbol_name("_GPIO6")
    7083                      .dwattr $C$DW$617, DW_AT_bit_offset(0x09)
    7084                      .dwattr $C$DW$617, DW_AT_bit_size(0x01)
    7085                      .dwattr $C$DW$617, DW_AT_data_member_location[DW_OP_plus_uconst 0x0]
    7086                      .dwattr $C$DW$617, DW_AT_accessibility(DW_ACCESS_public)
    7087              
    7088              $C$DW$618       .dwtag  DW_TAG_member
    7089                      .dwattr $C$DW$618, DW_AT_type(*$C$DW$T$19)
    7090                      .dwattr $C$DW$618, DW_AT_name("GPIO7")
    7091                      .dwattr $C$DW$618, DW_AT_TI_symbol_name("_GPIO7")
    7092                      .dwattr $C$DW$618, DW_AT_bit_offset(0x08)
    7093                      .dwattr $C$DW$618, DW_AT_bit_size(0x01)
    7094                      .dwattr $C$DW$618, DW_AT_data_member_location[DW_OP_plus_uconst 0x0]
    7095                      .dwattr $C$DW$618, DW_AT_accessibility(DW_ACCESS_public)
    7096              
    7097              $C$DW$619       .dwtag  DW_TAG_member
    7098                      .dwattr $C$DW$619, DW_AT_type(*$C$DW$T$19)
    7099                      .dwattr $C$DW$619, DW_AT_name("GPIO8")
    7100                      .dwattr $C$DW$619, DW_AT_TI_symbol_name("_GPIO8")
    7101                      .dwattr $C$DW$619, DW_AT_bit_offset(0x07)
    7102                      .dwattr $C$DW$619, DW_AT_bit_size(0x01)
    7103                      .dwattr $C$DW$619, DW_AT_data_member_location[DW_OP_plus_uconst 0x0]
    7104                      .dwattr $C$DW$619, DW_AT_accessibility(DW_ACCESS_public)
    7105              
    7106              $C$DW$620       .dwtag  DW_TAG_member
    7107                      .dwattr $C$DW$620, DW_AT_type(*$C$DW$T$19)
    7108                      .dwattr $C$DW$620, DW_AT_name("GPIO9")
    7109                      .dwattr $C$DW$620, DW_AT_TI_symbol_name("_GPIO9")
    7110                      .dwattr $C$DW$620, DW_AT_bit_offset(0x06)
    7111                      .dwattr $C$DW$620, DW_AT_bit_size(0x01)
    7112                      .dwattr $C$DW$620, DW_AT_data_member_location[DW_OP_plus_uconst 0x0]
    7113                      .dwattr $C$DW$620, DW_AT_accessibility(DW_ACCESS_public)
    7114              
    7115              $C$DW$621       .dwtag  DW_TAG_member
    7116                      .dwattr $C$DW$621, DW_AT_type(*$C$DW$T$19)
    7117                      .dwattr $C$DW$621, DW_AT_name("GPIO10")
    7118                      .dwattr $C$DW$621, DW_AT_TI_symbol_name("_GPIO10")
    7119                      .dwattr $C$DW$621, DW_AT_bit_offset(0x05)
    7120                      .dwattr $C$DW$621, DW_AT_bit_size(0x01)
    7121                      .dwattr $C$DW$621, DW_AT_data_member_location[DW_OP_plus_uconst 0x0]
    7122                      .dwattr $C$DW$621, DW_AT_accessibility(DW_ACCESS_public)
    7123              
    7124              $C$DW$622       .dwtag  DW_TAG_member
    7125                      .dwattr $C$DW$622, DW_AT_type(*$C$DW$T$19)
    7126                      .dwattr $C$DW$622, DW_AT_name("GPIO11")
    7127                      .dwattr $C$DW$622, DW_AT_TI_symbol_name("_GPIO11")
    7128                      .dwattr $C$DW$622, DW_AT_bit_offset(0x04)
    7129                      .dwattr $C$DW$622, DW_AT_bit_size(0x01)
TMS320C2000 Assembler PC v16.9.6 Tue Mar 06 18:34:46 2018

Tools Copyright (c) 1996-2017 Texas Instruments Incorporated
C:\Users\Admin\AppData\Local\Temp\{ED9AE313-281A-4435-8F2A-5411619B06A2} PAGE  138

    7130                      .dwattr $C$DW$622, DW_AT_data_member_location[DW_OP_plus_uconst 0x0]
    7131                      .dwattr $C$DW$622, DW_AT_accessibility(DW_ACCESS_public)
    7132              
    7133              $C$DW$623       .dwtag  DW_TAG_member
    7134                      .dwattr $C$DW$623, DW_AT_type(*$C$DW$T$19)
    7135                      .dwattr $C$DW$623, DW_AT_name("GPIO12")
    7136                      .dwattr $C$DW$623, DW_AT_TI_symbol_name("_GPIO12")
    7137                      .dwattr $C$DW$623, DW_AT_bit_offset(0x03)
    7138                      .dwattr $C$DW$623, DW_AT_bit_size(0x01)
    7139                      .dwattr $C$DW$623, DW_AT_data_member_location[DW_OP_plus_uconst 0x0]
    7140                      .dwattr $C$DW$623, DW_AT_accessibility(DW_ACCESS_public)
    7141              
    7142              $C$DW$624       .dwtag  DW_TAG_member
    7143                      .dwattr $C$DW$624, DW_AT_type(*$C$DW$T$19)
    7144                      .dwattr $C$DW$624, DW_AT_name("GPIO13")
    7145                      .dwattr $C$DW$624, DW_AT_TI_symbol_name("_GPIO13")
    7146                      .dwattr $C$DW$624, DW_AT_bit_offset(0x02)
    7147                      .dwattr $C$DW$624, DW_AT_bit_size(0x01)
    7148                      .dwattr $C$DW$624, DW_AT_data_member_location[DW_OP_plus_uconst 0x0]
    7149                      .dwattr $C$DW$624, DW_AT_accessibility(DW_ACCESS_public)
    7150              
    7151              $C$DW$625       .dwtag  DW_TAG_member
    7152                      .dwattr $C$DW$625, DW_AT_type(*$C$DW$T$19)
    7153                      .dwattr $C$DW$625, DW_AT_name("GPIO14")
    7154                      .dwattr $C$DW$625, DW_AT_TI_symbol_name("_GPIO14")
    7155                      .dwattr $C$DW$625, DW_AT_bit_offset(0x01)
    7156                      .dwattr $C$DW$625, DW_AT_bit_size(0x01)
    7157                      .dwattr $C$DW$625, DW_AT_data_member_location[DW_OP_plus_uconst 0x0]
    7158                      .dwattr $C$DW$625, DW_AT_accessibility(DW_ACCESS_public)
    7159              
    7160              $C$DW$626       .dwtag  DW_TAG_member
    7161                      .dwattr $C$DW$626, DW_AT_type(*$C$DW$T$19)
    7162                      .dwattr $C$DW$626, DW_AT_name("GPIO15")
    7163                      .dwattr $C$DW$626, DW_AT_TI_symbol_name("_GPIO15")
    7164                      .dwattr $C$DW$626, DW_AT_bit_offset(0x00)
    7165                      .dwattr $C$DW$626, DW_AT_bit_size(0x01)
    7166                      .dwattr $C$DW$626, DW_AT_data_member_location[DW_OP_plus_uconst 0x0]
    7167                      .dwattr $C$DW$626, DW_AT_accessibility(DW_ACCESS_public)
    7168              
    7169              $C$DW$627       .dwtag  DW_TAG_member
    7170                      .dwattr $C$DW$627, DW_AT_type(*$C$DW$T$19)
    7171                      .dwattr $C$DW$627, DW_AT_name("GPIO16")
    7172                      .dwattr $C$DW$627, DW_AT_TI_symbol_name("_GPIO16")
    7173                      .dwattr $C$DW$627, DW_AT_bit_offset(0x0f)
    7174                      .dwattr $C$DW$627, DW_AT_bit_size(0x01)
    7175                      .dwattr $C$DW$627, DW_AT_data_member_location[DW_OP_plus_uconst 0x1]
    7176                      .dwattr $C$DW$627, DW_AT_accessibility(DW_ACCESS_public)
    7177              
    7178              $C$DW$628       .dwtag  DW_TAG_member
    7179                      .dwattr $C$DW$628, DW_AT_type(*$C$DW$T$19)
    7180                      .dwattr $C$DW$628, DW_AT_name("GPIO17")
    7181                      .dwattr $C$DW$628, DW_AT_TI_symbol_name("_GPIO17")
    7182                      .dwattr $C$DW$628, DW_AT_bit_offset(0x0e)
    7183                      .dwattr $C$DW$628, DW_AT_bit_size(0x01)
    7184                      .dwattr $C$DW$628, DW_AT_data_member_location[DW_OP_plus_uconst 0x1]
TMS320C2000 Assembler PC v16.9.6 Tue Mar 06 18:34:46 2018

Tools Copyright (c) 1996-2017 Texas Instruments Incorporated
C:\Users\Admin\AppData\Local\Temp\{ED9AE313-281A-4435-8F2A-5411619B06A2} PAGE  139

    7185                      .dwattr $C$DW$628, DW_AT_accessibility(DW_ACCESS_public)
    7186              
    7187              $C$DW$629       .dwtag  DW_TAG_member
    7188                      .dwattr $C$DW$629, DW_AT_type(*$C$DW$T$19)
    7189                      .dwattr $C$DW$629, DW_AT_name("GPIO18")
    7190                      .dwattr $C$DW$629, DW_AT_TI_symbol_name("_GPIO18")
    7191                      .dwattr $C$DW$629, DW_AT_bit_offset(0x0d)
    7192                      .dwattr $C$DW$629, DW_AT_bit_size(0x01)
    7193                      .dwattr $C$DW$629, DW_AT_data_member_location[DW_OP_plus_uconst 0x1]
    7194                      .dwattr $C$DW$629, DW_AT_accessibility(DW_ACCESS_public)
    7195              
    7196              $C$DW$630       .dwtag  DW_TAG_member
    7197                      .dwattr $C$DW$630, DW_AT_type(*$C$DW$T$19)
    7198                      .dwattr $C$DW$630, DW_AT_name("GPIO19")
    7199                      .dwattr $C$DW$630, DW_AT_TI_symbol_name("_GPIO19")
    7200                      .dwattr $C$DW$630, DW_AT_bit_offset(0x0c)
    7201                      .dwattr $C$DW$630, DW_AT_bit_size(0x01)
    7202                      .dwattr $C$DW$630, DW_AT_data_member_location[DW_OP_plus_uconst 0x1]
    7203                      .dwattr $C$DW$630, DW_AT_accessibility(DW_ACCESS_public)
    7204              
    7205              $C$DW$631       .dwtag  DW_TAG_member
    7206                      .dwattr $C$DW$631, DW_AT_type(*$C$DW$T$19)
    7207                      .dwattr $C$DW$631, DW_AT_name("GPIO20")
    7208                      .dwattr $C$DW$631, DW_AT_TI_symbol_name("_GPIO20")
    7209                      .dwattr $C$DW$631, DW_AT_bit_offset(0x0b)
    7210                      .dwattr $C$DW$631, DW_AT_bit_size(0x01)
    7211                      .dwattr $C$DW$631, DW_AT_data_member_location[DW_OP_plus_uconst 0x1]
    7212                      .dwattr $C$DW$631, DW_AT_accessibility(DW_ACCESS_public)
    7213              
    7214              $C$DW$632       .dwtag  DW_TAG_member
    7215                      .dwattr $C$DW$632, DW_AT_type(*$C$DW$T$19)
    7216                      .dwattr $C$DW$632, DW_AT_name("GPIO21")
    7217                      .dwattr $C$DW$632, DW_AT_TI_symbol_name("_GPIO21")
    7218                      .dwattr $C$DW$632, DW_AT_bit_offset(0x0a)
    7219                      .dwattr $C$DW$632, DW_AT_bit_size(0x01)
    7220                      .dwattr $C$DW$632, DW_AT_data_member_location[DW_OP_plus_uconst 0x1]
    7221                      .dwattr $C$DW$632, DW_AT_accessibility(DW_ACCESS_public)
    7222              
    7223              $C$DW$633       .dwtag  DW_TAG_member
    7224                      .dwattr $C$DW$633, DW_AT_type(*$C$DW$T$19)
    7225                      .dwattr $C$DW$633, DW_AT_name("GPIO22")
    7226                      .dwattr $C$DW$633, DW_AT_TI_symbol_name("_GPIO22")
    7227                      .dwattr $C$DW$633, DW_AT_bit_offset(0x09)
    7228                      .dwattr $C$DW$633, DW_AT_bit_size(0x01)
    7229                      .dwattr $C$DW$633, DW_AT_data_member_location[DW_OP_plus_uconst 0x1]
    7230                      .dwattr $C$DW$633, DW_AT_accessibility(DW_ACCESS_public)
    7231              
    7232              $C$DW$634       .dwtag  DW_TAG_member
    7233                      .dwattr $C$DW$634, DW_AT_type(*$C$DW$T$19)
    7234                      .dwattr $C$DW$634, DW_AT_name("GPIO23")
    7235                      .dwattr $C$DW$634, DW_AT_TI_symbol_name("_GPIO23")
    7236                      .dwattr $C$DW$634, DW_AT_bit_offset(0x08)
    7237                      .dwattr $C$DW$634, DW_AT_bit_size(0x01)
    7238                      .dwattr $C$DW$634, DW_AT_data_member_location[DW_OP_plus_uconst 0x1]
    7239                      .dwattr $C$DW$634, DW_AT_accessibility(DW_ACCESS_public)
TMS320C2000 Assembler PC v16.9.6 Tue Mar 06 18:34:46 2018

Tools Copyright (c) 1996-2017 Texas Instruments Incorporated
C:\Users\Admin\AppData\Local\Temp\{ED9AE313-281A-4435-8F2A-5411619B06A2} PAGE  140

    7240              
    7241              $C$DW$635       .dwtag  DW_TAG_member
    7242                      .dwattr $C$DW$635, DW_AT_type(*$C$DW$T$19)
    7243                      .dwattr $C$DW$635, DW_AT_name("GPIO24")
    7244                      .dwattr $C$DW$635, DW_AT_TI_symbol_name("_GPIO24")
    7245                      .dwattr $C$DW$635, DW_AT_bit_offset(0x07)
    7246                      .dwattr $C$DW$635, DW_AT_bit_size(0x01)
    7247                      .dwattr $C$DW$635, DW_AT_data_member_location[DW_OP_plus_uconst 0x1]
    7248                      .dwattr $C$DW$635, DW_AT_accessibility(DW_ACCESS_public)
    7249              
    7250              $C$DW$636       .dwtag  DW_TAG_member
    7251                      .dwattr $C$DW$636, DW_AT_type(*$C$DW$T$19)
    7252                      .dwattr $C$DW$636, DW_AT_name("GPIO25")
    7253                      .dwattr $C$DW$636, DW_AT_TI_symbol_name("_GPIO25")
    7254                      .dwattr $C$DW$636, DW_AT_bit_offset(0x06)
    7255                      .dwattr $C$DW$636, DW_AT_bit_size(0x01)
    7256                      .dwattr $C$DW$636, DW_AT_data_member_location[DW_OP_plus_uconst 0x1]
    7257                      .dwattr $C$DW$636, DW_AT_accessibility(DW_ACCESS_public)
    7258              
    7259              $C$DW$637       .dwtag  DW_TAG_member
    7260                      .dwattr $C$DW$637, DW_AT_type(*$C$DW$T$19)
    7261                      .dwattr $C$DW$637, DW_AT_name("GPIO26")
    7262                      .dwattr $C$DW$637, DW_AT_TI_symbol_name("_GPIO26")
    7263                      .dwattr $C$DW$637, DW_AT_bit_offset(0x05)
    7264                      .dwattr $C$DW$637, DW_AT_bit_size(0x01)
    7265                      .dwattr $C$DW$637, DW_AT_data_member_location[DW_OP_plus_uconst 0x1]
    7266                      .dwattr $C$DW$637, DW_AT_accessibility(DW_ACCESS_public)
    7267              
    7268              $C$DW$638       .dwtag  DW_TAG_member
    7269                      .dwattr $C$DW$638, DW_AT_type(*$C$DW$T$19)
    7270                      .dwattr $C$DW$638, DW_AT_name("GPIO27")
    7271                      .dwattr $C$DW$638, DW_AT_TI_symbol_name("_GPIO27")
    7272                      .dwattr $C$DW$638, DW_AT_bit_offset(0x04)
    7273                      .dwattr $C$DW$638, DW_AT_bit_size(0x01)
    7274                      .dwattr $C$DW$638, DW_AT_data_member_location[DW_OP_plus_uconst 0x1]
    7275                      .dwattr $C$DW$638, DW_AT_accessibility(DW_ACCESS_public)
    7276              
    7277              $C$DW$639       .dwtag  DW_TAG_member
    7278                      .dwattr $C$DW$639, DW_AT_type(*$C$DW$T$19)
    7279                      .dwattr $C$DW$639, DW_AT_name("GPIO28")
    7280                      .dwattr $C$DW$639, DW_AT_TI_symbol_name("_GPIO28")
    7281                      .dwattr $C$DW$639, DW_AT_bit_offset(0x03)
    7282                      .dwattr $C$DW$639, DW_AT_bit_size(0x01)
    7283                      .dwattr $C$DW$639, DW_AT_data_member_location[DW_OP_plus_uconst 0x1]
    7284                      .dwattr $C$DW$639, DW_AT_accessibility(DW_ACCESS_public)
    7285              
    7286              $C$DW$640       .dwtag  DW_TAG_member
    7287                      .dwattr $C$DW$640, DW_AT_type(*$C$DW$T$19)
    7288                      .dwattr $C$DW$640, DW_AT_name("GPIO29")
    7289                      .dwattr $C$DW$640, DW_AT_TI_symbol_name("_GPIO29")
    7290                      .dwattr $C$DW$640, DW_AT_bit_offset(0x02)
    7291                      .dwattr $C$DW$640, DW_AT_bit_size(0x01)
    7292                      .dwattr $C$DW$640, DW_AT_data_member_location[DW_OP_plus_uconst 0x1]
    7293                      .dwattr $C$DW$640, DW_AT_accessibility(DW_ACCESS_public)
    7294              
TMS320C2000 Assembler PC v16.9.6 Tue Mar 06 18:34:46 2018

Tools Copyright (c) 1996-2017 Texas Instruments Incorporated
C:\Users\Admin\AppData\Local\Temp\{ED9AE313-281A-4435-8F2A-5411619B06A2} PAGE  141

    7295              $C$DW$641       .dwtag  DW_TAG_member
    7296                      .dwattr $C$DW$641, DW_AT_type(*$C$DW$T$19)
    7297                      .dwattr $C$DW$641, DW_AT_name("GPIO30")
    7298                      .dwattr $C$DW$641, DW_AT_TI_symbol_name("_GPIO30")
    7299                      .dwattr $C$DW$641, DW_AT_bit_offset(0x01)
    7300                      .dwattr $C$DW$641, DW_AT_bit_size(0x01)
    7301                      .dwattr $C$DW$641, DW_AT_data_member_location[DW_OP_plus_uconst 0x1]
    7302                      .dwattr $C$DW$641, DW_AT_accessibility(DW_ACCESS_public)
    7303              
    7304              $C$DW$642       .dwtag  DW_TAG_member
    7305                      .dwattr $C$DW$642, DW_AT_type(*$C$DW$T$19)
    7306                      .dwattr $C$DW$642, DW_AT_name("GPIO31")
    7307                      .dwattr $C$DW$642, DW_AT_TI_symbol_name("_GPIO31")
    7308                      .dwattr $C$DW$642, DW_AT_bit_offset(0x00)
    7309                      .dwattr $C$DW$642, DW_AT_bit_size(0x01)
    7310                      .dwattr $C$DW$642, DW_AT_data_member_location[DW_OP_plus_uconst 0x1]
    7311                      .dwattr $C$DW$642, DW_AT_accessibility(DW_ACCESS_public)
    7312              
    7313                      .dwendtag $C$DW$T$110
    7314              
    7315              
    7316              $C$DW$T$111     .dwtag  DW_TAG_union_type
    7317                      .dwattr $C$DW$T$111, DW_AT_name("GPADAT_REG")
    7318                      .dwattr $C$DW$T$111, DW_AT_byte_size(0x02)
    7319              $C$DW$643       .dwtag  DW_TAG_member
    7320                      .dwattr $C$DW$643, DW_AT_type(*$C$DW$T$49)
    7321                      .dwattr $C$DW$643, DW_AT_name("all")
    7322                      .dwattr $C$DW$643, DW_AT_TI_symbol_name("_all")
    7323                      .dwattr $C$DW$643, DW_AT_data_member_location[DW_OP_plus_uconst 0x0]
    7324                      .dwattr $C$DW$643, DW_AT_accessibility(DW_ACCESS_public)
    7325              
    7326              $C$DW$644       .dwtag  DW_TAG_member
    7327                      .dwattr $C$DW$644, DW_AT_type(*$C$DW$T$110)
    7328                      .dwattr $C$DW$644, DW_AT_name("bit")
    7329                      .dwattr $C$DW$644, DW_AT_TI_symbol_name("_bit")
    7330                      .dwattr $C$DW$644, DW_AT_data_member_location[DW_OP_plus_uconst 0x0]
    7331                      .dwattr $C$DW$644, DW_AT_accessibility(DW_ACCESS_public)
    7332              
    7333                      .dwendtag $C$DW$T$111
    7334              
    7335              
    7336              $C$DW$T$112     .dwtag  DW_TAG_structure_type
    7337                      .dwattr $C$DW$T$112, DW_AT_name("GPB1_BITS")
    7338                      .dwattr $C$DW$T$112, DW_AT_byte_size(0x02)
    7339              $C$DW$645       .dwtag  DW_TAG_member
    7340                      .dwattr $C$DW$645, DW_AT_type(*$C$DW$T$19)
    7341                      .dwattr $C$DW$645, DW_AT_name("GPIO32")
    7342                      .dwattr $C$DW$645, DW_AT_TI_symbol_name("_GPIO32")
    7343                      .dwattr $C$DW$645, DW_AT_bit_offset(0x0e)
    7344                      .dwattr $C$DW$645, DW_AT_bit_size(0x02)
    7345                      .dwattr $C$DW$645, DW_AT_data_member_location[DW_OP_plus_uconst 0x0]
    7346                      .dwattr $C$DW$645, DW_AT_accessibility(DW_ACCESS_public)
    7347              
    7348              $C$DW$646       .dwtag  DW_TAG_member
    7349                      .dwattr $C$DW$646, DW_AT_type(*$C$DW$T$19)
TMS320C2000 Assembler PC v16.9.6 Tue Mar 06 18:34:46 2018

Tools Copyright (c) 1996-2017 Texas Instruments Incorporated
C:\Users\Admin\AppData\Local\Temp\{ED9AE313-281A-4435-8F2A-5411619B06A2} PAGE  142

    7350                      .dwattr $C$DW$646, DW_AT_name("GPIO33")
    7351                      .dwattr $C$DW$646, DW_AT_TI_symbol_name("_GPIO33")
    7352                      .dwattr $C$DW$646, DW_AT_bit_offset(0x0c)
    7353                      .dwattr $C$DW$646, DW_AT_bit_size(0x02)
    7354                      .dwattr $C$DW$646, DW_AT_data_member_location[DW_OP_plus_uconst 0x0]
    7355                      .dwattr $C$DW$646, DW_AT_accessibility(DW_ACCESS_public)
    7356              
    7357              $C$DW$647       .dwtag  DW_TAG_member
    7358                      .dwattr $C$DW$647, DW_AT_type(*$C$DW$T$19)
    7359                      .dwattr $C$DW$647, DW_AT_name("GPIO34")
    7360                      .dwattr $C$DW$647, DW_AT_TI_symbol_name("_GPIO34")
    7361                      .dwattr $C$DW$647, DW_AT_bit_offset(0x0a)
    7362                      .dwattr $C$DW$647, DW_AT_bit_size(0x02)
    7363                      .dwattr $C$DW$647, DW_AT_data_member_location[DW_OP_plus_uconst 0x0]
    7364                      .dwattr $C$DW$647, DW_AT_accessibility(DW_ACCESS_public)
    7365              
    7366              $C$DW$648       .dwtag  DW_TAG_member
    7367                      .dwattr $C$DW$648, DW_AT_type(*$C$DW$T$19)
    7368                      .dwattr $C$DW$648, DW_AT_name("GPIO35")
    7369                      .dwattr $C$DW$648, DW_AT_TI_symbol_name("_GPIO35")
    7370                      .dwattr $C$DW$648, DW_AT_bit_offset(0x08)
    7371                      .dwattr $C$DW$648, DW_AT_bit_size(0x02)
    7372                      .dwattr $C$DW$648, DW_AT_data_member_location[DW_OP_plus_uconst 0x0]
    7373                      .dwattr $C$DW$648, DW_AT_accessibility(DW_ACCESS_public)
    7374              
    7375              $C$DW$649       .dwtag  DW_TAG_member
    7376                      .dwattr $C$DW$649, DW_AT_type(*$C$DW$T$19)
    7377                      .dwattr $C$DW$649, DW_AT_name("GPIO36")
    7378                      .dwattr $C$DW$649, DW_AT_TI_symbol_name("_GPIO36")
    7379                      .dwattr $C$DW$649, DW_AT_bit_offset(0x06)
    7380                      .dwattr $C$DW$649, DW_AT_bit_size(0x02)
    7381                      .dwattr $C$DW$649, DW_AT_data_member_location[DW_OP_plus_uconst 0x0]
    7382                      .dwattr $C$DW$649, DW_AT_accessibility(DW_ACCESS_public)
    7383              
    7384              $C$DW$650       .dwtag  DW_TAG_member
    7385                      .dwattr $C$DW$650, DW_AT_type(*$C$DW$T$19)
    7386                      .dwattr $C$DW$650, DW_AT_name("GPIO37")
    7387                      .dwattr $C$DW$650, DW_AT_TI_symbol_name("_GPIO37")
    7388                      .dwattr $C$DW$650, DW_AT_bit_offset(0x04)
    7389                      .dwattr $C$DW$650, DW_AT_bit_size(0x02)
    7390                      .dwattr $C$DW$650, DW_AT_data_member_location[DW_OP_plus_uconst 0x0]
    7391                      .dwattr $C$DW$650, DW_AT_accessibility(DW_ACCESS_public)
    7392              
    7393              $C$DW$651       .dwtag  DW_TAG_member
    7394                      .dwattr $C$DW$651, DW_AT_type(*$C$DW$T$19)
    7395                      .dwattr $C$DW$651, DW_AT_name("GPIO38")
    7396                      .dwattr $C$DW$651, DW_AT_TI_symbol_name("_GPIO38")
    7397                      .dwattr $C$DW$651, DW_AT_bit_offset(0x02)
    7398                      .dwattr $C$DW$651, DW_AT_bit_size(0x02)
    7399                      .dwattr $C$DW$651, DW_AT_data_member_location[DW_OP_plus_uconst 0x0]
    7400                      .dwattr $C$DW$651, DW_AT_accessibility(DW_ACCESS_public)
    7401              
    7402              $C$DW$652       .dwtag  DW_TAG_member
    7403                      .dwattr $C$DW$652, DW_AT_type(*$C$DW$T$19)
    7404                      .dwattr $C$DW$652, DW_AT_name("GPIO39")
TMS320C2000 Assembler PC v16.9.6 Tue Mar 06 18:34:46 2018

Tools Copyright (c) 1996-2017 Texas Instruments Incorporated
C:\Users\Admin\AppData\Local\Temp\{ED9AE313-281A-4435-8F2A-5411619B06A2} PAGE  143

    7405                      .dwattr $C$DW$652, DW_AT_TI_symbol_name("_GPIO39")
    7406                      .dwattr $C$DW$652, DW_AT_bit_offset(0x00)
    7407                      .dwattr $C$DW$652, DW_AT_bit_size(0x02)
    7408                      .dwattr $C$DW$652, DW_AT_data_member_location[DW_OP_plus_uconst 0x0]
    7409                      .dwattr $C$DW$652, DW_AT_accessibility(DW_ACCESS_public)
    7410              
    7411              $C$DW$653       .dwtag  DW_TAG_member
    7412                      .dwattr $C$DW$653, DW_AT_type(*$C$DW$T$19)
    7413                      .dwattr $C$DW$653, DW_AT_name("GPIO40")
    7414                      .dwattr $C$DW$653, DW_AT_TI_symbol_name("_GPIO40")
    7415                      .dwattr $C$DW$653, DW_AT_bit_offset(0x0e)
    7416                      .dwattr $C$DW$653, DW_AT_bit_size(0x02)
    7417                      .dwattr $C$DW$653, DW_AT_data_member_location[DW_OP_plus_uconst 0x1]
    7418                      .dwattr $C$DW$653, DW_AT_accessibility(DW_ACCESS_public)
    7419              
    7420              $C$DW$654       .dwtag  DW_TAG_member
    7421                      .dwattr $C$DW$654, DW_AT_type(*$C$DW$T$19)
    7422                      .dwattr $C$DW$654, DW_AT_name("GPIO41")
    7423                      .dwattr $C$DW$654, DW_AT_TI_symbol_name("_GPIO41")
    7424                      .dwattr $C$DW$654, DW_AT_bit_offset(0x0c)
    7425                      .dwattr $C$DW$654, DW_AT_bit_size(0x02)
    7426                      .dwattr $C$DW$654, DW_AT_data_member_location[DW_OP_plus_uconst 0x1]
    7427                      .dwattr $C$DW$654, DW_AT_accessibility(DW_ACCESS_public)
    7428              
    7429              $C$DW$655       .dwtag  DW_TAG_member
    7430                      .dwattr $C$DW$655, DW_AT_type(*$C$DW$T$19)
    7431                      .dwattr $C$DW$655, DW_AT_name("GPIO42")
    7432                      .dwattr $C$DW$655, DW_AT_TI_symbol_name("_GPIO42")
    7433                      .dwattr $C$DW$655, DW_AT_bit_offset(0x0a)
    7434                      .dwattr $C$DW$655, DW_AT_bit_size(0x02)
    7435                      .dwattr $C$DW$655, DW_AT_data_member_location[DW_OP_plus_uconst 0x1]
    7436                      .dwattr $C$DW$655, DW_AT_accessibility(DW_ACCESS_public)
    7437              
    7438              $C$DW$656       .dwtag  DW_TAG_member
    7439                      .dwattr $C$DW$656, DW_AT_type(*$C$DW$T$19)
    7440                      .dwattr $C$DW$656, DW_AT_name("GPIO43")
    7441                      .dwattr $C$DW$656, DW_AT_TI_symbol_name("_GPIO43")
    7442                      .dwattr $C$DW$656, DW_AT_bit_offset(0x08)
    7443                      .dwattr $C$DW$656, DW_AT_bit_size(0x02)
    7444                      .dwattr $C$DW$656, DW_AT_data_member_location[DW_OP_plus_uconst 0x1]
    7445                      .dwattr $C$DW$656, DW_AT_accessibility(DW_ACCESS_public)
    7446              
    7447              $C$DW$657       .dwtag  DW_TAG_member
    7448                      .dwattr $C$DW$657, DW_AT_type(*$C$DW$T$19)
    7449                      .dwattr $C$DW$657, DW_AT_name("GPIO44")
    7450                      .dwattr $C$DW$657, DW_AT_TI_symbol_name("_GPIO44")
    7451                      .dwattr $C$DW$657, DW_AT_bit_offset(0x06)
    7452                      .dwattr $C$DW$657, DW_AT_bit_size(0x02)
    7453                      .dwattr $C$DW$657, DW_AT_data_member_location[DW_OP_plus_uconst 0x1]
    7454                      .dwattr $C$DW$657, DW_AT_accessibility(DW_ACCESS_public)
    7455              
    7456              $C$DW$658       .dwtag  DW_TAG_member
    7457                      .dwattr $C$DW$658, DW_AT_type(*$C$DW$T$19)
    7458                      .dwattr $C$DW$658, DW_AT_name("rsvd1")
    7459                      .dwattr $C$DW$658, DW_AT_TI_symbol_name("_rsvd1")
TMS320C2000 Assembler PC v16.9.6 Tue Mar 06 18:34:46 2018

Tools Copyright (c) 1996-2017 Texas Instruments Incorporated
C:\Users\Admin\AppData\Local\Temp\{ED9AE313-281A-4435-8F2A-5411619B06A2} PAGE  144

    7460                      .dwattr $C$DW$658, DW_AT_bit_offset(0x00)
    7461                      .dwattr $C$DW$658, DW_AT_bit_size(0x06)
    7462                      .dwattr $C$DW$658, DW_AT_data_member_location[DW_OP_plus_uconst 0x1]
    7463                      .dwattr $C$DW$658, DW_AT_accessibility(DW_ACCESS_public)
    7464              
    7465                      .dwendtag $C$DW$T$112
    7466              
    7467              
    7468              $C$DW$T$113     .dwtag  DW_TAG_union_type
    7469                      .dwattr $C$DW$T$113, DW_AT_name("GPB1_REG")
    7470                      .dwattr $C$DW$T$113, DW_AT_byte_size(0x02)
    7471              $C$DW$659       .dwtag  DW_TAG_member
    7472                      .dwattr $C$DW$659, DW_AT_type(*$C$DW$T$49)
    7473                      .dwattr $C$DW$659, DW_AT_name("all")
    7474                      .dwattr $C$DW$659, DW_AT_TI_symbol_name("_all")
    7475                      .dwattr $C$DW$659, DW_AT_data_member_location[DW_OP_plus_uconst 0x0]
    7476                      .dwattr $C$DW$659, DW_AT_accessibility(DW_ACCESS_public)
    7477              
    7478              $C$DW$660       .dwtag  DW_TAG_member
    7479                      .dwattr $C$DW$660, DW_AT_type(*$C$DW$T$112)
    7480                      .dwattr $C$DW$660, DW_AT_name("bit")
    7481                      .dwattr $C$DW$660, DW_AT_TI_symbol_name("_bit")
    7482                      .dwattr $C$DW$660, DW_AT_data_member_location[DW_OP_plus_uconst 0x0]
    7483                      .dwattr $C$DW$660, DW_AT_accessibility(DW_ACCESS_public)
    7484              
    7485                      .dwendtag $C$DW$T$113
    7486              
    7487              
    7488              $C$DW$T$114     .dwtag  DW_TAG_structure_type
    7489                      .dwattr $C$DW$T$114, DW_AT_name("GPBCTRL_BITS")
    7490                      .dwattr $C$DW$T$114, DW_AT_byte_size(0x02)
    7491              $C$DW$661       .dwtag  DW_TAG_member
    7492                      .dwattr $C$DW$661, DW_AT_type(*$C$DW$T$19)
    7493                      .dwattr $C$DW$661, DW_AT_name("QUALPRD0")
    7494                      .dwattr $C$DW$661, DW_AT_TI_symbol_name("_QUALPRD0")
    7495                      .dwattr $C$DW$661, DW_AT_bit_offset(0x08)
    7496                      .dwattr $C$DW$661, DW_AT_bit_size(0x08)
    7497                      .dwattr $C$DW$661, DW_AT_data_member_location[DW_OP_plus_uconst 0x0]
    7498                      .dwattr $C$DW$661, DW_AT_accessibility(DW_ACCESS_public)
    7499              
    7500              $C$DW$662       .dwtag  DW_TAG_member
    7501                      .dwattr $C$DW$662, DW_AT_type(*$C$DW$T$19)
    7502                      .dwattr $C$DW$662, DW_AT_name("rsvd1")
    7503                      .dwattr $C$DW$662, DW_AT_TI_symbol_name("_rsvd1")
    7504                      .dwattr $C$DW$662, DW_AT_bit_offset(0x00)
    7505                      .dwattr $C$DW$662, DW_AT_bit_size(0x08)
    7506                      .dwattr $C$DW$662, DW_AT_data_member_location[DW_OP_plus_uconst 0x0]
    7507                      .dwattr $C$DW$662, DW_AT_accessibility(DW_ACCESS_public)
    7508              
    7509              $C$DW$663       .dwtag  DW_TAG_member
    7510                      .dwattr $C$DW$663, DW_AT_type(*$C$DW$T$19)
    7511                      .dwattr $C$DW$663, DW_AT_name("rsvd2")
    7512                      .dwattr $C$DW$663, DW_AT_TI_symbol_name("_rsvd2")
    7513                      .dwattr $C$DW$663, DW_AT_bit_offset(0x00)
    7514                      .dwattr $C$DW$663, DW_AT_bit_size(0x10)
TMS320C2000 Assembler PC v16.9.6 Tue Mar 06 18:34:46 2018

Tools Copyright (c) 1996-2017 Texas Instruments Incorporated
C:\Users\Admin\AppData\Local\Temp\{ED9AE313-281A-4435-8F2A-5411619B06A2} PAGE  145

    7515                      .dwattr $C$DW$663, DW_AT_data_member_location[DW_OP_plus_uconst 0x1]
    7516                      .dwattr $C$DW$663, DW_AT_accessibility(DW_ACCESS_public)
    7517              
    7518                      .dwendtag $C$DW$T$114
    7519              
    7520              
    7521              $C$DW$T$115     .dwtag  DW_TAG_union_type
    7522                      .dwattr $C$DW$T$115, DW_AT_name("GPBCTRL_REG")
    7523                      .dwattr $C$DW$T$115, DW_AT_byte_size(0x02)
    7524              $C$DW$664       .dwtag  DW_TAG_member
    7525                      .dwattr $C$DW$664, DW_AT_type(*$C$DW$T$49)
    7526                      .dwattr $C$DW$664, DW_AT_name("all")
    7527                      .dwattr $C$DW$664, DW_AT_TI_symbol_name("_all")
    7528                      .dwattr $C$DW$664, DW_AT_data_member_location[DW_OP_plus_uconst 0x0]
    7529                      .dwattr $C$DW$664, DW_AT_accessibility(DW_ACCESS_public)
    7530              
    7531              $C$DW$665       .dwtag  DW_TAG_member
    7532                      .dwattr $C$DW$665, DW_AT_type(*$C$DW$T$114)
    7533                      .dwattr $C$DW$665, DW_AT_name("bit")
    7534                      .dwattr $C$DW$665, DW_AT_TI_symbol_name("_bit")
    7535                      .dwattr $C$DW$665, DW_AT_data_member_location[DW_OP_plus_uconst 0x0]
    7536                      .dwattr $C$DW$665, DW_AT_accessibility(DW_ACCESS_public)
    7537              
    7538                      .dwendtag $C$DW$T$115
    7539              
    7540              
    7541              $C$DW$T$116     .dwtag  DW_TAG_structure_type
    7542                      .dwattr $C$DW$T$116, DW_AT_name("GPBDAT_BITS")
    7543                      .dwattr $C$DW$T$116, DW_AT_byte_size(0x02)
    7544              $C$DW$666       .dwtag  DW_TAG_member
    7545                      .dwattr $C$DW$666, DW_AT_type(*$C$DW$T$19)
    7546                      .dwattr $C$DW$666, DW_AT_name("GPIO32")
    7547                      .dwattr $C$DW$666, DW_AT_TI_symbol_name("_GPIO32")
    7548                      .dwattr $C$DW$666, DW_AT_bit_offset(0x0f)
    7549                      .dwattr $C$DW$666, DW_AT_bit_size(0x01)
    7550                      .dwattr $C$DW$666, DW_AT_data_member_location[DW_OP_plus_uconst 0x0]
    7551                      .dwattr $C$DW$666, DW_AT_accessibility(DW_ACCESS_public)
    7552              
    7553              $C$DW$667       .dwtag  DW_TAG_member
    7554                      .dwattr $C$DW$667, DW_AT_type(*$C$DW$T$19)
    7555                      .dwattr $C$DW$667, DW_AT_name("GPIO33")
    7556                      .dwattr $C$DW$667, DW_AT_TI_symbol_name("_GPIO33")
    7557                      .dwattr $C$DW$667, DW_AT_bit_offset(0x0e)
    7558                      .dwattr $C$DW$667, DW_AT_bit_size(0x01)
    7559                      .dwattr $C$DW$667, DW_AT_data_member_location[DW_OP_plus_uconst 0x0]
    7560                      .dwattr $C$DW$667, DW_AT_accessibility(DW_ACCESS_public)
    7561              
    7562              $C$DW$668       .dwtag  DW_TAG_member
    7563                      .dwattr $C$DW$668, DW_AT_type(*$C$DW$T$19)
    7564                      .dwattr $C$DW$668, DW_AT_name("GPIO34")
    7565                      .dwattr $C$DW$668, DW_AT_TI_symbol_name("_GPIO34")
    7566                      .dwattr $C$DW$668, DW_AT_bit_offset(0x0d)
    7567                      .dwattr $C$DW$668, DW_AT_bit_size(0x01)
    7568                      .dwattr $C$DW$668, DW_AT_data_member_location[DW_OP_plus_uconst 0x0]
    7569                      .dwattr $C$DW$668, DW_AT_accessibility(DW_ACCESS_public)
TMS320C2000 Assembler PC v16.9.6 Tue Mar 06 18:34:46 2018

Tools Copyright (c) 1996-2017 Texas Instruments Incorporated
C:\Users\Admin\AppData\Local\Temp\{ED9AE313-281A-4435-8F2A-5411619B06A2} PAGE  146

    7570              
    7571              $C$DW$669       .dwtag  DW_TAG_member
    7572                      .dwattr $C$DW$669, DW_AT_type(*$C$DW$T$19)
    7573                      .dwattr $C$DW$669, DW_AT_name("GPIO35")
    7574                      .dwattr $C$DW$669, DW_AT_TI_symbol_name("_GPIO35")
    7575                      .dwattr $C$DW$669, DW_AT_bit_offset(0x0c)
    7576                      .dwattr $C$DW$669, DW_AT_bit_size(0x01)
    7577                      .dwattr $C$DW$669, DW_AT_data_member_location[DW_OP_plus_uconst 0x0]
    7578                      .dwattr $C$DW$669, DW_AT_accessibility(DW_ACCESS_public)
    7579              
    7580              $C$DW$670       .dwtag  DW_TAG_member
    7581                      .dwattr $C$DW$670, DW_AT_type(*$C$DW$T$19)
    7582                      .dwattr $C$DW$670, DW_AT_name("GPIO36")
    7583                      .dwattr $C$DW$670, DW_AT_TI_symbol_name("_GPIO36")
    7584                      .dwattr $C$DW$670, DW_AT_bit_offset(0x0b)
    7585                      .dwattr $C$DW$670, DW_AT_bit_size(0x01)
    7586                      .dwattr $C$DW$670, DW_AT_data_member_location[DW_OP_plus_uconst 0x0]
    7587                      .dwattr $C$DW$670, DW_AT_accessibility(DW_ACCESS_public)
    7588              
    7589              $C$DW$671       .dwtag  DW_TAG_member
    7590                      .dwattr $C$DW$671, DW_AT_type(*$C$DW$T$19)
    7591                      .dwattr $C$DW$671, DW_AT_name("GPIO37")
    7592                      .dwattr $C$DW$671, DW_AT_TI_symbol_name("_GPIO37")
    7593                      .dwattr $C$DW$671, DW_AT_bit_offset(0x0a)
    7594                      .dwattr $C$DW$671, DW_AT_bit_size(0x01)
    7595                      .dwattr $C$DW$671, DW_AT_data_member_location[DW_OP_plus_uconst 0x0]
    7596                      .dwattr $C$DW$671, DW_AT_accessibility(DW_ACCESS_public)
    7597              
    7598              $C$DW$672       .dwtag  DW_TAG_member
    7599                      .dwattr $C$DW$672, DW_AT_type(*$C$DW$T$19)
    7600                      .dwattr $C$DW$672, DW_AT_name("GPIO38")
    7601                      .dwattr $C$DW$672, DW_AT_TI_symbol_name("_GPIO38")
    7602                      .dwattr $C$DW$672, DW_AT_bit_offset(0x09)
    7603                      .dwattr $C$DW$672, DW_AT_bit_size(0x01)
    7604                      .dwattr $C$DW$672, DW_AT_data_member_location[DW_OP_plus_uconst 0x0]
    7605                      .dwattr $C$DW$672, DW_AT_accessibility(DW_ACCESS_public)
    7606              
    7607              $C$DW$673       .dwtag  DW_TAG_member
    7608                      .dwattr $C$DW$673, DW_AT_type(*$C$DW$T$19)
    7609                      .dwattr $C$DW$673, DW_AT_name("GPIO39")
    7610                      .dwattr $C$DW$673, DW_AT_TI_symbol_name("_GPIO39")
    7611                      .dwattr $C$DW$673, DW_AT_bit_offset(0x08)
    7612                      .dwattr $C$DW$673, DW_AT_bit_size(0x01)
    7613                      .dwattr $C$DW$673, DW_AT_data_member_location[DW_OP_plus_uconst 0x0]
    7614                      .dwattr $C$DW$673, DW_AT_accessibility(DW_ACCESS_public)
    7615              
    7616              $C$DW$674       .dwtag  DW_TAG_member
    7617                      .dwattr $C$DW$674, DW_AT_type(*$C$DW$T$19)
    7618                      .dwattr $C$DW$674, DW_AT_name("GPIO40")
    7619                      .dwattr $C$DW$674, DW_AT_TI_symbol_name("_GPIO40")
    7620                      .dwattr $C$DW$674, DW_AT_bit_offset(0x07)
    7621                      .dwattr $C$DW$674, DW_AT_bit_size(0x01)
    7622                      .dwattr $C$DW$674, DW_AT_data_member_location[DW_OP_plus_uconst 0x0]
    7623                      .dwattr $C$DW$674, DW_AT_accessibility(DW_ACCESS_public)
    7624              
TMS320C2000 Assembler PC v16.9.6 Tue Mar 06 18:34:46 2018

Tools Copyright (c) 1996-2017 Texas Instruments Incorporated
C:\Users\Admin\AppData\Local\Temp\{ED9AE313-281A-4435-8F2A-5411619B06A2} PAGE  147

    7625              $C$DW$675       .dwtag  DW_TAG_member
    7626                      .dwattr $C$DW$675, DW_AT_type(*$C$DW$T$19)
    7627                      .dwattr $C$DW$675, DW_AT_name("GPIO41")
    7628                      .dwattr $C$DW$675, DW_AT_TI_symbol_name("_GPIO41")
    7629                      .dwattr $C$DW$675, DW_AT_bit_offset(0x06)
    7630                      .dwattr $C$DW$675, DW_AT_bit_size(0x01)
    7631                      .dwattr $C$DW$675, DW_AT_data_member_location[DW_OP_plus_uconst 0x0]
    7632                      .dwattr $C$DW$675, DW_AT_accessibility(DW_ACCESS_public)
    7633              
    7634              $C$DW$676       .dwtag  DW_TAG_member
    7635                      .dwattr $C$DW$676, DW_AT_type(*$C$DW$T$19)
    7636                      .dwattr $C$DW$676, DW_AT_name("GPIO42")
    7637                      .dwattr $C$DW$676, DW_AT_TI_symbol_name("_GPIO42")
    7638                      .dwattr $C$DW$676, DW_AT_bit_offset(0x05)
    7639                      .dwattr $C$DW$676, DW_AT_bit_size(0x01)
    7640                      .dwattr $C$DW$676, DW_AT_data_member_location[DW_OP_plus_uconst 0x0]
    7641                      .dwattr $C$DW$676, DW_AT_accessibility(DW_ACCESS_public)
    7642              
    7643              $C$DW$677       .dwtag  DW_TAG_member
    7644                      .dwattr $C$DW$677, DW_AT_type(*$C$DW$T$19)
    7645                      .dwattr $C$DW$677, DW_AT_name("GPIO43")
    7646                      .dwattr $C$DW$677, DW_AT_TI_symbol_name("_GPIO43")
    7647                      .dwattr $C$DW$677, DW_AT_bit_offset(0x04)
    7648                      .dwattr $C$DW$677, DW_AT_bit_size(0x01)
    7649                      .dwattr $C$DW$677, DW_AT_data_member_location[DW_OP_plus_uconst 0x0]
    7650                      .dwattr $C$DW$677, DW_AT_accessibility(DW_ACCESS_public)
    7651              
    7652              $C$DW$678       .dwtag  DW_TAG_member
    7653                      .dwattr $C$DW$678, DW_AT_type(*$C$DW$T$19)
    7654                      .dwattr $C$DW$678, DW_AT_name("GPIO44")
    7655                      .dwattr $C$DW$678, DW_AT_TI_symbol_name("_GPIO44")
    7656                      .dwattr $C$DW$678, DW_AT_bit_offset(0x03)
    7657                      .dwattr $C$DW$678, DW_AT_bit_size(0x01)
    7658                      .dwattr $C$DW$678, DW_AT_data_member_location[DW_OP_plus_uconst 0x0]
    7659                      .dwattr $C$DW$678, DW_AT_accessibility(DW_ACCESS_public)
    7660              
    7661              $C$DW$679       .dwtag  DW_TAG_member
    7662                      .dwattr $C$DW$679, DW_AT_type(*$C$DW$T$19)
    7663                      .dwattr $C$DW$679, DW_AT_name("rsvd1")
    7664                      .dwattr $C$DW$679, DW_AT_TI_symbol_name("_rsvd1")
    7665                      .dwattr $C$DW$679, DW_AT_bit_offset(0x00)
    7666                      .dwattr $C$DW$679, DW_AT_bit_size(0x03)
    7667                      .dwattr $C$DW$679, DW_AT_data_member_location[DW_OP_plus_uconst 0x0]
    7668                      .dwattr $C$DW$679, DW_AT_accessibility(DW_ACCESS_public)
    7669              
    7670              $C$DW$680       .dwtag  DW_TAG_member
    7671                      .dwattr $C$DW$680, DW_AT_type(*$C$DW$T$19)
    7672                      .dwattr $C$DW$680, DW_AT_name("rsvd2")
    7673                      .dwattr $C$DW$680, DW_AT_TI_symbol_name("_rsvd2")
    7674                      .dwattr $C$DW$680, DW_AT_bit_offset(0x00)
    7675                      .dwattr $C$DW$680, DW_AT_bit_size(0x10)
    7676                      .dwattr $C$DW$680, DW_AT_data_member_location[DW_OP_plus_uconst 0x1]
    7677                      .dwattr $C$DW$680, DW_AT_accessibility(DW_ACCESS_public)
    7678              
    7679                      .dwendtag $C$DW$T$116
TMS320C2000 Assembler PC v16.9.6 Tue Mar 06 18:34:46 2018

Tools Copyright (c) 1996-2017 Texas Instruments Incorporated
C:\Users\Admin\AppData\Local\Temp\{ED9AE313-281A-4435-8F2A-5411619B06A2} PAGE  148

    7680              
    7681              
    7682              $C$DW$T$117     .dwtag  DW_TAG_union_type
    7683                      .dwattr $C$DW$T$117, DW_AT_name("GPBDAT_REG")
    7684                      .dwattr $C$DW$T$117, DW_AT_byte_size(0x02)
    7685              $C$DW$681       .dwtag  DW_TAG_member
    7686                      .dwattr $C$DW$681, DW_AT_type(*$C$DW$T$49)
    7687                      .dwattr $C$DW$681, DW_AT_name("all")
    7688                      .dwattr $C$DW$681, DW_AT_TI_symbol_name("_all")
    7689                      .dwattr $C$DW$681, DW_AT_data_member_location[DW_OP_plus_uconst 0x0]
    7690                      .dwattr $C$DW$681, DW_AT_accessibility(DW_ACCESS_public)
    7691              
    7692              $C$DW$682       .dwtag  DW_TAG_member
    7693                      .dwattr $C$DW$682, DW_AT_type(*$C$DW$T$116)
    7694                      .dwattr $C$DW$682, DW_AT_name("bit")
    7695                      .dwattr $C$DW$682, DW_AT_TI_symbol_name("_bit")
    7696                      .dwattr $C$DW$682, DW_AT_data_member_location[DW_OP_plus_uconst 0x0]
    7697                      .dwattr $C$DW$682, DW_AT_accessibility(DW_ACCESS_public)
    7698              
    7699                      .dwendtag $C$DW$T$117
    7700              
    7701              
    7702              $C$DW$T$120     .dwtag  DW_TAG_structure_type
    7703                      .dwattr $C$DW$T$120, DW_AT_name("GPIO_CTRL_REGS")
    7704                      .dwattr $C$DW$T$120, DW_AT_byte_size(0x40)
    7705              $C$DW$683       .dwtag  DW_TAG_member
    7706                      .dwattr $C$DW$683, DW_AT_type(*$C$DW$T$109)
    7707                      .dwattr $C$DW$683, DW_AT_name("GPACTRL")
    7708                      .dwattr $C$DW$683, DW_AT_TI_symbol_name("_GPACTRL")
    7709                      .dwattr $C$DW$683, DW_AT_data_member_location[DW_OP_plus_uconst 0x0]
    7710                      .dwattr $C$DW$683, DW_AT_accessibility(DW_ACCESS_public)
    7711              
    7712              $C$DW$684       .dwtag  DW_TAG_member
    7713                      .dwattr $C$DW$684, DW_AT_type(*$C$DW$T$105)
    7714                      .dwattr $C$DW$684, DW_AT_name("GPAQSEL1")
    7715                      .dwattr $C$DW$684, DW_AT_TI_symbol_name("_GPAQSEL1")
    7716                      .dwattr $C$DW$684, DW_AT_data_member_location[DW_OP_plus_uconst 0x2]
    7717                      .dwattr $C$DW$684, DW_AT_accessibility(DW_ACCESS_public)
    7718              
    7719              $C$DW$685       .dwtag  DW_TAG_member
    7720                      .dwattr $C$DW$685, DW_AT_type(*$C$DW$T$107)
    7721                      .dwattr $C$DW$685, DW_AT_name("GPAQSEL2")
    7722                      .dwattr $C$DW$685, DW_AT_TI_symbol_name("_GPAQSEL2")
    7723                      .dwattr $C$DW$685, DW_AT_data_member_location[DW_OP_plus_uconst 0x4]
    7724                      .dwattr $C$DW$685, DW_AT_accessibility(DW_ACCESS_public)
    7725              
    7726              $C$DW$686       .dwtag  DW_TAG_member
    7727                      .dwattr $C$DW$686, DW_AT_type(*$C$DW$T$105)
    7728                      .dwattr $C$DW$686, DW_AT_name("GPAMUX1")
    7729                      .dwattr $C$DW$686, DW_AT_TI_symbol_name("_GPAMUX1")
    7730                      .dwattr $C$DW$686, DW_AT_data_member_location[DW_OP_plus_uconst 0x6]
    7731                      .dwattr $C$DW$686, DW_AT_accessibility(DW_ACCESS_public)
    7732              
    7733              $C$DW$687       .dwtag  DW_TAG_member
    7734                      .dwattr $C$DW$687, DW_AT_type(*$C$DW$T$107)
TMS320C2000 Assembler PC v16.9.6 Tue Mar 06 18:34:46 2018

Tools Copyright (c) 1996-2017 Texas Instruments Incorporated
C:\Users\Admin\AppData\Local\Temp\{ED9AE313-281A-4435-8F2A-5411619B06A2} PAGE  149

    7735                      .dwattr $C$DW$687, DW_AT_name("GPAMUX2")
    7736                      .dwattr $C$DW$687, DW_AT_TI_symbol_name("_GPAMUX2")
    7737                      .dwattr $C$DW$687, DW_AT_data_member_location[DW_OP_plus_uconst 0x8]
    7738                      .dwattr $C$DW$687, DW_AT_accessibility(DW_ACCESS_public)
    7739              
    7740              $C$DW$688       .dwtag  DW_TAG_member
    7741                      .dwattr $C$DW$688, DW_AT_type(*$C$DW$T$111)
    7742                      .dwattr $C$DW$688, DW_AT_name("GPADIR")
    7743                      .dwattr $C$DW$688, DW_AT_TI_symbol_name("_GPADIR")
    7744                      .dwattr $C$DW$688, DW_AT_data_member_location[DW_OP_plus_uconst 0xa]
    7745                      .dwattr $C$DW$688, DW_AT_accessibility(DW_ACCESS_public)
    7746              
    7747              $C$DW$689       .dwtag  DW_TAG_member
    7748                      .dwattr $C$DW$689, DW_AT_type(*$C$DW$T$111)
    7749                      .dwattr $C$DW$689, DW_AT_name("GPAPUD")
    7750                      .dwattr $C$DW$689, DW_AT_TI_symbol_name("_GPAPUD")
    7751                      .dwattr $C$DW$689, DW_AT_data_member_location[DW_OP_plus_uconst 0xc]
    7752                      .dwattr $C$DW$689, DW_AT_accessibility(DW_ACCESS_public)
    7753              
    7754              $C$DW$690       .dwtag  DW_TAG_member
    7755                      .dwattr $C$DW$690, DW_AT_type(*$C$DW$T$49)
    7756                      .dwattr $C$DW$690, DW_AT_name("rsvd1")
    7757                      .dwattr $C$DW$690, DW_AT_TI_symbol_name("_rsvd1")
    7758                      .dwattr $C$DW$690, DW_AT_data_member_location[DW_OP_plus_uconst 0xe]
    7759                      .dwattr $C$DW$690, DW_AT_accessibility(DW_ACCESS_public)
    7760              
    7761              $C$DW$691       .dwtag  DW_TAG_member
    7762                      .dwattr $C$DW$691, DW_AT_type(*$C$DW$T$115)
    7763                      .dwattr $C$DW$691, DW_AT_name("GPBCTRL")
    7764                      .dwattr $C$DW$691, DW_AT_TI_symbol_name("_GPBCTRL")
    7765                      .dwattr $C$DW$691, DW_AT_data_member_location[DW_OP_plus_uconst 0x10]
    7766                      .dwattr $C$DW$691, DW_AT_accessibility(DW_ACCESS_public)
    7767              
    7768              $C$DW$692       .dwtag  DW_TAG_member
    7769                      .dwattr $C$DW$692, DW_AT_type(*$C$DW$T$113)
    7770                      .dwattr $C$DW$692, DW_AT_name("GPBQSEL1")
    7771                      .dwattr $C$DW$692, DW_AT_TI_symbol_name("_GPBQSEL1")
    7772                      .dwattr $C$DW$692, DW_AT_data_member_location[DW_OP_plus_uconst 0x12]
    7773                      .dwattr $C$DW$692, DW_AT_accessibility(DW_ACCESS_public)
    7774              
    7775              $C$DW$693       .dwtag  DW_TAG_member
    7776                      .dwattr $C$DW$693, DW_AT_type(*$C$DW$T$49)
    7777                      .dwattr $C$DW$693, DW_AT_name("rsvd2")
    7778                      .dwattr $C$DW$693, DW_AT_TI_symbol_name("_rsvd2")
    7779                      .dwattr $C$DW$693, DW_AT_data_member_location[DW_OP_plus_uconst 0x14]
    7780                      .dwattr $C$DW$693, DW_AT_accessibility(DW_ACCESS_public)
    7781              
    7782              $C$DW$694       .dwtag  DW_TAG_member
    7783                      .dwattr $C$DW$694, DW_AT_type(*$C$DW$T$113)
    7784                      .dwattr $C$DW$694, DW_AT_name("GPBMUX1")
    7785                      .dwattr $C$DW$694, DW_AT_TI_symbol_name("_GPBMUX1")
    7786                      .dwattr $C$DW$694, DW_AT_data_member_location[DW_OP_plus_uconst 0x16]
    7787                      .dwattr $C$DW$694, DW_AT_accessibility(DW_ACCESS_public)
    7788              
    7789              $C$DW$695       .dwtag  DW_TAG_member
TMS320C2000 Assembler PC v16.9.6 Tue Mar 06 18:34:46 2018

Tools Copyright (c) 1996-2017 Texas Instruments Incorporated
C:\Users\Admin\AppData\Local\Temp\{ED9AE313-281A-4435-8F2A-5411619B06A2} PAGE  150

    7790                      .dwattr $C$DW$695, DW_AT_type(*$C$DW$T$49)
    7791                      .dwattr $C$DW$695, DW_AT_name("rsvd3")
    7792                      .dwattr $C$DW$695, DW_AT_TI_symbol_name("_rsvd3")
    7793                      .dwattr $C$DW$695, DW_AT_data_member_location[DW_OP_plus_uconst 0x18]
    7794                      .dwattr $C$DW$695, DW_AT_accessibility(DW_ACCESS_public)
    7795              
    7796              $C$DW$696       .dwtag  DW_TAG_member
    7797                      .dwattr $C$DW$696, DW_AT_type(*$C$DW$T$117)
    7798                      .dwattr $C$DW$696, DW_AT_name("GPBDIR")
    7799                      .dwattr $C$DW$696, DW_AT_TI_symbol_name("_GPBDIR")
    7800                      .dwattr $C$DW$696, DW_AT_data_member_location[DW_OP_plus_uconst 0x1a]
    7801                      .dwattr $C$DW$696, DW_AT_accessibility(DW_ACCESS_public)
    7802              
    7803              $C$DW$697       .dwtag  DW_TAG_member
    7804                      .dwattr $C$DW$697, DW_AT_type(*$C$DW$T$117)
    7805                      .dwattr $C$DW$697, DW_AT_name("GPBPUD")
    7806                      .dwattr $C$DW$697, DW_AT_TI_symbol_name("_GPBPUD")
    7807                      .dwattr $C$DW$697, DW_AT_data_member_location[DW_OP_plus_uconst 0x1c]
    7808                      .dwattr $C$DW$697, DW_AT_accessibility(DW_ACCESS_public)
    7809              
    7810              $C$DW$698       .dwtag  DW_TAG_member
    7811                      .dwattr $C$DW$698, DW_AT_type(*$C$DW$T$118)
    7812                      .dwattr $C$DW$698, DW_AT_name("rsvd4")
    7813                      .dwattr $C$DW$698, DW_AT_TI_symbol_name("_rsvd4")
    7814                      .dwattr $C$DW$698, DW_AT_data_member_location[DW_OP_plus_uconst 0x1e]
    7815                      .dwattr $C$DW$698, DW_AT_accessibility(DW_ACCESS_public)
    7816              
    7817              $C$DW$699       .dwtag  DW_TAG_member
    7818                      .dwattr $C$DW$699, DW_AT_type(*$C$DW$T$50)
    7819                      .dwattr $C$DW$699, DW_AT_name("AIOMUX1")
    7820                      .dwattr $C$DW$699, DW_AT_TI_symbol_name("_AIOMUX1")
    7821                      .dwattr $C$DW$699, DW_AT_data_member_location[DW_OP_plus_uconst 0x36]
    7822                      .dwattr $C$DW$699, DW_AT_accessibility(DW_ACCESS_public)
    7823              
    7824              $C$DW$700       .dwtag  DW_TAG_member
    7825                      .dwattr $C$DW$700, DW_AT_type(*$C$DW$T$49)
    7826                      .dwattr $C$DW$700, DW_AT_name("rsvd5")
    7827                      .dwattr $C$DW$700, DW_AT_TI_symbol_name("_rsvd5")
    7828                      .dwattr $C$DW$700, DW_AT_data_member_location[DW_OP_plus_uconst 0x38]
    7829                      .dwattr $C$DW$700, DW_AT_accessibility(DW_ACCESS_public)
    7830              
    7831              $C$DW$701       .dwtag  DW_TAG_member
    7832                      .dwattr $C$DW$701, DW_AT_type(*$C$DW$T$47)
    7833                      .dwattr $C$DW$701, DW_AT_name("AIODIR")
    7834                      .dwattr $C$DW$701, DW_AT_TI_symbol_name("_AIODIR")
    7835                      .dwattr $C$DW$701, DW_AT_data_member_location[DW_OP_plus_uconst 0x3a]
    7836                      .dwattr $C$DW$701, DW_AT_accessibility(DW_ACCESS_public)
    7837              
    7838              $C$DW$702       .dwtag  DW_TAG_member
    7839                      .dwattr $C$DW$702, DW_AT_type(*$C$DW$T$119)
    7840                      .dwattr $C$DW$702, DW_AT_name("rsvd6")
    7841                      .dwattr $C$DW$702, DW_AT_TI_symbol_name("_rsvd6")
    7842                      .dwattr $C$DW$702, DW_AT_data_member_location[DW_OP_plus_uconst 0x3b]
    7843                      .dwattr $C$DW$702, DW_AT_accessibility(DW_ACCESS_public)
    7844              
TMS320C2000 Assembler PC v16.9.6 Tue Mar 06 18:34:46 2018

Tools Copyright (c) 1996-2017 Texas Instruments Incorporated
C:\Users\Admin\AppData\Local\Temp\{ED9AE313-281A-4435-8F2A-5411619B06A2} PAGE  151

    7845                      .dwendtag $C$DW$T$120
    7846              
    7847              $C$DW$703       .dwtag  DW_TAG_TI_far_type
    7848                      .dwattr $C$DW$703, DW_AT_type(*$C$DW$T$120)
    7849              
    7850              $C$DW$T$250     .dwtag  DW_TAG_volatile_type
    7851                      .dwattr $C$DW$T$250, DW_AT_type(*$C$DW$703)
    7852              
    7853              
    7854              $C$DW$T$121     .dwtag  DW_TAG_structure_type
    7855                      .dwattr $C$DW$T$121, DW_AT_name("GPIO_DATA_REGS")
    7856                      .dwattr $C$DW$T$121, DW_AT_byte_size(0x20)
    7857              $C$DW$704       .dwtag  DW_TAG_member
    7858                      .dwattr $C$DW$704, DW_AT_type(*$C$DW$T$111)
    7859                      .dwattr $C$DW$704, DW_AT_name("GPADAT")
    7860                      .dwattr $C$DW$704, DW_AT_TI_symbol_name("_GPADAT")
    7861                      .dwattr $C$DW$704, DW_AT_data_member_location[DW_OP_plus_uconst 0x0]
    7862                      .dwattr $C$DW$704, DW_AT_accessibility(DW_ACCESS_public)
    7863              
    7864              $C$DW$705       .dwtag  DW_TAG_member
    7865                      .dwattr $C$DW$705, DW_AT_type(*$C$DW$T$111)
    7866                      .dwattr $C$DW$705, DW_AT_name("GPASET")
    7867                      .dwattr $C$DW$705, DW_AT_TI_symbol_name("_GPASET")
    7868                      .dwattr $C$DW$705, DW_AT_data_member_location[DW_OP_plus_uconst 0x2]
    7869                      .dwattr $C$DW$705, DW_AT_accessibility(DW_ACCESS_public)
    7870              
    7871              $C$DW$706       .dwtag  DW_TAG_member
    7872                      .dwattr $C$DW$706, DW_AT_type(*$C$DW$T$111)
    7873                      .dwattr $C$DW$706, DW_AT_name("GPACLEAR")
    7874                      .dwattr $C$DW$706, DW_AT_TI_symbol_name("_GPACLEAR")
    7875                      .dwattr $C$DW$706, DW_AT_data_member_location[DW_OP_plus_uconst 0x4]
    7876                      .dwattr $C$DW$706, DW_AT_accessibility(DW_ACCESS_public)
    7877              
    7878              $C$DW$707       .dwtag  DW_TAG_member
    7879                      .dwattr $C$DW$707, DW_AT_type(*$C$DW$T$111)
    7880                      .dwattr $C$DW$707, DW_AT_name("GPATOGGLE")
    7881                      .dwattr $C$DW$707, DW_AT_TI_symbol_name("_GPATOGGLE")
    7882                      .dwattr $C$DW$707, DW_AT_data_member_location[DW_OP_plus_uconst 0x6]
    7883                      .dwattr $C$DW$707, DW_AT_accessibility(DW_ACCESS_public)
    7884              
    7885              $C$DW$708       .dwtag  DW_TAG_member
    7886                      .dwattr $C$DW$708, DW_AT_type(*$C$DW$T$117)
    7887                      .dwattr $C$DW$708, DW_AT_name("GPBDAT")
    7888                      .dwattr $C$DW$708, DW_AT_TI_symbol_name("_GPBDAT")
    7889                      .dwattr $C$DW$708, DW_AT_data_member_location[DW_OP_plus_uconst 0x8]
    7890                      .dwattr $C$DW$708, DW_AT_accessibility(DW_ACCESS_public)
    7891              
    7892              $C$DW$709       .dwtag  DW_TAG_member
    7893                      .dwattr $C$DW$709, DW_AT_type(*$C$DW$T$117)
    7894                      .dwattr $C$DW$709, DW_AT_name("GPBSET")
    7895                      .dwattr $C$DW$709, DW_AT_TI_symbol_name("_GPBSET")
    7896                      .dwattr $C$DW$709, DW_AT_data_member_location[DW_OP_plus_uconst 0xa]
    7897                      .dwattr $C$DW$709, DW_AT_accessibility(DW_ACCESS_public)
    7898              
    7899              $C$DW$710       .dwtag  DW_TAG_member
TMS320C2000 Assembler PC v16.9.6 Tue Mar 06 18:34:46 2018

Tools Copyright (c) 1996-2017 Texas Instruments Incorporated
C:\Users\Admin\AppData\Local\Temp\{ED9AE313-281A-4435-8F2A-5411619B06A2} PAGE  152

    7900                      .dwattr $C$DW$710, DW_AT_type(*$C$DW$T$117)
    7901                      .dwattr $C$DW$710, DW_AT_name("GPBCLEAR")
    7902                      .dwattr $C$DW$710, DW_AT_TI_symbol_name("_GPBCLEAR")
    7903                      .dwattr $C$DW$710, DW_AT_data_member_location[DW_OP_plus_uconst 0xc]
    7904                      .dwattr $C$DW$710, DW_AT_accessibility(DW_ACCESS_public)
    7905              
    7906              $C$DW$711       .dwtag  DW_TAG_member
    7907                      .dwattr $C$DW$711, DW_AT_type(*$C$DW$T$117)
    7908                      .dwattr $C$DW$711, DW_AT_name("GPBTOGGLE")
    7909                      .dwattr $C$DW$711, DW_AT_TI_symbol_name("_GPBTOGGLE")
    7910                      .dwattr $C$DW$711, DW_AT_data_member_location[DW_OP_plus_uconst 0xe]
    7911                      .dwattr $C$DW$711, DW_AT_accessibility(DW_ACCESS_public)
    7912              
    7913              $C$DW$712       .dwtag  DW_TAG_member
    7914                      .dwattr $C$DW$712, DW_AT_type(*$C$DW$T$81)
    7915                      .dwattr $C$DW$712, DW_AT_name("rsvd1")
    7916                      .dwattr $C$DW$712, DW_AT_TI_symbol_name("_rsvd1")
    7917                      .dwattr $C$DW$712, DW_AT_data_member_location[DW_OP_plus_uconst 0x10]
    7918                      .dwattr $C$DW$712, DW_AT_accessibility(DW_ACCESS_public)
    7919              
    7920              $C$DW$713       .dwtag  DW_TAG_member
    7921                      .dwattr $C$DW$713, DW_AT_type(*$C$DW$T$47)
    7922                      .dwattr $C$DW$713, DW_AT_name("AIODAT")
    7923                      .dwattr $C$DW$713, DW_AT_TI_symbol_name("_AIODAT")
    7924                      .dwattr $C$DW$713, DW_AT_data_member_location[DW_OP_plus_uconst 0x18]
    7925                      .dwattr $C$DW$713, DW_AT_accessibility(DW_ACCESS_public)
    7926              
    7927              $C$DW$714       .dwtag  DW_TAG_member
    7928                      .dwattr $C$DW$714, DW_AT_type(*$C$DW$T$19)
    7929                      .dwattr $C$DW$714, DW_AT_name("rsvd2")
    7930                      .dwattr $C$DW$714, DW_AT_TI_symbol_name("_rsvd2")
    7931                      .dwattr $C$DW$714, DW_AT_data_member_location[DW_OP_plus_uconst 0x19]
    7932                      .dwattr $C$DW$714, DW_AT_accessibility(DW_ACCESS_public)
    7933              
    7934              $C$DW$715       .dwtag  DW_TAG_member
    7935                      .dwattr $C$DW$715, DW_AT_type(*$C$DW$T$47)
    7936                      .dwattr $C$DW$715, DW_AT_name("AIOSET")
    7937                      .dwattr $C$DW$715, DW_AT_TI_symbol_name("_AIOSET")
    7938                      .dwattr $C$DW$715, DW_AT_data_member_location[DW_OP_plus_uconst 0x1a]
    7939                      .dwattr $C$DW$715, DW_AT_accessibility(DW_ACCESS_public)
    7940              
    7941              $C$DW$716       .dwtag  DW_TAG_member
    7942                      .dwattr $C$DW$716, DW_AT_type(*$C$DW$T$19)
    7943                      .dwattr $C$DW$716, DW_AT_name("rsvd3")
    7944                      .dwattr $C$DW$716, DW_AT_TI_symbol_name("_rsvd3")
    7945                      .dwattr $C$DW$716, DW_AT_data_member_location[DW_OP_plus_uconst 0x1b]
    7946                      .dwattr $C$DW$716, DW_AT_accessibility(DW_ACCESS_public)
    7947              
    7948              $C$DW$717       .dwtag  DW_TAG_member
    7949                      .dwattr $C$DW$717, DW_AT_type(*$C$DW$T$47)
    7950                      .dwattr $C$DW$717, DW_AT_name("AIOCLEAR")
    7951                      .dwattr $C$DW$717, DW_AT_TI_symbol_name("_AIOCLEAR")
    7952                      .dwattr $C$DW$717, DW_AT_data_member_location[DW_OP_plus_uconst 0x1c]
    7953                      .dwattr $C$DW$717, DW_AT_accessibility(DW_ACCESS_public)
    7954              
TMS320C2000 Assembler PC v16.9.6 Tue Mar 06 18:34:46 2018

Tools Copyright (c) 1996-2017 Texas Instruments Incorporated
C:\Users\Admin\AppData\Local\Temp\{ED9AE313-281A-4435-8F2A-5411619B06A2} PAGE  153

    7955              $C$DW$718       .dwtag  DW_TAG_member
    7956                      .dwattr $C$DW$718, DW_AT_type(*$C$DW$T$19)
    7957                      .dwattr $C$DW$718, DW_AT_name("rsvd4")
    7958                      .dwattr $C$DW$718, DW_AT_TI_symbol_name("_rsvd4")
    7959                      .dwattr $C$DW$718, DW_AT_data_member_location[DW_OP_plus_uconst 0x1d]
    7960                      .dwattr $C$DW$718, DW_AT_accessibility(DW_ACCESS_public)
    7961              
    7962              $C$DW$719       .dwtag  DW_TAG_member
    7963                      .dwattr $C$DW$719, DW_AT_type(*$C$DW$T$47)
    7964                      .dwattr $C$DW$719, DW_AT_name("AIOTOGGLE")
    7965                      .dwattr $C$DW$719, DW_AT_TI_symbol_name("_AIOTOGGLE")
    7966                      .dwattr $C$DW$719, DW_AT_data_member_location[DW_OP_plus_uconst 0x1e]
    7967                      .dwattr $C$DW$719, DW_AT_accessibility(DW_ACCESS_public)
    7968              
    7969              $C$DW$720       .dwtag  DW_TAG_member
    7970                      .dwattr $C$DW$720, DW_AT_type(*$C$DW$T$19)
    7971                      .dwattr $C$DW$720, DW_AT_name("rsvd5")
    7972                      .dwattr $C$DW$720, DW_AT_TI_symbol_name("_rsvd5")
    7973                      .dwattr $C$DW$720, DW_AT_data_member_location[DW_OP_plus_uconst 0x1f]
    7974                      .dwattr $C$DW$720, DW_AT_accessibility(DW_ACCESS_public)
    7975              
    7976                      .dwendtag $C$DW$T$121
    7977              
    7978              $C$DW$721       .dwtag  DW_TAG_TI_far_type
    7979                      .dwattr $C$DW$721, DW_AT_type(*$C$DW$T$121)
    7980              
    7981              $C$DW$T$252     .dwtag  DW_TAG_volatile_type
    7982                      .dwattr $C$DW$T$252, DW_AT_type(*$C$DW$721)
    7983              
    7984              
    7985              $C$DW$T$122     .dwtag  DW_TAG_structure_type
    7986                      .dwattr $C$DW$T$122, DW_AT_name("HRCNFG_BITS")
    7987                      .dwattr $C$DW$T$122, DW_AT_byte_size(0x01)
    7988              $C$DW$722       .dwtag  DW_TAG_member
    7989                      .dwattr $C$DW$722, DW_AT_type(*$C$DW$T$19)
    7990                      .dwattr $C$DW$722, DW_AT_name("EDGMODE")
    7991                      .dwattr $C$DW$722, DW_AT_TI_symbol_name("_EDGMODE")
    7992                      .dwattr $C$DW$722, DW_AT_bit_offset(0x0e)
    7993                      .dwattr $C$DW$722, DW_AT_bit_size(0x02)
    7994                      .dwattr $C$DW$722, DW_AT_data_member_location[DW_OP_plus_uconst 0x0]
    7995                      .dwattr $C$DW$722, DW_AT_accessibility(DW_ACCESS_public)
    7996              
    7997              $C$DW$723       .dwtag  DW_TAG_member
    7998                      .dwattr $C$DW$723, DW_AT_type(*$C$DW$T$19)
    7999                      .dwattr $C$DW$723, DW_AT_name("CTLMODE")
    8000                      .dwattr $C$DW$723, DW_AT_TI_symbol_name("_CTLMODE")
    8001                      .dwattr $C$DW$723, DW_AT_bit_offset(0x0d)
    8002                      .dwattr $C$DW$723, DW_AT_bit_size(0x01)
    8003                      .dwattr $C$DW$723, DW_AT_data_member_location[DW_OP_plus_uconst 0x0]
    8004                      .dwattr $C$DW$723, DW_AT_accessibility(DW_ACCESS_public)
    8005              
    8006              $C$DW$724       .dwtag  DW_TAG_member
    8007                      .dwattr $C$DW$724, DW_AT_type(*$C$DW$T$19)
    8008                      .dwattr $C$DW$724, DW_AT_name("HRLOAD")
    8009                      .dwattr $C$DW$724, DW_AT_TI_symbol_name("_HRLOAD")
TMS320C2000 Assembler PC v16.9.6 Tue Mar 06 18:34:46 2018

Tools Copyright (c) 1996-2017 Texas Instruments Incorporated
C:\Users\Admin\AppData\Local\Temp\{ED9AE313-281A-4435-8F2A-5411619B06A2} PAGE  154

    8010                      .dwattr $C$DW$724, DW_AT_bit_offset(0x0b)
    8011                      .dwattr $C$DW$724, DW_AT_bit_size(0x02)
    8012                      .dwattr $C$DW$724, DW_AT_data_member_location[DW_OP_plus_uconst 0x0]
    8013                      .dwattr $C$DW$724, DW_AT_accessibility(DW_ACCESS_public)
    8014              
    8015              $C$DW$725       .dwtag  DW_TAG_member
    8016                      .dwattr $C$DW$725, DW_AT_type(*$C$DW$T$19)
    8017                      .dwattr $C$DW$725, DW_AT_name("SELOUTB")
    8018                      .dwattr $C$DW$725, DW_AT_TI_symbol_name("_SELOUTB")
    8019                      .dwattr $C$DW$725, DW_AT_bit_offset(0x0a)
    8020                      .dwattr $C$DW$725, DW_AT_bit_size(0x01)
    8021                      .dwattr $C$DW$725, DW_AT_data_member_location[DW_OP_plus_uconst 0x0]
    8022                      .dwattr $C$DW$725, DW_AT_accessibility(DW_ACCESS_public)
    8023              
    8024              $C$DW$726       .dwtag  DW_TAG_member
    8025                      .dwattr $C$DW$726, DW_AT_type(*$C$DW$T$19)
    8026                      .dwattr $C$DW$726, DW_AT_name("AUTOCONV")
    8027                      .dwattr $C$DW$726, DW_AT_TI_symbol_name("_AUTOCONV")
    8028                      .dwattr $C$DW$726, DW_AT_bit_offset(0x09)
    8029                      .dwattr $C$DW$726, DW_AT_bit_size(0x01)
    8030                      .dwattr $C$DW$726, DW_AT_data_member_location[DW_OP_plus_uconst 0x0]
    8031                      .dwattr $C$DW$726, DW_AT_accessibility(DW_ACCESS_public)
    8032              
    8033              $C$DW$727       .dwtag  DW_TAG_member
    8034                      .dwattr $C$DW$727, DW_AT_type(*$C$DW$T$19)
    8035                      .dwattr $C$DW$727, DW_AT_name("SWAPAB")
    8036                      .dwattr $C$DW$727, DW_AT_TI_symbol_name("_SWAPAB")
    8037                      .dwattr $C$DW$727, DW_AT_bit_offset(0x08)
    8038                      .dwattr $C$DW$727, DW_AT_bit_size(0x01)
    8039                      .dwattr $C$DW$727, DW_AT_data_member_location[DW_OP_plus_uconst 0x0]
    8040                      .dwattr $C$DW$727, DW_AT_accessibility(DW_ACCESS_public)
    8041              
    8042              $C$DW$728       .dwtag  DW_TAG_member
    8043                      .dwattr $C$DW$728, DW_AT_type(*$C$DW$T$19)
    8044                      .dwattr $C$DW$728, DW_AT_name("rsvd1")
    8045                      .dwattr $C$DW$728, DW_AT_TI_symbol_name("_rsvd1")
    8046                      .dwattr $C$DW$728, DW_AT_bit_offset(0x00)
    8047                      .dwattr $C$DW$728, DW_AT_bit_size(0x08)
    8048                      .dwattr $C$DW$728, DW_AT_data_member_location[DW_OP_plus_uconst 0x0]
    8049                      .dwattr $C$DW$728, DW_AT_accessibility(DW_ACCESS_public)
    8050              
    8051                      .dwendtag $C$DW$T$122
    8052              
    8053              
    8054              $C$DW$T$123     .dwtag  DW_TAG_union_type
    8055                      .dwattr $C$DW$T$123, DW_AT_name("HRCNFG_REG")
    8056                      .dwattr $C$DW$T$123, DW_AT_byte_size(0x01)
    8057              $C$DW$729       .dwtag  DW_TAG_member
    8058                      .dwattr $C$DW$729, DW_AT_type(*$C$DW$T$19)
    8059                      .dwattr $C$DW$729, DW_AT_name("all")
    8060                      .dwattr $C$DW$729, DW_AT_TI_symbol_name("_all")
    8061                      .dwattr $C$DW$729, DW_AT_data_member_location[DW_OP_plus_uconst 0x0]
    8062                      .dwattr $C$DW$729, DW_AT_accessibility(DW_ACCESS_public)
    8063              
    8064              $C$DW$730       .dwtag  DW_TAG_member
TMS320C2000 Assembler PC v16.9.6 Tue Mar 06 18:34:46 2018

Tools Copyright (c) 1996-2017 Texas Instruments Incorporated
C:\Users\Admin\AppData\Local\Temp\{ED9AE313-281A-4435-8F2A-5411619B06A2} PAGE  155

    8065                      .dwattr $C$DW$730, DW_AT_type(*$C$DW$T$122)
    8066                      .dwattr $C$DW$730, DW_AT_name("bit")
    8067                      .dwattr $C$DW$730, DW_AT_TI_symbol_name("_bit")
    8068                      .dwattr $C$DW$730, DW_AT_data_member_location[DW_OP_plus_uconst 0x0]
    8069                      .dwattr $C$DW$730, DW_AT_accessibility(DW_ACCESS_public)
    8070              
    8071                      .dwendtag $C$DW$T$123
    8072              
    8073              
    8074              $C$DW$T$124     .dwtag  DW_TAG_structure_type
    8075                      .dwattr $C$DW$T$124, DW_AT_name("HRPCTL_BITS")
    8076                      .dwattr $C$DW$T$124, DW_AT_byte_size(0x01)
    8077              $C$DW$731       .dwtag  DW_TAG_member
    8078                      .dwattr $C$DW$731, DW_AT_type(*$C$DW$T$19)
    8079                      .dwattr $C$DW$731, DW_AT_name("HRPE")
    8080                      .dwattr $C$DW$731, DW_AT_TI_symbol_name("_HRPE")
    8081                      .dwattr $C$DW$731, DW_AT_bit_offset(0x0f)
    8082                      .dwattr $C$DW$731, DW_AT_bit_size(0x01)
    8083                      .dwattr $C$DW$731, DW_AT_data_member_location[DW_OP_plus_uconst 0x0]
    8084                      .dwattr $C$DW$731, DW_AT_accessibility(DW_ACCESS_public)
    8085              
    8086              $C$DW$732       .dwtag  DW_TAG_member
    8087                      .dwattr $C$DW$732, DW_AT_type(*$C$DW$T$19)
    8088                      .dwattr $C$DW$732, DW_AT_name("rsvd1")
    8089                      .dwattr $C$DW$732, DW_AT_TI_symbol_name("_rsvd1")
    8090                      .dwattr $C$DW$732, DW_AT_bit_offset(0x0e)
    8091                      .dwattr $C$DW$732, DW_AT_bit_size(0x01)
    8092                      .dwattr $C$DW$732, DW_AT_data_member_location[DW_OP_plus_uconst 0x0]
    8093                      .dwattr $C$DW$732, DW_AT_accessibility(DW_ACCESS_public)
    8094              
    8095              $C$DW$733       .dwtag  DW_TAG_member
    8096                      .dwattr $C$DW$733, DW_AT_type(*$C$DW$T$19)
    8097                      .dwattr $C$DW$733, DW_AT_name("TBPHSHRLOADE")
    8098                      .dwattr $C$DW$733, DW_AT_TI_symbol_name("_TBPHSHRLOADE")
    8099                      .dwattr $C$DW$733, DW_AT_bit_offset(0x0d)
    8100                      .dwattr $C$DW$733, DW_AT_bit_size(0x01)
    8101                      .dwattr $C$DW$733, DW_AT_data_member_location[DW_OP_plus_uconst 0x0]
    8102                      .dwattr $C$DW$733, DW_AT_accessibility(DW_ACCESS_public)
    8103              
    8104              $C$DW$734       .dwtag  DW_TAG_member
    8105                      .dwattr $C$DW$734, DW_AT_type(*$C$DW$T$19)
    8106                      .dwattr $C$DW$734, DW_AT_name("rsvd2")
    8107                      .dwattr $C$DW$734, DW_AT_TI_symbol_name("_rsvd2")
    8108                      .dwattr $C$DW$734, DW_AT_bit_offset(0x00)
    8109                      .dwattr $C$DW$734, DW_AT_bit_size(0x0d)
    8110                      .dwattr $C$DW$734, DW_AT_data_member_location[DW_OP_plus_uconst 0x0]
    8111                      .dwattr $C$DW$734, DW_AT_accessibility(DW_ACCESS_public)
    8112              
    8113                      .dwendtag $C$DW$T$124
    8114              
    8115              
    8116              $C$DW$T$125     .dwtag  DW_TAG_union_type
    8117                      .dwattr $C$DW$T$125, DW_AT_name("HRPCTL_REG")
    8118                      .dwattr $C$DW$T$125, DW_AT_byte_size(0x01)
    8119              $C$DW$735       .dwtag  DW_TAG_member
TMS320C2000 Assembler PC v16.9.6 Tue Mar 06 18:34:46 2018

Tools Copyright (c) 1996-2017 Texas Instruments Incorporated
C:\Users\Admin\AppData\Local\Temp\{ED9AE313-281A-4435-8F2A-5411619B06A2} PAGE  156

    8120                      .dwattr $C$DW$735, DW_AT_type(*$C$DW$T$19)
    8121                      .dwattr $C$DW$735, DW_AT_name("all")
    8122                      .dwattr $C$DW$735, DW_AT_TI_symbol_name("_all")
    8123                      .dwattr $C$DW$735, DW_AT_data_member_location[DW_OP_plus_uconst 0x0]
    8124                      .dwattr $C$DW$735, DW_AT_accessibility(DW_ACCESS_public)
    8125              
    8126              $C$DW$736       .dwtag  DW_TAG_member
    8127                      .dwattr $C$DW$736, DW_AT_type(*$C$DW$T$124)
    8128                      .dwattr $C$DW$736, DW_AT_name("bit")
    8129                      .dwattr $C$DW$736, DW_AT_TI_symbol_name("_bit")
    8130                      .dwattr $C$DW$736, DW_AT_data_member_location[DW_OP_plus_uconst 0x0]
    8131                      .dwattr $C$DW$736, DW_AT_accessibility(DW_ACCESS_public)
    8132              
    8133                      .dwendtag $C$DW$T$125
    8134              
    8135              
    8136              $C$DW$T$126     .dwtag  DW_TAG_structure_type
    8137                      .dwattr $C$DW$T$126, DW_AT_name("HRPWR_BITS")
    8138                      .dwattr $C$DW$T$126, DW_AT_byte_size(0x01)
    8139              $C$DW$737       .dwtag  DW_TAG_member
    8140                      .dwattr $C$DW$737, DW_AT_type(*$C$DW$T$19)
    8141                      .dwattr $C$DW$737, DW_AT_name("rsvd1")
    8142                      .dwattr $C$DW$737, DW_AT_TI_symbol_name("_rsvd1")
    8143                      .dwattr $C$DW$737, DW_AT_bit_offset(0x0a)
    8144                      .dwattr $C$DW$737, DW_AT_bit_size(0x06)
    8145                      .dwattr $C$DW$737, DW_AT_data_member_location[DW_OP_plus_uconst 0x0]
    8146                      .dwattr $C$DW$737, DW_AT_accessibility(DW_ACCESS_public)
    8147              
    8148              $C$DW$738       .dwtag  DW_TAG_member
    8149                      .dwattr $C$DW$738, DW_AT_type(*$C$DW$T$19)
    8150                      .dwattr $C$DW$738, DW_AT_name("MEPOFF")
    8151                      .dwattr $C$DW$738, DW_AT_TI_symbol_name("_MEPOFF")
    8152                      .dwattr $C$DW$738, DW_AT_bit_offset(0x06)
    8153                      .dwattr $C$DW$738, DW_AT_bit_size(0x04)
    8154                      .dwattr $C$DW$738, DW_AT_data_member_location[DW_OP_plus_uconst 0x0]
    8155                      .dwattr $C$DW$738, DW_AT_accessibility(DW_ACCESS_public)
    8156              
    8157              $C$DW$739       .dwtag  DW_TAG_member
    8158                      .dwattr $C$DW$739, DW_AT_type(*$C$DW$T$19)
    8159                      .dwattr $C$DW$739, DW_AT_name("rsvd2")
    8160                      .dwattr $C$DW$739, DW_AT_TI_symbol_name("_rsvd2")
    8161                      .dwattr $C$DW$739, DW_AT_bit_offset(0x00)
    8162                      .dwattr $C$DW$739, DW_AT_bit_size(0x06)
    8163                      .dwattr $C$DW$739, DW_AT_data_member_location[DW_OP_plus_uconst 0x0]
    8164                      .dwattr $C$DW$739, DW_AT_accessibility(DW_ACCESS_public)
    8165              
    8166                      .dwendtag $C$DW$T$126
    8167              
    8168              
    8169              $C$DW$T$127     .dwtag  DW_TAG_union_type
    8170                      .dwattr $C$DW$T$127, DW_AT_name("HRPWR_REG")
    8171                      .dwattr $C$DW$T$127, DW_AT_byte_size(0x01)
    8172              $C$DW$740       .dwtag  DW_TAG_member
    8173                      .dwattr $C$DW$740, DW_AT_type(*$C$DW$T$19)
    8174                      .dwattr $C$DW$740, DW_AT_name("all")
TMS320C2000 Assembler PC v16.9.6 Tue Mar 06 18:34:46 2018

Tools Copyright (c) 1996-2017 Texas Instruments Incorporated
C:\Users\Admin\AppData\Local\Temp\{ED9AE313-281A-4435-8F2A-5411619B06A2} PAGE  157

    8175                      .dwattr $C$DW$740, DW_AT_TI_symbol_name("_all")
    8176                      .dwattr $C$DW$740, DW_AT_data_member_location[DW_OP_plus_uconst 0x0]
    8177                      .dwattr $C$DW$740, DW_AT_accessibility(DW_ACCESS_public)
    8178              
    8179              $C$DW$741       .dwtag  DW_TAG_member
    8180                      .dwattr $C$DW$741, DW_AT_type(*$C$DW$T$126)
    8181                      .dwattr $C$DW$741, DW_AT_name("bit")
    8182                      .dwattr $C$DW$741, DW_AT_TI_symbol_name("_bit")
    8183                      .dwattr $C$DW$741, DW_AT_data_member_location[DW_OP_plus_uconst 0x0]
    8184                      .dwattr $C$DW$741, DW_AT_accessibility(DW_ACCESS_public)
    8185              
    8186                      .dwendtag $C$DW$T$127
    8187              
    8188              
    8189              $C$DW$T$128     .dwtag  DW_TAG_structure_type
    8190                      .dwattr $C$DW$T$128, DW_AT_name("INTOSC1TRIM_BITS")
    8191                      .dwattr $C$DW$T$128, DW_AT_byte_size(0x01)
    8192              $C$DW$742       .dwtag  DW_TAG_member
    8193                      .dwattr $C$DW$742, DW_AT_type(*$C$DW$T$19)
    8194                      .dwattr $C$DW$742, DW_AT_name("COARSETRIM")
    8195                      .dwattr $C$DW$742, DW_AT_TI_symbol_name("_COARSETRIM")
    8196                      .dwattr $C$DW$742, DW_AT_bit_offset(0x08)
    8197                      .dwattr $C$DW$742, DW_AT_bit_size(0x08)
    8198                      .dwattr $C$DW$742, DW_AT_data_member_location[DW_OP_plus_uconst 0x0]
    8199                      .dwattr $C$DW$742, DW_AT_accessibility(DW_ACCESS_public)
    8200              
    8201              $C$DW$743       .dwtag  DW_TAG_member
    8202                      .dwattr $C$DW$743, DW_AT_type(*$C$DW$T$19)
    8203                      .dwattr $C$DW$743, DW_AT_name("rsvd1")
    8204                      .dwattr $C$DW$743, DW_AT_TI_symbol_name("_rsvd1")
    8205                      .dwattr $C$DW$743, DW_AT_bit_offset(0x07)
    8206                      .dwattr $C$DW$743, DW_AT_bit_size(0x01)
    8207                      .dwattr $C$DW$743, DW_AT_data_member_location[DW_OP_plus_uconst 0x0]
    8208                      .dwattr $C$DW$743, DW_AT_accessibility(DW_ACCESS_public)
    8209              
    8210              $C$DW$744       .dwtag  DW_TAG_member
    8211                      .dwattr $C$DW$744, DW_AT_type(*$C$DW$T$19)
    8212                      .dwattr $C$DW$744, DW_AT_name("FINETRIM")
    8213                      .dwattr $C$DW$744, DW_AT_TI_symbol_name("_FINETRIM")
    8214                      .dwattr $C$DW$744, DW_AT_bit_offset(0x01)
    8215                      .dwattr $C$DW$744, DW_AT_bit_size(0x06)
    8216                      .dwattr $C$DW$744, DW_AT_data_member_location[DW_OP_plus_uconst 0x0]
    8217                      .dwattr $C$DW$744, DW_AT_accessibility(DW_ACCESS_public)
    8218              
    8219              $C$DW$745       .dwtag  DW_TAG_member
    8220                      .dwattr $C$DW$745, DW_AT_type(*$C$DW$T$19)
    8221                      .dwattr $C$DW$745, DW_AT_name("rsvd2")
    8222                      .dwattr $C$DW$745, DW_AT_TI_symbol_name("_rsvd2")
    8223                      .dwattr $C$DW$745, DW_AT_bit_offset(0x00)
    8224                      .dwattr $C$DW$745, DW_AT_bit_size(0x01)
    8225                      .dwattr $C$DW$745, DW_AT_data_member_location[DW_OP_plus_uconst 0x0]
    8226                      .dwattr $C$DW$745, DW_AT_accessibility(DW_ACCESS_public)
    8227              
    8228                      .dwendtag $C$DW$T$128
    8229              
TMS320C2000 Assembler PC v16.9.6 Tue Mar 06 18:34:46 2018

Tools Copyright (c) 1996-2017 Texas Instruments Incorporated
C:\Users\Admin\AppData\Local\Temp\{ED9AE313-281A-4435-8F2A-5411619B06A2} PAGE  158

    8230              
    8231              $C$DW$T$129     .dwtag  DW_TAG_union_type
    8232                      .dwattr $C$DW$T$129, DW_AT_name("INTOSC1TRIM_REG")
    8233                      .dwattr $C$DW$T$129, DW_AT_byte_size(0x01)
    8234              $C$DW$746       .dwtag  DW_TAG_member
    8235                      .dwattr $C$DW$746, DW_AT_type(*$C$DW$T$19)
    8236                      .dwattr $C$DW$746, DW_AT_name("all")
    8237                      .dwattr $C$DW$746, DW_AT_TI_symbol_name("_all")
    8238                      .dwattr $C$DW$746, DW_AT_data_member_location[DW_OP_plus_uconst 0x0]
    8239                      .dwattr $C$DW$746, DW_AT_accessibility(DW_ACCESS_public)
    8240              
    8241              $C$DW$747       .dwtag  DW_TAG_member
    8242                      .dwattr $C$DW$747, DW_AT_type(*$C$DW$T$128)
    8243                      .dwattr $C$DW$747, DW_AT_name("bit")
    8244                      .dwattr $C$DW$747, DW_AT_TI_symbol_name("_bit")
    8245                      .dwattr $C$DW$747, DW_AT_data_member_location[DW_OP_plus_uconst 0x0]
    8246                      .dwattr $C$DW$747, DW_AT_accessibility(DW_ACCESS_public)
    8247              
    8248                      .dwendtag $C$DW$T$129
    8249              
    8250              
    8251              $C$DW$T$130     .dwtag  DW_TAG_structure_type
    8252                      .dwattr $C$DW$T$130, DW_AT_name("INTOSC2TRIM_BITS")
    8253                      .dwattr $C$DW$T$130, DW_AT_byte_size(0x01)
    8254              $C$DW$748       .dwtag  DW_TAG_member
    8255                      .dwattr $C$DW$748, DW_AT_type(*$C$DW$T$19)
    8256                      .dwattr $C$DW$748, DW_AT_name("COARSETRIM")
    8257                      .dwattr $C$DW$748, DW_AT_TI_symbol_name("_COARSETRIM")
    8258                      .dwattr $C$DW$748, DW_AT_bit_offset(0x08)
    8259                      .dwattr $C$DW$748, DW_AT_bit_size(0x08)
    8260                      .dwattr $C$DW$748, DW_AT_data_member_location[DW_OP_plus_uconst 0x0]
    8261                      .dwattr $C$DW$748, DW_AT_accessibility(DW_ACCESS_public)
    8262              
    8263              $C$DW$749       .dwtag  DW_TAG_member
    8264                      .dwattr $C$DW$749, DW_AT_type(*$C$DW$T$19)
    8265                      .dwattr $C$DW$749, DW_AT_name("rsvd1")
    8266                      .dwattr $C$DW$749, DW_AT_TI_symbol_name("_rsvd1")
    8267                      .dwattr $C$DW$749, DW_AT_bit_offset(0x07)
    8268                      .dwattr $C$DW$749, DW_AT_bit_size(0x01)
    8269                      .dwattr $C$DW$749, DW_AT_data_member_location[DW_OP_plus_uconst 0x0]
    8270                      .dwattr $C$DW$749, DW_AT_accessibility(DW_ACCESS_public)
    8271              
    8272              $C$DW$750       .dwtag  DW_TAG_member
    8273                      .dwattr $C$DW$750, DW_AT_type(*$C$DW$T$19)
    8274                      .dwattr $C$DW$750, DW_AT_name("FINETRIM")
    8275                      .dwattr $C$DW$750, DW_AT_TI_symbol_name("_FINETRIM")
    8276                      .dwattr $C$DW$750, DW_AT_bit_offset(0x01)
    8277                      .dwattr $C$DW$750, DW_AT_bit_size(0x06)
    8278                      .dwattr $C$DW$750, DW_AT_data_member_location[DW_OP_plus_uconst 0x0]
    8279                      .dwattr $C$DW$750, DW_AT_accessibility(DW_ACCESS_public)
    8280              
    8281              $C$DW$751       .dwtag  DW_TAG_member
    8282                      .dwattr $C$DW$751, DW_AT_type(*$C$DW$T$19)
    8283                      .dwattr $C$DW$751, DW_AT_name("rsvd2")
    8284                      .dwattr $C$DW$751, DW_AT_TI_symbol_name("_rsvd2")
TMS320C2000 Assembler PC v16.9.6 Tue Mar 06 18:34:46 2018

Tools Copyright (c) 1996-2017 Texas Instruments Incorporated
C:\Users\Admin\AppData\Local\Temp\{ED9AE313-281A-4435-8F2A-5411619B06A2} PAGE  159

    8285                      .dwattr $C$DW$751, DW_AT_bit_offset(0x00)
    8286                      .dwattr $C$DW$751, DW_AT_bit_size(0x01)
    8287                      .dwattr $C$DW$751, DW_AT_data_member_location[DW_OP_plus_uconst 0x0]
    8288                      .dwattr $C$DW$751, DW_AT_accessibility(DW_ACCESS_public)
    8289              
    8290                      .dwendtag $C$DW$T$130
    8291              
    8292              
    8293              $C$DW$T$131     .dwtag  DW_TAG_union_type
    8294                      .dwattr $C$DW$T$131, DW_AT_name("INTOSC2TRIM_REG")
    8295                      .dwattr $C$DW$T$131, DW_AT_byte_size(0x01)
    8296              $C$DW$752       .dwtag  DW_TAG_member
    8297                      .dwattr $C$DW$752, DW_AT_type(*$C$DW$T$19)
    8298                      .dwattr $C$DW$752, DW_AT_name("all")
    8299                      .dwattr $C$DW$752, DW_AT_TI_symbol_name("_all")
    8300                      .dwattr $C$DW$752, DW_AT_data_member_location[DW_OP_plus_uconst 0x0]
    8301                      .dwattr $C$DW$752, DW_AT_accessibility(DW_ACCESS_public)
    8302              
    8303              $C$DW$753       .dwtag  DW_TAG_member
    8304                      .dwattr $C$DW$753, DW_AT_type(*$C$DW$T$130)
    8305                      .dwattr $C$DW$753, DW_AT_name("bit")
    8306                      .dwattr $C$DW$753, DW_AT_TI_symbol_name("_bit")
    8307                      .dwattr $C$DW$753, DW_AT_data_member_location[DW_OP_plus_uconst 0x0]
    8308                      .dwattr $C$DW$753, DW_AT_accessibility(DW_ACCESS_public)
    8309              
    8310                      .dwendtag $C$DW$T$131
    8311              
    8312              
    8313              $C$DW$T$132     .dwtag  DW_TAG_structure_type
    8314                      .dwattr $C$DW$T$132, DW_AT_name("INTSEL1N2_BITS")
    8315                      .dwattr $C$DW$T$132, DW_AT_byte_size(0x01)
    8316              $C$DW$754       .dwtag  DW_TAG_member
    8317                      .dwattr $C$DW$754, DW_AT_type(*$C$DW$T$19)
    8318                      .dwattr $C$DW$754, DW_AT_name("INT1SEL")
    8319                      .dwattr $C$DW$754, DW_AT_TI_symbol_name("_INT1SEL")
    8320                      .dwattr $C$DW$754, DW_AT_bit_offset(0x0b)
    8321                      .dwattr $C$DW$754, DW_AT_bit_size(0x05)
    8322                      .dwattr $C$DW$754, DW_AT_data_member_location[DW_OP_plus_uconst 0x0]
    8323                      .dwattr $C$DW$754, DW_AT_accessibility(DW_ACCESS_public)
    8324              
    8325              $C$DW$755       .dwtag  DW_TAG_member
    8326                      .dwattr $C$DW$755, DW_AT_type(*$C$DW$T$19)
    8327                      .dwattr $C$DW$755, DW_AT_name("INT1E")
    8328                      .dwattr $C$DW$755, DW_AT_TI_symbol_name("_INT1E")
    8329                      .dwattr $C$DW$755, DW_AT_bit_offset(0x0a)
    8330                      .dwattr $C$DW$755, DW_AT_bit_size(0x01)
    8331                      .dwattr $C$DW$755, DW_AT_data_member_location[DW_OP_plus_uconst 0x0]
    8332                      .dwattr $C$DW$755, DW_AT_accessibility(DW_ACCESS_public)
    8333              
    8334              $C$DW$756       .dwtag  DW_TAG_member
    8335                      .dwattr $C$DW$756, DW_AT_type(*$C$DW$T$19)
    8336                      .dwattr $C$DW$756, DW_AT_name("INT1CONT")
    8337                      .dwattr $C$DW$756, DW_AT_TI_symbol_name("_INT1CONT")
    8338                      .dwattr $C$DW$756, DW_AT_bit_offset(0x09)
    8339                      .dwattr $C$DW$756, DW_AT_bit_size(0x01)
TMS320C2000 Assembler PC v16.9.6 Tue Mar 06 18:34:46 2018

Tools Copyright (c) 1996-2017 Texas Instruments Incorporated
C:\Users\Admin\AppData\Local\Temp\{ED9AE313-281A-4435-8F2A-5411619B06A2} PAGE  160

    8340                      .dwattr $C$DW$756, DW_AT_data_member_location[DW_OP_plus_uconst 0x0]
    8341                      .dwattr $C$DW$756, DW_AT_accessibility(DW_ACCESS_public)
    8342              
    8343              $C$DW$757       .dwtag  DW_TAG_member
    8344                      .dwattr $C$DW$757, DW_AT_type(*$C$DW$T$19)
    8345                      .dwattr $C$DW$757, DW_AT_name("rsvd1")
    8346                      .dwattr $C$DW$757, DW_AT_TI_symbol_name("_rsvd1")
    8347                      .dwattr $C$DW$757, DW_AT_bit_offset(0x08)
    8348                      .dwattr $C$DW$757, DW_AT_bit_size(0x01)
    8349                      .dwattr $C$DW$757, DW_AT_data_member_location[DW_OP_plus_uconst 0x0]
    8350                      .dwattr $C$DW$757, DW_AT_accessibility(DW_ACCESS_public)
    8351              
    8352              $C$DW$758       .dwtag  DW_TAG_member
    8353                      .dwattr $C$DW$758, DW_AT_type(*$C$DW$T$19)
    8354                      .dwattr $C$DW$758, DW_AT_name("INT2SEL")
    8355                      .dwattr $C$DW$758, DW_AT_TI_symbol_name("_INT2SEL")
    8356                      .dwattr $C$DW$758, DW_AT_bit_offset(0x03)
    8357                      .dwattr $C$DW$758, DW_AT_bit_size(0x05)
    8358                      .dwattr $C$DW$758, DW_AT_data_member_location[DW_OP_plus_uconst 0x0]
    8359                      .dwattr $C$DW$758, DW_AT_accessibility(DW_ACCESS_public)
    8360              
    8361              $C$DW$759       .dwtag  DW_TAG_member
    8362                      .dwattr $C$DW$759, DW_AT_type(*$C$DW$T$19)
    8363                      .dwattr $C$DW$759, DW_AT_name("INT2E")
    8364                      .dwattr $C$DW$759, DW_AT_TI_symbol_name("_INT2E")
    8365                      .dwattr $C$DW$759, DW_AT_bit_offset(0x02)
    8366                      .dwattr $C$DW$759, DW_AT_bit_size(0x01)
    8367                      .dwattr $C$DW$759, DW_AT_data_member_location[DW_OP_plus_uconst 0x0]
    8368                      .dwattr $C$DW$759, DW_AT_accessibility(DW_ACCESS_public)
    8369              
    8370              $C$DW$760       .dwtag  DW_TAG_member
    8371                      .dwattr $C$DW$760, DW_AT_type(*$C$DW$T$19)
    8372                      .dwattr $C$DW$760, DW_AT_name("INT2CONT")
    8373                      .dwattr $C$DW$760, DW_AT_TI_symbol_name("_INT2CONT")
    8374                      .dwattr $C$DW$760, DW_AT_bit_offset(0x01)
    8375                      .dwattr $C$DW$760, DW_AT_bit_size(0x01)
    8376                      .dwattr $C$DW$760, DW_AT_data_member_location[DW_OP_plus_uconst 0x0]
    8377                      .dwattr $C$DW$760, DW_AT_accessibility(DW_ACCESS_public)
    8378              
    8379              $C$DW$761       .dwtag  DW_TAG_member
    8380                      .dwattr $C$DW$761, DW_AT_type(*$C$DW$T$19)
    8381                      .dwattr $C$DW$761, DW_AT_name("rsvd2")
    8382                      .dwattr $C$DW$761, DW_AT_TI_symbol_name("_rsvd2")
    8383                      .dwattr $C$DW$761, DW_AT_bit_offset(0x00)
    8384                      .dwattr $C$DW$761, DW_AT_bit_size(0x01)
    8385                      .dwattr $C$DW$761, DW_AT_data_member_location[DW_OP_plus_uconst 0x0]
    8386                      .dwattr $C$DW$761, DW_AT_accessibility(DW_ACCESS_public)
    8387              
    8388                      .dwendtag $C$DW$T$132
    8389              
    8390              
    8391              $C$DW$T$133     .dwtag  DW_TAG_union_type
    8392                      .dwattr $C$DW$T$133, DW_AT_name("INTSEL1N2_REG")
    8393                      .dwattr $C$DW$T$133, DW_AT_byte_size(0x01)
    8394              $C$DW$762       .dwtag  DW_TAG_member
TMS320C2000 Assembler PC v16.9.6 Tue Mar 06 18:34:46 2018

Tools Copyright (c) 1996-2017 Texas Instruments Incorporated
C:\Users\Admin\AppData\Local\Temp\{ED9AE313-281A-4435-8F2A-5411619B06A2} PAGE  161

    8395                      .dwattr $C$DW$762, DW_AT_type(*$C$DW$T$19)
    8396                      .dwattr $C$DW$762, DW_AT_name("all")
    8397                      .dwattr $C$DW$762, DW_AT_TI_symbol_name("_all")
    8398                      .dwattr $C$DW$762, DW_AT_data_member_location[DW_OP_plus_uconst 0x0]
    8399                      .dwattr $C$DW$762, DW_AT_accessibility(DW_ACCESS_public)
    8400              
    8401              $C$DW$763       .dwtag  DW_TAG_member
    8402                      .dwattr $C$DW$763, DW_AT_type(*$C$DW$T$132)
    8403                      .dwattr $C$DW$763, DW_AT_name("bit")
    8404                      .dwattr $C$DW$763, DW_AT_TI_symbol_name("_bit")
    8405                      .dwattr $C$DW$763, DW_AT_data_member_location[DW_OP_plus_uconst 0x0]
    8406                      .dwattr $C$DW$763, DW_AT_accessibility(DW_ACCESS_public)
    8407              
    8408                      .dwendtag $C$DW$T$133
    8409              
    8410              
    8411              $C$DW$T$134     .dwtag  DW_TAG_structure_type
    8412                      .dwattr $C$DW$T$134, DW_AT_name("INTSEL3N4_BITS")
    8413                      .dwattr $C$DW$T$134, DW_AT_byte_size(0x01)
    8414              $C$DW$764       .dwtag  DW_TAG_member
    8415                      .dwattr $C$DW$764, DW_AT_type(*$C$DW$T$19)
    8416                      .dwattr $C$DW$764, DW_AT_name("INT3SEL")
    8417                      .dwattr $C$DW$764, DW_AT_TI_symbol_name("_INT3SEL")
    8418                      .dwattr $C$DW$764, DW_AT_bit_offset(0x0b)
    8419                      .dwattr $C$DW$764, DW_AT_bit_size(0x05)
    8420                      .dwattr $C$DW$764, DW_AT_data_member_location[DW_OP_plus_uconst 0x0]
    8421                      .dwattr $C$DW$764, DW_AT_accessibility(DW_ACCESS_public)
    8422              
    8423              $C$DW$765       .dwtag  DW_TAG_member
    8424                      .dwattr $C$DW$765, DW_AT_type(*$C$DW$T$19)
    8425                      .dwattr $C$DW$765, DW_AT_name("INT3E")
    8426                      .dwattr $C$DW$765, DW_AT_TI_symbol_name("_INT3E")
    8427                      .dwattr $C$DW$765, DW_AT_bit_offset(0x0a)
    8428                      .dwattr $C$DW$765, DW_AT_bit_size(0x01)
    8429                      .dwattr $C$DW$765, DW_AT_data_member_location[DW_OP_plus_uconst 0x0]
    8430                      .dwattr $C$DW$765, DW_AT_accessibility(DW_ACCESS_public)
    8431              
    8432              $C$DW$766       .dwtag  DW_TAG_member
    8433                      .dwattr $C$DW$766, DW_AT_type(*$C$DW$T$19)
    8434                      .dwattr $C$DW$766, DW_AT_name("INT3CONT")
    8435                      .dwattr $C$DW$766, DW_AT_TI_symbol_name("_INT3CONT")
    8436                      .dwattr $C$DW$766, DW_AT_bit_offset(0x09)
    8437                      .dwattr $C$DW$766, DW_AT_bit_size(0x01)
    8438                      .dwattr $C$DW$766, DW_AT_data_member_location[DW_OP_plus_uconst 0x0]
    8439                      .dwattr $C$DW$766, DW_AT_accessibility(DW_ACCESS_public)
    8440              
    8441              $C$DW$767       .dwtag  DW_TAG_member
    8442                      .dwattr $C$DW$767, DW_AT_type(*$C$DW$T$19)
    8443                      .dwattr $C$DW$767, DW_AT_name("rsvd1")
    8444                      .dwattr $C$DW$767, DW_AT_TI_symbol_name("_rsvd1")
    8445                      .dwattr $C$DW$767, DW_AT_bit_offset(0x08)
    8446                      .dwattr $C$DW$767, DW_AT_bit_size(0x01)
    8447                      .dwattr $C$DW$767, DW_AT_data_member_location[DW_OP_plus_uconst 0x0]
    8448                      .dwattr $C$DW$767, DW_AT_accessibility(DW_ACCESS_public)
    8449              
TMS320C2000 Assembler PC v16.9.6 Tue Mar 06 18:34:46 2018

Tools Copyright (c) 1996-2017 Texas Instruments Incorporated
C:\Users\Admin\AppData\Local\Temp\{ED9AE313-281A-4435-8F2A-5411619B06A2} PAGE  162

    8450              $C$DW$768       .dwtag  DW_TAG_member
    8451                      .dwattr $C$DW$768, DW_AT_type(*$C$DW$T$19)
    8452                      .dwattr $C$DW$768, DW_AT_name("INT4SEL")
    8453                      .dwattr $C$DW$768, DW_AT_TI_symbol_name("_INT4SEL")
    8454                      .dwattr $C$DW$768, DW_AT_bit_offset(0x03)
    8455                      .dwattr $C$DW$768, DW_AT_bit_size(0x05)
    8456                      .dwattr $C$DW$768, DW_AT_data_member_location[DW_OP_plus_uconst 0x0]
    8457                      .dwattr $C$DW$768, DW_AT_accessibility(DW_ACCESS_public)
    8458              
    8459              $C$DW$769       .dwtag  DW_TAG_member
    8460                      .dwattr $C$DW$769, DW_AT_type(*$C$DW$T$19)
    8461                      .dwattr $C$DW$769, DW_AT_name("INT4E")
    8462                      .dwattr $C$DW$769, DW_AT_TI_symbol_name("_INT4E")
    8463                      .dwattr $C$DW$769, DW_AT_bit_offset(0x02)
    8464                      .dwattr $C$DW$769, DW_AT_bit_size(0x01)
    8465                      .dwattr $C$DW$769, DW_AT_data_member_location[DW_OP_plus_uconst 0x0]
    8466                      .dwattr $C$DW$769, DW_AT_accessibility(DW_ACCESS_public)
    8467              
    8468              $C$DW$770       .dwtag  DW_TAG_member
    8469                      .dwattr $C$DW$770, DW_AT_type(*$C$DW$T$19)
    8470                      .dwattr $C$DW$770, DW_AT_name("INT4CONT")
    8471                      .dwattr $C$DW$770, DW_AT_TI_symbol_name("_INT4CONT")
    8472                      .dwattr $C$DW$770, DW_AT_bit_offset(0x01)
    8473                      .dwattr $C$DW$770, DW_AT_bit_size(0x01)
    8474                      .dwattr $C$DW$770, DW_AT_data_member_location[DW_OP_plus_uconst 0x0]
    8475                      .dwattr $C$DW$770, DW_AT_accessibility(DW_ACCESS_public)
    8476              
    8477              $C$DW$771       .dwtag  DW_TAG_member
    8478                      .dwattr $C$DW$771, DW_AT_type(*$C$DW$T$19)
    8479                      .dwattr $C$DW$771, DW_AT_name("rsvd2")
    8480                      .dwattr $C$DW$771, DW_AT_TI_symbol_name("_rsvd2")
    8481                      .dwattr $C$DW$771, DW_AT_bit_offset(0x00)
    8482                      .dwattr $C$DW$771, DW_AT_bit_size(0x01)
    8483                      .dwattr $C$DW$771, DW_AT_data_member_location[DW_OP_plus_uconst 0x0]
    8484                      .dwattr $C$DW$771, DW_AT_accessibility(DW_ACCESS_public)
    8485              
    8486                      .dwendtag $C$DW$T$134
    8487              
    8488              
    8489              $C$DW$T$135     .dwtag  DW_TAG_union_type
    8490                      .dwattr $C$DW$T$135, DW_AT_name("INTSEL3N4_REG")
    8491                      .dwattr $C$DW$T$135, DW_AT_byte_size(0x01)
    8492              $C$DW$772       .dwtag  DW_TAG_member
    8493                      .dwattr $C$DW$772, DW_AT_type(*$C$DW$T$19)
    8494                      .dwattr $C$DW$772, DW_AT_name("all")
    8495                      .dwattr $C$DW$772, DW_AT_TI_symbol_name("_all")
    8496                      .dwattr $C$DW$772, DW_AT_data_member_location[DW_OP_plus_uconst 0x0]
    8497                      .dwattr $C$DW$772, DW_AT_accessibility(DW_ACCESS_public)
    8498              
    8499              $C$DW$773       .dwtag  DW_TAG_member
    8500                      .dwattr $C$DW$773, DW_AT_type(*$C$DW$T$134)
    8501                      .dwattr $C$DW$773, DW_AT_name("bit")
    8502                      .dwattr $C$DW$773, DW_AT_TI_symbol_name("_bit")
    8503                      .dwattr $C$DW$773, DW_AT_data_member_location[DW_OP_plus_uconst 0x0]
    8504                      .dwattr $C$DW$773, DW_AT_accessibility(DW_ACCESS_public)
TMS320C2000 Assembler PC v16.9.6 Tue Mar 06 18:34:46 2018

Tools Copyright (c) 1996-2017 Texas Instruments Incorporated
C:\Users\Admin\AppData\Local\Temp\{ED9AE313-281A-4435-8F2A-5411619B06A2} PAGE  163

    8505              
    8506                      .dwendtag $C$DW$T$135
    8507              
    8508              
    8509              $C$DW$T$136     .dwtag  DW_TAG_structure_type
    8510                      .dwattr $C$DW$T$136, DW_AT_name("INTSEL5N6_BITS")
    8511                      .dwattr $C$DW$T$136, DW_AT_byte_size(0x01)
    8512              $C$DW$774       .dwtag  DW_TAG_member
    8513                      .dwattr $C$DW$774, DW_AT_type(*$C$DW$T$19)
    8514                      .dwattr $C$DW$774, DW_AT_name("INT5SEL")
    8515                      .dwattr $C$DW$774, DW_AT_TI_symbol_name("_INT5SEL")
    8516                      .dwattr $C$DW$774, DW_AT_bit_offset(0x0b)
    8517                      .dwattr $C$DW$774, DW_AT_bit_size(0x05)
    8518                      .dwattr $C$DW$774, DW_AT_data_member_location[DW_OP_plus_uconst 0x0]
    8519                      .dwattr $C$DW$774, DW_AT_accessibility(DW_ACCESS_public)
    8520              
    8521              $C$DW$775       .dwtag  DW_TAG_member
    8522                      .dwattr $C$DW$775, DW_AT_type(*$C$DW$T$19)
    8523                      .dwattr $C$DW$775, DW_AT_name("INT5E")
    8524                      .dwattr $C$DW$775, DW_AT_TI_symbol_name("_INT5E")
    8525                      .dwattr $C$DW$775, DW_AT_bit_offset(0x0a)
    8526                      .dwattr $C$DW$775, DW_AT_bit_size(0x01)
    8527                      .dwattr $C$DW$775, DW_AT_data_member_location[DW_OP_plus_uconst 0x0]
    8528                      .dwattr $C$DW$775, DW_AT_accessibility(DW_ACCESS_public)
    8529              
    8530              $C$DW$776       .dwtag  DW_TAG_member
    8531                      .dwattr $C$DW$776, DW_AT_type(*$C$DW$T$19)
    8532                      .dwattr $C$DW$776, DW_AT_name("INT5CONT")
    8533                      .dwattr $C$DW$776, DW_AT_TI_symbol_name("_INT5CONT")
    8534                      .dwattr $C$DW$776, DW_AT_bit_offset(0x09)
    8535                      .dwattr $C$DW$776, DW_AT_bit_size(0x01)
    8536                      .dwattr $C$DW$776, DW_AT_data_member_location[DW_OP_plus_uconst 0x0]
    8537                      .dwattr $C$DW$776, DW_AT_accessibility(DW_ACCESS_public)
    8538              
    8539              $C$DW$777       .dwtag  DW_TAG_member
    8540                      .dwattr $C$DW$777, DW_AT_type(*$C$DW$T$19)
    8541                      .dwattr $C$DW$777, DW_AT_name("rsvd1")
    8542                      .dwattr $C$DW$777, DW_AT_TI_symbol_name("_rsvd1")
    8543                      .dwattr $C$DW$777, DW_AT_bit_offset(0x08)
    8544                      .dwattr $C$DW$777, DW_AT_bit_size(0x01)
    8545                      .dwattr $C$DW$777, DW_AT_data_member_location[DW_OP_plus_uconst 0x0]
    8546                      .dwattr $C$DW$777, DW_AT_accessibility(DW_ACCESS_public)
    8547              
    8548              $C$DW$778       .dwtag  DW_TAG_member
    8549                      .dwattr $C$DW$778, DW_AT_type(*$C$DW$T$19)
    8550                      .dwattr $C$DW$778, DW_AT_name("INT6SEL")
    8551                      .dwattr $C$DW$778, DW_AT_TI_symbol_name("_INT6SEL")
    8552                      .dwattr $C$DW$778, DW_AT_bit_offset(0x03)
    8553                      .dwattr $C$DW$778, DW_AT_bit_size(0x05)
    8554                      .dwattr $C$DW$778, DW_AT_data_member_location[DW_OP_plus_uconst 0x0]
    8555                      .dwattr $C$DW$778, DW_AT_accessibility(DW_ACCESS_public)
    8556              
    8557              $C$DW$779       .dwtag  DW_TAG_member
    8558                      .dwattr $C$DW$779, DW_AT_type(*$C$DW$T$19)
    8559                      .dwattr $C$DW$779, DW_AT_name("INT6E")
TMS320C2000 Assembler PC v16.9.6 Tue Mar 06 18:34:46 2018

Tools Copyright (c) 1996-2017 Texas Instruments Incorporated
C:\Users\Admin\AppData\Local\Temp\{ED9AE313-281A-4435-8F2A-5411619B06A2} PAGE  164

    8560                      .dwattr $C$DW$779, DW_AT_TI_symbol_name("_INT6E")
    8561                      .dwattr $C$DW$779, DW_AT_bit_offset(0x02)
    8562                      .dwattr $C$DW$779, DW_AT_bit_size(0x01)
    8563                      .dwattr $C$DW$779, DW_AT_data_member_location[DW_OP_plus_uconst 0x0]
    8564                      .dwattr $C$DW$779, DW_AT_accessibility(DW_ACCESS_public)
    8565              
    8566              $C$DW$780       .dwtag  DW_TAG_member
    8567                      .dwattr $C$DW$780, DW_AT_type(*$C$DW$T$19)
    8568                      .dwattr $C$DW$780, DW_AT_name("INT6CONT")
    8569                      .dwattr $C$DW$780, DW_AT_TI_symbol_name("_INT6CONT")
    8570                      .dwattr $C$DW$780, DW_AT_bit_offset(0x01)
    8571                      .dwattr $C$DW$780, DW_AT_bit_size(0x01)
    8572                      .dwattr $C$DW$780, DW_AT_data_member_location[DW_OP_plus_uconst 0x0]
    8573                      .dwattr $C$DW$780, DW_AT_accessibility(DW_ACCESS_public)
    8574              
    8575              $C$DW$781       .dwtag  DW_TAG_member
    8576                      .dwattr $C$DW$781, DW_AT_type(*$C$DW$T$19)
    8577                      .dwattr $C$DW$781, DW_AT_name("rsvd2")
    8578                      .dwattr $C$DW$781, DW_AT_TI_symbol_name("_rsvd2")
    8579                      .dwattr $C$DW$781, DW_AT_bit_offset(0x00)
    8580                      .dwattr $C$DW$781, DW_AT_bit_size(0x01)
    8581                      .dwattr $C$DW$781, DW_AT_data_member_location[DW_OP_plus_uconst 0x0]
    8582                      .dwattr $C$DW$781, DW_AT_accessibility(DW_ACCESS_public)
    8583              
    8584                      .dwendtag $C$DW$T$136
    8585              
    8586              
    8587              $C$DW$T$137     .dwtag  DW_TAG_union_type
    8588                      .dwattr $C$DW$T$137, DW_AT_name("INTSEL5N6_REG")
    8589                      .dwattr $C$DW$T$137, DW_AT_byte_size(0x01)
    8590              $C$DW$782       .dwtag  DW_TAG_member
    8591                      .dwattr $C$DW$782, DW_AT_type(*$C$DW$T$19)
    8592                      .dwattr $C$DW$782, DW_AT_name("all")
    8593                      .dwattr $C$DW$782, DW_AT_TI_symbol_name("_all")
    8594                      .dwattr $C$DW$782, DW_AT_data_member_location[DW_OP_plus_uconst 0x0]
    8595                      .dwattr $C$DW$782, DW_AT_accessibility(DW_ACCESS_public)
    8596              
    8597              $C$DW$783       .dwtag  DW_TAG_member
    8598                      .dwattr $C$DW$783, DW_AT_type(*$C$DW$T$136)
    8599                      .dwattr $C$DW$783, DW_AT_name("bit")
    8600                      .dwattr $C$DW$783, DW_AT_TI_symbol_name("_bit")
    8601                      .dwattr $C$DW$783, DW_AT_data_member_location[DW_OP_plus_uconst 0x0]
    8602                      .dwattr $C$DW$783, DW_AT_accessibility(DW_ACCESS_public)
    8603              
    8604                      .dwendtag $C$DW$T$137
    8605              
    8606              
    8607              $C$DW$T$138     .dwtag  DW_TAG_structure_type
    8608                      .dwattr $C$DW$T$138, DW_AT_name("INTSEL7N8_BITS")
    8609                      .dwattr $C$DW$T$138, DW_AT_byte_size(0x01)
    8610              $C$DW$784       .dwtag  DW_TAG_member
    8611                      .dwattr $C$DW$784, DW_AT_type(*$C$DW$T$19)
    8612                      .dwattr $C$DW$784, DW_AT_name("INT7SEL")
    8613                      .dwattr $C$DW$784, DW_AT_TI_symbol_name("_INT7SEL")
    8614                      .dwattr $C$DW$784, DW_AT_bit_offset(0x0b)
TMS320C2000 Assembler PC v16.9.6 Tue Mar 06 18:34:46 2018

Tools Copyright (c) 1996-2017 Texas Instruments Incorporated
C:\Users\Admin\AppData\Local\Temp\{ED9AE313-281A-4435-8F2A-5411619B06A2} PAGE  165

    8615                      .dwattr $C$DW$784, DW_AT_bit_size(0x05)
    8616                      .dwattr $C$DW$784, DW_AT_data_member_location[DW_OP_plus_uconst 0x0]
    8617                      .dwattr $C$DW$784, DW_AT_accessibility(DW_ACCESS_public)
    8618              
    8619              $C$DW$785       .dwtag  DW_TAG_member
    8620                      .dwattr $C$DW$785, DW_AT_type(*$C$DW$T$19)
    8621                      .dwattr $C$DW$785, DW_AT_name("INT7E")
    8622                      .dwattr $C$DW$785, DW_AT_TI_symbol_name("_INT7E")
    8623                      .dwattr $C$DW$785, DW_AT_bit_offset(0x0a)
    8624                      .dwattr $C$DW$785, DW_AT_bit_size(0x01)
    8625                      .dwattr $C$DW$785, DW_AT_data_member_location[DW_OP_plus_uconst 0x0]
    8626                      .dwattr $C$DW$785, DW_AT_accessibility(DW_ACCESS_public)
    8627              
    8628              $C$DW$786       .dwtag  DW_TAG_member
    8629                      .dwattr $C$DW$786, DW_AT_type(*$C$DW$T$19)
    8630                      .dwattr $C$DW$786, DW_AT_name("INT7CONT")
    8631                      .dwattr $C$DW$786, DW_AT_TI_symbol_name("_INT7CONT")
    8632                      .dwattr $C$DW$786, DW_AT_bit_offset(0x09)
    8633                      .dwattr $C$DW$786, DW_AT_bit_size(0x01)
    8634                      .dwattr $C$DW$786, DW_AT_data_member_location[DW_OP_plus_uconst 0x0]
    8635                      .dwattr $C$DW$786, DW_AT_accessibility(DW_ACCESS_public)
    8636              
    8637              $C$DW$787       .dwtag  DW_TAG_member
    8638                      .dwattr $C$DW$787, DW_AT_type(*$C$DW$T$19)
    8639                      .dwattr $C$DW$787, DW_AT_name("rsvd1")
    8640                      .dwattr $C$DW$787, DW_AT_TI_symbol_name("_rsvd1")
    8641                      .dwattr $C$DW$787, DW_AT_bit_offset(0x08)
    8642                      .dwattr $C$DW$787, DW_AT_bit_size(0x01)
    8643                      .dwattr $C$DW$787, DW_AT_data_member_location[DW_OP_plus_uconst 0x0]
    8644                      .dwattr $C$DW$787, DW_AT_accessibility(DW_ACCESS_public)
    8645              
    8646              $C$DW$788       .dwtag  DW_TAG_member
    8647                      .dwattr $C$DW$788, DW_AT_type(*$C$DW$T$19)
    8648                      .dwattr $C$DW$788, DW_AT_name("INT8SEL")
    8649                      .dwattr $C$DW$788, DW_AT_TI_symbol_name("_INT8SEL")
    8650                      .dwattr $C$DW$788, DW_AT_bit_offset(0x03)
    8651                      .dwattr $C$DW$788, DW_AT_bit_size(0x05)
    8652                      .dwattr $C$DW$788, DW_AT_data_member_location[DW_OP_plus_uconst 0x0]
    8653                      .dwattr $C$DW$788, DW_AT_accessibility(DW_ACCESS_public)
    8654              
    8655              $C$DW$789       .dwtag  DW_TAG_member
    8656                      .dwattr $C$DW$789, DW_AT_type(*$C$DW$T$19)
    8657                      .dwattr $C$DW$789, DW_AT_name("INT8E")
    8658                      .dwattr $C$DW$789, DW_AT_TI_symbol_name("_INT8E")
    8659                      .dwattr $C$DW$789, DW_AT_bit_offset(0x02)
    8660                      .dwattr $C$DW$789, DW_AT_bit_size(0x01)
    8661                      .dwattr $C$DW$789, DW_AT_data_member_location[DW_OP_plus_uconst 0x0]
    8662                      .dwattr $C$DW$789, DW_AT_accessibility(DW_ACCESS_public)
    8663              
    8664              $C$DW$790       .dwtag  DW_TAG_member
    8665                      .dwattr $C$DW$790, DW_AT_type(*$C$DW$T$19)
    8666                      .dwattr $C$DW$790, DW_AT_name("INT8CONT")
    8667                      .dwattr $C$DW$790, DW_AT_TI_symbol_name("_INT8CONT")
    8668                      .dwattr $C$DW$790, DW_AT_bit_offset(0x01)
    8669                      .dwattr $C$DW$790, DW_AT_bit_size(0x01)
TMS320C2000 Assembler PC v16.9.6 Tue Mar 06 18:34:46 2018

Tools Copyright (c) 1996-2017 Texas Instruments Incorporated
C:\Users\Admin\AppData\Local\Temp\{ED9AE313-281A-4435-8F2A-5411619B06A2} PAGE  166

    8670                      .dwattr $C$DW$790, DW_AT_data_member_location[DW_OP_plus_uconst 0x0]
    8671                      .dwattr $C$DW$790, DW_AT_accessibility(DW_ACCESS_public)
    8672              
    8673              $C$DW$791       .dwtag  DW_TAG_member
    8674                      .dwattr $C$DW$791, DW_AT_type(*$C$DW$T$19)
    8675                      .dwattr $C$DW$791, DW_AT_name("rsvd2")
    8676                      .dwattr $C$DW$791, DW_AT_TI_symbol_name("_rsvd2")
    8677                      .dwattr $C$DW$791, DW_AT_bit_offset(0x00)
    8678                      .dwattr $C$DW$791, DW_AT_bit_size(0x01)
    8679                      .dwattr $C$DW$791, DW_AT_data_member_location[DW_OP_plus_uconst 0x0]
    8680                      .dwattr $C$DW$791, DW_AT_accessibility(DW_ACCESS_public)
    8681              
    8682                      .dwendtag $C$DW$T$138
    8683              
    8684              
    8685              $C$DW$T$139     .dwtag  DW_TAG_union_type
    8686                      .dwattr $C$DW$T$139, DW_AT_name("INTSEL7N8_REG")
    8687                      .dwattr $C$DW$T$139, DW_AT_byte_size(0x01)
    8688              $C$DW$792       .dwtag  DW_TAG_member
    8689                      .dwattr $C$DW$792, DW_AT_type(*$C$DW$T$19)
    8690                      .dwattr $C$DW$792, DW_AT_name("all")
    8691                      .dwattr $C$DW$792, DW_AT_TI_symbol_name("_all")
    8692                      .dwattr $C$DW$792, DW_AT_data_member_location[DW_OP_plus_uconst 0x0]
    8693                      .dwattr $C$DW$792, DW_AT_accessibility(DW_ACCESS_public)
    8694              
    8695              $C$DW$793       .dwtag  DW_TAG_member
    8696                      .dwattr $C$DW$793, DW_AT_type(*$C$DW$T$138)
    8697                      .dwattr $C$DW$793, DW_AT_name("bit")
    8698                      .dwattr $C$DW$793, DW_AT_TI_symbol_name("_bit")
    8699                      .dwattr $C$DW$793, DW_AT_data_member_location[DW_OP_plus_uconst 0x0]
    8700                      .dwattr $C$DW$793, DW_AT_accessibility(DW_ACCESS_public)
    8701              
    8702                      .dwendtag $C$DW$T$139
    8703              
    8704              
    8705              $C$DW$T$140     .dwtag  DW_TAG_structure_type
    8706                      .dwattr $C$DW$T$140, DW_AT_name("INTSEL9N10_BITS")
    8707                      .dwattr $C$DW$T$140, DW_AT_byte_size(0x01)
    8708              $C$DW$794       .dwtag  DW_TAG_member
    8709                      .dwattr $C$DW$794, DW_AT_type(*$C$DW$T$19)
    8710                      .dwattr $C$DW$794, DW_AT_name("INT9SEL")
    8711                      .dwattr $C$DW$794, DW_AT_TI_symbol_name("_INT9SEL")
    8712                      .dwattr $C$DW$794, DW_AT_bit_offset(0x0b)
    8713                      .dwattr $C$DW$794, DW_AT_bit_size(0x05)
    8714                      .dwattr $C$DW$794, DW_AT_data_member_location[DW_OP_plus_uconst 0x0]
    8715                      .dwattr $C$DW$794, DW_AT_accessibility(DW_ACCESS_public)
    8716              
    8717              $C$DW$795       .dwtag  DW_TAG_member
    8718                      .dwattr $C$DW$795, DW_AT_type(*$C$DW$T$19)
    8719                      .dwattr $C$DW$795, DW_AT_name("INT9E")
    8720                      .dwattr $C$DW$795, DW_AT_TI_symbol_name("_INT9E")
    8721                      .dwattr $C$DW$795, DW_AT_bit_offset(0x0a)
    8722                      .dwattr $C$DW$795, DW_AT_bit_size(0x01)
    8723                      .dwattr $C$DW$795, DW_AT_data_member_location[DW_OP_plus_uconst 0x0]
    8724                      .dwattr $C$DW$795, DW_AT_accessibility(DW_ACCESS_public)
TMS320C2000 Assembler PC v16.9.6 Tue Mar 06 18:34:46 2018

Tools Copyright (c) 1996-2017 Texas Instruments Incorporated
C:\Users\Admin\AppData\Local\Temp\{ED9AE313-281A-4435-8F2A-5411619B06A2} PAGE  167

    8725              
    8726              $C$DW$796       .dwtag  DW_TAG_member
    8727                      .dwattr $C$DW$796, DW_AT_type(*$C$DW$T$19)
    8728                      .dwattr $C$DW$796, DW_AT_name("INT9CONT")
    8729                      .dwattr $C$DW$796, DW_AT_TI_symbol_name("_INT9CONT")
    8730                      .dwattr $C$DW$796, DW_AT_bit_offset(0x09)
    8731                      .dwattr $C$DW$796, DW_AT_bit_size(0x01)
    8732                      .dwattr $C$DW$796, DW_AT_data_member_location[DW_OP_plus_uconst 0x0]
    8733                      .dwattr $C$DW$796, DW_AT_accessibility(DW_ACCESS_public)
    8734              
    8735              $C$DW$797       .dwtag  DW_TAG_member
    8736                      .dwattr $C$DW$797, DW_AT_type(*$C$DW$T$19)
    8737                      .dwattr $C$DW$797, DW_AT_name("rsvd1")
    8738                      .dwattr $C$DW$797, DW_AT_TI_symbol_name("_rsvd1")
    8739                      .dwattr $C$DW$797, DW_AT_bit_offset(0x08)
    8740                      .dwattr $C$DW$797, DW_AT_bit_size(0x01)
    8741                      .dwattr $C$DW$797, DW_AT_data_member_location[DW_OP_plus_uconst 0x0]
    8742                      .dwattr $C$DW$797, DW_AT_accessibility(DW_ACCESS_public)
    8743              
    8744              $C$DW$798       .dwtag  DW_TAG_member
    8745                      .dwattr $C$DW$798, DW_AT_type(*$C$DW$T$19)
    8746                      .dwattr $C$DW$798, DW_AT_name("INT10SEL")
    8747                      .dwattr $C$DW$798, DW_AT_TI_symbol_name("_INT10SEL")
    8748                      .dwattr $C$DW$798, DW_AT_bit_offset(0x03)
    8749                      .dwattr $C$DW$798, DW_AT_bit_size(0x05)
    8750                      .dwattr $C$DW$798, DW_AT_data_member_location[DW_OP_plus_uconst 0x0]
    8751                      .dwattr $C$DW$798, DW_AT_accessibility(DW_ACCESS_public)
    8752              
    8753              $C$DW$799       .dwtag  DW_TAG_member
    8754                      .dwattr $C$DW$799, DW_AT_type(*$C$DW$T$19)
    8755                      .dwattr $C$DW$799, DW_AT_name("INT10E")
    8756                      .dwattr $C$DW$799, DW_AT_TI_symbol_name("_INT10E")
    8757                      .dwattr $C$DW$799, DW_AT_bit_offset(0x02)
    8758                      .dwattr $C$DW$799, DW_AT_bit_size(0x01)
    8759                      .dwattr $C$DW$799, DW_AT_data_member_location[DW_OP_plus_uconst 0x0]
    8760                      .dwattr $C$DW$799, DW_AT_accessibility(DW_ACCESS_public)
    8761              
    8762              $C$DW$800       .dwtag  DW_TAG_member
    8763                      .dwattr $C$DW$800, DW_AT_type(*$C$DW$T$19)
    8764                      .dwattr $C$DW$800, DW_AT_name("INT10CONT")
    8765                      .dwattr $C$DW$800, DW_AT_TI_symbol_name("_INT10CONT")
    8766                      .dwattr $C$DW$800, DW_AT_bit_offset(0x01)
    8767                      .dwattr $C$DW$800, DW_AT_bit_size(0x01)
    8768                      .dwattr $C$DW$800, DW_AT_data_member_location[DW_OP_plus_uconst 0x0]
    8769                      .dwattr $C$DW$800, DW_AT_accessibility(DW_ACCESS_public)
    8770              
    8771              $C$DW$801       .dwtag  DW_TAG_member
    8772                      .dwattr $C$DW$801, DW_AT_type(*$C$DW$T$19)
    8773                      .dwattr $C$DW$801, DW_AT_name("rsvd2")
    8774                      .dwattr $C$DW$801, DW_AT_TI_symbol_name("_rsvd2")
    8775                      .dwattr $C$DW$801, DW_AT_bit_offset(0x00)
    8776                      .dwattr $C$DW$801, DW_AT_bit_size(0x01)
    8777                      .dwattr $C$DW$801, DW_AT_data_member_location[DW_OP_plus_uconst 0x0]
    8778                      .dwattr $C$DW$801, DW_AT_accessibility(DW_ACCESS_public)
    8779              
TMS320C2000 Assembler PC v16.9.6 Tue Mar 06 18:34:46 2018

Tools Copyright (c) 1996-2017 Texas Instruments Incorporated
C:\Users\Admin\AppData\Local\Temp\{ED9AE313-281A-4435-8F2A-5411619B06A2} PAGE  168

    8780                      .dwendtag $C$DW$T$140
    8781              
    8782              
    8783              $C$DW$T$141     .dwtag  DW_TAG_union_type
    8784                      .dwattr $C$DW$T$141, DW_AT_name("INTSEL9N10_REG")
    8785                      .dwattr $C$DW$T$141, DW_AT_byte_size(0x01)
    8786              $C$DW$802       .dwtag  DW_TAG_member
    8787                      .dwattr $C$DW$802, DW_AT_type(*$C$DW$T$19)
    8788                      .dwattr $C$DW$802, DW_AT_name("all")
    8789                      .dwattr $C$DW$802, DW_AT_TI_symbol_name("_all")
    8790                      .dwattr $C$DW$802, DW_AT_data_member_location[DW_OP_plus_uconst 0x0]
    8791                      .dwattr $C$DW$802, DW_AT_accessibility(DW_ACCESS_public)
    8792              
    8793              $C$DW$803       .dwtag  DW_TAG_member
    8794                      .dwattr $C$DW$803, DW_AT_type(*$C$DW$T$140)
    8795                      .dwattr $C$DW$803, DW_AT_name("bit")
    8796                      .dwattr $C$DW$803, DW_AT_TI_symbol_name("_bit")
    8797                      .dwattr $C$DW$803, DW_AT_data_member_location[DW_OP_plus_uconst 0x0]
    8798                      .dwattr $C$DW$803, DW_AT_accessibility(DW_ACCESS_public)
    8799              
    8800                      .dwendtag $C$DW$T$141
    8801              
    8802              
    8803              $C$DW$T$142     .dwtag  DW_TAG_structure_type
    8804                      .dwattr $C$DW$T$142, DW_AT_name("LOSPCP_BITS")
    8805                      .dwattr $C$DW$T$142, DW_AT_byte_size(0x01)
    8806              $C$DW$804       .dwtag  DW_TAG_member
    8807                      .dwattr $C$DW$804, DW_AT_type(*$C$DW$T$19)
    8808                      .dwattr $C$DW$804, DW_AT_name("LSPCLK")
    8809                      .dwattr $C$DW$804, DW_AT_TI_symbol_name("_LSPCLK")
    8810                      .dwattr $C$DW$804, DW_AT_bit_offset(0x0d)
    8811                      .dwattr $C$DW$804, DW_AT_bit_size(0x03)
    8812                      .dwattr $C$DW$804, DW_AT_data_member_location[DW_OP_plus_uconst 0x0]
    8813                      .dwattr $C$DW$804, DW_AT_accessibility(DW_ACCESS_public)
    8814              
    8815              $C$DW$805       .dwtag  DW_TAG_member
    8816                      .dwattr $C$DW$805, DW_AT_type(*$C$DW$T$19)
    8817                      .dwattr $C$DW$805, DW_AT_name("rsvd1")
    8818                      .dwattr $C$DW$805, DW_AT_TI_symbol_name("_rsvd1")
    8819                      .dwattr $C$DW$805, DW_AT_bit_offset(0x00)
    8820                      .dwattr $C$DW$805, DW_AT_bit_size(0x0d)
    8821                      .dwattr $C$DW$805, DW_AT_data_member_location[DW_OP_plus_uconst 0x0]
    8822                      .dwattr $C$DW$805, DW_AT_accessibility(DW_ACCESS_public)
    8823              
    8824                      .dwendtag $C$DW$T$142
    8825              
    8826              
    8827              $C$DW$T$143     .dwtag  DW_TAG_union_type
    8828                      .dwattr $C$DW$T$143, DW_AT_name("LOSPCP_REG")
    8829                      .dwattr $C$DW$T$143, DW_AT_byte_size(0x01)
    8830              $C$DW$806       .dwtag  DW_TAG_member
    8831                      .dwattr $C$DW$806, DW_AT_type(*$C$DW$T$19)
    8832                      .dwattr $C$DW$806, DW_AT_name("all")
    8833                      .dwattr $C$DW$806, DW_AT_TI_symbol_name("_all")
    8834                      .dwattr $C$DW$806, DW_AT_data_member_location[DW_OP_plus_uconst 0x0]
TMS320C2000 Assembler PC v16.9.6 Tue Mar 06 18:34:46 2018

Tools Copyright (c) 1996-2017 Texas Instruments Incorporated
C:\Users\Admin\AppData\Local\Temp\{ED9AE313-281A-4435-8F2A-5411619B06A2} PAGE  169

    8835                      .dwattr $C$DW$806, DW_AT_accessibility(DW_ACCESS_public)
    8836              
    8837              $C$DW$807       .dwtag  DW_TAG_member
    8838                      .dwattr $C$DW$807, DW_AT_type(*$C$DW$T$142)
    8839                      .dwattr $C$DW$807, DW_AT_name("bit")
    8840                      .dwattr $C$DW$807, DW_AT_TI_symbol_name("_bit")
    8841                      .dwattr $C$DW$807, DW_AT_data_member_location[DW_OP_plus_uconst 0x0]
    8842                      .dwattr $C$DW$807, DW_AT_accessibility(DW_ACCESS_public)
    8843              
    8844                      .dwendtag $C$DW$T$143
    8845              
    8846              
    8847              $C$DW$T$144     .dwtag  DW_TAG_structure_type
    8848                      .dwattr $C$DW$T$144, DW_AT_name("LPMCR0_BITS")
    8849                      .dwattr $C$DW$T$144, DW_AT_byte_size(0x01)
    8850              $C$DW$808       .dwtag  DW_TAG_member
    8851                      .dwattr $C$DW$808, DW_AT_type(*$C$DW$T$19)
    8852                      .dwattr $C$DW$808, DW_AT_name("LPM")
    8853                      .dwattr $C$DW$808, DW_AT_TI_symbol_name("_LPM")
    8854                      .dwattr $C$DW$808, DW_AT_bit_offset(0x0e)
    8855                      .dwattr $C$DW$808, DW_AT_bit_size(0x02)
    8856                      .dwattr $C$DW$808, DW_AT_data_member_location[DW_OP_plus_uconst 0x0]
    8857                      .dwattr $C$DW$808, DW_AT_accessibility(DW_ACCESS_public)
    8858              
    8859              $C$DW$809       .dwtag  DW_TAG_member
    8860                      .dwattr $C$DW$809, DW_AT_type(*$C$DW$T$19)
    8861                      .dwattr $C$DW$809, DW_AT_name("QUALSTDBY")
    8862                      .dwattr $C$DW$809, DW_AT_TI_symbol_name("_QUALSTDBY")
    8863                      .dwattr $C$DW$809, DW_AT_bit_offset(0x08)
    8864                      .dwattr $C$DW$809, DW_AT_bit_size(0x06)
    8865                      .dwattr $C$DW$809, DW_AT_data_member_location[DW_OP_plus_uconst 0x0]
    8866                      .dwattr $C$DW$809, DW_AT_accessibility(DW_ACCESS_public)
    8867              
    8868              $C$DW$810       .dwtag  DW_TAG_member
    8869                      .dwattr $C$DW$810, DW_AT_type(*$C$DW$T$19)
    8870                      .dwattr $C$DW$810, DW_AT_name("rsvd1")
    8871                      .dwattr $C$DW$810, DW_AT_TI_symbol_name("_rsvd1")
    8872                      .dwattr $C$DW$810, DW_AT_bit_offset(0x01)
    8873                      .dwattr $C$DW$810, DW_AT_bit_size(0x07)
    8874                      .dwattr $C$DW$810, DW_AT_data_member_location[DW_OP_plus_uconst 0x0]
    8875                      .dwattr $C$DW$810, DW_AT_accessibility(DW_ACCESS_public)
    8876              
    8877              $C$DW$811       .dwtag  DW_TAG_member
    8878                      .dwattr $C$DW$811, DW_AT_type(*$C$DW$T$19)
    8879                      .dwattr $C$DW$811, DW_AT_name("WDINTE")
    8880                      .dwattr $C$DW$811, DW_AT_TI_symbol_name("_WDINTE")
    8881                      .dwattr $C$DW$811, DW_AT_bit_offset(0x00)
    8882                      .dwattr $C$DW$811, DW_AT_bit_size(0x01)
    8883                      .dwattr $C$DW$811, DW_AT_data_member_location[DW_OP_plus_uconst 0x0]
    8884                      .dwattr $C$DW$811, DW_AT_accessibility(DW_ACCESS_public)
    8885              
    8886                      .dwendtag $C$DW$T$144
    8887              
    8888              
    8889              $C$DW$T$145     .dwtag  DW_TAG_union_type
TMS320C2000 Assembler PC v16.9.6 Tue Mar 06 18:34:46 2018

Tools Copyright (c) 1996-2017 Texas Instruments Incorporated
C:\Users\Admin\AppData\Local\Temp\{ED9AE313-281A-4435-8F2A-5411619B06A2} PAGE  170

    8890                      .dwattr $C$DW$T$145, DW_AT_name("LPMCR0_REG")
    8891                      .dwattr $C$DW$T$145, DW_AT_byte_size(0x01)
    8892              $C$DW$812       .dwtag  DW_TAG_member
    8893                      .dwattr $C$DW$812, DW_AT_type(*$C$DW$T$19)
    8894                      .dwattr $C$DW$812, DW_AT_name("all")
    8895                      .dwattr $C$DW$812, DW_AT_TI_symbol_name("_all")
    8896                      .dwattr $C$DW$812, DW_AT_data_member_location[DW_OP_plus_uconst 0x0]
    8897                      .dwattr $C$DW$812, DW_AT_accessibility(DW_ACCESS_public)
    8898              
    8899              $C$DW$813       .dwtag  DW_TAG_member
    8900                      .dwattr $C$DW$813, DW_AT_type(*$C$DW$T$144)
    8901                      .dwattr $C$DW$813, DW_AT_name("bit")
    8902                      .dwattr $C$DW$813, DW_AT_TI_symbol_name("_bit")
    8903                      .dwattr $C$DW$813, DW_AT_data_member_location[DW_OP_plus_uconst 0x0]
    8904                      .dwattr $C$DW$813, DW_AT_accessibility(DW_ACCESS_public)
    8905              
    8906                      .dwendtag $C$DW$T$145
    8907              
    8908              
    8909              $C$DW$T$146     .dwtag  DW_TAG_structure_type
    8910                      .dwattr $C$DW$T$146, DW_AT_name("PCCTL_BITS")
    8911                      .dwattr $C$DW$T$146, DW_AT_byte_size(0x01)
    8912              $C$DW$814       .dwtag  DW_TAG_member
    8913                      .dwattr $C$DW$814, DW_AT_type(*$C$DW$T$19)
    8914                      .dwattr $C$DW$814, DW_AT_name("CHPEN")
    8915                      .dwattr $C$DW$814, DW_AT_TI_symbol_name("_CHPEN")
    8916                      .dwattr $C$DW$814, DW_AT_bit_offset(0x0f)
    8917                      .dwattr $C$DW$814, DW_AT_bit_size(0x01)
    8918                      .dwattr $C$DW$814, DW_AT_data_member_location[DW_OP_plus_uconst 0x0]
    8919                      .dwattr $C$DW$814, DW_AT_accessibility(DW_ACCESS_public)
    8920              
    8921              $C$DW$815       .dwtag  DW_TAG_member
    8922                      .dwattr $C$DW$815, DW_AT_type(*$C$DW$T$19)
    8923                      .dwattr $C$DW$815, DW_AT_name("OSHTWTH")
    8924                      .dwattr $C$DW$815, DW_AT_TI_symbol_name("_OSHTWTH")
    8925                      .dwattr $C$DW$815, DW_AT_bit_offset(0x0b)
    8926                      .dwattr $C$DW$815, DW_AT_bit_size(0x04)
    8927                      .dwattr $C$DW$815, DW_AT_data_member_location[DW_OP_plus_uconst 0x0]
    8928                      .dwattr $C$DW$815, DW_AT_accessibility(DW_ACCESS_public)
    8929              
    8930              $C$DW$816       .dwtag  DW_TAG_member
    8931                      .dwattr $C$DW$816, DW_AT_type(*$C$DW$T$19)
    8932                      .dwattr $C$DW$816, DW_AT_name("CHPFREQ")
    8933                      .dwattr $C$DW$816, DW_AT_TI_symbol_name("_CHPFREQ")
    8934                      .dwattr $C$DW$816, DW_AT_bit_offset(0x08)
    8935                      .dwattr $C$DW$816, DW_AT_bit_size(0x03)
    8936                      .dwattr $C$DW$816, DW_AT_data_member_location[DW_OP_plus_uconst 0x0]
    8937                      .dwattr $C$DW$816, DW_AT_accessibility(DW_ACCESS_public)
    8938              
    8939              $C$DW$817       .dwtag  DW_TAG_member
    8940                      .dwattr $C$DW$817, DW_AT_type(*$C$DW$T$19)
    8941                      .dwattr $C$DW$817, DW_AT_name("CHPDUTY")
    8942                      .dwattr $C$DW$817, DW_AT_TI_symbol_name("_CHPDUTY")
    8943                      .dwattr $C$DW$817, DW_AT_bit_offset(0x05)
    8944                      .dwattr $C$DW$817, DW_AT_bit_size(0x03)
TMS320C2000 Assembler PC v16.9.6 Tue Mar 06 18:34:46 2018

Tools Copyright (c) 1996-2017 Texas Instruments Incorporated
C:\Users\Admin\AppData\Local\Temp\{ED9AE313-281A-4435-8F2A-5411619B06A2} PAGE  171

    8945                      .dwattr $C$DW$817, DW_AT_data_member_location[DW_OP_plus_uconst 0x0]
    8946                      .dwattr $C$DW$817, DW_AT_accessibility(DW_ACCESS_public)
    8947              
    8948              $C$DW$818       .dwtag  DW_TAG_member
    8949                      .dwattr $C$DW$818, DW_AT_type(*$C$DW$T$19)
    8950                      .dwattr $C$DW$818, DW_AT_name("rsvd1")
    8951                      .dwattr $C$DW$818, DW_AT_TI_symbol_name("_rsvd1")
    8952                      .dwattr $C$DW$818, DW_AT_bit_offset(0x00)
    8953                      .dwattr $C$DW$818, DW_AT_bit_size(0x05)
    8954                      .dwattr $C$DW$818, DW_AT_data_member_location[DW_OP_plus_uconst 0x0]
    8955                      .dwattr $C$DW$818, DW_AT_accessibility(DW_ACCESS_public)
    8956              
    8957                      .dwendtag $C$DW$T$146
    8958              
    8959              
    8960              $C$DW$T$147     .dwtag  DW_TAG_union_type
    8961                      .dwattr $C$DW$T$147, DW_AT_name("PCCTL_REG")
    8962                      .dwattr $C$DW$T$147, DW_AT_byte_size(0x01)
    8963              $C$DW$819       .dwtag  DW_TAG_member
    8964                      .dwattr $C$DW$819, DW_AT_type(*$C$DW$T$19)
    8965                      .dwattr $C$DW$819, DW_AT_name("all")
    8966                      .dwattr $C$DW$819, DW_AT_TI_symbol_name("_all")
    8967                      .dwattr $C$DW$819, DW_AT_data_member_location[DW_OP_plus_uconst 0x0]
    8968                      .dwattr $C$DW$819, DW_AT_accessibility(DW_ACCESS_public)
    8969              
    8970              $C$DW$820       .dwtag  DW_TAG_member
    8971                      .dwattr $C$DW$820, DW_AT_type(*$C$DW$T$146)
    8972                      .dwattr $C$DW$820, DW_AT_name("bit")
    8973                      .dwattr $C$DW$820, DW_AT_TI_symbol_name("_bit")
    8974                      .dwattr $C$DW$820, DW_AT_data_member_location[DW_OP_plus_uconst 0x0]
    8975                      .dwattr $C$DW$820, DW_AT_accessibility(DW_ACCESS_public)
    8976              
    8977                      .dwendtag $C$DW$T$147
    8978              
    8979              
    8980              $C$DW$T$148     .dwtag  DW_TAG_structure_type
    8981                      .dwattr $C$DW$T$148, DW_AT_name("PCLKCR0_BITS")
    8982                      .dwattr $C$DW$T$148, DW_AT_byte_size(0x01)
    8983              $C$DW$821       .dwtag  DW_TAG_member
    8984                      .dwattr $C$DW$821, DW_AT_type(*$C$DW$T$19)
    8985                      .dwattr $C$DW$821, DW_AT_name("HRPWMENCLK")
    8986                      .dwattr $C$DW$821, DW_AT_TI_symbol_name("_HRPWMENCLK")
    8987                      .dwattr $C$DW$821, DW_AT_bit_offset(0x0f)
    8988                      .dwattr $C$DW$821, DW_AT_bit_size(0x01)
    8989                      .dwattr $C$DW$821, DW_AT_data_member_location[DW_OP_plus_uconst 0x0]
    8990                      .dwattr $C$DW$821, DW_AT_accessibility(DW_ACCESS_public)
    8991              
    8992              $C$DW$822       .dwtag  DW_TAG_member
    8993                      .dwattr $C$DW$822, DW_AT_type(*$C$DW$T$19)
    8994                      .dwattr $C$DW$822, DW_AT_name("LINAENCLK")
    8995                      .dwattr $C$DW$822, DW_AT_TI_symbol_name("_LINAENCLK")
    8996                      .dwattr $C$DW$822, DW_AT_bit_offset(0x0e)
    8997                      .dwattr $C$DW$822, DW_AT_bit_size(0x01)
    8998                      .dwattr $C$DW$822, DW_AT_data_member_location[DW_OP_plus_uconst 0x0]
    8999                      .dwattr $C$DW$822, DW_AT_accessibility(DW_ACCESS_public)
TMS320C2000 Assembler PC v16.9.6 Tue Mar 06 18:34:46 2018

Tools Copyright (c) 1996-2017 Texas Instruments Incorporated
C:\Users\Admin\AppData\Local\Temp\{ED9AE313-281A-4435-8F2A-5411619B06A2} PAGE  172

    9000              
    9001              $C$DW$823       .dwtag  DW_TAG_member
    9002                      .dwattr $C$DW$823, DW_AT_type(*$C$DW$T$19)
    9003                      .dwattr $C$DW$823, DW_AT_name("TBCLKSYNC")
    9004                      .dwattr $C$DW$823, DW_AT_TI_symbol_name("_TBCLKSYNC")
    9005                      .dwattr $C$DW$823, DW_AT_bit_offset(0x0d)
    9006                      .dwattr $C$DW$823, DW_AT_bit_size(0x01)
    9007                      .dwattr $C$DW$823, DW_AT_data_member_location[DW_OP_plus_uconst 0x0]
    9008                      .dwattr $C$DW$823, DW_AT_accessibility(DW_ACCESS_public)
    9009              
    9010              $C$DW$824       .dwtag  DW_TAG_member
    9011                      .dwattr $C$DW$824, DW_AT_type(*$C$DW$T$19)
    9012                      .dwattr $C$DW$824, DW_AT_name("ADCENCLK")
    9013                      .dwattr $C$DW$824, DW_AT_TI_symbol_name("_ADCENCLK")
    9014                      .dwattr $C$DW$824, DW_AT_bit_offset(0x0c)
    9015                      .dwattr $C$DW$824, DW_AT_bit_size(0x01)
    9016                      .dwattr $C$DW$824, DW_AT_data_member_location[DW_OP_plus_uconst 0x0]
    9017                      .dwattr $C$DW$824, DW_AT_accessibility(DW_ACCESS_public)
    9018              
    9019              $C$DW$825       .dwtag  DW_TAG_member
    9020                      .dwattr $C$DW$825, DW_AT_type(*$C$DW$T$19)
    9021                      .dwattr $C$DW$825, DW_AT_name("I2CAENCLK")
    9022                      .dwattr $C$DW$825, DW_AT_TI_symbol_name("_I2CAENCLK")
    9023                      .dwattr $C$DW$825, DW_AT_bit_offset(0x0b)
    9024                      .dwattr $C$DW$825, DW_AT_bit_size(0x01)
    9025                      .dwattr $C$DW$825, DW_AT_data_member_location[DW_OP_plus_uconst 0x0]
    9026                      .dwattr $C$DW$825, DW_AT_accessibility(DW_ACCESS_public)
    9027              
    9028              $C$DW$826       .dwtag  DW_TAG_member
    9029                      .dwattr $C$DW$826, DW_AT_type(*$C$DW$T$19)
    9030                      .dwattr $C$DW$826, DW_AT_name("rsvd1")
    9031                      .dwattr $C$DW$826, DW_AT_TI_symbol_name("_rsvd1")
    9032                      .dwattr $C$DW$826, DW_AT_bit_offset(0x08)
    9033                      .dwattr $C$DW$826, DW_AT_bit_size(0x03)
    9034                      .dwattr $C$DW$826, DW_AT_data_member_location[DW_OP_plus_uconst 0x0]
    9035                      .dwattr $C$DW$826, DW_AT_accessibility(DW_ACCESS_public)
    9036              
    9037              $C$DW$827       .dwtag  DW_TAG_member
    9038                      .dwattr $C$DW$827, DW_AT_type(*$C$DW$T$19)
    9039                      .dwattr $C$DW$827, DW_AT_name("SPIAENCLK")
    9040                      .dwattr $C$DW$827, DW_AT_TI_symbol_name("_SPIAENCLK")
    9041                      .dwattr $C$DW$827, DW_AT_bit_offset(0x07)
    9042                      .dwattr $C$DW$827, DW_AT_bit_size(0x01)
    9043                      .dwattr $C$DW$827, DW_AT_data_member_location[DW_OP_plus_uconst 0x0]
    9044                      .dwattr $C$DW$827, DW_AT_accessibility(DW_ACCESS_public)
    9045              
    9046              $C$DW$828       .dwtag  DW_TAG_member
    9047                      .dwattr $C$DW$828, DW_AT_type(*$C$DW$T$19)
    9048                      .dwattr $C$DW$828, DW_AT_name("SPIBENCLK")
    9049                      .dwattr $C$DW$828, DW_AT_TI_symbol_name("_SPIBENCLK")
    9050                      .dwattr $C$DW$828, DW_AT_bit_offset(0x06)
    9051                      .dwattr $C$DW$828, DW_AT_bit_size(0x01)
    9052                      .dwattr $C$DW$828, DW_AT_data_member_location[DW_OP_plus_uconst 0x0]
    9053                      .dwattr $C$DW$828, DW_AT_accessibility(DW_ACCESS_public)
    9054              
TMS320C2000 Assembler PC v16.9.6 Tue Mar 06 18:34:46 2018

Tools Copyright (c) 1996-2017 Texas Instruments Incorporated
C:\Users\Admin\AppData\Local\Temp\{ED9AE313-281A-4435-8F2A-5411619B06A2} PAGE  173

    9055              $C$DW$829       .dwtag  DW_TAG_member
    9056                      .dwattr $C$DW$829, DW_AT_type(*$C$DW$T$19)
    9057                      .dwattr $C$DW$829, DW_AT_name("SCIAENCLK")
    9058                      .dwattr $C$DW$829, DW_AT_TI_symbol_name("_SCIAENCLK")
    9059                      .dwattr $C$DW$829, DW_AT_bit_offset(0x05)
    9060                      .dwattr $C$DW$829, DW_AT_bit_size(0x01)
    9061                      .dwattr $C$DW$829, DW_AT_data_member_location[DW_OP_plus_uconst 0x0]
    9062                      .dwattr $C$DW$829, DW_AT_accessibility(DW_ACCESS_public)
    9063              
    9064              $C$DW$830       .dwtag  DW_TAG_member
    9065                      .dwattr $C$DW$830, DW_AT_type(*$C$DW$T$19)
    9066                      .dwattr $C$DW$830, DW_AT_name("rsvd3")
    9067                      .dwattr $C$DW$830, DW_AT_TI_symbol_name("_rsvd3")
    9068                      .dwattr $C$DW$830, DW_AT_bit_offset(0x02)
    9069                      .dwattr $C$DW$830, DW_AT_bit_size(0x03)
    9070                      .dwattr $C$DW$830, DW_AT_data_member_location[DW_OP_plus_uconst 0x0]
    9071                      .dwattr $C$DW$830, DW_AT_accessibility(DW_ACCESS_public)
    9072              
    9073              $C$DW$831       .dwtag  DW_TAG_member
    9074                      .dwattr $C$DW$831, DW_AT_type(*$C$DW$T$19)
    9075                      .dwattr $C$DW$831, DW_AT_name("ECANAENCLK")
    9076                      .dwattr $C$DW$831, DW_AT_TI_symbol_name("_ECANAENCLK")
    9077                      .dwattr $C$DW$831, DW_AT_bit_offset(0x01)
    9078                      .dwattr $C$DW$831, DW_AT_bit_size(0x01)
    9079                      .dwattr $C$DW$831, DW_AT_data_member_location[DW_OP_plus_uconst 0x0]
    9080                      .dwattr $C$DW$831, DW_AT_accessibility(DW_ACCESS_public)
    9081              
    9082              $C$DW$832       .dwtag  DW_TAG_member
    9083                      .dwattr $C$DW$832, DW_AT_type(*$C$DW$T$19)
    9084                      .dwattr $C$DW$832, DW_AT_name("rsvd5")
    9085                      .dwattr $C$DW$832, DW_AT_TI_symbol_name("_rsvd5")
    9086                      .dwattr $C$DW$832, DW_AT_bit_offset(0x00)
    9087                      .dwattr $C$DW$832, DW_AT_bit_size(0x01)
    9088                      .dwattr $C$DW$832, DW_AT_data_member_location[DW_OP_plus_uconst 0x0]
    9089                      .dwattr $C$DW$832, DW_AT_accessibility(DW_ACCESS_public)
    9090              
    9091                      .dwendtag $C$DW$T$148
    9092              
    9093              
    9094              $C$DW$T$149     .dwtag  DW_TAG_union_type
    9095                      .dwattr $C$DW$T$149, DW_AT_name("PCLKCR0_REG")
    9096                      .dwattr $C$DW$T$149, DW_AT_byte_size(0x01)
    9097              $C$DW$833       .dwtag  DW_TAG_member
    9098                      .dwattr $C$DW$833, DW_AT_type(*$C$DW$T$19)
    9099                      .dwattr $C$DW$833, DW_AT_name("all")
    9100                      .dwattr $C$DW$833, DW_AT_TI_symbol_name("_all")
    9101                      .dwattr $C$DW$833, DW_AT_data_member_location[DW_OP_plus_uconst 0x0]
    9102                      .dwattr $C$DW$833, DW_AT_accessibility(DW_ACCESS_public)
    9103              
    9104              $C$DW$834       .dwtag  DW_TAG_member
    9105                      .dwattr $C$DW$834, DW_AT_type(*$C$DW$T$148)
    9106                      .dwattr $C$DW$834, DW_AT_name("bit")
    9107                      .dwattr $C$DW$834, DW_AT_TI_symbol_name("_bit")
    9108                      .dwattr $C$DW$834, DW_AT_data_member_location[DW_OP_plus_uconst 0x0]
    9109                      .dwattr $C$DW$834, DW_AT_accessibility(DW_ACCESS_public)
TMS320C2000 Assembler PC v16.9.6 Tue Mar 06 18:34:46 2018

Tools Copyright (c) 1996-2017 Texas Instruments Incorporated
C:\Users\Admin\AppData\Local\Temp\{ED9AE313-281A-4435-8F2A-5411619B06A2} PAGE  174

    9110              
    9111                      .dwendtag $C$DW$T$149
    9112              
    9113              
    9114              $C$DW$T$150     .dwtag  DW_TAG_structure_type
    9115                      .dwattr $C$DW$T$150, DW_AT_name("PCLKCR1_BITS")
    9116                      .dwattr $C$DW$T$150, DW_AT_byte_size(0x01)
    9117              $C$DW$835       .dwtag  DW_TAG_member
    9118                      .dwattr $C$DW$835, DW_AT_type(*$C$DW$T$19)
    9119                      .dwattr $C$DW$835, DW_AT_name("EPWM1ENCLK")
    9120                      .dwattr $C$DW$835, DW_AT_TI_symbol_name("_EPWM1ENCLK")
    9121                      .dwattr $C$DW$835, DW_AT_bit_offset(0x0f)
    9122                      .dwattr $C$DW$835, DW_AT_bit_size(0x01)
    9123                      .dwattr $C$DW$835, DW_AT_data_member_location[DW_OP_plus_uconst 0x0]
    9124                      .dwattr $C$DW$835, DW_AT_accessibility(DW_ACCESS_public)
    9125              
    9126              $C$DW$836       .dwtag  DW_TAG_member
    9127                      .dwattr $C$DW$836, DW_AT_type(*$C$DW$T$19)
    9128                      .dwattr $C$DW$836, DW_AT_name("EPWM2ENCLK")
    9129                      .dwattr $C$DW$836, DW_AT_TI_symbol_name("_EPWM2ENCLK")
    9130                      .dwattr $C$DW$836, DW_AT_bit_offset(0x0e)
    9131                      .dwattr $C$DW$836, DW_AT_bit_size(0x01)
    9132                      .dwattr $C$DW$836, DW_AT_data_member_location[DW_OP_plus_uconst 0x0]
    9133                      .dwattr $C$DW$836, DW_AT_accessibility(DW_ACCESS_public)
    9134              
    9135              $C$DW$837       .dwtag  DW_TAG_member
    9136                      .dwattr $C$DW$837, DW_AT_type(*$C$DW$T$19)
    9137                      .dwattr $C$DW$837, DW_AT_name("EPWM3ENCLK")
    9138                      .dwattr $C$DW$837, DW_AT_TI_symbol_name("_EPWM3ENCLK")
    9139                      .dwattr $C$DW$837, DW_AT_bit_offset(0x0d)
    9140                      .dwattr $C$DW$837, DW_AT_bit_size(0x01)
    9141                      .dwattr $C$DW$837, DW_AT_data_member_location[DW_OP_plus_uconst 0x0]
    9142                      .dwattr $C$DW$837, DW_AT_accessibility(DW_ACCESS_public)
    9143              
    9144              $C$DW$838       .dwtag  DW_TAG_member
    9145                      .dwattr $C$DW$838, DW_AT_type(*$C$DW$T$19)
    9146                      .dwattr $C$DW$838, DW_AT_name("EPWM4ENCLK")
    9147                      .dwattr $C$DW$838, DW_AT_TI_symbol_name("_EPWM4ENCLK")
    9148                      .dwattr $C$DW$838, DW_AT_bit_offset(0x0c)
    9149                      .dwattr $C$DW$838, DW_AT_bit_size(0x01)
    9150                      .dwattr $C$DW$838, DW_AT_data_member_location[DW_OP_plus_uconst 0x0]
    9151                      .dwattr $C$DW$838, DW_AT_accessibility(DW_ACCESS_public)
    9152              
    9153              $C$DW$839       .dwtag  DW_TAG_member
    9154                      .dwattr $C$DW$839, DW_AT_type(*$C$DW$T$19)
    9155                      .dwattr $C$DW$839, DW_AT_name("EPWM5ENCLK")
    9156                      .dwattr $C$DW$839, DW_AT_TI_symbol_name("_EPWM5ENCLK")
    9157                      .dwattr $C$DW$839, DW_AT_bit_offset(0x0b)
    9158                      .dwattr $C$DW$839, DW_AT_bit_size(0x01)
    9159                      .dwattr $C$DW$839, DW_AT_data_member_location[DW_OP_plus_uconst 0x0]
    9160                      .dwattr $C$DW$839, DW_AT_accessibility(DW_ACCESS_public)
    9161              
    9162              $C$DW$840       .dwtag  DW_TAG_member
    9163                      .dwattr $C$DW$840, DW_AT_type(*$C$DW$T$19)
    9164                      .dwattr $C$DW$840, DW_AT_name("EPWM6ENCLK")
TMS320C2000 Assembler PC v16.9.6 Tue Mar 06 18:34:46 2018

Tools Copyright (c) 1996-2017 Texas Instruments Incorporated
C:\Users\Admin\AppData\Local\Temp\{ED9AE313-281A-4435-8F2A-5411619B06A2} PAGE  175

    9165                      .dwattr $C$DW$840, DW_AT_TI_symbol_name("_EPWM6ENCLK")
    9166                      .dwattr $C$DW$840, DW_AT_bit_offset(0x0a)
    9167                      .dwattr $C$DW$840, DW_AT_bit_size(0x01)
    9168                      .dwattr $C$DW$840, DW_AT_data_member_location[DW_OP_plus_uconst 0x0]
    9169                      .dwattr $C$DW$840, DW_AT_accessibility(DW_ACCESS_public)
    9170              
    9171              $C$DW$841       .dwtag  DW_TAG_member
    9172                      .dwattr $C$DW$841, DW_AT_type(*$C$DW$T$19)
    9173                      .dwattr $C$DW$841, DW_AT_name("EPWM7ENCLK")
    9174                      .dwattr $C$DW$841, DW_AT_TI_symbol_name("_EPWM7ENCLK")
    9175                      .dwattr $C$DW$841, DW_AT_bit_offset(0x09)
    9176                      .dwattr $C$DW$841, DW_AT_bit_size(0x01)
    9177                      .dwattr $C$DW$841, DW_AT_data_member_location[DW_OP_plus_uconst 0x0]
    9178                      .dwattr $C$DW$841, DW_AT_accessibility(DW_ACCESS_public)
    9179              
    9180              $C$DW$842       .dwtag  DW_TAG_member
    9181                      .dwattr $C$DW$842, DW_AT_type(*$C$DW$T$19)
    9182                      .dwattr $C$DW$842, DW_AT_name("rsvd1")
    9183                      .dwattr $C$DW$842, DW_AT_TI_symbol_name("_rsvd1")
    9184                      .dwattr $C$DW$842, DW_AT_bit_offset(0x08)
    9185                      .dwattr $C$DW$842, DW_AT_bit_size(0x01)
    9186                      .dwattr $C$DW$842, DW_AT_data_member_location[DW_OP_plus_uconst 0x0]
    9187                      .dwattr $C$DW$842, DW_AT_accessibility(DW_ACCESS_public)
    9188              
    9189              $C$DW$843       .dwtag  DW_TAG_member
    9190                      .dwattr $C$DW$843, DW_AT_type(*$C$DW$T$19)
    9191                      .dwattr $C$DW$843, DW_AT_name("ECAP1ENCLK")
    9192                      .dwattr $C$DW$843, DW_AT_TI_symbol_name("_ECAP1ENCLK")
    9193                      .dwattr $C$DW$843, DW_AT_bit_offset(0x07)
    9194                      .dwattr $C$DW$843, DW_AT_bit_size(0x01)
    9195                      .dwattr $C$DW$843, DW_AT_data_member_location[DW_OP_plus_uconst 0x0]
    9196                      .dwattr $C$DW$843, DW_AT_accessibility(DW_ACCESS_public)
    9197              
    9198              $C$DW$844       .dwtag  DW_TAG_member
    9199                      .dwattr $C$DW$844, DW_AT_type(*$C$DW$T$19)
    9200                      .dwattr $C$DW$844, DW_AT_name("rsvd2")
    9201                      .dwattr $C$DW$844, DW_AT_TI_symbol_name("_rsvd2")
    9202                      .dwattr $C$DW$844, DW_AT_bit_offset(0x02)
    9203                      .dwattr $C$DW$844, DW_AT_bit_size(0x05)
    9204                      .dwattr $C$DW$844, DW_AT_data_member_location[DW_OP_plus_uconst 0x0]
    9205                      .dwattr $C$DW$844, DW_AT_accessibility(DW_ACCESS_public)
    9206              
    9207              $C$DW$845       .dwtag  DW_TAG_member
    9208                      .dwattr $C$DW$845, DW_AT_type(*$C$DW$T$19)
    9209                      .dwattr $C$DW$845, DW_AT_name("EQEP1ENCLK")
    9210                      .dwattr $C$DW$845, DW_AT_TI_symbol_name("_EQEP1ENCLK")
    9211                      .dwattr $C$DW$845, DW_AT_bit_offset(0x01)
    9212                      .dwattr $C$DW$845, DW_AT_bit_size(0x01)
    9213                      .dwattr $C$DW$845, DW_AT_data_member_location[DW_OP_plus_uconst 0x0]
    9214                      .dwattr $C$DW$845, DW_AT_accessibility(DW_ACCESS_public)
    9215              
    9216              $C$DW$846       .dwtag  DW_TAG_member
    9217                      .dwattr $C$DW$846, DW_AT_type(*$C$DW$T$19)
    9218                      .dwattr $C$DW$846, DW_AT_name("rsvd3")
    9219                      .dwattr $C$DW$846, DW_AT_TI_symbol_name("_rsvd3")
TMS320C2000 Assembler PC v16.9.6 Tue Mar 06 18:34:46 2018

Tools Copyright (c) 1996-2017 Texas Instruments Incorporated
C:\Users\Admin\AppData\Local\Temp\{ED9AE313-281A-4435-8F2A-5411619B06A2} PAGE  176

    9220                      .dwattr $C$DW$846, DW_AT_bit_offset(0x00)
    9221                      .dwattr $C$DW$846, DW_AT_bit_size(0x01)
    9222                      .dwattr $C$DW$846, DW_AT_data_member_location[DW_OP_plus_uconst 0x0]
    9223                      .dwattr $C$DW$846, DW_AT_accessibility(DW_ACCESS_public)
    9224              
    9225                      .dwendtag $C$DW$T$150
    9226              
    9227              
    9228              $C$DW$T$151     .dwtag  DW_TAG_union_type
    9229                      .dwattr $C$DW$T$151, DW_AT_name("PCLKCR1_REG")
    9230                      .dwattr $C$DW$T$151, DW_AT_byte_size(0x01)
    9231              $C$DW$847       .dwtag  DW_TAG_member
    9232                      .dwattr $C$DW$847, DW_AT_type(*$C$DW$T$19)
    9233                      .dwattr $C$DW$847, DW_AT_name("all")
    9234                      .dwattr $C$DW$847, DW_AT_TI_symbol_name("_all")
    9235                      .dwattr $C$DW$847, DW_AT_data_member_location[DW_OP_plus_uconst 0x0]
    9236                      .dwattr $C$DW$847, DW_AT_accessibility(DW_ACCESS_public)
    9237              
    9238              $C$DW$848       .dwtag  DW_TAG_member
    9239                      .dwattr $C$DW$848, DW_AT_type(*$C$DW$T$150)
    9240                      .dwattr $C$DW$848, DW_AT_name("bit")
    9241                      .dwattr $C$DW$848, DW_AT_TI_symbol_name("_bit")
    9242                      .dwattr $C$DW$848, DW_AT_data_member_location[DW_OP_plus_uconst 0x0]
    9243                      .dwattr $C$DW$848, DW_AT_accessibility(DW_ACCESS_public)
    9244              
    9245                      .dwendtag $C$DW$T$151
    9246              
    9247              
    9248              $C$DW$T$152     .dwtag  DW_TAG_structure_type
    9249                      .dwattr $C$DW$T$152, DW_AT_name("PCLKCR3_BITS")
    9250                      .dwattr $C$DW$T$152, DW_AT_byte_size(0x01)
    9251              $C$DW$849       .dwtag  DW_TAG_member
    9252                      .dwattr $C$DW$849, DW_AT_type(*$C$DW$T$19)
    9253                      .dwattr $C$DW$849, DW_AT_name("COMP1ENCLK")
    9254                      .dwattr $C$DW$849, DW_AT_TI_symbol_name("_COMP1ENCLK")
    9255                      .dwattr $C$DW$849, DW_AT_bit_offset(0x0f)
    9256                      .dwattr $C$DW$849, DW_AT_bit_size(0x01)
    9257                      .dwattr $C$DW$849, DW_AT_data_member_location[DW_OP_plus_uconst 0x0]
    9258                      .dwattr $C$DW$849, DW_AT_accessibility(DW_ACCESS_public)
    9259              
    9260              $C$DW$850       .dwtag  DW_TAG_member
    9261                      .dwattr $C$DW$850, DW_AT_type(*$C$DW$T$19)
    9262                      .dwattr $C$DW$850, DW_AT_name("COMP2ENCLK")
    9263                      .dwattr $C$DW$850, DW_AT_TI_symbol_name("_COMP2ENCLK")
    9264                      .dwattr $C$DW$850, DW_AT_bit_offset(0x0e)
    9265                      .dwattr $C$DW$850, DW_AT_bit_size(0x01)
    9266                      .dwattr $C$DW$850, DW_AT_data_member_location[DW_OP_plus_uconst 0x0]
    9267                      .dwattr $C$DW$850, DW_AT_accessibility(DW_ACCESS_public)
    9268              
    9269              $C$DW$851       .dwtag  DW_TAG_member
    9270                      .dwattr $C$DW$851, DW_AT_type(*$C$DW$T$19)
    9271                      .dwattr $C$DW$851, DW_AT_name("COMP3ENCLK")
    9272                      .dwattr $C$DW$851, DW_AT_TI_symbol_name("_COMP3ENCLK")
    9273                      .dwattr $C$DW$851, DW_AT_bit_offset(0x0d)
    9274                      .dwattr $C$DW$851, DW_AT_bit_size(0x01)
TMS320C2000 Assembler PC v16.9.6 Tue Mar 06 18:34:46 2018

Tools Copyright (c) 1996-2017 Texas Instruments Incorporated
C:\Users\Admin\AppData\Local\Temp\{ED9AE313-281A-4435-8F2A-5411619B06A2} PAGE  177

    9275                      .dwattr $C$DW$851, DW_AT_data_member_location[DW_OP_plus_uconst 0x0]
    9276                      .dwattr $C$DW$851, DW_AT_accessibility(DW_ACCESS_public)
    9277              
    9278              $C$DW$852       .dwtag  DW_TAG_member
    9279                      .dwattr $C$DW$852, DW_AT_type(*$C$DW$T$19)
    9280                      .dwattr $C$DW$852, DW_AT_name("rsvd1")
    9281                      .dwattr $C$DW$852, DW_AT_TI_symbol_name("_rsvd1")
    9282                      .dwattr $C$DW$852, DW_AT_bit_offset(0x08)
    9283                      .dwattr $C$DW$852, DW_AT_bit_size(0x05)
    9284                      .dwattr $C$DW$852, DW_AT_data_member_location[DW_OP_plus_uconst 0x0]
    9285                      .dwattr $C$DW$852, DW_AT_accessibility(DW_ACCESS_public)
    9286              
    9287              $C$DW$853       .dwtag  DW_TAG_member
    9288                      .dwattr $C$DW$853, DW_AT_type(*$C$DW$T$19)
    9289                      .dwattr $C$DW$853, DW_AT_name("CPUTIMER0ENCLK")
    9290                      .dwattr $C$DW$853, DW_AT_TI_symbol_name("_CPUTIMER0ENCLK")
    9291                      .dwattr $C$DW$853, DW_AT_bit_offset(0x07)
    9292                      .dwattr $C$DW$853, DW_AT_bit_size(0x01)
    9293                      .dwattr $C$DW$853, DW_AT_data_member_location[DW_OP_plus_uconst 0x0]
    9294                      .dwattr $C$DW$853, DW_AT_accessibility(DW_ACCESS_public)
    9295              
    9296              $C$DW$854       .dwtag  DW_TAG_member
    9297                      .dwattr $C$DW$854, DW_AT_type(*$C$DW$T$19)
    9298                      .dwattr $C$DW$854, DW_AT_name("CPUTIMER1ENCLK")
    9299                      .dwattr $C$DW$854, DW_AT_TI_symbol_name("_CPUTIMER1ENCLK")
    9300                      .dwattr $C$DW$854, DW_AT_bit_offset(0x06)
    9301                      .dwattr $C$DW$854, DW_AT_bit_size(0x01)
    9302                      .dwattr $C$DW$854, DW_AT_data_member_location[DW_OP_plus_uconst 0x0]
    9303                      .dwattr $C$DW$854, DW_AT_accessibility(DW_ACCESS_public)
    9304              
    9305              $C$DW$855       .dwtag  DW_TAG_member
    9306                      .dwattr $C$DW$855, DW_AT_type(*$C$DW$T$19)
    9307                      .dwattr $C$DW$855, DW_AT_name("CPUTIMER2ENCLK")
    9308                      .dwattr $C$DW$855, DW_AT_TI_symbol_name("_CPUTIMER2ENCLK")
    9309                      .dwattr $C$DW$855, DW_AT_bit_offset(0x05)
    9310                      .dwattr $C$DW$855, DW_AT_bit_size(0x01)
    9311                      .dwattr $C$DW$855, DW_AT_data_member_location[DW_OP_plus_uconst 0x0]
    9312                      .dwattr $C$DW$855, DW_AT_accessibility(DW_ACCESS_public)
    9313              
    9314              $C$DW$856       .dwtag  DW_TAG_member
    9315                      .dwattr $C$DW$856, DW_AT_type(*$C$DW$T$19)
    9316                      .dwattr $C$DW$856, DW_AT_name("rsvd2")
    9317                      .dwattr $C$DW$856, DW_AT_TI_symbol_name("_rsvd2")
    9318                      .dwattr $C$DW$856, DW_AT_bit_offset(0x03)
    9319                      .dwattr $C$DW$856, DW_AT_bit_size(0x02)
    9320                      .dwattr $C$DW$856, DW_AT_data_member_location[DW_OP_plus_uconst 0x0]
    9321                      .dwattr $C$DW$856, DW_AT_accessibility(DW_ACCESS_public)
    9322              
    9323              $C$DW$857       .dwtag  DW_TAG_member
    9324                      .dwattr $C$DW$857, DW_AT_type(*$C$DW$T$19)
    9325                      .dwattr $C$DW$857, DW_AT_name("GPIOINENCLK")
    9326                      .dwattr $C$DW$857, DW_AT_TI_symbol_name("_GPIOINENCLK")
    9327                      .dwattr $C$DW$857, DW_AT_bit_offset(0x02)
    9328                      .dwattr $C$DW$857, DW_AT_bit_size(0x01)
    9329                      .dwattr $C$DW$857, DW_AT_data_member_location[DW_OP_plus_uconst 0x0]
TMS320C2000 Assembler PC v16.9.6 Tue Mar 06 18:34:46 2018

Tools Copyright (c) 1996-2017 Texas Instruments Incorporated
C:\Users\Admin\AppData\Local\Temp\{ED9AE313-281A-4435-8F2A-5411619B06A2} PAGE  178

    9330                      .dwattr $C$DW$857, DW_AT_accessibility(DW_ACCESS_public)
    9331              
    9332              $C$DW$858       .dwtag  DW_TAG_member
    9333                      .dwattr $C$DW$858, DW_AT_type(*$C$DW$T$19)
    9334                      .dwattr $C$DW$858, DW_AT_name("CLA1ENCLK")
    9335                      .dwattr $C$DW$858, DW_AT_TI_symbol_name("_CLA1ENCLK")
    9336                      .dwattr $C$DW$858, DW_AT_bit_offset(0x01)
    9337                      .dwattr $C$DW$858, DW_AT_bit_size(0x01)
    9338                      .dwattr $C$DW$858, DW_AT_data_member_location[DW_OP_plus_uconst 0x0]
    9339                      .dwattr $C$DW$858, DW_AT_accessibility(DW_ACCESS_public)
    9340              
    9341              $C$DW$859       .dwtag  DW_TAG_member
    9342                      .dwattr $C$DW$859, DW_AT_type(*$C$DW$T$19)
    9343                      .dwattr $C$DW$859, DW_AT_name("rsvd3")
    9344                      .dwattr $C$DW$859, DW_AT_TI_symbol_name("_rsvd3")
    9345                      .dwattr $C$DW$859, DW_AT_bit_offset(0x00)
    9346                      .dwattr $C$DW$859, DW_AT_bit_size(0x01)
    9347                      .dwattr $C$DW$859, DW_AT_data_member_location[DW_OP_plus_uconst 0x0]
    9348                      .dwattr $C$DW$859, DW_AT_accessibility(DW_ACCESS_public)
    9349              
    9350                      .dwendtag $C$DW$T$152
    9351              
    9352              
    9353              $C$DW$T$153     .dwtag  DW_TAG_union_type
    9354                      .dwattr $C$DW$T$153, DW_AT_name("PCLKCR3_REG")
    9355                      .dwattr $C$DW$T$153, DW_AT_byte_size(0x01)
    9356              $C$DW$860       .dwtag  DW_TAG_member
    9357                      .dwattr $C$DW$860, DW_AT_type(*$C$DW$T$19)
    9358                      .dwattr $C$DW$860, DW_AT_name("all")
    9359                      .dwattr $C$DW$860, DW_AT_TI_symbol_name("_all")
    9360                      .dwattr $C$DW$860, DW_AT_data_member_location[DW_OP_plus_uconst 0x0]
    9361                      .dwattr $C$DW$860, DW_AT_accessibility(DW_ACCESS_public)
    9362              
    9363              $C$DW$861       .dwtag  DW_TAG_member
    9364                      .dwattr $C$DW$861, DW_AT_type(*$C$DW$T$152)
    9365                      .dwattr $C$DW$861, DW_AT_name("bit")
    9366                      .dwattr $C$DW$861, DW_AT_TI_symbol_name("_bit")
    9367                      .dwattr $C$DW$861, DW_AT_data_member_location[DW_OP_plus_uconst 0x0]
    9368                      .dwattr $C$DW$861, DW_AT_accessibility(DW_ACCESS_public)
    9369              
    9370                      .dwendtag $C$DW$T$153
    9371              
    9372              
    9373              $C$DW$T$154     .dwtag  DW_TAG_structure_type
    9374                      .dwattr $C$DW$T$154, DW_AT_name("PIEACK_BITS")
    9375                      .dwattr $C$DW$T$154, DW_AT_byte_size(0x01)
    9376              $C$DW$862       .dwtag  DW_TAG_member
    9377                      .dwattr $C$DW$862, DW_AT_type(*$C$DW$T$19)
    9378                      .dwattr $C$DW$862, DW_AT_name("ACK1")
    9379                      .dwattr $C$DW$862, DW_AT_TI_symbol_name("_ACK1")
    9380                      .dwattr $C$DW$862, DW_AT_bit_offset(0x0f)
    9381                      .dwattr $C$DW$862, DW_AT_bit_size(0x01)
    9382                      .dwattr $C$DW$862, DW_AT_data_member_location[DW_OP_plus_uconst 0x0]
    9383                      .dwattr $C$DW$862, DW_AT_accessibility(DW_ACCESS_public)
    9384              
TMS320C2000 Assembler PC v16.9.6 Tue Mar 06 18:34:46 2018

Tools Copyright (c) 1996-2017 Texas Instruments Incorporated
C:\Users\Admin\AppData\Local\Temp\{ED9AE313-281A-4435-8F2A-5411619B06A2} PAGE  179

    9385              $C$DW$863       .dwtag  DW_TAG_member
    9386                      .dwattr $C$DW$863, DW_AT_type(*$C$DW$T$19)
    9387                      .dwattr $C$DW$863, DW_AT_name("ACK2")
    9388                      .dwattr $C$DW$863, DW_AT_TI_symbol_name("_ACK2")
    9389                      .dwattr $C$DW$863, DW_AT_bit_offset(0x0e)
    9390                      .dwattr $C$DW$863, DW_AT_bit_size(0x01)
    9391                      .dwattr $C$DW$863, DW_AT_data_member_location[DW_OP_plus_uconst 0x0]
    9392                      .dwattr $C$DW$863, DW_AT_accessibility(DW_ACCESS_public)
    9393              
    9394              $C$DW$864       .dwtag  DW_TAG_member
    9395                      .dwattr $C$DW$864, DW_AT_type(*$C$DW$T$19)
    9396                      .dwattr $C$DW$864, DW_AT_name("ACK3")
    9397                      .dwattr $C$DW$864, DW_AT_TI_symbol_name("_ACK3")
    9398                      .dwattr $C$DW$864, DW_AT_bit_offset(0x0d)
    9399                      .dwattr $C$DW$864, DW_AT_bit_size(0x01)
    9400                      .dwattr $C$DW$864, DW_AT_data_member_location[DW_OP_plus_uconst 0x0]
    9401                      .dwattr $C$DW$864, DW_AT_accessibility(DW_ACCESS_public)
    9402              
    9403              $C$DW$865       .dwtag  DW_TAG_member
    9404                      .dwattr $C$DW$865, DW_AT_type(*$C$DW$T$19)
    9405                      .dwattr $C$DW$865, DW_AT_name("ACK4")
    9406                      .dwattr $C$DW$865, DW_AT_TI_symbol_name("_ACK4")
    9407                      .dwattr $C$DW$865, DW_AT_bit_offset(0x0c)
    9408                      .dwattr $C$DW$865, DW_AT_bit_size(0x01)
    9409                      .dwattr $C$DW$865, DW_AT_data_member_location[DW_OP_plus_uconst 0x0]
    9410                      .dwattr $C$DW$865, DW_AT_accessibility(DW_ACCESS_public)
    9411              
    9412              $C$DW$866       .dwtag  DW_TAG_member
    9413                      .dwattr $C$DW$866, DW_AT_type(*$C$DW$T$19)
    9414                      .dwattr $C$DW$866, DW_AT_name("ACK5")
    9415                      .dwattr $C$DW$866, DW_AT_TI_symbol_name("_ACK5")
    9416                      .dwattr $C$DW$866, DW_AT_bit_offset(0x0b)
    9417                      .dwattr $C$DW$866, DW_AT_bit_size(0x01)
    9418                      .dwattr $C$DW$866, DW_AT_data_member_location[DW_OP_plus_uconst 0x0]
    9419                      .dwattr $C$DW$866, DW_AT_accessibility(DW_ACCESS_public)
    9420              
    9421              $C$DW$867       .dwtag  DW_TAG_member
    9422                      .dwattr $C$DW$867, DW_AT_type(*$C$DW$T$19)
    9423                      .dwattr $C$DW$867, DW_AT_name("ACK6")
    9424                      .dwattr $C$DW$867, DW_AT_TI_symbol_name("_ACK6")
    9425                      .dwattr $C$DW$867, DW_AT_bit_offset(0x0a)
    9426                      .dwattr $C$DW$867, DW_AT_bit_size(0x01)
    9427                      .dwattr $C$DW$867, DW_AT_data_member_location[DW_OP_plus_uconst 0x0]
    9428                      .dwattr $C$DW$867, DW_AT_accessibility(DW_ACCESS_public)
    9429              
    9430              $C$DW$868       .dwtag  DW_TAG_member
    9431                      .dwattr $C$DW$868, DW_AT_type(*$C$DW$T$19)
    9432                      .dwattr $C$DW$868, DW_AT_name("ACK7")
    9433                      .dwattr $C$DW$868, DW_AT_TI_symbol_name("_ACK7")
    9434                      .dwattr $C$DW$868, DW_AT_bit_offset(0x09)
    9435                      .dwattr $C$DW$868, DW_AT_bit_size(0x01)
    9436                      .dwattr $C$DW$868, DW_AT_data_member_location[DW_OP_plus_uconst 0x0]
    9437                      .dwattr $C$DW$868, DW_AT_accessibility(DW_ACCESS_public)
    9438              
    9439              $C$DW$869       .dwtag  DW_TAG_member
TMS320C2000 Assembler PC v16.9.6 Tue Mar 06 18:34:46 2018

Tools Copyright (c) 1996-2017 Texas Instruments Incorporated
C:\Users\Admin\AppData\Local\Temp\{ED9AE313-281A-4435-8F2A-5411619B06A2} PAGE  180

    9440                      .dwattr $C$DW$869, DW_AT_type(*$C$DW$T$19)
    9441                      .dwattr $C$DW$869, DW_AT_name("ACK8")
    9442                      .dwattr $C$DW$869, DW_AT_TI_symbol_name("_ACK8")
    9443                      .dwattr $C$DW$869, DW_AT_bit_offset(0x08)
    9444                      .dwattr $C$DW$869, DW_AT_bit_size(0x01)
    9445                      .dwattr $C$DW$869, DW_AT_data_member_location[DW_OP_plus_uconst 0x0]
    9446                      .dwattr $C$DW$869, DW_AT_accessibility(DW_ACCESS_public)
    9447              
    9448              $C$DW$870       .dwtag  DW_TAG_member
    9449                      .dwattr $C$DW$870, DW_AT_type(*$C$DW$T$19)
    9450                      .dwattr $C$DW$870, DW_AT_name("ACK9")
    9451                      .dwattr $C$DW$870, DW_AT_TI_symbol_name("_ACK9")
    9452                      .dwattr $C$DW$870, DW_AT_bit_offset(0x07)
    9453                      .dwattr $C$DW$870, DW_AT_bit_size(0x01)
    9454                      .dwattr $C$DW$870, DW_AT_data_member_location[DW_OP_plus_uconst 0x0]
    9455                      .dwattr $C$DW$870, DW_AT_accessibility(DW_ACCESS_public)
    9456              
    9457              $C$DW$871       .dwtag  DW_TAG_member
    9458                      .dwattr $C$DW$871, DW_AT_type(*$C$DW$T$19)
    9459                      .dwattr $C$DW$871, DW_AT_name("ACK10")
    9460                      .dwattr $C$DW$871, DW_AT_TI_symbol_name("_ACK10")
    9461                      .dwattr $C$DW$871, DW_AT_bit_offset(0x06)
    9462                      .dwattr $C$DW$871, DW_AT_bit_size(0x01)
    9463                      .dwattr $C$DW$871, DW_AT_data_member_location[DW_OP_plus_uconst 0x0]
    9464                      .dwattr $C$DW$871, DW_AT_accessibility(DW_ACCESS_public)
    9465              
    9466              $C$DW$872       .dwtag  DW_TAG_member
    9467                      .dwattr $C$DW$872, DW_AT_type(*$C$DW$T$19)
    9468                      .dwattr $C$DW$872, DW_AT_name("ACK11")
    9469                      .dwattr $C$DW$872, DW_AT_TI_symbol_name("_ACK11")
    9470                      .dwattr $C$DW$872, DW_AT_bit_offset(0x05)
    9471                      .dwattr $C$DW$872, DW_AT_bit_size(0x01)
    9472                      .dwattr $C$DW$872, DW_AT_data_member_location[DW_OP_plus_uconst 0x0]
    9473                      .dwattr $C$DW$872, DW_AT_accessibility(DW_ACCESS_public)
    9474              
    9475              $C$DW$873       .dwtag  DW_TAG_member
    9476                      .dwattr $C$DW$873, DW_AT_type(*$C$DW$T$19)
    9477                      .dwattr $C$DW$873, DW_AT_name("ACK12")
    9478                      .dwattr $C$DW$873, DW_AT_TI_symbol_name("_ACK12")
    9479                      .dwattr $C$DW$873, DW_AT_bit_offset(0x04)
    9480                      .dwattr $C$DW$873, DW_AT_bit_size(0x01)
    9481                      .dwattr $C$DW$873, DW_AT_data_member_location[DW_OP_plus_uconst 0x0]
    9482                      .dwattr $C$DW$873, DW_AT_accessibility(DW_ACCESS_public)
    9483              
    9484              $C$DW$874       .dwtag  DW_TAG_member
    9485                      .dwattr $C$DW$874, DW_AT_type(*$C$DW$T$19)
    9486                      .dwattr $C$DW$874, DW_AT_name("rsvd")
    9487                      .dwattr $C$DW$874, DW_AT_TI_symbol_name("_rsvd")
    9488                      .dwattr $C$DW$874, DW_AT_bit_offset(0x00)
    9489                      .dwattr $C$DW$874, DW_AT_bit_size(0x04)
    9490                      .dwattr $C$DW$874, DW_AT_data_member_location[DW_OP_plus_uconst 0x0]
    9491                      .dwattr $C$DW$874, DW_AT_accessibility(DW_ACCESS_public)
    9492              
    9493                      .dwendtag $C$DW$T$154
    9494              
TMS320C2000 Assembler PC v16.9.6 Tue Mar 06 18:34:46 2018

Tools Copyright (c) 1996-2017 Texas Instruments Incorporated
C:\Users\Admin\AppData\Local\Temp\{ED9AE313-281A-4435-8F2A-5411619B06A2} PAGE  181

    9495              
    9496              $C$DW$T$155     .dwtag  DW_TAG_union_type
    9497                      .dwattr $C$DW$T$155, DW_AT_name("PIEACK_REG")
    9498                      .dwattr $C$DW$T$155, DW_AT_byte_size(0x01)
    9499              $C$DW$875       .dwtag  DW_TAG_member
    9500                      .dwattr $C$DW$875, DW_AT_type(*$C$DW$T$19)
    9501                      .dwattr $C$DW$875, DW_AT_name("all")
    9502                      .dwattr $C$DW$875, DW_AT_TI_symbol_name("_all")
    9503                      .dwattr $C$DW$875, DW_AT_data_member_location[DW_OP_plus_uconst 0x0]
    9504                      .dwattr $C$DW$875, DW_AT_accessibility(DW_ACCESS_public)
    9505              
    9506              $C$DW$876       .dwtag  DW_TAG_member
    9507                      .dwattr $C$DW$876, DW_AT_type(*$C$DW$T$154)
    9508                      .dwattr $C$DW$876, DW_AT_name("bit")
    9509                      .dwattr $C$DW$876, DW_AT_TI_symbol_name("_bit")
    9510                      .dwattr $C$DW$876, DW_AT_data_member_location[DW_OP_plus_uconst 0x0]
    9511                      .dwattr $C$DW$876, DW_AT_accessibility(DW_ACCESS_public)
    9512              
    9513                      .dwendtag $C$DW$T$155
    9514              
    9515              
    9516              $C$DW$T$156     .dwtag  DW_TAG_structure_type
    9517                      .dwattr $C$DW$T$156, DW_AT_name("PIECTRL_BITS")
    9518                      .dwattr $C$DW$T$156, DW_AT_byte_size(0x01)
    9519              $C$DW$877       .dwtag  DW_TAG_member
    9520                      .dwattr $C$DW$877, DW_AT_type(*$C$DW$T$19)
    9521                      .dwattr $C$DW$877, DW_AT_name("ENPIE")
    9522                      .dwattr $C$DW$877, DW_AT_TI_symbol_name("_ENPIE")
    9523                      .dwattr $C$DW$877, DW_AT_bit_offset(0x0f)
    9524                      .dwattr $C$DW$877, DW_AT_bit_size(0x01)
    9525                      .dwattr $C$DW$877, DW_AT_data_member_location[DW_OP_plus_uconst 0x0]
    9526                      .dwattr $C$DW$877, DW_AT_accessibility(DW_ACCESS_public)
    9527              
    9528              $C$DW$878       .dwtag  DW_TAG_member
    9529                      .dwattr $C$DW$878, DW_AT_type(*$C$DW$T$19)
    9530                      .dwattr $C$DW$878, DW_AT_name("PIEVECT")
    9531                      .dwattr $C$DW$878, DW_AT_TI_symbol_name("_PIEVECT")
    9532                      .dwattr $C$DW$878, DW_AT_bit_offset(0x00)
    9533                      .dwattr $C$DW$878, DW_AT_bit_size(0x0f)
    9534                      .dwattr $C$DW$878, DW_AT_data_member_location[DW_OP_plus_uconst 0x0]
    9535                      .dwattr $C$DW$878, DW_AT_accessibility(DW_ACCESS_public)
    9536              
    9537                      .dwendtag $C$DW$T$156
    9538              
    9539              
    9540              $C$DW$T$157     .dwtag  DW_TAG_union_type
    9541                      .dwattr $C$DW$T$157, DW_AT_name("PIECTRL_REG")
    9542                      .dwattr $C$DW$T$157, DW_AT_byte_size(0x01)
    9543              $C$DW$879       .dwtag  DW_TAG_member
    9544                      .dwattr $C$DW$879, DW_AT_type(*$C$DW$T$19)
    9545                      .dwattr $C$DW$879, DW_AT_name("all")
    9546                      .dwattr $C$DW$879, DW_AT_TI_symbol_name("_all")
    9547                      .dwattr $C$DW$879, DW_AT_data_member_location[DW_OP_plus_uconst 0x0]
    9548                      .dwattr $C$DW$879, DW_AT_accessibility(DW_ACCESS_public)
    9549              
TMS320C2000 Assembler PC v16.9.6 Tue Mar 06 18:34:46 2018

Tools Copyright (c) 1996-2017 Texas Instruments Incorporated
C:\Users\Admin\AppData\Local\Temp\{ED9AE313-281A-4435-8F2A-5411619B06A2} PAGE  182

    9550              $C$DW$880       .dwtag  DW_TAG_member
    9551                      .dwattr $C$DW$880, DW_AT_type(*$C$DW$T$156)
    9552                      .dwattr $C$DW$880, DW_AT_name("bit")
    9553                      .dwattr $C$DW$880, DW_AT_TI_symbol_name("_bit")
    9554                      .dwattr $C$DW$880, DW_AT_data_member_location[DW_OP_plus_uconst 0x0]
    9555                      .dwattr $C$DW$880, DW_AT_accessibility(DW_ACCESS_public)
    9556              
    9557                      .dwendtag $C$DW$T$157
    9558              
    9559              
    9560              $C$DW$T$158     .dwtag  DW_TAG_structure_type
    9561                      .dwattr $C$DW$T$158, DW_AT_name("PIEIER_BITS")
    9562                      .dwattr $C$DW$T$158, DW_AT_byte_size(0x01)
    9563              $C$DW$881       .dwtag  DW_TAG_member
    9564                      .dwattr $C$DW$881, DW_AT_type(*$C$DW$T$19)
    9565                      .dwattr $C$DW$881, DW_AT_name("INTx1")
    9566                      .dwattr $C$DW$881, DW_AT_TI_symbol_name("_INTx1")
    9567                      .dwattr $C$DW$881, DW_AT_bit_offset(0x0f)
    9568                      .dwattr $C$DW$881, DW_AT_bit_size(0x01)
    9569                      .dwattr $C$DW$881, DW_AT_data_member_location[DW_OP_plus_uconst 0x0]
    9570                      .dwattr $C$DW$881, DW_AT_accessibility(DW_ACCESS_public)
    9571              
    9572              $C$DW$882       .dwtag  DW_TAG_member
    9573                      .dwattr $C$DW$882, DW_AT_type(*$C$DW$T$19)
    9574                      .dwattr $C$DW$882, DW_AT_name("INTx2")
    9575                      .dwattr $C$DW$882, DW_AT_TI_symbol_name("_INTx2")
    9576                      .dwattr $C$DW$882, DW_AT_bit_offset(0x0e)
    9577                      .dwattr $C$DW$882, DW_AT_bit_size(0x01)
    9578                      .dwattr $C$DW$882, DW_AT_data_member_location[DW_OP_plus_uconst 0x0]
    9579                      .dwattr $C$DW$882, DW_AT_accessibility(DW_ACCESS_public)
    9580              
    9581              $C$DW$883       .dwtag  DW_TAG_member
    9582                      .dwattr $C$DW$883, DW_AT_type(*$C$DW$T$19)
    9583                      .dwattr $C$DW$883, DW_AT_name("INTx3")
    9584                      .dwattr $C$DW$883, DW_AT_TI_symbol_name("_INTx3")
    9585                      .dwattr $C$DW$883, DW_AT_bit_offset(0x0d)
    9586                      .dwattr $C$DW$883, DW_AT_bit_size(0x01)
    9587                      .dwattr $C$DW$883, DW_AT_data_member_location[DW_OP_plus_uconst 0x0]
    9588                      .dwattr $C$DW$883, DW_AT_accessibility(DW_ACCESS_public)
    9589              
    9590              $C$DW$884       .dwtag  DW_TAG_member
    9591                      .dwattr $C$DW$884, DW_AT_type(*$C$DW$T$19)
    9592                      .dwattr $C$DW$884, DW_AT_name("INTx4")
    9593                      .dwattr $C$DW$884, DW_AT_TI_symbol_name("_INTx4")
    9594                      .dwattr $C$DW$884, DW_AT_bit_offset(0x0c)
    9595                      .dwattr $C$DW$884, DW_AT_bit_size(0x01)
    9596                      .dwattr $C$DW$884, DW_AT_data_member_location[DW_OP_plus_uconst 0x0]
    9597                      .dwattr $C$DW$884, DW_AT_accessibility(DW_ACCESS_public)
    9598              
    9599              $C$DW$885       .dwtag  DW_TAG_member
    9600                      .dwattr $C$DW$885, DW_AT_type(*$C$DW$T$19)
    9601                      .dwattr $C$DW$885, DW_AT_name("INTx5")
    9602                      .dwattr $C$DW$885, DW_AT_TI_symbol_name("_INTx5")
    9603                      .dwattr $C$DW$885, DW_AT_bit_offset(0x0b)
    9604                      .dwattr $C$DW$885, DW_AT_bit_size(0x01)
TMS320C2000 Assembler PC v16.9.6 Tue Mar 06 18:34:46 2018

Tools Copyright (c) 1996-2017 Texas Instruments Incorporated
C:\Users\Admin\AppData\Local\Temp\{ED9AE313-281A-4435-8F2A-5411619B06A2} PAGE  183

    9605                      .dwattr $C$DW$885, DW_AT_data_member_location[DW_OP_plus_uconst 0x0]
    9606                      .dwattr $C$DW$885, DW_AT_accessibility(DW_ACCESS_public)
    9607              
    9608              $C$DW$886       .dwtag  DW_TAG_member
    9609                      .dwattr $C$DW$886, DW_AT_type(*$C$DW$T$19)
    9610                      .dwattr $C$DW$886, DW_AT_name("INTx6")
    9611                      .dwattr $C$DW$886, DW_AT_TI_symbol_name("_INTx6")
    9612                      .dwattr $C$DW$886, DW_AT_bit_offset(0x0a)
    9613                      .dwattr $C$DW$886, DW_AT_bit_size(0x01)
    9614                      .dwattr $C$DW$886, DW_AT_data_member_location[DW_OP_plus_uconst 0x0]
    9615                      .dwattr $C$DW$886, DW_AT_accessibility(DW_ACCESS_public)
    9616              
    9617              $C$DW$887       .dwtag  DW_TAG_member
    9618                      .dwattr $C$DW$887, DW_AT_type(*$C$DW$T$19)
    9619                      .dwattr $C$DW$887, DW_AT_name("INTx7")
    9620                      .dwattr $C$DW$887, DW_AT_TI_symbol_name("_INTx7")
    9621                      .dwattr $C$DW$887, DW_AT_bit_offset(0x09)
    9622                      .dwattr $C$DW$887, DW_AT_bit_size(0x01)
    9623                      .dwattr $C$DW$887, DW_AT_data_member_location[DW_OP_plus_uconst 0x0]
    9624                      .dwattr $C$DW$887, DW_AT_accessibility(DW_ACCESS_public)
    9625              
    9626              $C$DW$888       .dwtag  DW_TAG_member
    9627                      .dwattr $C$DW$888, DW_AT_type(*$C$DW$T$19)
    9628                      .dwattr $C$DW$888, DW_AT_name("INTx8")
    9629                      .dwattr $C$DW$888, DW_AT_TI_symbol_name("_INTx8")
    9630                      .dwattr $C$DW$888, DW_AT_bit_offset(0x08)
    9631                      .dwattr $C$DW$888, DW_AT_bit_size(0x01)
    9632                      .dwattr $C$DW$888, DW_AT_data_member_location[DW_OP_plus_uconst 0x0]
    9633                      .dwattr $C$DW$888, DW_AT_accessibility(DW_ACCESS_public)
    9634              
    9635              $C$DW$889       .dwtag  DW_TAG_member
    9636                      .dwattr $C$DW$889, DW_AT_type(*$C$DW$T$19)
    9637                      .dwattr $C$DW$889, DW_AT_name("rsvd")
    9638                      .dwattr $C$DW$889, DW_AT_TI_symbol_name("_rsvd")
    9639                      .dwattr $C$DW$889, DW_AT_bit_offset(0x00)
    9640                      .dwattr $C$DW$889, DW_AT_bit_size(0x08)
    9641                      .dwattr $C$DW$889, DW_AT_data_member_location[DW_OP_plus_uconst 0x0]
    9642                      .dwattr $C$DW$889, DW_AT_accessibility(DW_ACCESS_public)
    9643              
    9644                      .dwendtag $C$DW$T$158
    9645              
    9646              
    9647              $C$DW$T$159     .dwtag  DW_TAG_union_type
    9648                      .dwattr $C$DW$T$159, DW_AT_name("PIEIER_REG")
    9649                      .dwattr $C$DW$T$159, DW_AT_byte_size(0x01)
    9650              $C$DW$890       .dwtag  DW_TAG_member
    9651                      .dwattr $C$DW$890, DW_AT_type(*$C$DW$T$19)
    9652                      .dwattr $C$DW$890, DW_AT_name("all")
    9653                      .dwattr $C$DW$890, DW_AT_TI_symbol_name("_all")
    9654                      .dwattr $C$DW$890, DW_AT_data_member_location[DW_OP_plus_uconst 0x0]
    9655                      .dwattr $C$DW$890, DW_AT_accessibility(DW_ACCESS_public)
    9656              
    9657              $C$DW$891       .dwtag  DW_TAG_member
    9658                      .dwattr $C$DW$891, DW_AT_type(*$C$DW$T$158)
    9659                      .dwattr $C$DW$891, DW_AT_name("bit")
TMS320C2000 Assembler PC v16.9.6 Tue Mar 06 18:34:46 2018

Tools Copyright (c) 1996-2017 Texas Instruments Incorporated
C:\Users\Admin\AppData\Local\Temp\{ED9AE313-281A-4435-8F2A-5411619B06A2} PAGE  184

    9660                      .dwattr $C$DW$891, DW_AT_TI_symbol_name("_bit")
    9661                      .dwattr $C$DW$891, DW_AT_data_member_location[DW_OP_plus_uconst 0x0]
    9662                      .dwattr $C$DW$891, DW_AT_accessibility(DW_ACCESS_public)
    9663              
    9664                      .dwendtag $C$DW$T$159
    9665              
    9666              
    9667              $C$DW$T$160     .dwtag  DW_TAG_structure_type
    9668                      .dwattr $C$DW$T$160, DW_AT_name("PIEIFR_BITS")
    9669                      .dwattr $C$DW$T$160, DW_AT_byte_size(0x01)
    9670              $C$DW$892       .dwtag  DW_TAG_member
    9671                      .dwattr $C$DW$892, DW_AT_type(*$C$DW$T$19)
    9672                      .dwattr $C$DW$892, DW_AT_name("INTx1")
    9673                      .dwattr $C$DW$892, DW_AT_TI_symbol_name("_INTx1")
    9674                      .dwattr $C$DW$892, DW_AT_bit_offset(0x0f)
    9675                      .dwattr $C$DW$892, DW_AT_bit_size(0x01)
    9676                      .dwattr $C$DW$892, DW_AT_data_member_location[DW_OP_plus_uconst 0x0]
    9677                      .dwattr $C$DW$892, DW_AT_accessibility(DW_ACCESS_public)
    9678              
    9679              $C$DW$893       .dwtag  DW_TAG_member
    9680                      .dwattr $C$DW$893, DW_AT_type(*$C$DW$T$19)
    9681                      .dwattr $C$DW$893, DW_AT_name("INTx2")
    9682                      .dwattr $C$DW$893, DW_AT_TI_symbol_name("_INTx2")
    9683                      .dwattr $C$DW$893, DW_AT_bit_offset(0x0e)
    9684                      .dwattr $C$DW$893, DW_AT_bit_size(0x01)
    9685                      .dwattr $C$DW$893, DW_AT_data_member_location[DW_OP_plus_uconst 0x0]
    9686                      .dwattr $C$DW$893, DW_AT_accessibility(DW_ACCESS_public)
    9687              
    9688              $C$DW$894       .dwtag  DW_TAG_member
    9689                      .dwattr $C$DW$894, DW_AT_type(*$C$DW$T$19)
    9690                      .dwattr $C$DW$894, DW_AT_name("INTx3")
    9691                      .dwattr $C$DW$894, DW_AT_TI_symbol_name("_INTx3")
    9692                      .dwattr $C$DW$894, DW_AT_bit_offset(0x0d)
    9693                      .dwattr $C$DW$894, DW_AT_bit_size(0x01)
    9694                      .dwattr $C$DW$894, DW_AT_data_member_location[DW_OP_plus_uconst 0x0]
    9695                      .dwattr $C$DW$894, DW_AT_accessibility(DW_ACCESS_public)
    9696              
    9697              $C$DW$895       .dwtag  DW_TAG_member
    9698                      .dwattr $C$DW$895, DW_AT_type(*$C$DW$T$19)
    9699                      .dwattr $C$DW$895, DW_AT_name("INTx4")
    9700                      .dwattr $C$DW$895, DW_AT_TI_symbol_name("_INTx4")
    9701                      .dwattr $C$DW$895, DW_AT_bit_offset(0x0c)
    9702                      .dwattr $C$DW$895, DW_AT_bit_size(0x01)
    9703                      .dwattr $C$DW$895, DW_AT_data_member_location[DW_OP_plus_uconst 0x0]
    9704                      .dwattr $C$DW$895, DW_AT_accessibility(DW_ACCESS_public)
    9705              
    9706              $C$DW$896       .dwtag  DW_TAG_member
    9707                      .dwattr $C$DW$896, DW_AT_type(*$C$DW$T$19)
    9708                      .dwattr $C$DW$896, DW_AT_name("INTx5")
    9709                      .dwattr $C$DW$896, DW_AT_TI_symbol_name("_INTx5")
    9710                      .dwattr $C$DW$896, DW_AT_bit_offset(0x0b)
    9711                      .dwattr $C$DW$896, DW_AT_bit_size(0x01)
    9712                      .dwattr $C$DW$896, DW_AT_data_member_location[DW_OP_plus_uconst 0x0]
    9713                      .dwattr $C$DW$896, DW_AT_accessibility(DW_ACCESS_public)
    9714              
TMS320C2000 Assembler PC v16.9.6 Tue Mar 06 18:34:46 2018

Tools Copyright (c) 1996-2017 Texas Instruments Incorporated
C:\Users\Admin\AppData\Local\Temp\{ED9AE313-281A-4435-8F2A-5411619B06A2} PAGE  185

    9715              $C$DW$897       .dwtag  DW_TAG_member
    9716                      .dwattr $C$DW$897, DW_AT_type(*$C$DW$T$19)
    9717                      .dwattr $C$DW$897, DW_AT_name("INTx6")
    9718                      .dwattr $C$DW$897, DW_AT_TI_symbol_name("_INTx6")
    9719                      .dwattr $C$DW$897, DW_AT_bit_offset(0x0a)
    9720                      .dwattr $C$DW$897, DW_AT_bit_size(0x01)
    9721                      .dwattr $C$DW$897, DW_AT_data_member_location[DW_OP_plus_uconst 0x0]
    9722                      .dwattr $C$DW$897, DW_AT_accessibility(DW_ACCESS_public)
    9723              
    9724              $C$DW$898       .dwtag  DW_TAG_member
    9725                      .dwattr $C$DW$898, DW_AT_type(*$C$DW$T$19)
    9726                      .dwattr $C$DW$898, DW_AT_name("INTx7")
    9727                      .dwattr $C$DW$898, DW_AT_TI_symbol_name("_INTx7")
    9728                      .dwattr $C$DW$898, DW_AT_bit_offset(0x09)
    9729                      .dwattr $C$DW$898, DW_AT_bit_size(0x01)
    9730                      .dwattr $C$DW$898, DW_AT_data_member_location[DW_OP_plus_uconst 0x0]
    9731                      .dwattr $C$DW$898, DW_AT_accessibility(DW_ACCESS_public)
    9732              
    9733              $C$DW$899       .dwtag  DW_TAG_member
    9734                      .dwattr $C$DW$899, DW_AT_type(*$C$DW$T$19)
    9735                      .dwattr $C$DW$899, DW_AT_name("INTx8")
    9736                      .dwattr $C$DW$899, DW_AT_TI_symbol_name("_INTx8")
    9737                      .dwattr $C$DW$899, DW_AT_bit_offset(0x08)
    9738                      .dwattr $C$DW$899, DW_AT_bit_size(0x01)
    9739                      .dwattr $C$DW$899, DW_AT_data_member_location[DW_OP_plus_uconst 0x0]
    9740                      .dwattr $C$DW$899, DW_AT_accessibility(DW_ACCESS_public)
    9741              
    9742              $C$DW$900       .dwtag  DW_TAG_member
    9743                      .dwattr $C$DW$900, DW_AT_type(*$C$DW$T$19)
    9744                      .dwattr $C$DW$900, DW_AT_name("rsvd")
    9745                      .dwattr $C$DW$900, DW_AT_TI_symbol_name("_rsvd")
    9746                      .dwattr $C$DW$900, DW_AT_bit_offset(0x00)
    9747                      .dwattr $C$DW$900, DW_AT_bit_size(0x08)
    9748                      .dwattr $C$DW$900, DW_AT_data_member_location[DW_OP_plus_uconst 0x0]
    9749                      .dwattr $C$DW$900, DW_AT_accessibility(DW_ACCESS_public)
    9750              
    9751                      .dwendtag $C$DW$T$160
    9752              
    9753              
    9754              $C$DW$T$161     .dwtag  DW_TAG_union_type
    9755                      .dwattr $C$DW$T$161, DW_AT_name("PIEIFR_REG")
    9756                      .dwattr $C$DW$T$161, DW_AT_byte_size(0x01)
    9757              $C$DW$901       .dwtag  DW_TAG_member
    9758                      .dwattr $C$DW$901, DW_AT_type(*$C$DW$T$19)
    9759                      .dwattr $C$DW$901, DW_AT_name("all")
    9760                      .dwattr $C$DW$901, DW_AT_TI_symbol_name("_all")
    9761                      .dwattr $C$DW$901, DW_AT_data_member_location[DW_OP_plus_uconst 0x0]
    9762                      .dwattr $C$DW$901, DW_AT_accessibility(DW_ACCESS_public)
    9763              
    9764              $C$DW$902       .dwtag  DW_TAG_member
    9765                      .dwattr $C$DW$902, DW_AT_type(*$C$DW$T$160)
    9766                      .dwattr $C$DW$902, DW_AT_name("bit")
    9767                      .dwattr $C$DW$902, DW_AT_TI_symbol_name("_bit")
    9768                      .dwattr $C$DW$902, DW_AT_data_member_location[DW_OP_plus_uconst 0x0]
    9769                      .dwattr $C$DW$902, DW_AT_accessibility(DW_ACCESS_public)
TMS320C2000 Assembler PC v16.9.6 Tue Mar 06 18:34:46 2018

Tools Copyright (c) 1996-2017 Texas Instruments Incorporated
C:\Users\Admin\AppData\Local\Temp\{ED9AE313-281A-4435-8F2A-5411619B06A2} PAGE  186

    9770              
    9771                      .dwendtag $C$DW$T$161
    9772              
    9773              
    9774              $C$DW$T$162     .dwtag  DW_TAG_structure_type
    9775                      .dwattr $C$DW$T$162, DW_AT_name("PIE_CTRL_REGS")
    9776                      .dwattr $C$DW$T$162, DW_AT_byte_size(0x1a)
    9777              $C$DW$903       .dwtag  DW_TAG_member
    9778                      .dwattr $C$DW$903, DW_AT_type(*$C$DW$T$157)
    9779                      .dwattr $C$DW$903, DW_AT_name("PIECTRL")
    9780                      .dwattr $C$DW$903, DW_AT_TI_symbol_name("_PIECTRL")
    9781                      .dwattr $C$DW$903, DW_AT_data_member_location[DW_OP_plus_uconst 0x0]
    9782                      .dwattr $C$DW$903, DW_AT_accessibility(DW_ACCESS_public)
    9783              
    9784              $C$DW$904       .dwtag  DW_TAG_member
    9785                      .dwattr $C$DW$904, DW_AT_type(*$C$DW$T$155)
    9786                      .dwattr $C$DW$904, DW_AT_name("PIEACK")
    9787                      .dwattr $C$DW$904, DW_AT_TI_symbol_name("_PIEACK")
    9788                      .dwattr $C$DW$904, DW_AT_data_member_location[DW_OP_plus_uconst 0x1]
    9789                      .dwattr $C$DW$904, DW_AT_accessibility(DW_ACCESS_public)
    9790              
    9791              $C$DW$905       .dwtag  DW_TAG_member
    9792                      .dwattr $C$DW$905, DW_AT_type(*$C$DW$T$159)
    9793                      .dwattr $C$DW$905, DW_AT_name("PIEIER1")
    9794                      .dwattr $C$DW$905, DW_AT_TI_symbol_name("_PIEIER1")
    9795                      .dwattr $C$DW$905, DW_AT_data_member_location[DW_OP_plus_uconst 0x2]
    9796                      .dwattr $C$DW$905, DW_AT_accessibility(DW_ACCESS_public)
    9797              
    9798              $C$DW$906       .dwtag  DW_TAG_member
    9799                      .dwattr $C$DW$906, DW_AT_type(*$C$DW$T$161)
    9800                      .dwattr $C$DW$906, DW_AT_name("PIEIFR1")
    9801                      .dwattr $C$DW$906, DW_AT_TI_symbol_name("_PIEIFR1")
    9802                      .dwattr $C$DW$906, DW_AT_data_member_location[DW_OP_plus_uconst 0x3]
    9803                      .dwattr $C$DW$906, DW_AT_accessibility(DW_ACCESS_public)
    9804              
    9805              $C$DW$907       .dwtag  DW_TAG_member
    9806                      .dwattr $C$DW$907, DW_AT_type(*$C$DW$T$159)
    9807                      .dwattr $C$DW$907, DW_AT_name("PIEIER2")
    9808                      .dwattr $C$DW$907, DW_AT_TI_symbol_name("_PIEIER2")
    9809                      .dwattr $C$DW$907, DW_AT_data_member_location[DW_OP_plus_uconst 0x4]
    9810                      .dwattr $C$DW$907, DW_AT_accessibility(DW_ACCESS_public)
    9811              
    9812              $C$DW$908       .dwtag  DW_TAG_member
    9813                      .dwattr $C$DW$908, DW_AT_type(*$C$DW$T$161)
    9814                      .dwattr $C$DW$908, DW_AT_name("PIEIFR2")
    9815                      .dwattr $C$DW$908, DW_AT_TI_symbol_name("_PIEIFR2")
    9816                      .dwattr $C$DW$908, DW_AT_data_member_location[DW_OP_plus_uconst 0x5]
    9817                      .dwattr $C$DW$908, DW_AT_accessibility(DW_ACCESS_public)
    9818              
    9819              $C$DW$909       .dwtag  DW_TAG_member
    9820                      .dwattr $C$DW$909, DW_AT_type(*$C$DW$T$159)
    9821                      .dwattr $C$DW$909, DW_AT_name("PIEIER3")
    9822                      .dwattr $C$DW$909, DW_AT_TI_symbol_name("_PIEIER3")
    9823                      .dwattr $C$DW$909, DW_AT_data_member_location[DW_OP_plus_uconst 0x6]
    9824                      .dwattr $C$DW$909, DW_AT_accessibility(DW_ACCESS_public)
TMS320C2000 Assembler PC v16.9.6 Tue Mar 06 18:34:46 2018

Tools Copyright (c) 1996-2017 Texas Instruments Incorporated
C:\Users\Admin\AppData\Local\Temp\{ED9AE313-281A-4435-8F2A-5411619B06A2} PAGE  187

    9825              
    9826              $C$DW$910       .dwtag  DW_TAG_member
    9827                      .dwattr $C$DW$910, DW_AT_type(*$C$DW$T$161)
    9828                      .dwattr $C$DW$910, DW_AT_name("PIEIFR3")
    9829                      .dwattr $C$DW$910, DW_AT_TI_symbol_name("_PIEIFR3")
    9830                      .dwattr $C$DW$910, DW_AT_data_member_location[DW_OP_plus_uconst 0x7]
    9831                      .dwattr $C$DW$910, DW_AT_accessibility(DW_ACCESS_public)
    9832              
    9833              $C$DW$911       .dwtag  DW_TAG_member
    9834                      .dwattr $C$DW$911, DW_AT_type(*$C$DW$T$159)
    9835                      .dwattr $C$DW$911, DW_AT_name("PIEIER4")
    9836                      .dwattr $C$DW$911, DW_AT_TI_symbol_name("_PIEIER4")
    9837                      .dwattr $C$DW$911, DW_AT_data_member_location[DW_OP_plus_uconst 0x8]
    9838                      .dwattr $C$DW$911, DW_AT_accessibility(DW_ACCESS_public)
    9839              
    9840              $C$DW$912       .dwtag  DW_TAG_member
    9841                      .dwattr $C$DW$912, DW_AT_type(*$C$DW$T$161)
    9842                      .dwattr $C$DW$912, DW_AT_name("PIEIFR4")
    9843                      .dwattr $C$DW$912, DW_AT_TI_symbol_name("_PIEIFR4")
    9844                      .dwattr $C$DW$912, DW_AT_data_member_location[DW_OP_plus_uconst 0x9]
    9845                      .dwattr $C$DW$912, DW_AT_accessibility(DW_ACCESS_public)
    9846              
    9847              $C$DW$913       .dwtag  DW_TAG_member
    9848                      .dwattr $C$DW$913, DW_AT_type(*$C$DW$T$159)
    9849                      .dwattr $C$DW$913, DW_AT_name("PIEIER5")
    9850                      .dwattr $C$DW$913, DW_AT_TI_symbol_name("_PIEIER5")
    9851                      .dwattr $C$DW$913, DW_AT_data_member_location[DW_OP_plus_uconst 0xa]
    9852                      .dwattr $C$DW$913, DW_AT_accessibility(DW_ACCESS_public)
    9853              
    9854              $C$DW$914       .dwtag  DW_TAG_member
    9855                      .dwattr $C$DW$914, DW_AT_type(*$C$DW$T$161)
    9856                      .dwattr $C$DW$914, DW_AT_name("PIEIFR5")
    9857                      .dwattr $C$DW$914, DW_AT_TI_symbol_name("_PIEIFR5")
    9858                      .dwattr $C$DW$914, DW_AT_data_member_location[DW_OP_plus_uconst 0xb]
    9859                      .dwattr $C$DW$914, DW_AT_accessibility(DW_ACCESS_public)
    9860              
    9861              $C$DW$915       .dwtag  DW_TAG_member
    9862                      .dwattr $C$DW$915, DW_AT_type(*$C$DW$T$159)
    9863                      .dwattr $C$DW$915, DW_AT_name("PIEIER6")
    9864                      .dwattr $C$DW$915, DW_AT_TI_symbol_name("_PIEIER6")
    9865                      .dwattr $C$DW$915, DW_AT_data_member_location[DW_OP_plus_uconst 0xc]
    9866                      .dwattr $C$DW$915, DW_AT_accessibility(DW_ACCESS_public)
    9867              
    9868              $C$DW$916       .dwtag  DW_TAG_member
    9869                      .dwattr $C$DW$916, DW_AT_type(*$C$DW$T$161)
    9870                      .dwattr $C$DW$916, DW_AT_name("PIEIFR6")
    9871                      .dwattr $C$DW$916, DW_AT_TI_symbol_name("_PIEIFR6")
    9872                      .dwattr $C$DW$916, DW_AT_data_member_location[DW_OP_plus_uconst 0xd]
    9873                      .dwattr $C$DW$916, DW_AT_accessibility(DW_ACCESS_public)
    9874              
    9875              $C$DW$917       .dwtag  DW_TAG_member
    9876                      .dwattr $C$DW$917, DW_AT_type(*$C$DW$T$159)
    9877                      .dwattr $C$DW$917, DW_AT_name("PIEIER7")
    9878                      .dwattr $C$DW$917, DW_AT_TI_symbol_name("_PIEIER7")
    9879                      .dwattr $C$DW$917, DW_AT_data_member_location[DW_OP_plus_uconst 0xe]
TMS320C2000 Assembler PC v16.9.6 Tue Mar 06 18:34:46 2018

Tools Copyright (c) 1996-2017 Texas Instruments Incorporated
C:\Users\Admin\AppData\Local\Temp\{ED9AE313-281A-4435-8F2A-5411619B06A2} PAGE  188

    9880                      .dwattr $C$DW$917, DW_AT_accessibility(DW_ACCESS_public)
    9881              
    9882              $C$DW$918       .dwtag  DW_TAG_member
    9883                      .dwattr $C$DW$918, DW_AT_type(*$C$DW$T$161)
    9884                      .dwattr $C$DW$918, DW_AT_name("PIEIFR7")
    9885                      .dwattr $C$DW$918, DW_AT_TI_symbol_name("_PIEIFR7")
    9886                      .dwattr $C$DW$918, DW_AT_data_member_location[DW_OP_plus_uconst 0xf]
    9887                      .dwattr $C$DW$918, DW_AT_accessibility(DW_ACCESS_public)
    9888              
    9889              $C$DW$919       .dwtag  DW_TAG_member
    9890                      .dwattr $C$DW$919, DW_AT_type(*$C$DW$T$159)
    9891                      .dwattr $C$DW$919, DW_AT_name("PIEIER8")
    9892                      .dwattr $C$DW$919, DW_AT_TI_symbol_name("_PIEIER8")
    9893                      .dwattr $C$DW$919, DW_AT_data_member_location[DW_OP_plus_uconst 0x10]
    9894                      .dwattr $C$DW$919, DW_AT_accessibility(DW_ACCESS_public)
    9895              
    9896              $C$DW$920       .dwtag  DW_TAG_member
    9897                      .dwattr $C$DW$920, DW_AT_type(*$C$DW$T$161)
    9898                      .dwattr $C$DW$920, DW_AT_name("PIEIFR8")
    9899                      .dwattr $C$DW$920, DW_AT_TI_symbol_name("_PIEIFR8")
    9900                      .dwattr $C$DW$920, DW_AT_data_member_location[DW_OP_plus_uconst 0x11]
    9901                      .dwattr $C$DW$920, DW_AT_accessibility(DW_ACCESS_public)
    9902              
    9903              $C$DW$921       .dwtag  DW_TAG_member
    9904                      .dwattr $C$DW$921, DW_AT_type(*$C$DW$T$159)
    9905                      .dwattr $C$DW$921, DW_AT_name("PIEIER9")
    9906                      .dwattr $C$DW$921, DW_AT_TI_symbol_name("_PIEIER9")
    9907                      .dwattr $C$DW$921, DW_AT_data_member_location[DW_OP_plus_uconst 0x12]
    9908                      .dwattr $C$DW$921, DW_AT_accessibility(DW_ACCESS_public)
    9909              
    9910              $C$DW$922       .dwtag  DW_TAG_member
    9911                      .dwattr $C$DW$922, DW_AT_type(*$C$DW$T$161)
    9912                      .dwattr $C$DW$922, DW_AT_name("PIEIFR9")
    9913                      .dwattr $C$DW$922, DW_AT_TI_symbol_name("_PIEIFR9")
    9914                      .dwattr $C$DW$922, DW_AT_data_member_location[DW_OP_plus_uconst 0x13]
    9915                      .dwattr $C$DW$922, DW_AT_accessibility(DW_ACCESS_public)
    9916              
    9917              $C$DW$923       .dwtag  DW_TAG_member
    9918                      .dwattr $C$DW$923, DW_AT_type(*$C$DW$T$159)
    9919                      .dwattr $C$DW$923, DW_AT_name("PIEIER10")
    9920                      .dwattr $C$DW$923, DW_AT_TI_symbol_name("_PIEIER10")
    9921                      .dwattr $C$DW$923, DW_AT_data_member_location[DW_OP_plus_uconst 0x14]
    9922                      .dwattr $C$DW$923, DW_AT_accessibility(DW_ACCESS_public)
    9923              
    9924              $C$DW$924       .dwtag  DW_TAG_member
    9925                      .dwattr $C$DW$924, DW_AT_type(*$C$DW$T$161)
    9926                      .dwattr $C$DW$924, DW_AT_name("PIEIFR10")
    9927                      .dwattr $C$DW$924, DW_AT_TI_symbol_name("_PIEIFR10")
    9928                      .dwattr $C$DW$924, DW_AT_data_member_location[DW_OP_plus_uconst 0x15]
    9929                      .dwattr $C$DW$924, DW_AT_accessibility(DW_ACCESS_public)
    9930              
    9931              $C$DW$925       .dwtag  DW_TAG_member
    9932                      .dwattr $C$DW$925, DW_AT_type(*$C$DW$T$159)
    9933                      .dwattr $C$DW$925, DW_AT_name("PIEIER11")
    9934                      .dwattr $C$DW$925, DW_AT_TI_symbol_name("_PIEIER11")
TMS320C2000 Assembler PC v16.9.6 Tue Mar 06 18:34:46 2018

Tools Copyright (c) 1996-2017 Texas Instruments Incorporated
C:\Users\Admin\AppData\Local\Temp\{ED9AE313-281A-4435-8F2A-5411619B06A2} PAGE  189

    9935                      .dwattr $C$DW$925, DW_AT_data_member_location[DW_OP_plus_uconst 0x16]
    9936                      .dwattr $C$DW$925, DW_AT_accessibility(DW_ACCESS_public)
    9937              
    9938              $C$DW$926       .dwtag  DW_TAG_member
    9939                      .dwattr $C$DW$926, DW_AT_type(*$C$DW$T$161)
    9940                      .dwattr $C$DW$926, DW_AT_name("PIEIFR11")
    9941                      .dwattr $C$DW$926, DW_AT_TI_symbol_name("_PIEIFR11")
    9942                      .dwattr $C$DW$926, DW_AT_data_member_location[DW_OP_plus_uconst 0x17]
    9943                      .dwattr $C$DW$926, DW_AT_accessibility(DW_ACCESS_public)
    9944              
    9945              $C$DW$927       .dwtag  DW_TAG_member
    9946                      .dwattr $C$DW$927, DW_AT_type(*$C$DW$T$159)
    9947                      .dwattr $C$DW$927, DW_AT_name("PIEIER12")
    9948                      .dwattr $C$DW$927, DW_AT_TI_symbol_name("_PIEIER12")
    9949                      .dwattr $C$DW$927, DW_AT_data_member_location[DW_OP_plus_uconst 0x18]
    9950                      .dwattr $C$DW$927, DW_AT_accessibility(DW_ACCESS_public)
    9951              
    9952              $C$DW$928       .dwtag  DW_TAG_member
    9953                      .dwattr $C$DW$928, DW_AT_type(*$C$DW$T$161)
    9954                      .dwattr $C$DW$928, DW_AT_name("PIEIFR12")
    9955                      .dwattr $C$DW$928, DW_AT_TI_symbol_name("_PIEIFR12")
    9956                      .dwattr $C$DW$928, DW_AT_data_member_location[DW_OP_plus_uconst 0x19]
    9957                      .dwattr $C$DW$928, DW_AT_accessibility(DW_ACCESS_public)
    9958              
    9959                      .dwendtag $C$DW$T$162
    9960              
    9961              $C$DW$929       .dwtag  DW_TAG_TI_far_type
    9962                      .dwattr $C$DW$929, DW_AT_type(*$C$DW$T$162)
    9963              
    9964              $C$DW$T$263     .dwtag  DW_TAG_volatile_type
    9965                      .dwattr $C$DW$T$263, DW_AT_type(*$C$DW$929)
    9966              
    9967              
    9968              $C$DW$T$166     .dwtag  DW_TAG_structure_type
    9969                      .dwattr $C$DW$T$166, DW_AT_name("PIE_VECT_TABLE")
    9970                      .dwattr $C$DW$T$166, DW_AT_byte_size(0x100)
    9971              $C$DW$930       .dwtag  DW_TAG_member
    9972                      .dwattr $C$DW$930, DW_AT_type(*$C$DW$T$165)
    9973                      .dwattr $C$DW$930, DW_AT_name("PIE1_RESERVED")
    9974                      .dwattr $C$DW$930, DW_AT_TI_symbol_name("_PIE1_RESERVED")
    9975                      .dwattr $C$DW$930, DW_AT_data_member_location[DW_OP_plus_uconst 0x0]
    9976                      .dwattr $C$DW$930, DW_AT_accessibility(DW_ACCESS_public)
    9977              
    9978              $C$DW$931       .dwtag  DW_TAG_member
    9979                      .dwattr $C$DW$931, DW_AT_type(*$C$DW$T$165)
    9980                      .dwattr $C$DW$931, DW_AT_name("PIE2_RESERVED")
    9981                      .dwattr $C$DW$931, DW_AT_TI_symbol_name("_PIE2_RESERVED")
    9982                      .dwattr $C$DW$931, DW_AT_data_member_location[DW_OP_plus_uconst 0x2]
    9983                      .dwattr $C$DW$931, DW_AT_accessibility(DW_ACCESS_public)
    9984              
    9985              $C$DW$932       .dwtag  DW_TAG_member
    9986                      .dwattr $C$DW$932, DW_AT_type(*$C$DW$T$165)
    9987                      .dwattr $C$DW$932, DW_AT_name("PIE3_RESERVED")
    9988                      .dwattr $C$DW$932, DW_AT_TI_symbol_name("_PIE3_RESERVED")
    9989                      .dwattr $C$DW$932, DW_AT_data_member_location[DW_OP_plus_uconst 0x4]
TMS320C2000 Assembler PC v16.9.6 Tue Mar 06 18:34:46 2018

Tools Copyright (c) 1996-2017 Texas Instruments Incorporated
C:\Users\Admin\AppData\Local\Temp\{ED9AE313-281A-4435-8F2A-5411619B06A2} PAGE  190

    9990                      .dwattr $C$DW$932, DW_AT_accessibility(DW_ACCESS_public)
    9991              
    9992              $C$DW$933       .dwtag  DW_TAG_member
    9993                      .dwattr $C$DW$933, DW_AT_type(*$C$DW$T$165)
    9994                      .dwattr $C$DW$933, DW_AT_name("PIE4_RESERVED")
    9995                      .dwattr $C$DW$933, DW_AT_TI_symbol_name("_PIE4_RESERVED")
    9996                      .dwattr $C$DW$933, DW_AT_data_member_location[DW_OP_plus_uconst 0x6]
    9997                      .dwattr $C$DW$933, DW_AT_accessibility(DW_ACCESS_public)
    9998              
    9999              $C$DW$934       .dwtag  DW_TAG_member
   10000                      .dwattr $C$DW$934, DW_AT_type(*$C$DW$T$165)
   10001                      .dwattr $C$DW$934, DW_AT_name("PIE5_RESERVED")
   10002                      .dwattr $C$DW$934, DW_AT_TI_symbol_name("_PIE5_RESERVED")
   10003                      .dwattr $C$DW$934, DW_AT_data_member_location[DW_OP_plus_uconst 0x8]
   10004                      .dwattr $C$DW$934, DW_AT_accessibility(DW_ACCESS_public)
   10005              
   10006              $C$DW$935       .dwtag  DW_TAG_member
   10007                      .dwattr $C$DW$935, DW_AT_type(*$C$DW$T$165)
   10008                      .dwattr $C$DW$935, DW_AT_name("PIE6_RESERVED")
   10009                      .dwattr $C$DW$935, DW_AT_TI_symbol_name("_PIE6_RESERVED")
   10010                      .dwattr $C$DW$935, DW_AT_data_member_location[DW_OP_plus_uconst 0xa]
   10011                      .dwattr $C$DW$935, DW_AT_accessibility(DW_ACCESS_public)
   10012              
   10013              $C$DW$936       .dwtag  DW_TAG_member
   10014                      .dwattr $C$DW$936, DW_AT_type(*$C$DW$T$165)
   10015                      .dwattr $C$DW$936, DW_AT_name("PIE7_RESERVED")
   10016                      .dwattr $C$DW$936, DW_AT_TI_symbol_name("_PIE7_RESERVED")
   10017                      .dwattr $C$DW$936, DW_AT_data_member_location[DW_OP_plus_uconst 0xc]
   10018                      .dwattr $C$DW$936, DW_AT_accessibility(DW_ACCESS_public)
   10019              
   10020              $C$DW$937       .dwtag  DW_TAG_member
   10021                      .dwattr $C$DW$937, DW_AT_type(*$C$DW$T$165)
   10022                      .dwattr $C$DW$937, DW_AT_name("PIE8_RESERVED")
   10023                      .dwattr $C$DW$937, DW_AT_TI_symbol_name("_PIE8_RESERVED")
   10024                      .dwattr $C$DW$937, DW_AT_data_member_location[DW_OP_plus_uconst 0xe]
   10025                      .dwattr $C$DW$937, DW_AT_accessibility(DW_ACCESS_public)
   10026              
   10027              $C$DW$938       .dwtag  DW_TAG_member
   10028                      .dwattr $C$DW$938, DW_AT_type(*$C$DW$T$165)
   10029                      .dwattr $C$DW$938, DW_AT_name("PIE9_RESERVED")
   10030                      .dwattr $C$DW$938, DW_AT_TI_symbol_name("_PIE9_RESERVED")
   10031                      .dwattr $C$DW$938, DW_AT_data_member_location[DW_OP_plus_uconst 0x10]
   10032                      .dwattr $C$DW$938, DW_AT_accessibility(DW_ACCESS_public)
   10033              
   10034              $C$DW$939       .dwtag  DW_TAG_member
   10035                      .dwattr $C$DW$939, DW_AT_type(*$C$DW$T$165)
   10036                      .dwattr $C$DW$939, DW_AT_name("PIE10_RESERVED")
   10037                      .dwattr $C$DW$939, DW_AT_TI_symbol_name("_PIE10_RESERVED")
   10038                      .dwattr $C$DW$939, DW_AT_data_member_location[DW_OP_plus_uconst 0x12]
   10039                      .dwattr $C$DW$939, DW_AT_accessibility(DW_ACCESS_public)
   10040              
   10041              $C$DW$940       .dwtag  DW_TAG_member
   10042                      .dwattr $C$DW$940, DW_AT_type(*$C$DW$T$165)
   10043                      .dwattr $C$DW$940, DW_AT_name("PIE11_RESERVED")
   10044                      .dwattr $C$DW$940, DW_AT_TI_symbol_name("_PIE11_RESERVED")
TMS320C2000 Assembler PC v16.9.6 Tue Mar 06 18:34:46 2018

Tools Copyright (c) 1996-2017 Texas Instruments Incorporated
C:\Users\Admin\AppData\Local\Temp\{ED9AE313-281A-4435-8F2A-5411619B06A2} PAGE  191

   10045                      .dwattr $C$DW$940, DW_AT_data_member_location[DW_OP_plus_uconst 0x14]
   10046                      .dwattr $C$DW$940, DW_AT_accessibility(DW_ACCESS_public)
   10047              
   10048              $C$DW$941       .dwtag  DW_TAG_member
   10049                      .dwattr $C$DW$941, DW_AT_type(*$C$DW$T$165)
   10050                      .dwattr $C$DW$941, DW_AT_name("PIE12_RESERVED")
   10051                      .dwattr $C$DW$941, DW_AT_TI_symbol_name("_PIE12_RESERVED")
   10052                      .dwattr $C$DW$941, DW_AT_data_member_location[DW_OP_plus_uconst 0x16]
   10053                      .dwattr $C$DW$941, DW_AT_accessibility(DW_ACCESS_public)
   10054              
   10055              $C$DW$942       .dwtag  DW_TAG_member
   10056                      .dwattr $C$DW$942, DW_AT_type(*$C$DW$T$165)
   10057                      .dwattr $C$DW$942, DW_AT_name("PIE13_RESERVED")
   10058                      .dwattr $C$DW$942, DW_AT_TI_symbol_name("_PIE13_RESERVED")
   10059                      .dwattr $C$DW$942, DW_AT_data_member_location[DW_OP_plus_uconst 0x18]
   10060                      .dwattr $C$DW$942, DW_AT_accessibility(DW_ACCESS_public)
   10061              
   10062              $C$DW$943       .dwtag  DW_TAG_member
   10063                      .dwattr $C$DW$943, DW_AT_type(*$C$DW$T$165)
   10064                      .dwattr $C$DW$943, DW_AT_name("TINT1")
   10065                      .dwattr $C$DW$943, DW_AT_TI_symbol_name("_TINT1")
   10066                      .dwattr $C$DW$943, DW_AT_data_member_location[DW_OP_plus_uconst 0x1a]
   10067                      .dwattr $C$DW$943, DW_AT_accessibility(DW_ACCESS_public)
   10068              
   10069              $C$DW$944       .dwtag  DW_TAG_member
   10070                      .dwattr $C$DW$944, DW_AT_type(*$C$DW$T$165)
   10071                      .dwattr $C$DW$944, DW_AT_name("TINT2")
   10072                      .dwattr $C$DW$944, DW_AT_TI_symbol_name("_TINT2")
   10073                      .dwattr $C$DW$944, DW_AT_data_member_location[DW_OP_plus_uconst 0x1c]
   10074                      .dwattr $C$DW$944, DW_AT_accessibility(DW_ACCESS_public)
   10075              
   10076              $C$DW$945       .dwtag  DW_TAG_member
   10077                      .dwattr $C$DW$945, DW_AT_type(*$C$DW$T$165)
   10078                      .dwattr $C$DW$945, DW_AT_name("DATALOG")
   10079                      .dwattr $C$DW$945, DW_AT_TI_symbol_name("_DATALOG")
   10080                      .dwattr $C$DW$945, DW_AT_data_member_location[DW_OP_plus_uconst 0x1e]
   10081                      .dwattr $C$DW$945, DW_AT_accessibility(DW_ACCESS_public)
   10082              
   10083              $C$DW$946       .dwtag  DW_TAG_member
   10084                      .dwattr $C$DW$946, DW_AT_type(*$C$DW$T$165)
   10085                      .dwattr $C$DW$946, DW_AT_name("RTOSINT")
   10086                      .dwattr $C$DW$946, DW_AT_TI_symbol_name("_RTOSINT")
   10087                      .dwattr $C$DW$946, DW_AT_data_member_location[DW_OP_plus_uconst 0x20]
   10088                      .dwattr $C$DW$946, DW_AT_accessibility(DW_ACCESS_public)
   10089              
   10090              $C$DW$947       .dwtag  DW_TAG_member
   10091                      .dwattr $C$DW$947, DW_AT_type(*$C$DW$T$165)
   10092                      .dwattr $C$DW$947, DW_AT_name("EMUINT")
   10093                      .dwattr $C$DW$947, DW_AT_TI_symbol_name("_EMUINT")
   10094                      .dwattr $C$DW$947, DW_AT_data_member_location[DW_OP_plus_uconst 0x22]
   10095                      .dwattr $C$DW$947, DW_AT_accessibility(DW_ACCESS_public)
   10096              
   10097              $C$DW$948       .dwtag  DW_TAG_member
   10098                      .dwattr $C$DW$948, DW_AT_type(*$C$DW$T$165)
   10099                      .dwattr $C$DW$948, DW_AT_name("NMI")
TMS320C2000 Assembler PC v16.9.6 Tue Mar 06 18:34:46 2018

Tools Copyright (c) 1996-2017 Texas Instruments Incorporated
C:\Users\Admin\AppData\Local\Temp\{ED9AE313-281A-4435-8F2A-5411619B06A2} PAGE  192

   10100                      .dwattr $C$DW$948, DW_AT_TI_symbol_name("_NMI")
   10101                      .dwattr $C$DW$948, DW_AT_data_member_location[DW_OP_plus_uconst 0x24]
   10102                      .dwattr $C$DW$948, DW_AT_accessibility(DW_ACCESS_public)
   10103              
   10104              $C$DW$949       .dwtag  DW_TAG_member
   10105                      .dwattr $C$DW$949, DW_AT_type(*$C$DW$T$165)
   10106                      .dwattr $C$DW$949, DW_AT_name("ILLEGAL")
   10107                      .dwattr $C$DW$949, DW_AT_TI_symbol_name("_ILLEGAL")
   10108                      .dwattr $C$DW$949, DW_AT_data_member_location[DW_OP_plus_uconst 0x26]
   10109                      .dwattr $C$DW$949, DW_AT_accessibility(DW_ACCESS_public)
   10110              
   10111              $C$DW$950       .dwtag  DW_TAG_member
   10112                      .dwattr $C$DW$950, DW_AT_type(*$C$DW$T$165)
   10113                      .dwattr $C$DW$950, DW_AT_name("USER1")
   10114                      .dwattr $C$DW$950, DW_AT_TI_symbol_name("_USER1")
   10115                      .dwattr $C$DW$950, DW_AT_data_member_location[DW_OP_plus_uconst 0x28]
   10116                      .dwattr $C$DW$950, DW_AT_accessibility(DW_ACCESS_public)
   10117              
   10118              $C$DW$951       .dwtag  DW_TAG_member
   10119                      .dwattr $C$DW$951, DW_AT_type(*$C$DW$T$165)
   10120                      .dwattr $C$DW$951, DW_AT_name("USER2")
   10121                      .dwattr $C$DW$951, DW_AT_TI_symbol_name("_USER2")
   10122                      .dwattr $C$DW$951, DW_AT_data_member_location[DW_OP_plus_uconst 0x2a]
   10123                      .dwattr $C$DW$951, DW_AT_accessibility(DW_ACCESS_public)
   10124              
   10125              $C$DW$952       .dwtag  DW_TAG_member
   10126                      .dwattr $C$DW$952, DW_AT_type(*$C$DW$T$165)
   10127                      .dwattr $C$DW$952, DW_AT_name("USER3")
   10128                      .dwattr $C$DW$952, DW_AT_TI_symbol_name("_USER3")
   10129                      .dwattr $C$DW$952, DW_AT_data_member_location[DW_OP_plus_uconst 0x2c]
   10130                      .dwattr $C$DW$952, DW_AT_accessibility(DW_ACCESS_public)
   10131              
   10132              $C$DW$953       .dwtag  DW_TAG_member
   10133                      .dwattr $C$DW$953, DW_AT_type(*$C$DW$T$165)
   10134                      .dwattr $C$DW$953, DW_AT_name("USER4")
   10135                      .dwattr $C$DW$953, DW_AT_TI_symbol_name("_USER4")
   10136                      .dwattr $C$DW$953, DW_AT_data_member_location[DW_OP_plus_uconst 0x2e]
   10137                      .dwattr $C$DW$953, DW_AT_accessibility(DW_ACCESS_public)
   10138              
   10139              $C$DW$954       .dwtag  DW_TAG_member
   10140                      .dwattr $C$DW$954, DW_AT_type(*$C$DW$T$165)
   10141                      .dwattr $C$DW$954, DW_AT_name("USER5")
   10142                      .dwattr $C$DW$954, DW_AT_TI_symbol_name("_USER5")
   10143                      .dwattr $C$DW$954, DW_AT_data_member_location[DW_OP_plus_uconst 0x30]
   10144                      .dwattr $C$DW$954, DW_AT_accessibility(DW_ACCESS_public)
   10145              
   10146              $C$DW$955       .dwtag  DW_TAG_member
   10147                      .dwattr $C$DW$955, DW_AT_type(*$C$DW$T$165)
   10148                      .dwattr $C$DW$955, DW_AT_name("USER6")
   10149                      .dwattr $C$DW$955, DW_AT_TI_symbol_name("_USER6")
   10150                      .dwattr $C$DW$955, DW_AT_data_member_location[DW_OP_plus_uconst 0x32]
   10151                      .dwattr $C$DW$955, DW_AT_accessibility(DW_ACCESS_public)
   10152              
   10153              $C$DW$956       .dwtag  DW_TAG_member
   10154                      .dwattr $C$DW$956, DW_AT_type(*$C$DW$T$165)
TMS320C2000 Assembler PC v16.9.6 Tue Mar 06 18:34:46 2018

Tools Copyright (c) 1996-2017 Texas Instruments Incorporated
C:\Users\Admin\AppData\Local\Temp\{ED9AE313-281A-4435-8F2A-5411619B06A2} PAGE  193

   10155                      .dwattr $C$DW$956, DW_AT_name("USER7")
   10156                      .dwattr $C$DW$956, DW_AT_TI_symbol_name("_USER7")
   10157                      .dwattr $C$DW$956, DW_AT_data_member_location[DW_OP_plus_uconst 0x34]
   10158                      .dwattr $C$DW$956, DW_AT_accessibility(DW_ACCESS_public)
   10159              
   10160              $C$DW$957       .dwtag  DW_TAG_member
   10161                      .dwattr $C$DW$957, DW_AT_type(*$C$DW$T$165)
   10162                      .dwattr $C$DW$957, DW_AT_name("USER8")
   10163                      .dwattr $C$DW$957, DW_AT_TI_symbol_name("_USER8")
   10164                      .dwattr $C$DW$957, DW_AT_data_member_location[DW_OP_plus_uconst 0x36]
   10165                      .dwattr $C$DW$957, DW_AT_accessibility(DW_ACCESS_public)
   10166              
   10167              $C$DW$958       .dwtag  DW_TAG_member
   10168                      .dwattr $C$DW$958, DW_AT_type(*$C$DW$T$165)
   10169                      .dwattr $C$DW$958, DW_AT_name("USER9")
   10170                      .dwattr $C$DW$958, DW_AT_TI_symbol_name("_USER9")
   10171                      .dwattr $C$DW$958, DW_AT_data_member_location[DW_OP_plus_uconst 0x38]
   10172                      .dwattr $C$DW$958, DW_AT_accessibility(DW_ACCESS_public)
   10173              
   10174              $C$DW$959       .dwtag  DW_TAG_member
   10175                      .dwattr $C$DW$959, DW_AT_type(*$C$DW$T$165)
   10176                      .dwattr $C$DW$959, DW_AT_name("USER10")
   10177                      .dwattr $C$DW$959, DW_AT_TI_symbol_name("_USER10")
   10178                      .dwattr $C$DW$959, DW_AT_data_member_location[DW_OP_plus_uconst 0x3a]
   10179                      .dwattr $C$DW$959, DW_AT_accessibility(DW_ACCESS_public)
   10180              
   10181              $C$DW$960       .dwtag  DW_TAG_member
   10182                      .dwattr $C$DW$960, DW_AT_type(*$C$DW$T$165)
   10183                      .dwattr $C$DW$960, DW_AT_name("USER11")
   10184                      .dwattr $C$DW$960, DW_AT_TI_symbol_name("_USER11")
   10185                      .dwattr $C$DW$960, DW_AT_data_member_location[DW_OP_plus_uconst 0x3c]
   10186                      .dwattr $C$DW$960, DW_AT_accessibility(DW_ACCESS_public)
   10187              
   10188              $C$DW$961       .dwtag  DW_TAG_member
   10189                      .dwattr $C$DW$961, DW_AT_type(*$C$DW$T$165)
   10190                      .dwattr $C$DW$961, DW_AT_name("USER12")
   10191                      .dwattr $C$DW$961, DW_AT_TI_symbol_name("_USER12")
   10192                      .dwattr $C$DW$961, DW_AT_data_member_location[DW_OP_plus_uconst 0x3e]
   10193                      .dwattr $C$DW$961, DW_AT_accessibility(DW_ACCESS_public)
   10194              
   10195              $C$DW$962       .dwtag  DW_TAG_member
   10196                      .dwattr $C$DW$962, DW_AT_type(*$C$DW$T$165)
   10197                      .dwattr $C$DW$962, DW_AT_name("ADCINT1")
   10198                      .dwattr $C$DW$962, DW_AT_TI_symbol_name("_ADCINT1")
   10199                      .dwattr $C$DW$962, DW_AT_data_member_location[DW_OP_plus_uconst 0x40]
   10200                      .dwattr $C$DW$962, DW_AT_accessibility(DW_ACCESS_public)
   10201              
   10202              $C$DW$963       .dwtag  DW_TAG_member
   10203                      .dwattr $C$DW$963, DW_AT_type(*$C$DW$T$165)
   10204                      .dwattr $C$DW$963, DW_AT_name("ADCINT2")
   10205                      .dwattr $C$DW$963, DW_AT_TI_symbol_name("_ADCINT2")
   10206                      .dwattr $C$DW$963, DW_AT_data_member_location[DW_OP_plus_uconst 0x42]
   10207                      .dwattr $C$DW$963, DW_AT_accessibility(DW_ACCESS_public)
   10208              
   10209              $C$DW$964       .dwtag  DW_TAG_member
TMS320C2000 Assembler PC v16.9.6 Tue Mar 06 18:34:46 2018

Tools Copyright (c) 1996-2017 Texas Instruments Incorporated
C:\Users\Admin\AppData\Local\Temp\{ED9AE313-281A-4435-8F2A-5411619B06A2} PAGE  194

   10210                      .dwattr $C$DW$964, DW_AT_type(*$C$DW$T$165)
   10211                      .dwattr $C$DW$964, DW_AT_name("rsvd1_3")
   10212                      .dwattr $C$DW$964, DW_AT_TI_symbol_name("_rsvd1_3")
   10213                      .dwattr $C$DW$964, DW_AT_data_member_location[DW_OP_plus_uconst 0x44]
   10214                      .dwattr $C$DW$964, DW_AT_accessibility(DW_ACCESS_public)
   10215              
   10216              $C$DW$965       .dwtag  DW_TAG_member
   10217                      .dwattr $C$DW$965, DW_AT_type(*$C$DW$T$165)
   10218                      .dwattr $C$DW$965, DW_AT_name("XINT1")
   10219                      .dwattr $C$DW$965, DW_AT_TI_symbol_name("_XINT1")
   10220                      .dwattr $C$DW$965, DW_AT_data_member_location[DW_OP_plus_uconst 0x46]
   10221                      .dwattr $C$DW$965, DW_AT_accessibility(DW_ACCESS_public)
   10222              
   10223              $C$DW$966       .dwtag  DW_TAG_member
   10224                      .dwattr $C$DW$966, DW_AT_type(*$C$DW$T$165)
   10225                      .dwattr $C$DW$966, DW_AT_name("XINT2")
   10226                      .dwattr $C$DW$966, DW_AT_TI_symbol_name("_XINT2")
   10227                      .dwattr $C$DW$966, DW_AT_data_member_location[DW_OP_plus_uconst 0x48]
   10228                      .dwattr $C$DW$966, DW_AT_accessibility(DW_ACCESS_public)
   10229              
   10230              $C$DW$967       .dwtag  DW_TAG_member
   10231                      .dwattr $C$DW$967, DW_AT_type(*$C$DW$T$165)
   10232                      .dwattr $C$DW$967, DW_AT_name("ADCINT9")
   10233                      .dwattr $C$DW$967, DW_AT_TI_symbol_name("_ADCINT9")
   10234                      .dwattr $C$DW$967, DW_AT_data_member_location[DW_OP_plus_uconst 0x4a]
   10235                      .dwattr $C$DW$967, DW_AT_accessibility(DW_ACCESS_public)
   10236              
   10237              $C$DW$968       .dwtag  DW_TAG_member
   10238                      .dwattr $C$DW$968, DW_AT_type(*$C$DW$T$165)
   10239                      .dwattr $C$DW$968, DW_AT_name("TINT0")
   10240                      .dwattr $C$DW$968, DW_AT_TI_symbol_name("_TINT0")
   10241                      .dwattr $C$DW$968, DW_AT_data_member_location[DW_OP_plus_uconst 0x4c]
   10242                      .dwattr $C$DW$968, DW_AT_accessibility(DW_ACCESS_public)
   10243              
   10244              $C$DW$969       .dwtag  DW_TAG_member
   10245                      .dwattr $C$DW$969, DW_AT_type(*$C$DW$T$165)
   10246                      .dwattr $C$DW$969, DW_AT_name("WAKEINT")
   10247                      .dwattr $C$DW$969, DW_AT_TI_symbol_name("_WAKEINT")
   10248                      .dwattr $C$DW$969, DW_AT_data_member_location[DW_OP_plus_uconst 0x4e]
   10249                      .dwattr $C$DW$969, DW_AT_accessibility(DW_ACCESS_public)
   10250              
   10251              $C$DW$970       .dwtag  DW_TAG_member
   10252                      .dwattr $C$DW$970, DW_AT_type(*$C$DW$T$165)
   10253                      .dwattr $C$DW$970, DW_AT_name("EPWM1_TZINT")
   10254                      .dwattr $C$DW$970, DW_AT_TI_symbol_name("_EPWM1_TZINT")
   10255                      .dwattr $C$DW$970, DW_AT_data_member_location[DW_OP_plus_uconst 0x50]
   10256                      .dwattr $C$DW$970, DW_AT_accessibility(DW_ACCESS_public)
   10257              
   10258              $C$DW$971       .dwtag  DW_TAG_member
   10259                      .dwattr $C$DW$971, DW_AT_type(*$C$DW$T$165)
   10260                      .dwattr $C$DW$971, DW_AT_name("EPWM2_TZINT")
   10261                      .dwattr $C$DW$971, DW_AT_TI_symbol_name("_EPWM2_TZINT")
   10262                      .dwattr $C$DW$971, DW_AT_data_member_location[DW_OP_plus_uconst 0x52]
   10263                      .dwattr $C$DW$971, DW_AT_accessibility(DW_ACCESS_public)
   10264              
TMS320C2000 Assembler PC v16.9.6 Tue Mar 06 18:34:46 2018

Tools Copyright (c) 1996-2017 Texas Instruments Incorporated
C:\Users\Admin\AppData\Local\Temp\{ED9AE313-281A-4435-8F2A-5411619B06A2} PAGE  195

   10265              $C$DW$972       .dwtag  DW_TAG_member
   10266                      .dwattr $C$DW$972, DW_AT_type(*$C$DW$T$165)
   10267                      .dwattr $C$DW$972, DW_AT_name("EPWM3_TZINT")
   10268                      .dwattr $C$DW$972, DW_AT_TI_symbol_name("_EPWM3_TZINT")
   10269                      .dwattr $C$DW$972, DW_AT_data_member_location[DW_OP_plus_uconst 0x54]
   10270                      .dwattr $C$DW$972, DW_AT_accessibility(DW_ACCESS_public)
   10271              
   10272              $C$DW$973       .dwtag  DW_TAG_member
   10273                      .dwattr $C$DW$973, DW_AT_type(*$C$DW$T$165)
   10274                      .dwattr $C$DW$973, DW_AT_name("EPWM4_TZINT")
   10275                      .dwattr $C$DW$973, DW_AT_TI_symbol_name("_EPWM4_TZINT")
   10276                      .dwattr $C$DW$973, DW_AT_data_member_location[DW_OP_plus_uconst 0x56]
   10277                      .dwattr $C$DW$973, DW_AT_accessibility(DW_ACCESS_public)
   10278              
   10279              $C$DW$974       .dwtag  DW_TAG_member
   10280                      .dwattr $C$DW$974, DW_AT_type(*$C$DW$T$165)
   10281                      .dwattr $C$DW$974, DW_AT_name("EPWM5_TZINT")
   10282                      .dwattr $C$DW$974, DW_AT_TI_symbol_name("_EPWM5_TZINT")
   10283                      .dwattr $C$DW$974, DW_AT_data_member_location[DW_OP_plus_uconst 0x58]
   10284                      .dwattr $C$DW$974, DW_AT_accessibility(DW_ACCESS_public)
   10285              
   10286              $C$DW$975       .dwtag  DW_TAG_member
   10287                      .dwattr $C$DW$975, DW_AT_type(*$C$DW$T$165)
   10288                      .dwattr $C$DW$975, DW_AT_name("EPWM6_TZINT")
   10289                      .dwattr $C$DW$975, DW_AT_TI_symbol_name("_EPWM6_TZINT")
   10290                      .dwattr $C$DW$975, DW_AT_data_member_location[DW_OP_plus_uconst 0x5a]
   10291                      .dwattr $C$DW$975, DW_AT_accessibility(DW_ACCESS_public)
   10292              
   10293              $C$DW$976       .dwtag  DW_TAG_member
   10294                      .dwattr $C$DW$976, DW_AT_type(*$C$DW$T$165)
   10295                      .dwattr $C$DW$976, DW_AT_name("EPWM7_TZINT")
   10296                      .dwattr $C$DW$976, DW_AT_TI_symbol_name("_EPWM7_TZINT")
   10297                      .dwattr $C$DW$976, DW_AT_data_member_location[DW_OP_plus_uconst 0x5c]
   10298                      .dwattr $C$DW$976, DW_AT_accessibility(DW_ACCESS_public)
   10299              
   10300              $C$DW$977       .dwtag  DW_TAG_member
   10301                      .dwattr $C$DW$977, DW_AT_type(*$C$DW$T$165)
   10302                      .dwattr $C$DW$977, DW_AT_name("rsvd2_8")
   10303                      .dwattr $C$DW$977, DW_AT_TI_symbol_name("_rsvd2_8")
   10304                      .dwattr $C$DW$977, DW_AT_data_member_location[DW_OP_plus_uconst 0x5e]
   10305                      .dwattr $C$DW$977, DW_AT_accessibility(DW_ACCESS_public)
   10306              
   10307              $C$DW$978       .dwtag  DW_TAG_member
   10308                      .dwattr $C$DW$978, DW_AT_type(*$C$DW$T$165)
   10309                      .dwattr $C$DW$978, DW_AT_name("EPWM1_INT")
   10310                      .dwattr $C$DW$978, DW_AT_TI_symbol_name("_EPWM1_INT")
   10311                      .dwattr $C$DW$978, DW_AT_data_member_location[DW_OP_plus_uconst 0x60]
   10312                      .dwattr $C$DW$978, DW_AT_accessibility(DW_ACCESS_public)
   10313              
   10314              $C$DW$979       .dwtag  DW_TAG_member
   10315                      .dwattr $C$DW$979, DW_AT_type(*$C$DW$T$165)
   10316                      .dwattr $C$DW$979, DW_AT_name("EPWM2_INT")
   10317                      .dwattr $C$DW$979, DW_AT_TI_symbol_name("_EPWM2_INT")
   10318                      .dwattr $C$DW$979, DW_AT_data_member_location[DW_OP_plus_uconst 0x62]
   10319                      .dwattr $C$DW$979, DW_AT_accessibility(DW_ACCESS_public)
TMS320C2000 Assembler PC v16.9.6 Tue Mar 06 18:34:46 2018

Tools Copyright (c) 1996-2017 Texas Instruments Incorporated
C:\Users\Admin\AppData\Local\Temp\{ED9AE313-281A-4435-8F2A-5411619B06A2} PAGE  196

   10320              
   10321              $C$DW$980       .dwtag  DW_TAG_member
   10322                      .dwattr $C$DW$980, DW_AT_type(*$C$DW$T$165)
   10323                      .dwattr $C$DW$980, DW_AT_name("EPWM3_INT")
   10324                      .dwattr $C$DW$980, DW_AT_TI_symbol_name("_EPWM3_INT")
   10325                      .dwattr $C$DW$980, DW_AT_data_member_location[DW_OP_plus_uconst 0x64]
   10326                      .dwattr $C$DW$980, DW_AT_accessibility(DW_ACCESS_public)
   10327              
   10328              $C$DW$981       .dwtag  DW_TAG_member
   10329                      .dwattr $C$DW$981, DW_AT_type(*$C$DW$T$165)
   10330                      .dwattr $C$DW$981, DW_AT_name("EPWM4_INT")
   10331                      .dwattr $C$DW$981, DW_AT_TI_symbol_name("_EPWM4_INT")
   10332                      .dwattr $C$DW$981, DW_AT_data_member_location[DW_OP_plus_uconst 0x66]
   10333                      .dwattr $C$DW$981, DW_AT_accessibility(DW_ACCESS_public)
   10334              
   10335              $C$DW$982       .dwtag  DW_TAG_member
   10336                      .dwattr $C$DW$982, DW_AT_type(*$C$DW$T$165)
   10337                      .dwattr $C$DW$982, DW_AT_name("EPWM5_INT")
   10338                      .dwattr $C$DW$982, DW_AT_TI_symbol_name("_EPWM5_INT")
   10339                      .dwattr $C$DW$982, DW_AT_data_member_location[DW_OP_plus_uconst 0x68]
   10340                      .dwattr $C$DW$982, DW_AT_accessibility(DW_ACCESS_public)
   10341              
   10342              $C$DW$983       .dwtag  DW_TAG_member
   10343                      .dwattr $C$DW$983, DW_AT_type(*$C$DW$T$165)
   10344                      .dwattr $C$DW$983, DW_AT_name("EPWM6_INT")
   10345                      .dwattr $C$DW$983, DW_AT_TI_symbol_name("_EPWM6_INT")
   10346                      .dwattr $C$DW$983, DW_AT_data_member_location[DW_OP_plus_uconst 0x6a]
   10347                      .dwattr $C$DW$983, DW_AT_accessibility(DW_ACCESS_public)
   10348              
   10349              $C$DW$984       .dwtag  DW_TAG_member
   10350                      .dwattr $C$DW$984, DW_AT_type(*$C$DW$T$165)
   10351                      .dwattr $C$DW$984, DW_AT_name("EPWM7_INT")
   10352                      .dwattr $C$DW$984, DW_AT_TI_symbol_name("_EPWM7_INT")
   10353                      .dwattr $C$DW$984, DW_AT_data_member_location[DW_OP_plus_uconst 0x6c]
   10354                      .dwattr $C$DW$984, DW_AT_accessibility(DW_ACCESS_public)
   10355              
   10356              $C$DW$985       .dwtag  DW_TAG_member
   10357                      .dwattr $C$DW$985, DW_AT_type(*$C$DW$T$165)
   10358                      .dwattr $C$DW$985, DW_AT_name("rsvd3_8")
   10359                      .dwattr $C$DW$985, DW_AT_TI_symbol_name("_rsvd3_8")
   10360                      .dwattr $C$DW$985, DW_AT_data_member_location[DW_OP_plus_uconst 0x6e]
   10361                      .dwattr $C$DW$985, DW_AT_accessibility(DW_ACCESS_public)
   10362              
   10363              $C$DW$986       .dwtag  DW_TAG_member
   10364                      .dwattr $C$DW$986, DW_AT_type(*$C$DW$T$165)
   10365                      .dwattr $C$DW$986, DW_AT_name("ECAP1_INT")
   10366                      .dwattr $C$DW$986, DW_AT_TI_symbol_name("_ECAP1_INT")
   10367                      .dwattr $C$DW$986, DW_AT_data_member_location[DW_OP_plus_uconst 0x70]
   10368                      .dwattr $C$DW$986, DW_AT_accessibility(DW_ACCESS_public)
   10369              
   10370              $C$DW$987       .dwtag  DW_TAG_member
   10371                      .dwattr $C$DW$987, DW_AT_type(*$C$DW$T$165)
   10372                      .dwattr $C$DW$987, DW_AT_name("rsvd4_2")
   10373                      .dwattr $C$DW$987, DW_AT_TI_symbol_name("_rsvd4_2")
   10374                      .dwattr $C$DW$987, DW_AT_data_member_location[DW_OP_plus_uconst 0x72]
TMS320C2000 Assembler PC v16.9.6 Tue Mar 06 18:34:46 2018

Tools Copyright (c) 1996-2017 Texas Instruments Incorporated
C:\Users\Admin\AppData\Local\Temp\{ED9AE313-281A-4435-8F2A-5411619B06A2} PAGE  197

   10375                      .dwattr $C$DW$987, DW_AT_accessibility(DW_ACCESS_public)
   10376              
   10377              $C$DW$988       .dwtag  DW_TAG_member
   10378                      .dwattr $C$DW$988, DW_AT_type(*$C$DW$T$165)
   10379                      .dwattr $C$DW$988, DW_AT_name("rsvd4_3")
   10380                      .dwattr $C$DW$988, DW_AT_TI_symbol_name("_rsvd4_3")
   10381                      .dwattr $C$DW$988, DW_AT_data_member_location[DW_OP_plus_uconst 0x74]
   10382                      .dwattr $C$DW$988, DW_AT_accessibility(DW_ACCESS_public)
   10383              
   10384              $C$DW$989       .dwtag  DW_TAG_member
   10385                      .dwattr $C$DW$989, DW_AT_type(*$C$DW$T$165)
   10386                      .dwattr $C$DW$989, DW_AT_name("rsvd4_4")
   10387                      .dwattr $C$DW$989, DW_AT_TI_symbol_name("_rsvd4_4")
   10388                      .dwattr $C$DW$989, DW_AT_data_member_location[DW_OP_plus_uconst 0x76]
   10389                      .dwattr $C$DW$989, DW_AT_accessibility(DW_ACCESS_public)
   10390              
   10391              $C$DW$990       .dwtag  DW_TAG_member
   10392                      .dwattr $C$DW$990, DW_AT_type(*$C$DW$T$165)
   10393                      .dwattr $C$DW$990, DW_AT_name("rsvd4_5")
   10394                      .dwattr $C$DW$990, DW_AT_TI_symbol_name("_rsvd4_5")
   10395                      .dwattr $C$DW$990, DW_AT_data_member_location[DW_OP_plus_uconst 0x78]
   10396                      .dwattr $C$DW$990, DW_AT_accessibility(DW_ACCESS_public)
   10397              
   10398              $C$DW$991       .dwtag  DW_TAG_member
   10399                      .dwattr $C$DW$991, DW_AT_type(*$C$DW$T$165)
   10400                      .dwattr $C$DW$991, DW_AT_name("rsvd4_6")
   10401                      .dwattr $C$DW$991, DW_AT_TI_symbol_name("_rsvd4_6")
   10402                      .dwattr $C$DW$991, DW_AT_data_member_location[DW_OP_plus_uconst 0x7a]
   10403                      .dwattr $C$DW$991, DW_AT_accessibility(DW_ACCESS_public)
   10404              
   10405              $C$DW$992       .dwtag  DW_TAG_member
   10406                      .dwattr $C$DW$992, DW_AT_type(*$C$DW$T$165)
   10407                      .dwattr $C$DW$992, DW_AT_name("rsvd4_7")
   10408                      .dwattr $C$DW$992, DW_AT_TI_symbol_name("_rsvd4_7")
   10409                      .dwattr $C$DW$992, DW_AT_data_member_location[DW_OP_plus_uconst 0x7c]
   10410                      .dwattr $C$DW$992, DW_AT_accessibility(DW_ACCESS_public)
   10411              
   10412              $C$DW$993       .dwtag  DW_TAG_member
   10413                      .dwattr $C$DW$993, DW_AT_type(*$C$DW$T$165)
   10414                      .dwattr $C$DW$993, DW_AT_name("rsvd4_8")
   10415                      .dwattr $C$DW$993, DW_AT_TI_symbol_name("_rsvd4_8")
   10416                      .dwattr $C$DW$993, DW_AT_data_member_location[DW_OP_plus_uconst 0x7e]
   10417                      .dwattr $C$DW$993, DW_AT_accessibility(DW_ACCESS_public)
   10418              
   10419              $C$DW$994       .dwtag  DW_TAG_member
   10420                      .dwattr $C$DW$994, DW_AT_type(*$C$DW$T$165)
   10421                      .dwattr $C$DW$994, DW_AT_name("EQEP1_INT")
   10422                      .dwattr $C$DW$994, DW_AT_TI_symbol_name("_EQEP1_INT")
   10423                      .dwattr $C$DW$994, DW_AT_data_member_location[DW_OP_plus_uconst 0x80]
   10424                      .dwattr $C$DW$994, DW_AT_accessibility(DW_ACCESS_public)
   10425              
   10426              $C$DW$995       .dwtag  DW_TAG_member
   10427                      .dwattr $C$DW$995, DW_AT_type(*$C$DW$T$165)
   10428                      .dwattr $C$DW$995, DW_AT_name("rsvd5_2")
   10429                      .dwattr $C$DW$995, DW_AT_TI_symbol_name("_rsvd5_2")
TMS320C2000 Assembler PC v16.9.6 Tue Mar 06 18:34:46 2018

Tools Copyright (c) 1996-2017 Texas Instruments Incorporated
C:\Users\Admin\AppData\Local\Temp\{ED9AE313-281A-4435-8F2A-5411619B06A2} PAGE  198

   10430                      .dwattr $C$DW$995, DW_AT_data_member_location[DW_OP_plus_uconst 0x82]
   10431                      .dwattr $C$DW$995, DW_AT_accessibility(DW_ACCESS_public)
   10432              
   10433              $C$DW$996       .dwtag  DW_TAG_member
   10434                      .dwattr $C$DW$996, DW_AT_type(*$C$DW$T$165)
   10435                      .dwattr $C$DW$996, DW_AT_name("rsvd5_3")
   10436                      .dwattr $C$DW$996, DW_AT_TI_symbol_name("_rsvd5_3")
   10437                      .dwattr $C$DW$996, DW_AT_data_member_location[DW_OP_plus_uconst 0x84]
   10438                      .dwattr $C$DW$996, DW_AT_accessibility(DW_ACCESS_public)
   10439              
   10440              $C$DW$997       .dwtag  DW_TAG_member
   10441                      .dwattr $C$DW$997, DW_AT_type(*$C$DW$T$165)
   10442                      .dwattr $C$DW$997, DW_AT_name("rsvd5_4")
   10443                      .dwattr $C$DW$997, DW_AT_TI_symbol_name("_rsvd5_4")
   10444                      .dwattr $C$DW$997, DW_AT_data_member_location[DW_OP_plus_uconst 0x86]
   10445                      .dwattr $C$DW$997, DW_AT_accessibility(DW_ACCESS_public)
   10446              
   10447              $C$DW$998       .dwtag  DW_TAG_member
   10448                      .dwattr $C$DW$998, DW_AT_type(*$C$DW$T$165)
   10449                      .dwattr $C$DW$998, DW_AT_name("rsvd5_5")
   10450                      .dwattr $C$DW$998, DW_AT_TI_symbol_name("_rsvd5_5")
   10451                      .dwattr $C$DW$998, DW_AT_data_member_location[DW_OP_plus_uconst 0x88]
   10452                      .dwattr $C$DW$998, DW_AT_accessibility(DW_ACCESS_public)
   10453              
   10454              $C$DW$999       .dwtag  DW_TAG_member
   10455                      .dwattr $C$DW$999, DW_AT_type(*$C$DW$T$165)
   10456                      .dwattr $C$DW$999, DW_AT_name("rsvd5_6")
   10457                      .dwattr $C$DW$999, DW_AT_TI_symbol_name("_rsvd5_6")
   10458                      .dwattr $C$DW$999, DW_AT_data_member_location[DW_OP_plus_uconst 0x8a]
   10459                      .dwattr $C$DW$999, DW_AT_accessibility(DW_ACCESS_public)
   10460              
   10461              $C$DW$1000      .dwtag  DW_TAG_member
   10462                      .dwattr $C$DW$1000, DW_AT_type(*$C$DW$T$165)
   10463                      .dwattr $C$DW$1000, DW_AT_name("rsvd5_7")
   10464                      .dwattr $C$DW$1000, DW_AT_TI_symbol_name("_rsvd5_7")
   10465                      .dwattr $C$DW$1000, DW_AT_data_member_location[DW_OP_plus_uconst 0x8c]
   10466                      .dwattr $C$DW$1000, DW_AT_accessibility(DW_ACCESS_public)
   10467              
   10468              $C$DW$1001      .dwtag  DW_TAG_member
   10469                      .dwattr $C$DW$1001, DW_AT_type(*$C$DW$T$165)
   10470                      .dwattr $C$DW$1001, DW_AT_name("rsvd5_8")
   10471                      .dwattr $C$DW$1001, DW_AT_TI_symbol_name("_rsvd5_8")
   10472                      .dwattr $C$DW$1001, DW_AT_data_member_location[DW_OP_plus_uconst 0x8e]
   10473                      .dwattr $C$DW$1001, DW_AT_accessibility(DW_ACCESS_public)
   10474              
   10475              $C$DW$1002      .dwtag  DW_TAG_member
   10476                      .dwattr $C$DW$1002, DW_AT_type(*$C$DW$T$165)
   10477                      .dwattr $C$DW$1002, DW_AT_name("SPIRXINTA")
   10478                      .dwattr $C$DW$1002, DW_AT_TI_symbol_name("_SPIRXINTA")
   10479                      .dwattr $C$DW$1002, DW_AT_data_member_location[DW_OP_plus_uconst 0x90]
   10480                      .dwattr $C$DW$1002, DW_AT_accessibility(DW_ACCESS_public)
   10481              
   10482              $C$DW$1003      .dwtag  DW_TAG_member
   10483                      .dwattr $C$DW$1003, DW_AT_type(*$C$DW$T$165)
   10484                      .dwattr $C$DW$1003, DW_AT_name("SPITXINTA")
TMS320C2000 Assembler PC v16.9.6 Tue Mar 06 18:34:46 2018

Tools Copyright (c) 1996-2017 Texas Instruments Incorporated
C:\Users\Admin\AppData\Local\Temp\{ED9AE313-281A-4435-8F2A-5411619B06A2} PAGE  199

   10485                      .dwattr $C$DW$1003, DW_AT_TI_symbol_name("_SPITXINTA")
   10486                      .dwattr $C$DW$1003, DW_AT_data_member_location[DW_OP_plus_uconst 0x92]
   10487                      .dwattr $C$DW$1003, DW_AT_accessibility(DW_ACCESS_public)
   10488              
   10489              $C$DW$1004      .dwtag  DW_TAG_member
   10490                      .dwattr $C$DW$1004, DW_AT_type(*$C$DW$T$165)
   10491                      .dwattr $C$DW$1004, DW_AT_name("SPIRXINTB")
   10492                      .dwattr $C$DW$1004, DW_AT_TI_symbol_name("_SPIRXINTB")
   10493                      .dwattr $C$DW$1004, DW_AT_data_member_location[DW_OP_plus_uconst 0x94]
   10494                      .dwattr $C$DW$1004, DW_AT_accessibility(DW_ACCESS_public)
   10495              
   10496              $C$DW$1005      .dwtag  DW_TAG_member
   10497                      .dwattr $C$DW$1005, DW_AT_type(*$C$DW$T$165)
   10498                      .dwattr $C$DW$1005, DW_AT_name("SPITXINTB")
   10499                      .dwattr $C$DW$1005, DW_AT_TI_symbol_name("_SPITXINTB")
   10500                      .dwattr $C$DW$1005, DW_AT_data_member_location[DW_OP_plus_uconst 0x96]
   10501                      .dwattr $C$DW$1005, DW_AT_accessibility(DW_ACCESS_public)
   10502              
   10503              $C$DW$1006      .dwtag  DW_TAG_member
   10504                      .dwattr $C$DW$1006, DW_AT_type(*$C$DW$T$165)
   10505                      .dwattr $C$DW$1006, DW_AT_name("rsvd6_5")
   10506                      .dwattr $C$DW$1006, DW_AT_TI_symbol_name("_rsvd6_5")
   10507                      .dwattr $C$DW$1006, DW_AT_data_member_location[DW_OP_plus_uconst 0x98]
   10508                      .dwattr $C$DW$1006, DW_AT_accessibility(DW_ACCESS_public)
   10509              
   10510              $C$DW$1007      .dwtag  DW_TAG_member
   10511                      .dwattr $C$DW$1007, DW_AT_type(*$C$DW$T$165)
   10512                      .dwattr $C$DW$1007, DW_AT_name("rsvd6_6")
   10513                      .dwattr $C$DW$1007, DW_AT_TI_symbol_name("_rsvd6_6")
   10514                      .dwattr $C$DW$1007, DW_AT_data_member_location[DW_OP_plus_uconst 0x9a]
   10515                      .dwattr $C$DW$1007, DW_AT_accessibility(DW_ACCESS_public)
   10516              
   10517              $C$DW$1008      .dwtag  DW_TAG_member
   10518                      .dwattr $C$DW$1008, DW_AT_type(*$C$DW$T$165)
   10519                      .dwattr $C$DW$1008, DW_AT_name("rsvd6_7")
   10520                      .dwattr $C$DW$1008, DW_AT_TI_symbol_name("_rsvd6_7")
   10521                      .dwattr $C$DW$1008, DW_AT_data_member_location[DW_OP_plus_uconst 0x9c]
   10522                      .dwattr $C$DW$1008, DW_AT_accessibility(DW_ACCESS_public)
   10523              
   10524              $C$DW$1009      .dwtag  DW_TAG_member
   10525                      .dwattr $C$DW$1009, DW_AT_type(*$C$DW$T$165)
   10526                      .dwattr $C$DW$1009, DW_AT_name("rsvd6_8")
   10527                      .dwattr $C$DW$1009, DW_AT_TI_symbol_name("_rsvd6_8")
   10528                      .dwattr $C$DW$1009, DW_AT_data_member_location[DW_OP_plus_uconst 0x9e]
   10529                      .dwattr $C$DW$1009, DW_AT_accessibility(DW_ACCESS_public)
   10530              
   10531              $C$DW$1010      .dwtag  DW_TAG_member
   10532                      .dwattr $C$DW$1010, DW_AT_type(*$C$DW$T$165)
   10533                      .dwattr $C$DW$1010, DW_AT_name("rsvd7_1")
   10534                      .dwattr $C$DW$1010, DW_AT_TI_symbol_name("_rsvd7_1")
   10535                      .dwattr $C$DW$1010, DW_AT_data_member_location[DW_OP_plus_uconst 0xa0]
   10536                      .dwattr $C$DW$1010, DW_AT_accessibility(DW_ACCESS_public)
   10537              
   10538              $C$DW$1011      .dwtag  DW_TAG_member
   10539                      .dwattr $C$DW$1011, DW_AT_type(*$C$DW$T$165)
TMS320C2000 Assembler PC v16.9.6 Tue Mar 06 18:34:46 2018

Tools Copyright (c) 1996-2017 Texas Instruments Incorporated
C:\Users\Admin\AppData\Local\Temp\{ED9AE313-281A-4435-8F2A-5411619B06A2} PAGE  200

   10540                      .dwattr $C$DW$1011, DW_AT_name("rsvd7_2")
   10541                      .dwattr $C$DW$1011, DW_AT_TI_symbol_name("_rsvd7_2")
   10542                      .dwattr $C$DW$1011, DW_AT_data_member_location[DW_OP_plus_uconst 0xa2]
   10543                      .dwattr $C$DW$1011, DW_AT_accessibility(DW_ACCESS_public)
   10544              
   10545              $C$DW$1012      .dwtag  DW_TAG_member
   10546                      .dwattr $C$DW$1012, DW_AT_type(*$C$DW$T$165)
   10547                      .dwattr $C$DW$1012, DW_AT_name("rsvd7_3")
   10548                      .dwattr $C$DW$1012, DW_AT_TI_symbol_name("_rsvd7_3")
   10549                      .dwattr $C$DW$1012, DW_AT_data_member_location[DW_OP_plus_uconst 0xa4]
   10550                      .dwattr $C$DW$1012, DW_AT_accessibility(DW_ACCESS_public)
   10551              
   10552              $C$DW$1013      .dwtag  DW_TAG_member
   10553                      .dwattr $C$DW$1013, DW_AT_type(*$C$DW$T$165)
   10554                      .dwattr $C$DW$1013, DW_AT_name("rsvd7_4")
   10555                      .dwattr $C$DW$1013, DW_AT_TI_symbol_name("_rsvd7_4")
   10556                      .dwattr $C$DW$1013, DW_AT_data_member_location[DW_OP_plus_uconst 0xa6]
   10557                      .dwattr $C$DW$1013, DW_AT_accessibility(DW_ACCESS_public)
   10558              
   10559              $C$DW$1014      .dwtag  DW_TAG_member
   10560                      .dwattr $C$DW$1014, DW_AT_type(*$C$DW$T$165)
   10561                      .dwattr $C$DW$1014, DW_AT_name("rsvd7_5")
   10562                      .dwattr $C$DW$1014, DW_AT_TI_symbol_name("_rsvd7_5")
   10563                      .dwattr $C$DW$1014, DW_AT_data_member_location[DW_OP_plus_uconst 0xa8]
   10564                      .dwattr $C$DW$1014, DW_AT_accessibility(DW_ACCESS_public)
   10565              
   10566              $C$DW$1015      .dwtag  DW_TAG_member
   10567                      .dwattr $C$DW$1015, DW_AT_type(*$C$DW$T$165)
   10568                      .dwattr $C$DW$1015, DW_AT_name("rsvd7_6")
   10569                      .dwattr $C$DW$1015, DW_AT_TI_symbol_name("_rsvd7_6")
   10570                      .dwattr $C$DW$1015, DW_AT_data_member_location[DW_OP_plus_uconst 0xaa]
   10571                      .dwattr $C$DW$1015, DW_AT_accessibility(DW_ACCESS_public)
   10572              
   10573              $C$DW$1016      .dwtag  DW_TAG_member
   10574                      .dwattr $C$DW$1016, DW_AT_type(*$C$DW$T$165)
   10575                      .dwattr $C$DW$1016, DW_AT_name("rsvd7_7")
   10576                      .dwattr $C$DW$1016, DW_AT_TI_symbol_name("_rsvd7_7")
   10577                      .dwattr $C$DW$1016, DW_AT_data_member_location[DW_OP_plus_uconst 0xac]
   10578                      .dwattr $C$DW$1016, DW_AT_accessibility(DW_ACCESS_public)
   10579              
   10580              $C$DW$1017      .dwtag  DW_TAG_member
   10581                      .dwattr $C$DW$1017, DW_AT_type(*$C$DW$T$165)
   10582                      .dwattr $C$DW$1017, DW_AT_name("rsvd7_8")
   10583                      .dwattr $C$DW$1017, DW_AT_TI_symbol_name("_rsvd7_8")
   10584                      .dwattr $C$DW$1017, DW_AT_data_member_location[DW_OP_plus_uconst 0xae]
   10585                      .dwattr $C$DW$1017, DW_AT_accessibility(DW_ACCESS_public)
   10586              
   10587              $C$DW$1018      .dwtag  DW_TAG_member
   10588                      .dwattr $C$DW$1018, DW_AT_type(*$C$DW$T$165)
   10589                      .dwattr $C$DW$1018, DW_AT_name("I2CINT1A")
   10590                      .dwattr $C$DW$1018, DW_AT_TI_symbol_name("_I2CINT1A")
   10591                      .dwattr $C$DW$1018, DW_AT_data_member_location[DW_OP_plus_uconst 0xb0]
   10592                      .dwattr $C$DW$1018, DW_AT_accessibility(DW_ACCESS_public)
   10593              
   10594              $C$DW$1019      .dwtag  DW_TAG_member
TMS320C2000 Assembler PC v16.9.6 Tue Mar 06 18:34:46 2018

Tools Copyright (c) 1996-2017 Texas Instruments Incorporated
C:\Users\Admin\AppData\Local\Temp\{ED9AE313-281A-4435-8F2A-5411619B06A2} PAGE  201

   10595                      .dwattr $C$DW$1019, DW_AT_type(*$C$DW$T$165)
   10596                      .dwattr $C$DW$1019, DW_AT_name("I2CINT2A")
   10597                      .dwattr $C$DW$1019, DW_AT_TI_symbol_name("_I2CINT2A")
   10598                      .dwattr $C$DW$1019, DW_AT_data_member_location[DW_OP_plus_uconst 0xb2]
   10599                      .dwattr $C$DW$1019, DW_AT_accessibility(DW_ACCESS_public)
   10600              
   10601              $C$DW$1020      .dwtag  DW_TAG_member
   10602                      .dwattr $C$DW$1020, DW_AT_type(*$C$DW$T$165)
   10603                      .dwattr $C$DW$1020, DW_AT_name("rsvd8_3")
   10604                      .dwattr $C$DW$1020, DW_AT_TI_symbol_name("_rsvd8_3")
   10605                      .dwattr $C$DW$1020, DW_AT_data_member_location[DW_OP_plus_uconst 0xb4]
   10606                      .dwattr $C$DW$1020, DW_AT_accessibility(DW_ACCESS_public)
   10607              
   10608              $C$DW$1021      .dwtag  DW_TAG_member
   10609                      .dwattr $C$DW$1021, DW_AT_type(*$C$DW$T$165)
   10610                      .dwattr $C$DW$1021, DW_AT_name("rsvd8_4")
   10611                      .dwattr $C$DW$1021, DW_AT_TI_symbol_name("_rsvd8_4")
   10612                      .dwattr $C$DW$1021, DW_AT_data_member_location[DW_OP_plus_uconst 0xb6]
   10613                      .dwattr $C$DW$1021, DW_AT_accessibility(DW_ACCESS_public)
   10614              
   10615              $C$DW$1022      .dwtag  DW_TAG_member
   10616                      .dwattr $C$DW$1022, DW_AT_type(*$C$DW$T$165)
   10617                      .dwattr $C$DW$1022, DW_AT_name("rsvd8_5")
   10618                      .dwattr $C$DW$1022, DW_AT_TI_symbol_name("_rsvd8_5")
   10619                      .dwattr $C$DW$1022, DW_AT_data_member_location[DW_OP_plus_uconst 0xb8]
   10620                      .dwattr $C$DW$1022, DW_AT_accessibility(DW_ACCESS_public)
   10621              
   10622              $C$DW$1023      .dwtag  DW_TAG_member
   10623                      .dwattr $C$DW$1023, DW_AT_type(*$C$DW$T$165)
   10624                      .dwattr $C$DW$1023, DW_AT_name("rsvd8_6")
   10625                      .dwattr $C$DW$1023, DW_AT_TI_symbol_name("_rsvd8_6")
   10626                      .dwattr $C$DW$1023, DW_AT_data_member_location[DW_OP_plus_uconst 0xba]
   10627                      .dwattr $C$DW$1023, DW_AT_accessibility(DW_ACCESS_public)
   10628              
   10629              $C$DW$1024      .dwtag  DW_TAG_member
   10630                      .dwattr $C$DW$1024, DW_AT_type(*$C$DW$T$165)
   10631                      .dwattr $C$DW$1024, DW_AT_name("rsvd8_7")
   10632                      .dwattr $C$DW$1024, DW_AT_TI_symbol_name("_rsvd8_7")
   10633                      .dwattr $C$DW$1024, DW_AT_data_member_location[DW_OP_plus_uconst 0xbc]
   10634                      .dwattr $C$DW$1024, DW_AT_accessibility(DW_ACCESS_public)
   10635              
   10636              $C$DW$1025      .dwtag  DW_TAG_member
   10637                      .dwattr $C$DW$1025, DW_AT_type(*$C$DW$T$165)
   10638                      .dwattr $C$DW$1025, DW_AT_name("rsvd8_8")
   10639                      .dwattr $C$DW$1025, DW_AT_TI_symbol_name("_rsvd8_8")
   10640                      .dwattr $C$DW$1025, DW_AT_data_member_location[DW_OP_plus_uconst 0xbe]
   10641                      .dwattr $C$DW$1025, DW_AT_accessibility(DW_ACCESS_public)
   10642              
   10643              $C$DW$1026      .dwtag  DW_TAG_member
   10644                      .dwattr $C$DW$1026, DW_AT_type(*$C$DW$T$165)
   10645                      .dwattr $C$DW$1026, DW_AT_name("SCIRXINTA")
   10646                      .dwattr $C$DW$1026, DW_AT_TI_symbol_name("_SCIRXINTA")
   10647                      .dwattr $C$DW$1026, DW_AT_data_member_location[DW_OP_plus_uconst 0xc0]
   10648                      .dwattr $C$DW$1026, DW_AT_accessibility(DW_ACCESS_public)
   10649              
TMS320C2000 Assembler PC v16.9.6 Tue Mar 06 18:34:46 2018

Tools Copyright (c) 1996-2017 Texas Instruments Incorporated
C:\Users\Admin\AppData\Local\Temp\{ED9AE313-281A-4435-8F2A-5411619B06A2} PAGE  202

   10650              $C$DW$1027      .dwtag  DW_TAG_member
   10651                      .dwattr $C$DW$1027, DW_AT_type(*$C$DW$T$165)
   10652                      .dwattr $C$DW$1027, DW_AT_name("SCITXINTA")
   10653                      .dwattr $C$DW$1027, DW_AT_TI_symbol_name("_SCITXINTA")
   10654                      .dwattr $C$DW$1027, DW_AT_data_member_location[DW_OP_plus_uconst 0xc2]
   10655                      .dwattr $C$DW$1027, DW_AT_accessibility(DW_ACCESS_public)
   10656              
   10657              $C$DW$1028      .dwtag  DW_TAG_member
   10658                      .dwattr $C$DW$1028, DW_AT_type(*$C$DW$T$165)
   10659                      .dwattr $C$DW$1028, DW_AT_name("LIN0INTA")
   10660                      .dwattr $C$DW$1028, DW_AT_TI_symbol_name("_LIN0INTA")
   10661                      .dwattr $C$DW$1028, DW_AT_data_member_location[DW_OP_plus_uconst 0xc4]
   10662                      .dwattr $C$DW$1028, DW_AT_accessibility(DW_ACCESS_public)
   10663              
   10664              $C$DW$1029      .dwtag  DW_TAG_member
   10665                      .dwattr $C$DW$1029, DW_AT_type(*$C$DW$T$165)
   10666                      .dwattr $C$DW$1029, DW_AT_name("LIN1INTA")
   10667                      .dwattr $C$DW$1029, DW_AT_TI_symbol_name("_LIN1INTA")
   10668                      .dwattr $C$DW$1029, DW_AT_data_member_location[DW_OP_plus_uconst 0xc6]
   10669                      .dwattr $C$DW$1029, DW_AT_accessibility(DW_ACCESS_public)
   10670              
   10671              $C$DW$1030      .dwtag  DW_TAG_member
   10672                      .dwattr $C$DW$1030, DW_AT_type(*$C$DW$T$165)
   10673                      .dwattr $C$DW$1030, DW_AT_name("ECAN0INTA")
   10674                      .dwattr $C$DW$1030, DW_AT_TI_symbol_name("_ECAN0INTA")
   10675                      .dwattr $C$DW$1030, DW_AT_data_member_location[DW_OP_plus_uconst 0xc8]
   10676                      .dwattr $C$DW$1030, DW_AT_accessibility(DW_ACCESS_public)
   10677              
   10678              $C$DW$1031      .dwtag  DW_TAG_member
   10679                      .dwattr $C$DW$1031, DW_AT_type(*$C$DW$T$165)
   10680                      .dwattr $C$DW$1031, DW_AT_name("ECAN1INTA")
   10681                      .dwattr $C$DW$1031, DW_AT_TI_symbol_name("_ECAN1INTA")
   10682                      .dwattr $C$DW$1031, DW_AT_data_member_location[DW_OP_plus_uconst 0xca]
   10683                      .dwattr $C$DW$1031, DW_AT_accessibility(DW_ACCESS_public)
   10684              
   10685              $C$DW$1032      .dwtag  DW_TAG_member
   10686                      .dwattr $C$DW$1032, DW_AT_type(*$C$DW$T$165)
   10687                      .dwattr $C$DW$1032, DW_AT_name("rsvd9_7")
   10688                      .dwattr $C$DW$1032, DW_AT_TI_symbol_name("_rsvd9_7")
   10689                      .dwattr $C$DW$1032, DW_AT_data_member_location[DW_OP_plus_uconst 0xcc]
   10690                      .dwattr $C$DW$1032, DW_AT_accessibility(DW_ACCESS_public)
   10691              
   10692              $C$DW$1033      .dwtag  DW_TAG_member
   10693                      .dwattr $C$DW$1033, DW_AT_type(*$C$DW$T$165)
   10694                      .dwattr $C$DW$1033, DW_AT_name("rsvd9_8")
   10695                      .dwattr $C$DW$1033, DW_AT_TI_symbol_name("_rsvd9_8")
   10696                      .dwattr $C$DW$1033, DW_AT_data_member_location[DW_OP_plus_uconst 0xce]
   10697                      .dwattr $C$DW$1033, DW_AT_accessibility(DW_ACCESS_public)
   10698              
   10699              $C$DW$1034      .dwtag  DW_TAG_member
   10700                      .dwattr $C$DW$1034, DW_AT_type(*$C$DW$T$165)
   10701                      .dwattr $C$DW$1034, DW_AT_name("rsvd10_1")
   10702                      .dwattr $C$DW$1034, DW_AT_TI_symbol_name("_rsvd10_1")
   10703                      .dwattr $C$DW$1034, DW_AT_data_member_location[DW_OP_plus_uconst 0xd0]
   10704                      .dwattr $C$DW$1034, DW_AT_accessibility(DW_ACCESS_public)
TMS320C2000 Assembler PC v16.9.6 Tue Mar 06 18:34:46 2018

Tools Copyright (c) 1996-2017 Texas Instruments Incorporated
C:\Users\Admin\AppData\Local\Temp\{ED9AE313-281A-4435-8F2A-5411619B06A2} PAGE  203

   10705              
   10706              $C$DW$1035      .dwtag  DW_TAG_member
   10707                      .dwattr $C$DW$1035, DW_AT_type(*$C$DW$T$165)
   10708                      .dwattr $C$DW$1035, DW_AT_name("rsvd10_2")
   10709                      .dwattr $C$DW$1035, DW_AT_TI_symbol_name("_rsvd10_2")
   10710                      .dwattr $C$DW$1035, DW_AT_data_member_location[DW_OP_plus_uconst 0xd2]
   10711                      .dwattr $C$DW$1035, DW_AT_accessibility(DW_ACCESS_public)
   10712              
   10713              $C$DW$1036      .dwtag  DW_TAG_member
   10714                      .dwattr $C$DW$1036, DW_AT_type(*$C$DW$T$165)
   10715                      .dwattr $C$DW$1036, DW_AT_name("ADCINT3")
   10716                      .dwattr $C$DW$1036, DW_AT_TI_symbol_name("_ADCINT3")
   10717                      .dwattr $C$DW$1036, DW_AT_data_member_location[DW_OP_plus_uconst 0xd4]
   10718                      .dwattr $C$DW$1036, DW_AT_accessibility(DW_ACCESS_public)
   10719              
   10720              $C$DW$1037      .dwtag  DW_TAG_member
   10721                      .dwattr $C$DW$1037, DW_AT_type(*$C$DW$T$165)
   10722                      .dwattr $C$DW$1037, DW_AT_name("ADCINT4")
   10723                      .dwattr $C$DW$1037, DW_AT_TI_symbol_name("_ADCINT4")
   10724                      .dwattr $C$DW$1037, DW_AT_data_member_location[DW_OP_plus_uconst 0xd6]
   10725                      .dwattr $C$DW$1037, DW_AT_accessibility(DW_ACCESS_public)
   10726              
   10727              $C$DW$1038      .dwtag  DW_TAG_member
   10728                      .dwattr $C$DW$1038, DW_AT_type(*$C$DW$T$165)
   10729                      .dwattr $C$DW$1038, DW_AT_name("ADCINT5")
   10730                      .dwattr $C$DW$1038, DW_AT_TI_symbol_name("_ADCINT5")
   10731                      .dwattr $C$DW$1038, DW_AT_data_member_location[DW_OP_plus_uconst 0xd8]
   10732                      .dwattr $C$DW$1038, DW_AT_accessibility(DW_ACCESS_public)
   10733              
   10734              $C$DW$1039      .dwtag  DW_TAG_member
   10735                      .dwattr $C$DW$1039, DW_AT_type(*$C$DW$T$165)
   10736                      .dwattr $C$DW$1039, DW_AT_name("ADCINT6")
   10737                      .dwattr $C$DW$1039, DW_AT_TI_symbol_name("_ADCINT6")
   10738                      .dwattr $C$DW$1039, DW_AT_data_member_location[DW_OP_plus_uconst 0xda]
   10739                      .dwattr $C$DW$1039, DW_AT_accessibility(DW_ACCESS_public)
   10740              
   10741              $C$DW$1040      .dwtag  DW_TAG_member
   10742                      .dwattr $C$DW$1040, DW_AT_type(*$C$DW$T$165)
   10743                      .dwattr $C$DW$1040, DW_AT_name("ADCINT7")
   10744                      .dwattr $C$DW$1040, DW_AT_TI_symbol_name("_ADCINT7")
   10745                      .dwattr $C$DW$1040, DW_AT_data_member_location[DW_OP_plus_uconst 0xdc]
   10746                      .dwattr $C$DW$1040, DW_AT_accessibility(DW_ACCESS_public)
   10747              
   10748              $C$DW$1041      .dwtag  DW_TAG_member
   10749                      .dwattr $C$DW$1041, DW_AT_type(*$C$DW$T$165)
   10750                      .dwattr $C$DW$1041, DW_AT_name("ADCINT8")
   10751                      .dwattr $C$DW$1041, DW_AT_TI_symbol_name("_ADCINT8")
   10752                      .dwattr $C$DW$1041, DW_AT_data_member_location[DW_OP_plus_uconst 0xde]
   10753                      .dwattr $C$DW$1041, DW_AT_accessibility(DW_ACCESS_public)
   10754              
   10755              $C$DW$1042      .dwtag  DW_TAG_member
   10756                      .dwattr $C$DW$1042, DW_AT_type(*$C$DW$T$165)
   10757                      .dwattr $C$DW$1042, DW_AT_name("CLA1_INT1")
   10758                      .dwattr $C$DW$1042, DW_AT_TI_symbol_name("_CLA1_INT1")
   10759                      .dwattr $C$DW$1042, DW_AT_data_member_location[DW_OP_plus_uconst 0xe0]
TMS320C2000 Assembler PC v16.9.6 Tue Mar 06 18:34:46 2018

Tools Copyright (c) 1996-2017 Texas Instruments Incorporated
C:\Users\Admin\AppData\Local\Temp\{ED9AE313-281A-4435-8F2A-5411619B06A2} PAGE  204

   10760                      .dwattr $C$DW$1042, DW_AT_accessibility(DW_ACCESS_public)
   10761              
   10762              $C$DW$1043      .dwtag  DW_TAG_member
   10763                      .dwattr $C$DW$1043, DW_AT_type(*$C$DW$T$165)
   10764                      .dwattr $C$DW$1043, DW_AT_name("CLA1_INT2")
   10765                      .dwattr $C$DW$1043, DW_AT_TI_symbol_name("_CLA1_INT2")
   10766                      .dwattr $C$DW$1043, DW_AT_data_member_location[DW_OP_plus_uconst 0xe2]
   10767                      .dwattr $C$DW$1043, DW_AT_accessibility(DW_ACCESS_public)
   10768              
   10769              $C$DW$1044      .dwtag  DW_TAG_member
   10770                      .dwattr $C$DW$1044, DW_AT_type(*$C$DW$T$165)
   10771                      .dwattr $C$DW$1044, DW_AT_name("CLA1_INT3")
   10772                      .dwattr $C$DW$1044, DW_AT_TI_symbol_name("_CLA1_INT3")
   10773                      .dwattr $C$DW$1044, DW_AT_data_member_location[DW_OP_plus_uconst 0xe4]
   10774                      .dwattr $C$DW$1044, DW_AT_accessibility(DW_ACCESS_public)
   10775              
   10776              $C$DW$1045      .dwtag  DW_TAG_member
   10777                      .dwattr $C$DW$1045, DW_AT_type(*$C$DW$T$165)
   10778                      .dwattr $C$DW$1045, DW_AT_name("CLA1_INT4")
   10779                      .dwattr $C$DW$1045, DW_AT_TI_symbol_name("_CLA1_INT4")
   10780                      .dwattr $C$DW$1045, DW_AT_data_member_location[DW_OP_plus_uconst 0xe6]
   10781                      .dwattr $C$DW$1045, DW_AT_accessibility(DW_ACCESS_public)
   10782              
   10783              $C$DW$1046      .dwtag  DW_TAG_member
   10784                      .dwattr $C$DW$1046, DW_AT_type(*$C$DW$T$165)
   10785                      .dwattr $C$DW$1046, DW_AT_name("CLA1_INT5")
   10786                      .dwattr $C$DW$1046, DW_AT_TI_symbol_name("_CLA1_INT5")
   10787                      .dwattr $C$DW$1046, DW_AT_data_member_location[DW_OP_plus_uconst 0xe8]
   10788                      .dwattr $C$DW$1046, DW_AT_accessibility(DW_ACCESS_public)
   10789              
   10790              $C$DW$1047      .dwtag  DW_TAG_member
   10791                      .dwattr $C$DW$1047, DW_AT_type(*$C$DW$T$165)
   10792                      .dwattr $C$DW$1047, DW_AT_name("CLA1_INT6")
   10793                      .dwattr $C$DW$1047, DW_AT_TI_symbol_name("_CLA1_INT6")
   10794                      .dwattr $C$DW$1047, DW_AT_data_member_location[DW_OP_plus_uconst 0xea]
   10795                      .dwattr $C$DW$1047, DW_AT_accessibility(DW_ACCESS_public)
   10796              
   10797              $C$DW$1048      .dwtag  DW_TAG_member
   10798                      .dwattr $C$DW$1048, DW_AT_type(*$C$DW$T$165)
   10799                      .dwattr $C$DW$1048, DW_AT_name("CLA1_INT7")
   10800                      .dwattr $C$DW$1048, DW_AT_TI_symbol_name("_CLA1_INT7")
   10801                      .dwattr $C$DW$1048, DW_AT_data_member_location[DW_OP_plus_uconst 0xec]
   10802                      .dwattr $C$DW$1048, DW_AT_accessibility(DW_ACCESS_public)
   10803              
   10804              $C$DW$1049      .dwtag  DW_TAG_member
   10805                      .dwattr $C$DW$1049, DW_AT_type(*$C$DW$T$165)
   10806                      .dwattr $C$DW$1049, DW_AT_name("CLA1_INT8")
   10807                      .dwattr $C$DW$1049, DW_AT_TI_symbol_name("_CLA1_INT8")
   10808                      .dwattr $C$DW$1049, DW_AT_data_member_location[DW_OP_plus_uconst 0xee]
   10809                      .dwattr $C$DW$1049, DW_AT_accessibility(DW_ACCESS_public)
   10810              
   10811              $C$DW$1050      .dwtag  DW_TAG_member
   10812                      .dwattr $C$DW$1050, DW_AT_type(*$C$DW$T$165)
   10813                      .dwattr $C$DW$1050, DW_AT_name("XINT3")
   10814                      .dwattr $C$DW$1050, DW_AT_TI_symbol_name("_XINT3")
TMS320C2000 Assembler PC v16.9.6 Tue Mar 06 18:34:46 2018

Tools Copyright (c) 1996-2017 Texas Instruments Incorporated
C:\Users\Admin\AppData\Local\Temp\{ED9AE313-281A-4435-8F2A-5411619B06A2} PAGE  205

   10815                      .dwattr $C$DW$1050, DW_AT_data_member_location[DW_OP_plus_uconst 0xf0]
   10816                      .dwattr $C$DW$1050, DW_AT_accessibility(DW_ACCESS_public)
   10817              
   10818              $C$DW$1051      .dwtag  DW_TAG_member
   10819                      .dwattr $C$DW$1051, DW_AT_type(*$C$DW$T$165)
   10820                      .dwattr $C$DW$1051, DW_AT_name("rsvd12_2")
   10821                      .dwattr $C$DW$1051, DW_AT_TI_symbol_name("_rsvd12_2")
   10822                      .dwattr $C$DW$1051, DW_AT_data_member_location[DW_OP_plus_uconst 0xf2]
   10823                      .dwattr $C$DW$1051, DW_AT_accessibility(DW_ACCESS_public)
   10824              
   10825              $C$DW$1052      .dwtag  DW_TAG_member
   10826                      .dwattr $C$DW$1052, DW_AT_type(*$C$DW$T$165)
   10827                      .dwattr $C$DW$1052, DW_AT_name("rsvd12_3")
   10828                      .dwattr $C$DW$1052, DW_AT_TI_symbol_name("_rsvd12_3")
   10829                      .dwattr $C$DW$1052, DW_AT_data_member_location[DW_OP_plus_uconst 0xf4]
   10830                      .dwattr $C$DW$1052, DW_AT_accessibility(DW_ACCESS_public)
   10831              
   10832              $C$DW$1053      .dwtag  DW_TAG_member
   10833                      .dwattr $C$DW$1053, DW_AT_type(*$C$DW$T$165)
   10834                      .dwattr $C$DW$1053, DW_AT_name("rsvd12_4")
   10835                      .dwattr $C$DW$1053, DW_AT_TI_symbol_name("_rsvd12_4")
   10836                      .dwattr $C$DW$1053, DW_AT_data_member_location[DW_OP_plus_uconst 0xf6]
   10837                      .dwattr $C$DW$1053, DW_AT_accessibility(DW_ACCESS_public)
   10838              
   10839              $C$DW$1054      .dwtag  DW_TAG_member
   10840                      .dwattr $C$DW$1054, DW_AT_type(*$C$DW$T$165)
   10841                      .dwattr $C$DW$1054, DW_AT_name("rsvd12_5")
   10842                      .dwattr $C$DW$1054, DW_AT_TI_symbol_name("_rsvd12_5")
   10843                      .dwattr $C$DW$1054, DW_AT_data_member_location[DW_OP_plus_uconst 0xf8]
   10844                      .dwattr $C$DW$1054, DW_AT_accessibility(DW_ACCESS_public)
   10845              
   10846              $C$DW$1055      .dwtag  DW_TAG_member
   10847                      .dwattr $C$DW$1055, DW_AT_type(*$C$DW$T$165)
   10848                      .dwattr $C$DW$1055, DW_AT_name("rsvd12_6")
   10849                      .dwattr $C$DW$1055, DW_AT_TI_symbol_name("_rsvd12_6")
   10850                      .dwattr $C$DW$1055, DW_AT_data_member_location[DW_OP_plus_uconst 0xfa]
   10851                      .dwattr $C$DW$1055, DW_AT_accessibility(DW_ACCESS_public)
   10852              
   10853              $C$DW$1056      .dwtag  DW_TAG_member
   10854                      .dwattr $C$DW$1056, DW_AT_type(*$C$DW$T$165)
   10855                      .dwattr $C$DW$1056, DW_AT_name("LVF")
   10856                      .dwattr $C$DW$1056, DW_AT_TI_symbol_name("_LVF")
   10857                      .dwattr $C$DW$1056, DW_AT_data_member_location[DW_OP_plus_uconst 0xfc]
   10858                      .dwattr $C$DW$1056, DW_AT_accessibility(DW_ACCESS_public)
   10859              
   10860              $C$DW$1057      .dwtag  DW_TAG_member
   10861                      .dwattr $C$DW$1057, DW_AT_type(*$C$DW$T$165)
   10862                      .dwattr $C$DW$1057, DW_AT_name("LUF")
   10863                      .dwattr $C$DW$1057, DW_AT_TI_symbol_name("_LUF")
   10864                      .dwattr $C$DW$1057, DW_AT_data_member_location[DW_OP_plus_uconst 0xfe]
   10865                      .dwattr $C$DW$1057, DW_AT_accessibility(DW_ACCESS_public)
   10866              
   10867                      .dwendtag $C$DW$T$166
   10868              
   10869              
TMS320C2000 Assembler PC v16.9.6 Tue Mar 06 18:34:46 2018

Tools Copyright (c) 1996-2017 Texas Instruments Incorporated
C:\Users\Admin\AppData\Local\Temp\{ED9AE313-281A-4435-8F2A-5411619B06A2} PAGE  206

   10870              $C$DW$T$167     .dwtag  DW_TAG_structure_type
   10871                      .dwattr $C$DW$T$167, DW_AT_name("PLLCR_BITS")
   10872                      .dwattr $C$DW$T$167, DW_AT_byte_size(0x01)
   10873              $C$DW$1058      .dwtag  DW_TAG_member
   10874                      .dwattr $C$DW$1058, DW_AT_type(*$C$DW$T$19)
   10875                      .dwattr $C$DW$1058, DW_AT_name("DIV")
   10876                      .dwattr $C$DW$1058, DW_AT_TI_symbol_name("_DIV")
   10877                      .dwattr $C$DW$1058, DW_AT_bit_offset(0x0c)
   10878                      .dwattr $C$DW$1058, DW_AT_bit_size(0x04)
   10879                      .dwattr $C$DW$1058, DW_AT_data_member_location[DW_OP_plus_uconst 0x0]
   10880                      .dwattr $C$DW$1058, DW_AT_accessibility(DW_ACCESS_public)
   10881              
   10882              $C$DW$1059      .dwtag  DW_TAG_member
   10883                      .dwattr $C$DW$1059, DW_AT_type(*$C$DW$T$19)
   10884                      .dwattr $C$DW$1059, DW_AT_name("rsvd1")
   10885                      .dwattr $C$DW$1059, DW_AT_TI_symbol_name("_rsvd1")
   10886                      .dwattr $C$DW$1059, DW_AT_bit_offset(0x00)
   10887                      .dwattr $C$DW$1059, DW_AT_bit_size(0x0c)
   10888                      .dwattr $C$DW$1059, DW_AT_data_member_location[DW_OP_plus_uconst 0x0]
   10889                      .dwattr $C$DW$1059, DW_AT_accessibility(DW_ACCESS_public)
   10890              
   10891                      .dwendtag $C$DW$T$167
   10892              
   10893              
   10894              $C$DW$T$168     .dwtag  DW_TAG_union_type
   10895                      .dwattr $C$DW$T$168, DW_AT_name("PLLCR_REG")
   10896                      .dwattr $C$DW$T$168, DW_AT_byte_size(0x01)
   10897              $C$DW$1060      .dwtag  DW_TAG_member
   10898                      .dwattr $C$DW$1060, DW_AT_type(*$C$DW$T$19)
   10899                      .dwattr $C$DW$1060, DW_AT_name("all")
   10900                      .dwattr $C$DW$1060, DW_AT_TI_symbol_name("_all")
   10901                      .dwattr $C$DW$1060, DW_AT_data_member_location[DW_OP_plus_uconst 0x0]
   10902                      .dwattr $C$DW$1060, DW_AT_accessibility(DW_ACCESS_public)
   10903              
   10904              $C$DW$1061      .dwtag  DW_TAG_member
   10905                      .dwattr $C$DW$1061, DW_AT_type(*$C$DW$T$167)
   10906                      .dwattr $C$DW$1061, DW_AT_name("bit")
   10907                      .dwattr $C$DW$1061, DW_AT_TI_symbol_name("_bit")
   10908                      .dwattr $C$DW$1061, DW_AT_data_member_location[DW_OP_plus_uconst 0x0]
   10909                      .dwattr $C$DW$1061, DW_AT_accessibility(DW_ACCESS_public)
   10910              
   10911                      .dwendtag $C$DW$T$168
   10912              
   10913              
   10914              $C$DW$T$169     .dwtag  DW_TAG_structure_type
   10915                      .dwattr $C$DW$T$169, DW_AT_name("PLLSTS_BITS")
   10916                      .dwattr $C$DW$T$169, DW_AT_byte_size(0x01)
   10917              $C$DW$1062      .dwtag  DW_TAG_member
   10918                      .dwattr $C$DW$1062, DW_AT_type(*$C$DW$T$19)
   10919                      .dwattr $C$DW$1062, DW_AT_name("PLLLOCKS")
   10920                      .dwattr $C$DW$1062, DW_AT_TI_symbol_name("_PLLLOCKS")
   10921                      .dwattr $C$DW$1062, DW_AT_bit_offset(0x0f)
   10922                      .dwattr $C$DW$1062, DW_AT_bit_size(0x01)
   10923                      .dwattr $C$DW$1062, DW_AT_data_member_location[DW_OP_plus_uconst 0x0]
   10924                      .dwattr $C$DW$1062, DW_AT_accessibility(DW_ACCESS_public)
TMS320C2000 Assembler PC v16.9.6 Tue Mar 06 18:34:46 2018

Tools Copyright (c) 1996-2017 Texas Instruments Incorporated
C:\Users\Admin\AppData\Local\Temp\{ED9AE313-281A-4435-8F2A-5411619B06A2} PAGE  207

   10925              
   10926              $C$DW$1063      .dwtag  DW_TAG_member
   10927                      .dwattr $C$DW$1063, DW_AT_type(*$C$DW$T$19)
   10928                      .dwattr $C$DW$1063, DW_AT_name("rsvd1")
   10929                      .dwattr $C$DW$1063, DW_AT_TI_symbol_name("_rsvd1")
   10930                      .dwattr $C$DW$1063, DW_AT_bit_offset(0x0e)
   10931                      .dwattr $C$DW$1063, DW_AT_bit_size(0x01)
   10932                      .dwattr $C$DW$1063, DW_AT_data_member_location[DW_OP_plus_uconst 0x0]
   10933                      .dwattr $C$DW$1063, DW_AT_accessibility(DW_ACCESS_public)
   10934              
   10935              $C$DW$1064      .dwtag  DW_TAG_member
   10936                      .dwattr $C$DW$1064, DW_AT_type(*$C$DW$T$19)
   10937                      .dwattr $C$DW$1064, DW_AT_name("PLLOFF")
   10938                      .dwattr $C$DW$1064, DW_AT_TI_symbol_name("_PLLOFF")
   10939                      .dwattr $C$DW$1064, DW_AT_bit_offset(0x0d)
   10940                      .dwattr $C$DW$1064, DW_AT_bit_size(0x01)
   10941                      .dwattr $C$DW$1064, DW_AT_data_member_location[DW_OP_plus_uconst 0x0]
   10942                      .dwattr $C$DW$1064, DW_AT_accessibility(DW_ACCESS_public)
   10943              
   10944              $C$DW$1065      .dwtag  DW_TAG_member
   10945                      .dwattr $C$DW$1065, DW_AT_type(*$C$DW$T$19)
   10946                      .dwattr $C$DW$1065, DW_AT_name("MCLKSTS")
   10947                      .dwattr $C$DW$1065, DW_AT_TI_symbol_name("_MCLKSTS")
   10948                      .dwattr $C$DW$1065, DW_AT_bit_offset(0x0c)
   10949                      .dwattr $C$DW$1065, DW_AT_bit_size(0x01)
   10950                      .dwattr $C$DW$1065, DW_AT_data_member_location[DW_OP_plus_uconst 0x0]
   10951                      .dwattr $C$DW$1065, DW_AT_accessibility(DW_ACCESS_public)
   10952              
   10953              $C$DW$1066      .dwtag  DW_TAG_member
   10954                      .dwattr $C$DW$1066, DW_AT_type(*$C$DW$T$19)
   10955                      .dwattr $C$DW$1066, DW_AT_name("MCLKCLR")
   10956                      .dwattr $C$DW$1066, DW_AT_TI_symbol_name("_MCLKCLR")
   10957                      .dwattr $C$DW$1066, DW_AT_bit_offset(0x0b)
   10958                      .dwattr $C$DW$1066, DW_AT_bit_size(0x01)
   10959                      .dwattr $C$DW$1066, DW_AT_data_member_location[DW_OP_plus_uconst 0x0]
   10960                      .dwattr $C$DW$1066, DW_AT_accessibility(DW_ACCESS_public)
   10961              
   10962              $C$DW$1067      .dwtag  DW_TAG_member
   10963                      .dwattr $C$DW$1067, DW_AT_type(*$C$DW$T$19)
   10964                      .dwattr $C$DW$1067, DW_AT_name("OSCOFF")
   10965                      .dwattr $C$DW$1067, DW_AT_TI_symbol_name("_OSCOFF")
   10966                      .dwattr $C$DW$1067, DW_AT_bit_offset(0x0a)
   10967                      .dwattr $C$DW$1067, DW_AT_bit_size(0x01)
   10968                      .dwattr $C$DW$1067, DW_AT_data_member_location[DW_OP_plus_uconst 0x0]
   10969                      .dwattr $C$DW$1067, DW_AT_accessibility(DW_ACCESS_public)
   10970              
   10971              $C$DW$1068      .dwtag  DW_TAG_member
   10972                      .dwattr $C$DW$1068, DW_AT_type(*$C$DW$T$19)
   10973                      .dwattr $C$DW$1068, DW_AT_name("MCLKOFF")
   10974                      .dwattr $C$DW$1068, DW_AT_TI_symbol_name("_MCLKOFF")
   10975                      .dwattr $C$DW$1068, DW_AT_bit_offset(0x09)
   10976                      .dwattr $C$DW$1068, DW_AT_bit_size(0x01)
   10977                      .dwattr $C$DW$1068, DW_AT_data_member_location[DW_OP_plus_uconst 0x0]
   10978                      .dwattr $C$DW$1068, DW_AT_accessibility(DW_ACCESS_public)
   10979              
TMS320C2000 Assembler PC v16.9.6 Tue Mar 06 18:34:46 2018

Tools Copyright (c) 1996-2017 Texas Instruments Incorporated
C:\Users\Admin\AppData\Local\Temp\{ED9AE313-281A-4435-8F2A-5411619B06A2} PAGE  208

   10980              $C$DW$1069      .dwtag  DW_TAG_member
   10981                      .dwattr $C$DW$1069, DW_AT_type(*$C$DW$T$19)
   10982                      .dwattr $C$DW$1069, DW_AT_name("DIVSEL")
   10983                      .dwattr $C$DW$1069, DW_AT_TI_symbol_name("_DIVSEL")
   10984                      .dwattr $C$DW$1069, DW_AT_bit_offset(0x07)
   10985                      .dwattr $C$DW$1069, DW_AT_bit_size(0x02)
   10986                      .dwattr $C$DW$1069, DW_AT_data_member_location[DW_OP_plus_uconst 0x0]
   10987                      .dwattr $C$DW$1069, DW_AT_accessibility(DW_ACCESS_public)
   10988              
   10989              $C$DW$1070      .dwtag  DW_TAG_member
   10990                      .dwattr $C$DW$1070, DW_AT_type(*$C$DW$T$19)
   10991                      .dwattr $C$DW$1070, DW_AT_name("rsvd2")
   10992                      .dwattr $C$DW$1070, DW_AT_TI_symbol_name("_rsvd2")
   10993                      .dwattr $C$DW$1070, DW_AT_bit_offset(0x01)
   10994                      .dwattr $C$DW$1070, DW_AT_bit_size(0x06)
   10995                      .dwattr $C$DW$1070, DW_AT_data_member_location[DW_OP_plus_uconst 0x0]
   10996                      .dwattr $C$DW$1070, DW_AT_accessibility(DW_ACCESS_public)
   10997              
   10998              $C$DW$1071      .dwtag  DW_TAG_member
   10999                      .dwattr $C$DW$1071, DW_AT_type(*$C$DW$T$19)
   11000                      .dwattr $C$DW$1071, DW_AT_name("NORMRDYE")
   11001                      .dwattr $C$DW$1071, DW_AT_TI_symbol_name("_NORMRDYE")
   11002                      .dwattr $C$DW$1071, DW_AT_bit_offset(0x00)
   11003                      .dwattr $C$DW$1071, DW_AT_bit_size(0x01)
   11004                      .dwattr $C$DW$1071, DW_AT_data_member_location[DW_OP_plus_uconst 0x0]
   11005                      .dwattr $C$DW$1071, DW_AT_accessibility(DW_ACCESS_public)
   11006              
   11007                      .dwendtag $C$DW$T$169
   11008              
   11009              
   11010              $C$DW$T$170     .dwtag  DW_TAG_union_type
   11011                      .dwattr $C$DW$T$170, DW_AT_name("PLLSTS_REG")
   11012                      .dwattr $C$DW$T$170, DW_AT_byte_size(0x01)
   11013              $C$DW$1072      .dwtag  DW_TAG_member
   11014                      .dwattr $C$DW$1072, DW_AT_type(*$C$DW$T$19)
   11015                      .dwattr $C$DW$1072, DW_AT_name("all")
   11016                      .dwattr $C$DW$1072, DW_AT_TI_symbol_name("_all")
   11017                      .dwattr $C$DW$1072, DW_AT_data_member_location[DW_OP_plus_uconst 0x0]
   11018                      .dwattr $C$DW$1072, DW_AT_accessibility(DW_ACCESS_public)
   11019              
   11020              $C$DW$1073      .dwtag  DW_TAG_member
   11021                      .dwattr $C$DW$1073, DW_AT_type(*$C$DW$T$169)
   11022                      .dwattr $C$DW$1073, DW_AT_name("bit")
   11023                      .dwattr $C$DW$1073, DW_AT_TI_symbol_name("_bit")
   11024                      .dwattr $C$DW$1073, DW_AT_data_member_location[DW_OP_plus_uconst 0x0]
   11025                      .dwattr $C$DW$1073, DW_AT_accessibility(DW_ACCESS_public)
   11026              
   11027                      .dwendtag $C$DW$T$170
   11028              
   11029              
   11030              $C$DW$T$171     .dwtag  DW_TAG_structure_type
   11031                      .dwattr $C$DW$T$171, DW_AT_name("SOCPRICTL_BITS")
   11032                      .dwattr $C$DW$T$171, DW_AT_byte_size(0x01)
   11033              $C$DW$1074      .dwtag  DW_TAG_member
   11034                      .dwattr $C$DW$1074, DW_AT_type(*$C$DW$T$19)
TMS320C2000 Assembler PC v16.9.6 Tue Mar 06 18:34:46 2018

Tools Copyright (c) 1996-2017 Texas Instruments Incorporated
C:\Users\Admin\AppData\Local\Temp\{ED9AE313-281A-4435-8F2A-5411619B06A2} PAGE  209

   11035                      .dwattr $C$DW$1074, DW_AT_name("SOCPRIORITY")
   11036                      .dwattr $C$DW$1074, DW_AT_TI_symbol_name("_SOCPRIORITY")
   11037                      .dwattr $C$DW$1074, DW_AT_bit_offset(0x0b)
   11038                      .dwattr $C$DW$1074, DW_AT_bit_size(0x05)
   11039                      .dwattr $C$DW$1074, DW_AT_data_member_location[DW_OP_plus_uconst 0x0]
   11040                      .dwattr $C$DW$1074, DW_AT_accessibility(DW_ACCESS_public)
   11041              
   11042              $C$DW$1075      .dwtag  DW_TAG_member
   11043                      .dwattr $C$DW$1075, DW_AT_type(*$C$DW$T$19)
   11044                      .dwattr $C$DW$1075, DW_AT_name("RRPOINTER")
   11045                      .dwattr $C$DW$1075, DW_AT_TI_symbol_name("_RRPOINTER")
   11046                      .dwattr $C$DW$1075, DW_AT_bit_offset(0x05)
   11047                      .dwattr $C$DW$1075, DW_AT_bit_size(0x06)
   11048                      .dwattr $C$DW$1075, DW_AT_data_member_location[DW_OP_plus_uconst 0x0]
   11049                      .dwattr $C$DW$1075, DW_AT_accessibility(DW_ACCESS_public)
   11050              
   11051              $C$DW$1076      .dwtag  DW_TAG_member
   11052                      .dwattr $C$DW$1076, DW_AT_type(*$C$DW$T$19)
   11053                      .dwattr $C$DW$1076, DW_AT_name("rsvd1")
   11054                      .dwattr $C$DW$1076, DW_AT_TI_symbol_name("_rsvd1")
   11055                      .dwattr $C$DW$1076, DW_AT_bit_offset(0x01)
   11056                      .dwattr $C$DW$1076, DW_AT_bit_size(0x04)
   11057                      .dwattr $C$DW$1076, DW_AT_data_member_location[DW_OP_plus_uconst 0x0]
   11058                      .dwattr $C$DW$1076, DW_AT_accessibility(DW_ACCESS_public)
   11059              
   11060              $C$DW$1077      .dwtag  DW_TAG_member
   11061                      .dwattr $C$DW$1077, DW_AT_type(*$C$DW$T$19)
   11062                      .dwattr $C$DW$1077, DW_AT_name("ONESHOT")
   11063                      .dwattr $C$DW$1077, DW_AT_TI_symbol_name("_ONESHOT")
   11064                      .dwattr $C$DW$1077, DW_AT_bit_offset(0x00)
   11065                      .dwattr $C$DW$1077, DW_AT_bit_size(0x01)
   11066                      .dwattr $C$DW$1077, DW_AT_data_member_location[DW_OP_plus_uconst 0x0]
   11067                      .dwattr $C$DW$1077, DW_AT_accessibility(DW_ACCESS_public)
   11068              
   11069                      .dwendtag $C$DW$T$171
   11070              
   11071              
   11072              $C$DW$T$172     .dwtag  DW_TAG_union_type
   11073                      .dwattr $C$DW$T$172, DW_AT_name("SOCPRICTL_REG")
   11074                      .dwattr $C$DW$T$172, DW_AT_byte_size(0x01)
   11075              $C$DW$1078      .dwtag  DW_TAG_member
   11076                      .dwattr $C$DW$1078, DW_AT_type(*$C$DW$T$19)
   11077                      .dwattr $C$DW$1078, DW_AT_name("all")
   11078                      .dwattr $C$DW$1078, DW_AT_TI_symbol_name("_all")
   11079                      .dwattr $C$DW$1078, DW_AT_data_member_location[DW_OP_plus_uconst 0x0]
   11080                      .dwattr $C$DW$1078, DW_AT_accessibility(DW_ACCESS_public)
   11081              
   11082              $C$DW$1079      .dwtag  DW_TAG_member
   11083                      .dwattr $C$DW$1079, DW_AT_type(*$C$DW$T$171)
   11084                      .dwattr $C$DW$1079, DW_AT_name("bit")
   11085                      .dwattr $C$DW$1079, DW_AT_TI_symbol_name("_bit")
   11086                      .dwattr $C$DW$1079, DW_AT_data_member_location[DW_OP_plus_uconst 0x0]
   11087                      .dwattr $C$DW$1079, DW_AT_accessibility(DW_ACCESS_public)
   11088              
   11089                      .dwendtag $C$DW$T$172
TMS320C2000 Assembler PC v16.9.6 Tue Mar 06 18:34:46 2018

Tools Copyright (c) 1996-2017 Texas Instruments Incorporated
C:\Users\Admin\AppData\Local\Temp\{ED9AE313-281A-4435-8F2A-5411619B06A2} PAGE  210

   11090              
   11091              
   11092              $C$DW$T$173     .dwtag  DW_TAG_structure_type
   11093                      .dwattr $C$DW$T$173, DW_AT_name("SYS_CTRL_REGS")
   11094                      .dwattr $C$DW$T$173, DW_AT_byte_size(0x20)
   11095              $C$DW$1080      .dwtag  DW_TAG_member
   11096                      .dwattr $C$DW$1080, DW_AT_type(*$C$DW$T$197)
   11097                      .dwattr $C$DW$1080, DW_AT_name("XCLK")
   11098                      .dwattr $C$DW$1080, DW_AT_TI_symbol_name("_XCLK")
   11099                      .dwattr $C$DW$1080, DW_AT_data_member_location[DW_OP_plus_uconst 0x0]
   11100                      .dwattr $C$DW$1080, DW_AT_accessibility(DW_ACCESS_public)
   11101              
   11102              $C$DW$1081      .dwtag  DW_TAG_member
   11103                      .dwattr $C$DW$1081, DW_AT_type(*$C$DW$T$170)
   11104                      .dwattr $C$DW$1081, DW_AT_name("PLLSTS")
   11105                      .dwattr $C$DW$1081, DW_AT_TI_symbol_name("_PLLSTS")
   11106                      .dwattr $C$DW$1081, DW_AT_data_member_location[DW_OP_plus_uconst 0x1]
   11107                      .dwattr $C$DW$1081, DW_AT_accessibility(DW_ACCESS_public)
   11108              
   11109              $C$DW$1082      .dwtag  DW_TAG_member
   11110                      .dwattr $C$DW$1082, DW_AT_type(*$C$DW$T$58)
   11111                      .dwattr $C$DW$1082, DW_AT_name("CLKCTL")
   11112                      .dwattr $C$DW$1082, DW_AT_TI_symbol_name("_CLKCTL")
   11113                      .dwattr $C$DW$1082, DW_AT_data_member_location[DW_OP_plus_uconst 0x2]
   11114                      .dwattr $C$DW$1082, DW_AT_accessibility(DW_ACCESS_public)
   11115              
   11116              $C$DW$1083      .dwtag  DW_TAG_member
   11117                      .dwattr $C$DW$1083, DW_AT_type(*$C$DW$T$19)
   11118                      .dwattr $C$DW$1083, DW_AT_name("PLLLOCKPRD")
   11119                      .dwattr $C$DW$1083, DW_AT_TI_symbol_name("_PLLLOCKPRD")
   11120                      .dwattr $C$DW$1083, DW_AT_data_member_location[DW_OP_plus_uconst 0x3]
   11121                      .dwattr $C$DW$1083, DW_AT_accessibility(DW_ACCESS_public)
   11122              
   11123              $C$DW$1084      .dwtag  DW_TAG_member
   11124                      .dwattr $C$DW$1084, DW_AT_type(*$C$DW$T$129)
   11125                      .dwattr $C$DW$1084, DW_AT_name("INTOSC1TRIM")
   11126                      .dwattr $C$DW$1084, DW_AT_TI_symbol_name("_INTOSC1TRIM")
   11127                      .dwattr $C$DW$1084, DW_AT_data_member_location[DW_OP_plus_uconst 0x4]
   11128                      .dwattr $C$DW$1084, DW_AT_accessibility(DW_ACCESS_public)
   11129              
   11130              $C$DW$1085      .dwtag  DW_TAG_member
   11131                      .dwattr $C$DW$1085, DW_AT_type(*$C$DW$T$19)
   11132                      .dwattr $C$DW$1085, DW_AT_name("rsvd1")
   11133                      .dwattr $C$DW$1085, DW_AT_TI_symbol_name("_rsvd1")
   11134                      .dwattr $C$DW$1085, DW_AT_data_member_location[DW_OP_plus_uconst 0x5]
   11135                      .dwattr $C$DW$1085, DW_AT_accessibility(DW_ACCESS_public)
   11136              
   11137              $C$DW$1086      .dwtag  DW_TAG_member
   11138                      .dwattr $C$DW$1086, DW_AT_type(*$C$DW$T$131)
   11139                      .dwattr $C$DW$1086, DW_AT_name("INTOSC2TRIM")
   11140                      .dwattr $C$DW$1086, DW_AT_TI_symbol_name("_INTOSC2TRIM")
   11141                      .dwattr $C$DW$1086, DW_AT_data_member_location[DW_OP_plus_uconst 0x6]
   11142                      .dwattr $C$DW$1086, DW_AT_accessibility(DW_ACCESS_public)
   11143              
   11144              $C$DW$1087      .dwtag  DW_TAG_member
TMS320C2000 Assembler PC v16.9.6 Tue Mar 06 18:34:46 2018

Tools Copyright (c) 1996-2017 Texas Instruments Incorporated
C:\Users\Admin\AppData\Local\Temp\{ED9AE313-281A-4435-8F2A-5411619B06A2} PAGE  211

   11145                      .dwattr $C$DW$1087, DW_AT_type(*$C$DW$T$92)
   11146                      .dwattr $C$DW$1087, DW_AT_name("rsvd2")
   11147                      .dwattr $C$DW$1087, DW_AT_TI_symbol_name("_rsvd2")
   11148                      .dwattr $C$DW$1087, DW_AT_data_member_location[DW_OP_plus_uconst 0x7]
   11149                      .dwattr $C$DW$1087, DW_AT_accessibility(DW_ACCESS_public)
   11150              
   11151              $C$DW$1088      .dwtag  DW_TAG_member
   11152                      .dwattr $C$DW$1088, DW_AT_type(*$C$DW$T$143)
   11153                      .dwattr $C$DW$1088, DW_AT_name("LOSPCP")
   11154                      .dwattr $C$DW$1088, DW_AT_TI_symbol_name("_LOSPCP")
   11155                      .dwattr $C$DW$1088, DW_AT_data_member_location[DW_OP_plus_uconst 0xb]
   11156                      .dwattr $C$DW$1088, DW_AT_accessibility(DW_ACCESS_public)
   11157              
   11158              $C$DW$1089      .dwtag  DW_TAG_member
   11159                      .dwattr $C$DW$1089, DW_AT_type(*$C$DW$T$149)
   11160                      .dwattr $C$DW$1089, DW_AT_name("PCLKCR0")
   11161                      .dwattr $C$DW$1089, DW_AT_TI_symbol_name("_PCLKCR0")
   11162                      .dwattr $C$DW$1089, DW_AT_data_member_location[DW_OP_plus_uconst 0xc]
   11163                      .dwattr $C$DW$1089, DW_AT_accessibility(DW_ACCESS_public)
   11164              
   11165              $C$DW$1090      .dwtag  DW_TAG_member
   11166                      .dwattr $C$DW$1090, DW_AT_type(*$C$DW$T$151)
   11167                      .dwattr $C$DW$1090, DW_AT_name("PCLKCR1")
   11168                      .dwattr $C$DW$1090, DW_AT_TI_symbol_name("_PCLKCR1")
   11169                      .dwattr $C$DW$1090, DW_AT_data_member_location[DW_OP_plus_uconst 0xd]
   11170                      .dwattr $C$DW$1090, DW_AT_accessibility(DW_ACCESS_public)
   11171              
   11172              $C$DW$1091      .dwtag  DW_TAG_member
   11173                      .dwattr $C$DW$1091, DW_AT_type(*$C$DW$T$145)
   11174                      .dwattr $C$DW$1091, DW_AT_name("LPMCR0")
   11175                      .dwattr $C$DW$1091, DW_AT_TI_symbol_name("_LPMCR0")
   11176                      .dwattr $C$DW$1091, DW_AT_data_member_location[DW_OP_plus_uconst 0xe]
   11177                      .dwattr $C$DW$1091, DW_AT_accessibility(DW_ACCESS_public)
   11178              
   11179              $C$DW$1092      .dwtag  DW_TAG_member
   11180                      .dwattr $C$DW$1092, DW_AT_type(*$C$DW$T$19)
   11181                      .dwattr $C$DW$1092, DW_AT_name("rsvd3")
   11182                      .dwattr $C$DW$1092, DW_AT_TI_symbol_name("_rsvd3")
   11183                      .dwattr $C$DW$1092, DW_AT_data_member_location[DW_OP_plus_uconst 0xf]
   11184                      .dwattr $C$DW$1092, DW_AT_accessibility(DW_ACCESS_public)
   11185              
   11186              $C$DW$1093      .dwtag  DW_TAG_member
   11187                      .dwattr $C$DW$1093, DW_AT_type(*$C$DW$T$153)
   11188                      .dwattr $C$DW$1093, DW_AT_name("PCLKCR3")
   11189                      .dwattr $C$DW$1093, DW_AT_TI_symbol_name("_PCLKCR3")
   11190                      .dwattr $C$DW$1093, DW_AT_data_member_location[DW_OP_plus_uconst 0x10]
   11191                      .dwattr $C$DW$1093, DW_AT_accessibility(DW_ACCESS_public)
   11192              
   11193              $C$DW$1094      .dwtag  DW_TAG_member
   11194                      .dwattr $C$DW$1094, DW_AT_type(*$C$DW$T$168)
   11195                      .dwattr $C$DW$1094, DW_AT_name("PLLCR")
   11196                      .dwattr $C$DW$1094, DW_AT_TI_symbol_name("_PLLCR")
   11197                      .dwattr $C$DW$1094, DW_AT_data_member_location[DW_OP_plus_uconst 0x11]
   11198                      .dwattr $C$DW$1094, DW_AT_accessibility(DW_ACCESS_public)
   11199              
TMS320C2000 Assembler PC v16.9.6 Tue Mar 06 18:34:46 2018

Tools Copyright (c) 1996-2017 Texas Instruments Incorporated
C:\Users\Admin\AppData\Local\Temp\{ED9AE313-281A-4435-8F2A-5411619B06A2} PAGE  212

   11200              $C$DW$1095      .dwtag  DW_TAG_member
   11201                      .dwattr $C$DW$1095, DW_AT_type(*$C$DW$T$19)
   11202                      .dwattr $C$DW$1095, DW_AT_name("SCSR")
   11203                      .dwattr $C$DW$1095, DW_AT_TI_symbol_name("_SCSR")
   11204                      .dwattr $C$DW$1095, DW_AT_data_member_location[DW_OP_plus_uconst 0x12]
   11205                      .dwattr $C$DW$1095, DW_AT_accessibility(DW_ACCESS_public)
   11206              
   11207              $C$DW$1096      .dwtag  DW_TAG_member
   11208                      .dwattr $C$DW$1096, DW_AT_type(*$C$DW$T$19)
   11209                      .dwattr $C$DW$1096, DW_AT_name("WDCNTR")
   11210                      .dwattr $C$DW$1096, DW_AT_TI_symbol_name("_WDCNTR")
   11211                      .dwattr $C$DW$1096, DW_AT_data_member_location[DW_OP_plus_uconst 0x13]
   11212                      .dwattr $C$DW$1096, DW_AT_accessibility(DW_ACCESS_public)
   11213              
   11214              $C$DW$1097      .dwtag  DW_TAG_member
   11215                      .dwattr $C$DW$1097, DW_AT_type(*$C$DW$T$19)
   11216                      .dwattr $C$DW$1097, DW_AT_name("rsvd4")
   11217                      .dwattr $C$DW$1097, DW_AT_TI_symbol_name("_rsvd4")
   11218                      .dwattr $C$DW$1097, DW_AT_data_member_location[DW_OP_plus_uconst 0x14]
   11219                      .dwattr $C$DW$1097, DW_AT_accessibility(DW_ACCESS_public)
   11220              
   11221              $C$DW$1098      .dwtag  DW_TAG_member
   11222                      .dwattr $C$DW$1098, DW_AT_type(*$C$DW$T$19)
   11223                      .dwattr $C$DW$1098, DW_AT_name("WDKEY")
   11224                      .dwattr $C$DW$1098, DW_AT_TI_symbol_name("_WDKEY")
   11225                      .dwattr $C$DW$1098, DW_AT_data_member_location[DW_OP_plus_uconst 0x15]
   11226                      .dwattr $C$DW$1098, DW_AT_accessibility(DW_ACCESS_public)
   11227              
   11228              $C$DW$1099      .dwtag  DW_TAG_member
   11229                      .dwattr $C$DW$1099, DW_AT_type(*$C$DW$T$42)
   11230                      .dwattr $C$DW$1099, DW_AT_name("rsvd5")
   11231                      .dwattr $C$DW$1099, DW_AT_TI_symbol_name("_rsvd5")
   11232                      .dwattr $C$DW$1099, DW_AT_data_member_location[DW_OP_plus_uconst 0x16]
   11233                      .dwattr $C$DW$1099, DW_AT_accessibility(DW_ACCESS_public)
   11234              
   11235              $C$DW$1100      .dwtag  DW_TAG_member
   11236                      .dwattr $C$DW$1100, DW_AT_type(*$C$DW$T$19)
   11237                      .dwattr $C$DW$1100, DW_AT_name("WDCR")
   11238                      .dwattr $C$DW$1100, DW_AT_TI_symbol_name("_WDCR")
   11239                      .dwattr $C$DW$1100, DW_AT_data_member_location[DW_OP_plus_uconst 0x19]
   11240                      .dwattr $C$DW$1100, DW_AT_accessibility(DW_ACCESS_public)
   11241              
   11242              $C$DW$1101      .dwtag  DW_TAG_member
   11243                      .dwattr $C$DW$1101, DW_AT_type(*$C$DW$T$82)
   11244                      .dwattr $C$DW$1101, DW_AT_name("rsvd6")
   11245                      .dwattr $C$DW$1101, DW_AT_TI_symbol_name("_rsvd6")
   11246                      .dwattr $C$DW$1101, DW_AT_data_member_location[DW_OP_plus_uconst 0x1a]
   11247                      .dwattr $C$DW$1101, DW_AT_accessibility(DW_ACCESS_public)
   11248              
   11249                      .dwendtag $C$DW$T$173
   11250              
   11251              $C$DW$1102      .dwtag  DW_TAG_TI_far_type
   11252                      .dwattr $C$DW$1102, DW_AT_type(*$C$DW$T$173)
   11253              
   11254              $C$DW$T$265     .dwtag  DW_TAG_volatile_type
TMS320C2000 Assembler PC v16.9.6 Tue Mar 06 18:34:46 2018

Tools Copyright (c) 1996-2017 Texas Instruments Incorporated
C:\Users\Admin\AppData\Local\Temp\{ED9AE313-281A-4435-8F2A-5411619B06A2} PAGE  213

   11255                      .dwattr $C$DW$T$265, DW_AT_type(*$C$DW$1102)
   11256              
   11257              
   11258              $C$DW$T$174     .dwtag  DW_TAG_structure_type
   11259                      .dwattr $C$DW$T$174, DW_AT_name("TBCTL_BITS")
   11260                      .dwattr $C$DW$T$174, DW_AT_byte_size(0x01)
   11261              $C$DW$1103      .dwtag  DW_TAG_member
   11262                      .dwattr $C$DW$1103, DW_AT_type(*$C$DW$T$19)
   11263                      .dwattr $C$DW$1103, DW_AT_name("CTRMODE")
   11264                      .dwattr $C$DW$1103, DW_AT_TI_symbol_name("_CTRMODE")
   11265                      .dwattr $C$DW$1103, DW_AT_bit_offset(0x0e)
   11266                      .dwattr $C$DW$1103, DW_AT_bit_size(0x02)
   11267                      .dwattr $C$DW$1103, DW_AT_data_member_location[DW_OP_plus_uconst 0x0]
   11268                      .dwattr $C$DW$1103, DW_AT_accessibility(DW_ACCESS_public)
   11269              
   11270              $C$DW$1104      .dwtag  DW_TAG_member
   11271                      .dwattr $C$DW$1104, DW_AT_type(*$C$DW$T$19)
   11272                      .dwattr $C$DW$1104, DW_AT_name("PHSEN")
   11273                      .dwattr $C$DW$1104, DW_AT_TI_symbol_name("_PHSEN")
   11274                      .dwattr $C$DW$1104, DW_AT_bit_offset(0x0d)
   11275                      .dwattr $C$DW$1104, DW_AT_bit_size(0x01)
   11276                      .dwattr $C$DW$1104, DW_AT_data_member_location[DW_OP_plus_uconst 0x0]
   11277                      .dwattr $C$DW$1104, DW_AT_accessibility(DW_ACCESS_public)
   11278              
   11279              $C$DW$1105      .dwtag  DW_TAG_member
   11280                      .dwattr $C$DW$1105, DW_AT_type(*$C$DW$T$19)
   11281                      .dwattr $C$DW$1105, DW_AT_name("PRDLD")
   11282                      .dwattr $C$DW$1105, DW_AT_TI_symbol_name("_PRDLD")
   11283                      .dwattr $C$DW$1105, DW_AT_bit_offset(0x0c)
   11284                      .dwattr $C$DW$1105, DW_AT_bit_size(0x01)
   11285                      .dwattr $C$DW$1105, DW_AT_data_member_location[DW_OP_plus_uconst 0x0]
   11286                      .dwattr $C$DW$1105, DW_AT_accessibility(DW_ACCESS_public)
   11287              
   11288              $C$DW$1106      .dwtag  DW_TAG_member
   11289                      .dwattr $C$DW$1106, DW_AT_type(*$C$DW$T$19)
   11290                      .dwattr $C$DW$1106, DW_AT_name("SYNCOSEL")
   11291                      .dwattr $C$DW$1106, DW_AT_TI_symbol_name("_SYNCOSEL")
   11292                      .dwattr $C$DW$1106, DW_AT_bit_offset(0x0a)
   11293                      .dwattr $C$DW$1106, DW_AT_bit_size(0x02)
   11294                      .dwattr $C$DW$1106, DW_AT_data_member_location[DW_OP_plus_uconst 0x0]
   11295                      .dwattr $C$DW$1106, DW_AT_accessibility(DW_ACCESS_public)
   11296              
   11297              $C$DW$1107      .dwtag  DW_TAG_member
   11298                      .dwattr $C$DW$1107, DW_AT_type(*$C$DW$T$19)
   11299                      .dwattr $C$DW$1107, DW_AT_name("SWFSYNC")
   11300                      .dwattr $C$DW$1107, DW_AT_TI_symbol_name("_SWFSYNC")
   11301                      .dwattr $C$DW$1107, DW_AT_bit_offset(0x09)
   11302                      .dwattr $C$DW$1107, DW_AT_bit_size(0x01)
   11303                      .dwattr $C$DW$1107, DW_AT_data_member_location[DW_OP_plus_uconst 0x0]
   11304                      .dwattr $C$DW$1107, DW_AT_accessibility(DW_ACCESS_public)
   11305              
   11306              $C$DW$1108      .dwtag  DW_TAG_member
   11307                      .dwattr $C$DW$1108, DW_AT_type(*$C$DW$T$19)
   11308                      .dwattr $C$DW$1108, DW_AT_name("HSPCLKDIV")
   11309                      .dwattr $C$DW$1108, DW_AT_TI_symbol_name("_HSPCLKDIV")
TMS320C2000 Assembler PC v16.9.6 Tue Mar 06 18:34:46 2018

Tools Copyright (c) 1996-2017 Texas Instruments Incorporated
C:\Users\Admin\AppData\Local\Temp\{ED9AE313-281A-4435-8F2A-5411619B06A2} PAGE  214

   11310                      .dwattr $C$DW$1108, DW_AT_bit_offset(0x06)
   11311                      .dwattr $C$DW$1108, DW_AT_bit_size(0x03)
   11312                      .dwattr $C$DW$1108, DW_AT_data_member_location[DW_OP_plus_uconst 0x0]
   11313                      .dwattr $C$DW$1108, DW_AT_accessibility(DW_ACCESS_public)
   11314              
   11315              $C$DW$1109      .dwtag  DW_TAG_member
   11316                      .dwattr $C$DW$1109, DW_AT_type(*$C$DW$T$19)
   11317                      .dwattr $C$DW$1109, DW_AT_name("CLKDIV")
   11318                      .dwattr $C$DW$1109, DW_AT_TI_symbol_name("_CLKDIV")
   11319                      .dwattr $C$DW$1109, DW_AT_bit_offset(0x03)
   11320                      .dwattr $C$DW$1109, DW_AT_bit_size(0x03)
   11321                      .dwattr $C$DW$1109, DW_AT_data_member_location[DW_OP_plus_uconst 0x0]
   11322                      .dwattr $C$DW$1109, DW_AT_accessibility(DW_ACCESS_public)
   11323              
   11324              $C$DW$1110      .dwtag  DW_TAG_member
   11325                      .dwattr $C$DW$1110, DW_AT_type(*$C$DW$T$19)
   11326                      .dwattr $C$DW$1110, DW_AT_name("PHSDIR")
   11327                      .dwattr $C$DW$1110, DW_AT_TI_symbol_name("_PHSDIR")
   11328                      .dwattr $C$DW$1110, DW_AT_bit_offset(0x02)
   11329                      .dwattr $C$DW$1110, DW_AT_bit_size(0x01)
   11330                      .dwattr $C$DW$1110, DW_AT_data_member_location[DW_OP_plus_uconst 0x0]
   11331                      .dwattr $C$DW$1110, DW_AT_accessibility(DW_ACCESS_public)
   11332              
   11333              $C$DW$1111      .dwtag  DW_TAG_member
   11334                      .dwattr $C$DW$1111, DW_AT_type(*$C$DW$T$19)
   11335                      .dwattr $C$DW$1111, DW_AT_name("FREE_SOFT")
   11336                      .dwattr $C$DW$1111, DW_AT_TI_symbol_name("_FREE_SOFT")
   11337                      .dwattr $C$DW$1111, DW_AT_bit_offset(0x00)
   11338                      .dwattr $C$DW$1111, DW_AT_bit_size(0x02)
   11339                      .dwattr $C$DW$1111, DW_AT_data_member_location[DW_OP_plus_uconst 0x0]
   11340                      .dwattr $C$DW$1111, DW_AT_accessibility(DW_ACCESS_public)
   11341              
   11342                      .dwendtag $C$DW$T$174
   11343              
   11344              
   11345              $C$DW$T$175     .dwtag  DW_TAG_union_type
   11346                      .dwattr $C$DW$T$175, DW_AT_name("TBCTL_REG")
   11347                      .dwattr $C$DW$T$175, DW_AT_byte_size(0x01)
   11348              $C$DW$1112      .dwtag  DW_TAG_member
   11349                      .dwattr $C$DW$1112, DW_AT_type(*$C$DW$T$19)
   11350                      .dwattr $C$DW$1112, DW_AT_name("all")
   11351                      .dwattr $C$DW$1112, DW_AT_TI_symbol_name("_all")
   11352                      .dwattr $C$DW$1112, DW_AT_data_member_location[DW_OP_plus_uconst 0x0]
   11353                      .dwattr $C$DW$1112, DW_AT_accessibility(DW_ACCESS_public)
   11354              
   11355              $C$DW$1113      .dwtag  DW_TAG_member
   11356                      .dwattr $C$DW$1113, DW_AT_type(*$C$DW$T$174)
   11357                      .dwattr $C$DW$1113, DW_AT_name("bit")
   11358                      .dwattr $C$DW$1113, DW_AT_TI_symbol_name("_bit")
   11359                      .dwattr $C$DW$1113, DW_AT_data_member_location[DW_OP_plus_uconst 0x0]
   11360                      .dwattr $C$DW$1113, DW_AT_accessibility(DW_ACCESS_public)
   11361              
   11362                      .dwendtag $C$DW$T$175
   11363              
   11364              
TMS320C2000 Assembler PC v16.9.6 Tue Mar 06 18:34:46 2018

Tools Copyright (c) 1996-2017 Texas Instruments Incorporated
C:\Users\Admin\AppData\Local\Temp\{ED9AE313-281A-4435-8F2A-5411619B06A2} PAGE  215

   11365              $C$DW$T$176     .dwtag  DW_TAG_union_type
   11366                      .dwattr $C$DW$T$176, DW_AT_name("TBPHS_HRPWM_GROUP")
   11367                      .dwattr $C$DW$T$176, DW_AT_byte_size(0x02)
   11368              $C$DW$1114      .dwtag  DW_TAG_member
   11369                      .dwattr $C$DW$1114, DW_AT_type(*$C$DW$T$49)
   11370                      .dwattr $C$DW$1114, DW_AT_name("all")
   11371                      .dwattr $C$DW$1114, DW_AT_TI_symbol_name("_all")
   11372                      .dwattr $C$DW$1114, DW_AT_data_member_location[DW_OP_plus_uconst 0x0]
   11373                      .dwattr $C$DW$1114, DW_AT_accessibility(DW_ACCESS_public)
   11374              
   11375              $C$DW$1115      .dwtag  DW_TAG_member
   11376                      .dwattr $C$DW$1115, DW_AT_type(*$C$DW$T$177)
   11377                      .dwattr $C$DW$1115, DW_AT_name("half")
   11378                      .dwattr $C$DW$1115, DW_AT_TI_symbol_name("_half")
   11379                      .dwattr $C$DW$1115, DW_AT_data_member_location[DW_OP_plus_uconst 0x0]
   11380                      .dwattr $C$DW$1115, DW_AT_accessibility(DW_ACCESS_public)
   11381              
   11382                      .dwendtag $C$DW$T$176
   11383              
   11384              
   11385              $C$DW$T$177     .dwtag  DW_TAG_structure_type
   11386                      .dwattr $C$DW$T$177, DW_AT_name("TBPHS_HRPWM_REG")
   11387                      .dwattr $C$DW$T$177, DW_AT_byte_size(0x02)
   11388              $C$DW$1116      .dwtag  DW_TAG_member
   11389                      .dwattr $C$DW$1116, DW_AT_type(*$C$DW$T$19)
   11390                      .dwattr $C$DW$1116, DW_AT_name("TBPHSHR")
   11391                      .dwattr $C$DW$1116, DW_AT_TI_symbol_name("_TBPHSHR")
   11392                      .dwattr $C$DW$1116, DW_AT_data_member_location[DW_OP_plus_uconst 0x0]
   11393                      .dwattr $C$DW$1116, DW_AT_accessibility(DW_ACCESS_public)
   11394              
   11395              $C$DW$1117      .dwtag  DW_TAG_member
   11396                      .dwattr $C$DW$1117, DW_AT_type(*$C$DW$T$19)
   11397                      .dwattr $C$DW$1117, DW_AT_name("TBPHS")
   11398                      .dwattr $C$DW$1117, DW_AT_TI_symbol_name("_TBPHS")
   11399                      .dwattr $C$DW$1117, DW_AT_data_member_location[DW_OP_plus_uconst 0x1]
   11400                      .dwattr $C$DW$1117, DW_AT_accessibility(DW_ACCESS_public)
   11401              
   11402                      .dwendtag $C$DW$T$177
   11403              
   11404              
   11405              $C$DW$T$178     .dwtag  DW_TAG_union_type
   11406                      .dwattr $C$DW$T$178, DW_AT_name("TBPRD_HRPWM_GROUP")
   11407                      .dwattr $C$DW$T$178, DW_AT_byte_size(0x02)
   11408              $C$DW$1118      .dwtag  DW_TAG_member
   11409                      .dwattr $C$DW$1118, DW_AT_type(*$C$DW$T$49)
   11410                      .dwattr $C$DW$1118, DW_AT_name("all")
   11411                      .dwattr $C$DW$1118, DW_AT_TI_symbol_name("_all")
   11412                      .dwattr $C$DW$1118, DW_AT_data_member_location[DW_OP_plus_uconst 0x0]
   11413                      .dwattr $C$DW$1118, DW_AT_accessibility(DW_ACCESS_public)
   11414              
   11415              $C$DW$1119      .dwtag  DW_TAG_member
   11416                      .dwattr $C$DW$1119, DW_AT_type(*$C$DW$T$179)
   11417                      .dwattr $C$DW$1119, DW_AT_name("half")
   11418                      .dwattr $C$DW$1119, DW_AT_TI_symbol_name("_half")
   11419                      .dwattr $C$DW$1119, DW_AT_data_member_location[DW_OP_plus_uconst 0x0]
TMS320C2000 Assembler PC v16.9.6 Tue Mar 06 18:34:46 2018

Tools Copyright (c) 1996-2017 Texas Instruments Incorporated
C:\Users\Admin\AppData\Local\Temp\{ED9AE313-281A-4435-8F2A-5411619B06A2} PAGE  216

   11420                      .dwattr $C$DW$1119, DW_AT_accessibility(DW_ACCESS_public)
   11421              
   11422                      .dwendtag $C$DW$T$178
   11423              
   11424              
   11425              $C$DW$T$179     .dwtag  DW_TAG_structure_type
   11426                      .dwattr $C$DW$T$179, DW_AT_name("TBPRD_HRPWM_REG")
   11427                      .dwattr $C$DW$T$179, DW_AT_byte_size(0x02)
   11428              $C$DW$1120      .dwtag  DW_TAG_member
   11429                      .dwattr $C$DW$1120, DW_AT_type(*$C$DW$T$19)
   11430                      .dwattr $C$DW$1120, DW_AT_name("TBPRDHR")
   11431                      .dwattr $C$DW$1120, DW_AT_TI_symbol_name("_TBPRDHR")
   11432                      .dwattr $C$DW$1120, DW_AT_data_member_location[DW_OP_plus_uconst 0x0]
   11433                      .dwattr $C$DW$1120, DW_AT_accessibility(DW_ACCESS_public)
   11434              
   11435              $C$DW$1121      .dwtag  DW_TAG_member
   11436                      .dwattr $C$DW$1121, DW_AT_type(*$C$DW$T$19)
   11437                      .dwattr $C$DW$1121, DW_AT_name("TBPRD")
   11438                      .dwattr $C$DW$1121, DW_AT_TI_symbol_name("_TBPRD")
   11439                      .dwattr $C$DW$1121, DW_AT_data_member_location[DW_OP_plus_uconst 0x1]
   11440                      .dwattr $C$DW$1121, DW_AT_accessibility(DW_ACCESS_public)
   11441              
   11442                      .dwendtag $C$DW$T$179
   11443              
   11444              
   11445              $C$DW$T$180     .dwtag  DW_TAG_structure_type
   11446                      .dwattr $C$DW$T$180, DW_AT_name("TBSTS_BITS")
   11447                      .dwattr $C$DW$T$180, DW_AT_byte_size(0x01)
   11448              $C$DW$1122      .dwtag  DW_TAG_member
   11449                      .dwattr $C$DW$1122, DW_AT_type(*$C$DW$T$19)
   11450                      .dwattr $C$DW$1122, DW_AT_name("CTRDIR")
   11451                      .dwattr $C$DW$1122, DW_AT_TI_symbol_name("_CTRDIR")
   11452                      .dwattr $C$DW$1122, DW_AT_bit_offset(0x0f)
   11453                      .dwattr $C$DW$1122, DW_AT_bit_size(0x01)
   11454                      .dwattr $C$DW$1122, DW_AT_data_member_location[DW_OP_plus_uconst 0x0]
   11455                      .dwattr $C$DW$1122, DW_AT_accessibility(DW_ACCESS_public)
   11456              
   11457              $C$DW$1123      .dwtag  DW_TAG_member
   11458                      .dwattr $C$DW$1123, DW_AT_type(*$C$DW$T$19)
   11459                      .dwattr $C$DW$1123, DW_AT_name("SYNCI")
   11460                      .dwattr $C$DW$1123, DW_AT_TI_symbol_name("_SYNCI")
   11461                      .dwattr $C$DW$1123, DW_AT_bit_offset(0x0e)
   11462                      .dwattr $C$DW$1123, DW_AT_bit_size(0x01)
   11463                      .dwattr $C$DW$1123, DW_AT_data_member_location[DW_OP_plus_uconst 0x0]
   11464                      .dwattr $C$DW$1123, DW_AT_accessibility(DW_ACCESS_public)
   11465              
   11466              $C$DW$1124      .dwtag  DW_TAG_member
   11467                      .dwattr $C$DW$1124, DW_AT_type(*$C$DW$T$19)
   11468                      .dwattr $C$DW$1124, DW_AT_name("CTRMAX")
   11469                      .dwattr $C$DW$1124, DW_AT_TI_symbol_name("_CTRMAX")
   11470                      .dwattr $C$DW$1124, DW_AT_bit_offset(0x0d)
   11471                      .dwattr $C$DW$1124, DW_AT_bit_size(0x01)
   11472                      .dwattr $C$DW$1124, DW_AT_data_member_location[DW_OP_plus_uconst 0x0]
   11473                      .dwattr $C$DW$1124, DW_AT_accessibility(DW_ACCESS_public)
   11474              
TMS320C2000 Assembler PC v16.9.6 Tue Mar 06 18:34:46 2018

Tools Copyright (c) 1996-2017 Texas Instruments Incorporated
C:\Users\Admin\AppData\Local\Temp\{ED9AE313-281A-4435-8F2A-5411619B06A2} PAGE  217

   11475              $C$DW$1125      .dwtag  DW_TAG_member
   11476                      .dwattr $C$DW$1125, DW_AT_type(*$C$DW$T$19)
   11477                      .dwattr $C$DW$1125, DW_AT_name("rsvd1")
   11478                      .dwattr $C$DW$1125, DW_AT_TI_symbol_name("_rsvd1")
   11479                      .dwattr $C$DW$1125, DW_AT_bit_offset(0x00)
   11480                      .dwattr $C$DW$1125, DW_AT_bit_size(0x0d)
   11481                      .dwattr $C$DW$1125, DW_AT_data_member_location[DW_OP_plus_uconst 0x0]
   11482                      .dwattr $C$DW$1125, DW_AT_accessibility(DW_ACCESS_public)
   11483              
   11484                      .dwendtag $C$DW$T$180
   11485              
   11486              
   11487              $C$DW$T$181     .dwtag  DW_TAG_union_type
   11488                      .dwattr $C$DW$T$181, DW_AT_name("TBSTS_REG")
   11489                      .dwattr $C$DW$T$181, DW_AT_byte_size(0x01)
   11490              $C$DW$1126      .dwtag  DW_TAG_member
   11491                      .dwattr $C$DW$1126, DW_AT_type(*$C$DW$T$19)
   11492                      .dwattr $C$DW$1126, DW_AT_name("all")
   11493                      .dwattr $C$DW$1126, DW_AT_TI_symbol_name("_all")
   11494                      .dwattr $C$DW$1126, DW_AT_data_member_location[DW_OP_plus_uconst 0x0]
   11495                      .dwattr $C$DW$1126, DW_AT_accessibility(DW_ACCESS_public)
   11496              
   11497              $C$DW$1127      .dwtag  DW_TAG_member
   11498                      .dwattr $C$DW$1127, DW_AT_type(*$C$DW$T$180)
   11499                      .dwattr $C$DW$1127, DW_AT_name("bit")
   11500                      .dwattr $C$DW$1127, DW_AT_TI_symbol_name("_bit")
   11501                      .dwattr $C$DW$1127, DW_AT_data_member_location[DW_OP_plus_uconst 0x0]
   11502                      .dwattr $C$DW$1127, DW_AT_accessibility(DW_ACCESS_public)
   11503              
   11504                      .dwendtag $C$DW$T$181
   11505              
   11506              
   11507              $C$DW$T$182     .dwtag  DW_TAG_structure_type
   11508                      .dwattr $C$DW$T$182, DW_AT_name("TZCLR_BITS")
   11509                      .dwattr $C$DW$T$182, DW_AT_byte_size(0x01)
   11510              $C$DW$1128      .dwtag  DW_TAG_member
   11511                      .dwattr $C$DW$1128, DW_AT_type(*$C$DW$T$19)
   11512                      .dwattr $C$DW$1128, DW_AT_name("INT")
   11513                      .dwattr $C$DW$1128, DW_AT_TI_symbol_name("_INT")
   11514                      .dwattr $C$DW$1128, DW_AT_bit_offset(0x0f)
   11515                      .dwattr $C$DW$1128, DW_AT_bit_size(0x01)
   11516                      .dwattr $C$DW$1128, DW_AT_data_member_location[DW_OP_plus_uconst 0x0]
   11517                      .dwattr $C$DW$1128, DW_AT_accessibility(DW_ACCESS_public)
   11518              
   11519              $C$DW$1129      .dwtag  DW_TAG_member
   11520                      .dwattr $C$DW$1129, DW_AT_type(*$C$DW$T$19)
   11521                      .dwattr $C$DW$1129, DW_AT_name("CBC")
   11522                      .dwattr $C$DW$1129, DW_AT_TI_symbol_name("_CBC")
   11523                      .dwattr $C$DW$1129, DW_AT_bit_offset(0x0e)
   11524                      .dwattr $C$DW$1129, DW_AT_bit_size(0x01)
   11525                      .dwattr $C$DW$1129, DW_AT_data_member_location[DW_OP_plus_uconst 0x0]
   11526                      .dwattr $C$DW$1129, DW_AT_accessibility(DW_ACCESS_public)
   11527              
   11528              $C$DW$1130      .dwtag  DW_TAG_member
   11529                      .dwattr $C$DW$1130, DW_AT_type(*$C$DW$T$19)
TMS320C2000 Assembler PC v16.9.6 Tue Mar 06 18:34:46 2018

Tools Copyright (c) 1996-2017 Texas Instruments Incorporated
C:\Users\Admin\AppData\Local\Temp\{ED9AE313-281A-4435-8F2A-5411619B06A2} PAGE  218

   11530                      .dwattr $C$DW$1130, DW_AT_name("OST")
   11531                      .dwattr $C$DW$1130, DW_AT_TI_symbol_name("_OST")
   11532                      .dwattr $C$DW$1130, DW_AT_bit_offset(0x0d)
   11533                      .dwattr $C$DW$1130, DW_AT_bit_size(0x01)
   11534                      .dwattr $C$DW$1130, DW_AT_data_member_location[DW_OP_plus_uconst 0x0]
   11535                      .dwattr $C$DW$1130, DW_AT_accessibility(DW_ACCESS_public)
   11536              
   11537              $C$DW$1131      .dwtag  DW_TAG_member
   11538                      .dwattr $C$DW$1131, DW_AT_type(*$C$DW$T$19)
   11539                      .dwattr $C$DW$1131, DW_AT_name("DCAEVT1")
   11540                      .dwattr $C$DW$1131, DW_AT_TI_symbol_name("_DCAEVT1")
   11541                      .dwattr $C$DW$1131, DW_AT_bit_offset(0x0c)
   11542                      .dwattr $C$DW$1131, DW_AT_bit_size(0x01)
   11543                      .dwattr $C$DW$1131, DW_AT_data_member_location[DW_OP_plus_uconst 0x0]
   11544                      .dwattr $C$DW$1131, DW_AT_accessibility(DW_ACCESS_public)
   11545              
   11546              $C$DW$1132      .dwtag  DW_TAG_member
   11547                      .dwattr $C$DW$1132, DW_AT_type(*$C$DW$T$19)
   11548                      .dwattr $C$DW$1132, DW_AT_name("DCAEVT2")
   11549                      .dwattr $C$DW$1132, DW_AT_TI_symbol_name("_DCAEVT2")
   11550                      .dwattr $C$DW$1132, DW_AT_bit_offset(0x0b)
   11551                      .dwattr $C$DW$1132, DW_AT_bit_size(0x01)
   11552                      .dwattr $C$DW$1132, DW_AT_data_member_location[DW_OP_plus_uconst 0x0]
   11553                      .dwattr $C$DW$1132, DW_AT_accessibility(DW_ACCESS_public)
   11554              
   11555              $C$DW$1133      .dwtag  DW_TAG_member
   11556                      .dwattr $C$DW$1133, DW_AT_type(*$C$DW$T$19)
   11557                      .dwattr $C$DW$1133, DW_AT_name("DCBEVT1")
   11558                      .dwattr $C$DW$1133, DW_AT_TI_symbol_name("_DCBEVT1")
   11559                      .dwattr $C$DW$1133, DW_AT_bit_offset(0x0a)
   11560                      .dwattr $C$DW$1133, DW_AT_bit_size(0x01)
   11561                      .dwattr $C$DW$1133, DW_AT_data_member_location[DW_OP_plus_uconst 0x0]
   11562                      .dwattr $C$DW$1133, DW_AT_accessibility(DW_ACCESS_public)
   11563              
   11564              $C$DW$1134      .dwtag  DW_TAG_member
   11565                      .dwattr $C$DW$1134, DW_AT_type(*$C$DW$T$19)
   11566                      .dwattr $C$DW$1134, DW_AT_name("DCBEVT2")
   11567                      .dwattr $C$DW$1134, DW_AT_TI_symbol_name("_DCBEVT2")
   11568                      .dwattr $C$DW$1134, DW_AT_bit_offset(0x09)
   11569                      .dwattr $C$DW$1134, DW_AT_bit_size(0x01)
   11570                      .dwattr $C$DW$1134, DW_AT_data_member_location[DW_OP_plus_uconst 0x0]
   11571                      .dwattr $C$DW$1134, DW_AT_accessibility(DW_ACCESS_public)
   11572              
   11573              $C$DW$1135      .dwtag  DW_TAG_member
   11574                      .dwattr $C$DW$1135, DW_AT_type(*$C$DW$T$19)
   11575                      .dwattr $C$DW$1135, DW_AT_name("rsvd2")
   11576                      .dwattr $C$DW$1135, DW_AT_TI_symbol_name("_rsvd2")
   11577                      .dwattr $C$DW$1135, DW_AT_bit_offset(0x00)
   11578                      .dwattr $C$DW$1135, DW_AT_bit_size(0x09)
   11579                      .dwattr $C$DW$1135, DW_AT_data_member_location[DW_OP_plus_uconst 0x0]
   11580                      .dwattr $C$DW$1135, DW_AT_accessibility(DW_ACCESS_public)
   11581              
   11582                      .dwendtag $C$DW$T$182
   11583              
   11584              
TMS320C2000 Assembler PC v16.9.6 Tue Mar 06 18:34:46 2018

Tools Copyright (c) 1996-2017 Texas Instruments Incorporated
C:\Users\Admin\AppData\Local\Temp\{ED9AE313-281A-4435-8F2A-5411619B06A2} PAGE  219

   11585              $C$DW$T$183     .dwtag  DW_TAG_union_type
   11586                      .dwattr $C$DW$T$183, DW_AT_name("TZCLR_REG")
   11587                      .dwattr $C$DW$T$183, DW_AT_byte_size(0x01)
   11588              $C$DW$1136      .dwtag  DW_TAG_member
   11589                      .dwattr $C$DW$1136, DW_AT_type(*$C$DW$T$19)
   11590                      .dwattr $C$DW$1136, DW_AT_name("all")
   11591                      .dwattr $C$DW$1136, DW_AT_TI_symbol_name("_all")
   11592                      .dwattr $C$DW$1136, DW_AT_data_member_location[DW_OP_plus_uconst 0x0]
   11593                      .dwattr $C$DW$1136, DW_AT_accessibility(DW_ACCESS_public)
   11594              
   11595              $C$DW$1137      .dwtag  DW_TAG_member
   11596                      .dwattr $C$DW$1137, DW_AT_type(*$C$DW$T$182)
   11597                      .dwattr $C$DW$1137, DW_AT_name("bit")
   11598                      .dwattr $C$DW$1137, DW_AT_TI_symbol_name("_bit")
   11599                      .dwattr $C$DW$1137, DW_AT_data_member_location[DW_OP_plus_uconst 0x0]
   11600                      .dwattr $C$DW$1137, DW_AT_accessibility(DW_ACCESS_public)
   11601              
   11602                      .dwendtag $C$DW$T$183
   11603              
   11604              
   11605              $C$DW$T$184     .dwtag  DW_TAG_structure_type
   11606                      .dwattr $C$DW$T$184, DW_AT_name("TZCTL_BITS")
   11607                      .dwattr $C$DW$T$184, DW_AT_byte_size(0x01)
   11608              $C$DW$1138      .dwtag  DW_TAG_member
   11609                      .dwattr $C$DW$1138, DW_AT_type(*$C$DW$T$19)
   11610                      .dwattr $C$DW$1138, DW_AT_name("TZA")
   11611                      .dwattr $C$DW$1138, DW_AT_TI_symbol_name("_TZA")
   11612                      .dwattr $C$DW$1138, DW_AT_bit_offset(0x0e)
   11613                      .dwattr $C$DW$1138, DW_AT_bit_size(0x02)
   11614                      .dwattr $C$DW$1138, DW_AT_data_member_location[DW_OP_plus_uconst 0x0]
   11615                      .dwattr $C$DW$1138, DW_AT_accessibility(DW_ACCESS_public)
   11616              
   11617              $C$DW$1139      .dwtag  DW_TAG_member
   11618                      .dwattr $C$DW$1139, DW_AT_type(*$C$DW$T$19)
   11619                      .dwattr $C$DW$1139, DW_AT_name("TZB")
   11620                      .dwattr $C$DW$1139, DW_AT_TI_symbol_name("_TZB")
   11621                      .dwattr $C$DW$1139, DW_AT_bit_offset(0x0c)
   11622                      .dwattr $C$DW$1139, DW_AT_bit_size(0x02)
   11623                      .dwattr $C$DW$1139, DW_AT_data_member_location[DW_OP_plus_uconst 0x0]
   11624                      .dwattr $C$DW$1139, DW_AT_accessibility(DW_ACCESS_public)
   11625              
   11626              $C$DW$1140      .dwtag  DW_TAG_member
   11627                      .dwattr $C$DW$1140, DW_AT_type(*$C$DW$T$19)
   11628                      .dwattr $C$DW$1140, DW_AT_name("DCAEVT1")
   11629                      .dwattr $C$DW$1140, DW_AT_TI_symbol_name("_DCAEVT1")
   11630                      .dwattr $C$DW$1140, DW_AT_bit_offset(0x0a)
   11631                      .dwattr $C$DW$1140, DW_AT_bit_size(0x02)
   11632                      .dwattr $C$DW$1140, DW_AT_data_member_location[DW_OP_plus_uconst 0x0]
   11633                      .dwattr $C$DW$1140, DW_AT_accessibility(DW_ACCESS_public)
   11634              
   11635              $C$DW$1141      .dwtag  DW_TAG_member
   11636                      .dwattr $C$DW$1141, DW_AT_type(*$C$DW$T$19)
   11637                      .dwattr $C$DW$1141, DW_AT_name("DCAEVT2")
   11638                      .dwattr $C$DW$1141, DW_AT_TI_symbol_name("_DCAEVT2")
   11639                      .dwattr $C$DW$1141, DW_AT_bit_offset(0x08)
TMS320C2000 Assembler PC v16.9.6 Tue Mar 06 18:34:46 2018

Tools Copyright (c) 1996-2017 Texas Instruments Incorporated
C:\Users\Admin\AppData\Local\Temp\{ED9AE313-281A-4435-8F2A-5411619B06A2} PAGE  220

   11640                      .dwattr $C$DW$1141, DW_AT_bit_size(0x02)
   11641                      .dwattr $C$DW$1141, DW_AT_data_member_location[DW_OP_plus_uconst 0x0]
   11642                      .dwattr $C$DW$1141, DW_AT_accessibility(DW_ACCESS_public)
   11643              
   11644              $C$DW$1142      .dwtag  DW_TAG_member
   11645                      .dwattr $C$DW$1142, DW_AT_type(*$C$DW$T$19)
   11646                      .dwattr $C$DW$1142, DW_AT_name("DCBEVT1")
   11647                      .dwattr $C$DW$1142, DW_AT_TI_symbol_name("_DCBEVT1")
   11648                      .dwattr $C$DW$1142, DW_AT_bit_offset(0x06)
   11649                      .dwattr $C$DW$1142, DW_AT_bit_size(0x02)
   11650                      .dwattr $C$DW$1142, DW_AT_data_member_location[DW_OP_plus_uconst 0x0]
   11651                      .dwattr $C$DW$1142, DW_AT_accessibility(DW_ACCESS_public)
   11652              
   11653              $C$DW$1143      .dwtag  DW_TAG_member
   11654                      .dwattr $C$DW$1143, DW_AT_type(*$C$DW$T$19)
   11655                      .dwattr $C$DW$1143, DW_AT_name("DCBEVT2")
   11656                      .dwattr $C$DW$1143, DW_AT_TI_symbol_name("_DCBEVT2")
   11657                      .dwattr $C$DW$1143, DW_AT_bit_offset(0x04)
   11658                      .dwattr $C$DW$1143, DW_AT_bit_size(0x02)
   11659                      .dwattr $C$DW$1143, DW_AT_data_member_location[DW_OP_plus_uconst 0x0]
   11660                      .dwattr $C$DW$1143, DW_AT_accessibility(DW_ACCESS_public)
   11661              
   11662              $C$DW$1144      .dwtag  DW_TAG_member
   11663                      .dwattr $C$DW$1144, DW_AT_type(*$C$DW$T$19)
   11664                      .dwattr $C$DW$1144, DW_AT_name("rsvd")
   11665                      .dwattr $C$DW$1144, DW_AT_TI_symbol_name("_rsvd")
   11666                      .dwattr $C$DW$1144, DW_AT_bit_offset(0x00)
   11667                      .dwattr $C$DW$1144, DW_AT_bit_size(0x04)
   11668                      .dwattr $C$DW$1144, DW_AT_data_member_location[DW_OP_plus_uconst 0x0]
   11669                      .dwattr $C$DW$1144, DW_AT_accessibility(DW_ACCESS_public)
   11670              
   11671                      .dwendtag $C$DW$T$184
   11672              
   11673              
   11674              $C$DW$T$185     .dwtag  DW_TAG_union_type
   11675                      .dwattr $C$DW$T$185, DW_AT_name("TZCTL_REG")
   11676                      .dwattr $C$DW$T$185, DW_AT_byte_size(0x01)
   11677              $C$DW$1145      .dwtag  DW_TAG_member
   11678                      .dwattr $C$DW$1145, DW_AT_type(*$C$DW$T$19)
   11679                      .dwattr $C$DW$1145, DW_AT_name("all")
   11680                      .dwattr $C$DW$1145, DW_AT_TI_symbol_name("_all")
   11681                      .dwattr $C$DW$1145, DW_AT_data_member_location[DW_OP_plus_uconst 0x0]
   11682                      .dwattr $C$DW$1145, DW_AT_accessibility(DW_ACCESS_public)
   11683              
   11684              $C$DW$1146      .dwtag  DW_TAG_member
   11685                      .dwattr $C$DW$1146, DW_AT_type(*$C$DW$T$184)
   11686                      .dwattr $C$DW$1146, DW_AT_name("bit")
   11687                      .dwattr $C$DW$1146, DW_AT_TI_symbol_name("_bit")
   11688                      .dwattr $C$DW$1146, DW_AT_data_member_location[DW_OP_plus_uconst 0x0]
   11689                      .dwattr $C$DW$1146, DW_AT_accessibility(DW_ACCESS_public)
   11690              
   11691                      .dwendtag $C$DW$T$185
   11692              
   11693              
   11694              $C$DW$T$186     .dwtag  DW_TAG_structure_type
TMS320C2000 Assembler PC v16.9.6 Tue Mar 06 18:34:46 2018

Tools Copyright (c) 1996-2017 Texas Instruments Incorporated
C:\Users\Admin\AppData\Local\Temp\{ED9AE313-281A-4435-8F2A-5411619B06A2} PAGE  221

   11695                      .dwattr $C$DW$T$186, DW_AT_name("TZDCSEL_BITS")
   11696                      .dwattr $C$DW$T$186, DW_AT_byte_size(0x01)
   11697              $C$DW$1147      .dwtag  DW_TAG_member
   11698                      .dwattr $C$DW$1147, DW_AT_type(*$C$DW$T$19)
   11699                      .dwattr $C$DW$1147, DW_AT_name("DCAEVT1")
   11700                      .dwattr $C$DW$1147, DW_AT_TI_symbol_name("_DCAEVT1")
   11701                      .dwattr $C$DW$1147, DW_AT_bit_offset(0x0d)
   11702                      .dwattr $C$DW$1147, DW_AT_bit_size(0x03)
   11703                      .dwattr $C$DW$1147, DW_AT_data_member_location[DW_OP_plus_uconst 0x0]
   11704                      .dwattr $C$DW$1147, DW_AT_accessibility(DW_ACCESS_public)
   11705              
   11706              $C$DW$1148      .dwtag  DW_TAG_member
   11707                      .dwattr $C$DW$1148, DW_AT_type(*$C$DW$T$19)
   11708                      .dwattr $C$DW$1148, DW_AT_name("DCAEVT2")
   11709                      .dwattr $C$DW$1148, DW_AT_TI_symbol_name("_DCAEVT2")
   11710                      .dwattr $C$DW$1148, DW_AT_bit_offset(0x0a)
   11711                      .dwattr $C$DW$1148, DW_AT_bit_size(0x03)
   11712                      .dwattr $C$DW$1148, DW_AT_data_member_location[DW_OP_plus_uconst 0x0]
   11713                      .dwattr $C$DW$1148, DW_AT_accessibility(DW_ACCESS_public)
   11714              
   11715              $C$DW$1149      .dwtag  DW_TAG_member
   11716                      .dwattr $C$DW$1149, DW_AT_type(*$C$DW$T$19)
   11717                      .dwattr $C$DW$1149, DW_AT_name("DCBEVT1")
   11718                      .dwattr $C$DW$1149, DW_AT_TI_symbol_name("_DCBEVT1")
   11719                      .dwattr $C$DW$1149, DW_AT_bit_offset(0x07)
   11720                      .dwattr $C$DW$1149, DW_AT_bit_size(0x03)
   11721                      .dwattr $C$DW$1149, DW_AT_data_member_location[DW_OP_plus_uconst 0x0]
   11722                      .dwattr $C$DW$1149, DW_AT_accessibility(DW_ACCESS_public)
   11723              
   11724              $C$DW$1150      .dwtag  DW_TAG_member
   11725                      .dwattr $C$DW$1150, DW_AT_type(*$C$DW$T$19)
   11726                      .dwattr $C$DW$1150, DW_AT_name("DCBEVT2")
   11727                      .dwattr $C$DW$1150, DW_AT_TI_symbol_name("_DCBEVT2")
   11728                      .dwattr $C$DW$1150, DW_AT_bit_offset(0x04)
   11729                      .dwattr $C$DW$1150, DW_AT_bit_size(0x03)
   11730                      .dwattr $C$DW$1150, DW_AT_data_member_location[DW_OP_plus_uconst 0x0]
   11731                      .dwattr $C$DW$1150, DW_AT_accessibility(DW_ACCESS_public)
   11732              
   11733                      .dwendtag $C$DW$T$186
   11734              
   11735              
   11736              $C$DW$T$187     .dwtag  DW_TAG_union_type
   11737                      .dwattr $C$DW$T$187, DW_AT_name("TZDCSEL_REG")
   11738                      .dwattr $C$DW$T$187, DW_AT_byte_size(0x01)
   11739              $C$DW$1151      .dwtag  DW_TAG_member
   11740                      .dwattr $C$DW$1151, DW_AT_type(*$C$DW$T$19)
   11741                      .dwattr $C$DW$1151, DW_AT_name("all")
   11742                      .dwattr $C$DW$1151, DW_AT_TI_symbol_name("_all")
   11743                      .dwattr $C$DW$1151, DW_AT_data_member_location[DW_OP_plus_uconst 0x0]
   11744                      .dwattr $C$DW$1151, DW_AT_accessibility(DW_ACCESS_public)
   11745              
   11746              $C$DW$1152      .dwtag  DW_TAG_member
   11747                      .dwattr $C$DW$1152, DW_AT_type(*$C$DW$T$186)
   11748                      .dwattr $C$DW$1152, DW_AT_name("bit")
   11749                      .dwattr $C$DW$1152, DW_AT_TI_symbol_name("_bit")
TMS320C2000 Assembler PC v16.9.6 Tue Mar 06 18:34:46 2018

Tools Copyright (c) 1996-2017 Texas Instruments Incorporated
C:\Users\Admin\AppData\Local\Temp\{ED9AE313-281A-4435-8F2A-5411619B06A2} PAGE  222

   11750                      .dwattr $C$DW$1152, DW_AT_data_member_location[DW_OP_plus_uconst 0x0]
   11751                      .dwattr $C$DW$1152, DW_AT_accessibility(DW_ACCESS_public)
   11752              
   11753                      .dwendtag $C$DW$T$187
   11754              
   11755              
   11756              $C$DW$T$188     .dwtag  DW_TAG_structure_type
   11757                      .dwattr $C$DW$T$188, DW_AT_name("TZEINT_BITS")
   11758                      .dwattr $C$DW$T$188, DW_AT_byte_size(0x01)
   11759              $C$DW$1153      .dwtag  DW_TAG_member
   11760                      .dwattr $C$DW$1153, DW_AT_type(*$C$DW$T$19)
   11761                      .dwattr $C$DW$1153, DW_AT_name("rsvd1")
   11762                      .dwattr $C$DW$1153, DW_AT_TI_symbol_name("_rsvd1")
   11763                      .dwattr $C$DW$1153, DW_AT_bit_offset(0x0f)
   11764                      .dwattr $C$DW$1153, DW_AT_bit_size(0x01)
   11765                      .dwattr $C$DW$1153, DW_AT_data_member_location[DW_OP_plus_uconst 0x0]
   11766                      .dwattr $C$DW$1153, DW_AT_accessibility(DW_ACCESS_public)
   11767              
   11768              $C$DW$1154      .dwtag  DW_TAG_member
   11769                      .dwattr $C$DW$1154, DW_AT_type(*$C$DW$T$19)
   11770                      .dwattr $C$DW$1154, DW_AT_name("CBC")
   11771                      .dwattr $C$DW$1154, DW_AT_TI_symbol_name("_CBC")
   11772                      .dwattr $C$DW$1154, DW_AT_bit_offset(0x0e)
   11773                      .dwattr $C$DW$1154, DW_AT_bit_size(0x01)
   11774                      .dwattr $C$DW$1154, DW_AT_data_member_location[DW_OP_plus_uconst 0x0]
   11775                      .dwattr $C$DW$1154, DW_AT_accessibility(DW_ACCESS_public)
   11776              
   11777              $C$DW$1155      .dwtag  DW_TAG_member
   11778                      .dwattr $C$DW$1155, DW_AT_type(*$C$DW$T$19)
   11779                      .dwattr $C$DW$1155, DW_AT_name("OST")
   11780                      .dwattr $C$DW$1155, DW_AT_TI_symbol_name("_OST")
   11781                      .dwattr $C$DW$1155, DW_AT_bit_offset(0x0d)
   11782                      .dwattr $C$DW$1155, DW_AT_bit_size(0x01)
   11783                      .dwattr $C$DW$1155, DW_AT_data_member_location[DW_OP_plus_uconst 0x0]
   11784                      .dwattr $C$DW$1155, DW_AT_accessibility(DW_ACCESS_public)
   11785              
   11786              $C$DW$1156      .dwtag  DW_TAG_member
   11787                      .dwattr $C$DW$1156, DW_AT_type(*$C$DW$T$19)
   11788                      .dwattr $C$DW$1156, DW_AT_name("DCAEVT1")
   11789                      .dwattr $C$DW$1156, DW_AT_TI_symbol_name("_DCAEVT1")
   11790                      .dwattr $C$DW$1156, DW_AT_bit_offset(0x0c)
   11791                      .dwattr $C$DW$1156, DW_AT_bit_size(0x01)
   11792                      .dwattr $C$DW$1156, DW_AT_data_member_location[DW_OP_plus_uconst 0x0]
   11793                      .dwattr $C$DW$1156, DW_AT_accessibility(DW_ACCESS_public)
   11794              
   11795              $C$DW$1157      .dwtag  DW_TAG_member
   11796                      .dwattr $C$DW$1157, DW_AT_type(*$C$DW$T$19)
   11797                      .dwattr $C$DW$1157, DW_AT_name("DCAEVT2")
   11798                      .dwattr $C$DW$1157, DW_AT_TI_symbol_name("_DCAEVT2")
   11799                      .dwattr $C$DW$1157, DW_AT_bit_offset(0x0b)
   11800                      .dwattr $C$DW$1157, DW_AT_bit_size(0x01)
   11801                      .dwattr $C$DW$1157, DW_AT_data_member_location[DW_OP_plus_uconst 0x0]
   11802                      .dwattr $C$DW$1157, DW_AT_accessibility(DW_ACCESS_public)
   11803              
   11804              $C$DW$1158      .dwtag  DW_TAG_member
TMS320C2000 Assembler PC v16.9.6 Tue Mar 06 18:34:46 2018

Tools Copyright (c) 1996-2017 Texas Instruments Incorporated
C:\Users\Admin\AppData\Local\Temp\{ED9AE313-281A-4435-8F2A-5411619B06A2} PAGE  223

   11805                      .dwattr $C$DW$1158, DW_AT_type(*$C$DW$T$19)
   11806                      .dwattr $C$DW$1158, DW_AT_name("DCBEVT1")
   11807                      .dwattr $C$DW$1158, DW_AT_TI_symbol_name("_DCBEVT1")
   11808                      .dwattr $C$DW$1158, DW_AT_bit_offset(0x0a)
   11809                      .dwattr $C$DW$1158, DW_AT_bit_size(0x01)
   11810                      .dwattr $C$DW$1158, DW_AT_data_member_location[DW_OP_plus_uconst 0x0]
   11811                      .dwattr $C$DW$1158, DW_AT_accessibility(DW_ACCESS_public)
   11812              
   11813              $C$DW$1159      .dwtag  DW_TAG_member
   11814                      .dwattr $C$DW$1159, DW_AT_type(*$C$DW$T$19)
   11815                      .dwattr $C$DW$1159, DW_AT_name("DCBEVT2")
   11816                      .dwattr $C$DW$1159, DW_AT_TI_symbol_name("_DCBEVT2")
   11817                      .dwattr $C$DW$1159, DW_AT_bit_offset(0x09)
   11818                      .dwattr $C$DW$1159, DW_AT_bit_size(0x01)
   11819                      .dwattr $C$DW$1159, DW_AT_data_member_location[DW_OP_plus_uconst 0x0]
   11820                      .dwattr $C$DW$1159, DW_AT_accessibility(DW_ACCESS_public)
   11821              
   11822              $C$DW$1160      .dwtag  DW_TAG_member
   11823                      .dwattr $C$DW$1160, DW_AT_type(*$C$DW$T$19)
   11824                      .dwattr $C$DW$1160, DW_AT_name("rsvd2")
   11825                      .dwattr $C$DW$1160, DW_AT_TI_symbol_name("_rsvd2")
   11826                      .dwattr $C$DW$1160, DW_AT_bit_offset(0x00)
   11827                      .dwattr $C$DW$1160, DW_AT_bit_size(0x09)
   11828                      .dwattr $C$DW$1160, DW_AT_data_member_location[DW_OP_plus_uconst 0x0]
   11829                      .dwattr $C$DW$1160, DW_AT_accessibility(DW_ACCESS_public)
   11830              
   11831                      .dwendtag $C$DW$T$188
   11832              
   11833              
   11834              $C$DW$T$189     .dwtag  DW_TAG_union_type
   11835                      .dwattr $C$DW$T$189, DW_AT_name("TZEINT_REG")
   11836                      .dwattr $C$DW$T$189, DW_AT_byte_size(0x01)
   11837              $C$DW$1161      .dwtag  DW_TAG_member
   11838                      .dwattr $C$DW$1161, DW_AT_type(*$C$DW$T$19)
   11839                      .dwattr $C$DW$1161, DW_AT_name("all")
   11840                      .dwattr $C$DW$1161, DW_AT_TI_symbol_name("_all")
   11841                      .dwattr $C$DW$1161, DW_AT_data_member_location[DW_OP_plus_uconst 0x0]
   11842                      .dwattr $C$DW$1161, DW_AT_accessibility(DW_ACCESS_public)
   11843              
   11844              $C$DW$1162      .dwtag  DW_TAG_member
   11845                      .dwattr $C$DW$1162, DW_AT_type(*$C$DW$T$188)
   11846                      .dwattr $C$DW$1162, DW_AT_name("bit")
   11847                      .dwattr $C$DW$1162, DW_AT_TI_symbol_name("_bit")
   11848                      .dwattr $C$DW$1162, DW_AT_data_member_location[DW_OP_plus_uconst 0x0]
   11849                      .dwattr $C$DW$1162, DW_AT_accessibility(DW_ACCESS_public)
   11850              
   11851                      .dwendtag $C$DW$T$189
   11852              
   11853              
   11854              $C$DW$T$190     .dwtag  DW_TAG_structure_type
   11855                      .dwattr $C$DW$T$190, DW_AT_name("TZFLG_BITS")
   11856                      .dwattr $C$DW$T$190, DW_AT_byte_size(0x01)
   11857              $C$DW$1163      .dwtag  DW_TAG_member
   11858                      .dwattr $C$DW$1163, DW_AT_type(*$C$DW$T$19)
   11859                      .dwattr $C$DW$1163, DW_AT_name("INT")
TMS320C2000 Assembler PC v16.9.6 Tue Mar 06 18:34:46 2018

Tools Copyright (c) 1996-2017 Texas Instruments Incorporated
C:\Users\Admin\AppData\Local\Temp\{ED9AE313-281A-4435-8F2A-5411619B06A2} PAGE  224

   11860                      .dwattr $C$DW$1163, DW_AT_TI_symbol_name("_INT")
   11861                      .dwattr $C$DW$1163, DW_AT_bit_offset(0x0f)
   11862                      .dwattr $C$DW$1163, DW_AT_bit_size(0x01)
   11863                      .dwattr $C$DW$1163, DW_AT_data_member_location[DW_OP_plus_uconst 0x0]
   11864                      .dwattr $C$DW$1163, DW_AT_accessibility(DW_ACCESS_public)
   11865              
   11866              $C$DW$1164      .dwtag  DW_TAG_member
   11867                      .dwattr $C$DW$1164, DW_AT_type(*$C$DW$T$19)
   11868                      .dwattr $C$DW$1164, DW_AT_name("CBC")
   11869                      .dwattr $C$DW$1164, DW_AT_TI_symbol_name("_CBC")
   11870                      .dwattr $C$DW$1164, DW_AT_bit_offset(0x0e)
   11871                      .dwattr $C$DW$1164, DW_AT_bit_size(0x01)
   11872                      .dwattr $C$DW$1164, DW_AT_data_member_location[DW_OP_plus_uconst 0x0]
   11873                      .dwattr $C$DW$1164, DW_AT_accessibility(DW_ACCESS_public)
   11874              
   11875              $C$DW$1165      .dwtag  DW_TAG_member
   11876                      .dwattr $C$DW$1165, DW_AT_type(*$C$DW$T$19)
   11877                      .dwattr $C$DW$1165, DW_AT_name("OST")
   11878                      .dwattr $C$DW$1165, DW_AT_TI_symbol_name("_OST")
   11879                      .dwattr $C$DW$1165, DW_AT_bit_offset(0x0d)
   11880                      .dwattr $C$DW$1165, DW_AT_bit_size(0x01)
   11881                      .dwattr $C$DW$1165, DW_AT_data_member_location[DW_OP_plus_uconst 0x0]
   11882                      .dwattr $C$DW$1165, DW_AT_accessibility(DW_ACCESS_public)
   11883              
   11884              $C$DW$1166      .dwtag  DW_TAG_member
   11885                      .dwattr $C$DW$1166, DW_AT_type(*$C$DW$T$19)
   11886                      .dwattr $C$DW$1166, DW_AT_name("DCAEVT1")
   11887                      .dwattr $C$DW$1166, DW_AT_TI_symbol_name("_DCAEVT1")
   11888                      .dwattr $C$DW$1166, DW_AT_bit_offset(0x0c)
   11889                      .dwattr $C$DW$1166, DW_AT_bit_size(0x01)
   11890                      .dwattr $C$DW$1166, DW_AT_data_member_location[DW_OP_plus_uconst 0x0]
   11891                      .dwattr $C$DW$1166, DW_AT_accessibility(DW_ACCESS_public)
   11892              
   11893              $C$DW$1167      .dwtag  DW_TAG_member
   11894                      .dwattr $C$DW$1167, DW_AT_type(*$C$DW$T$19)
   11895                      .dwattr $C$DW$1167, DW_AT_name("DCAEVT2")
   11896                      .dwattr $C$DW$1167, DW_AT_TI_symbol_name("_DCAEVT2")
   11897                      .dwattr $C$DW$1167, DW_AT_bit_offset(0x0b)
   11898                      .dwattr $C$DW$1167, DW_AT_bit_size(0x01)
   11899                      .dwattr $C$DW$1167, DW_AT_data_member_location[DW_OP_plus_uconst 0x0]
   11900                      .dwattr $C$DW$1167, DW_AT_accessibility(DW_ACCESS_public)
   11901              
   11902              $C$DW$1168      .dwtag  DW_TAG_member
   11903                      .dwattr $C$DW$1168, DW_AT_type(*$C$DW$T$19)
   11904                      .dwattr $C$DW$1168, DW_AT_name("DCBEVT1")
   11905                      .dwattr $C$DW$1168, DW_AT_TI_symbol_name("_DCBEVT1")
   11906                      .dwattr $C$DW$1168, DW_AT_bit_offset(0x0a)
   11907                      .dwattr $C$DW$1168, DW_AT_bit_size(0x01)
   11908                      .dwattr $C$DW$1168, DW_AT_data_member_location[DW_OP_plus_uconst 0x0]
   11909                      .dwattr $C$DW$1168, DW_AT_accessibility(DW_ACCESS_public)
   11910              
   11911              $C$DW$1169      .dwtag  DW_TAG_member
   11912                      .dwattr $C$DW$1169, DW_AT_type(*$C$DW$T$19)
   11913                      .dwattr $C$DW$1169, DW_AT_name("DCBEVT2")
   11914                      .dwattr $C$DW$1169, DW_AT_TI_symbol_name("_DCBEVT2")
TMS320C2000 Assembler PC v16.9.6 Tue Mar 06 18:34:46 2018

Tools Copyright (c) 1996-2017 Texas Instruments Incorporated
C:\Users\Admin\AppData\Local\Temp\{ED9AE313-281A-4435-8F2A-5411619B06A2} PAGE  225

   11915                      .dwattr $C$DW$1169, DW_AT_bit_offset(0x09)
   11916                      .dwattr $C$DW$1169, DW_AT_bit_size(0x01)
   11917                      .dwattr $C$DW$1169, DW_AT_data_member_location[DW_OP_plus_uconst 0x0]
   11918                      .dwattr $C$DW$1169, DW_AT_accessibility(DW_ACCESS_public)
   11919              
   11920              $C$DW$1170      .dwtag  DW_TAG_member
   11921                      .dwattr $C$DW$1170, DW_AT_type(*$C$DW$T$19)
   11922                      .dwattr $C$DW$1170, DW_AT_name("rsvd2")
   11923                      .dwattr $C$DW$1170, DW_AT_TI_symbol_name("_rsvd2")
   11924                      .dwattr $C$DW$1170, DW_AT_bit_offset(0x00)
   11925                      .dwattr $C$DW$1170, DW_AT_bit_size(0x09)
   11926                      .dwattr $C$DW$1170, DW_AT_data_member_location[DW_OP_plus_uconst 0x0]
   11927                      .dwattr $C$DW$1170, DW_AT_accessibility(DW_ACCESS_public)
   11928              
   11929                      .dwendtag $C$DW$T$190
   11930              
   11931              
   11932              $C$DW$T$191     .dwtag  DW_TAG_union_type
   11933                      .dwattr $C$DW$T$191, DW_AT_name("TZFLG_REG")
   11934                      .dwattr $C$DW$T$191, DW_AT_byte_size(0x01)
   11935              $C$DW$1171      .dwtag  DW_TAG_member
   11936                      .dwattr $C$DW$1171, DW_AT_type(*$C$DW$T$19)
   11937                      .dwattr $C$DW$1171, DW_AT_name("all")
   11938                      .dwattr $C$DW$1171, DW_AT_TI_symbol_name("_all")
   11939                      .dwattr $C$DW$1171, DW_AT_data_member_location[DW_OP_plus_uconst 0x0]
   11940                      .dwattr $C$DW$1171, DW_AT_accessibility(DW_ACCESS_public)
   11941              
   11942              $C$DW$1172      .dwtag  DW_TAG_member
   11943                      .dwattr $C$DW$1172, DW_AT_type(*$C$DW$T$190)
   11944                      .dwattr $C$DW$1172, DW_AT_name("bit")
   11945                      .dwattr $C$DW$1172, DW_AT_TI_symbol_name("_bit")
   11946                      .dwattr $C$DW$1172, DW_AT_data_member_location[DW_OP_plus_uconst 0x0]
   11947                      .dwattr $C$DW$1172, DW_AT_accessibility(DW_ACCESS_public)
   11948              
   11949                      .dwendtag $C$DW$T$191
   11950              
   11951              
   11952              $C$DW$T$192     .dwtag  DW_TAG_structure_type
   11953                      .dwattr $C$DW$T$192, DW_AT_name("TZFRC_BITS")
   11954                      .dwattr $C$DW$T$192, DW_AT_byte_size(0x01)
   11955              $C$DW$1173      .dwtag  DW_TAG_member
   11956                      .dwattr $C$DW$1173, DW_AT_type(*$C$DW$T$19)
   11957                      .dwattr $C$DW$1173, DW_AT_name("rsvd1")
   11958                      .dwattr $C$DW$1173, DW_AT_TI_symbol_name("_rsvd1")
   11959                      .dwattr $C$DW$1173, DW_AT_bit_offset(0x0f)
   11960                      .dwattr $C$DW$1173, DW_AT_bit_size(0x01)
   11961                      .dwattr $C$DW$1173, DW_AT_data_member_location[DW_OP_plus_uconst 0x0]
   11962                      .dwattr $C$DW$1173, DW_AT_accessibility(DW_ACCESS_public)
   11963              
   11964              $C$DW$1174      .dwtag  DW_TAG_member
   11965                      .dwattr $C$DW$1174, DW_AT_type(*$C$DW$T$19)
   11966                      .dwattr $C$DW$1174, DW_AT_name("CBC")
   11967                      .dwattr $C$DW$1174, DW_AT_TI_symbol_name("_CBC")
   11968                      .dwattr $C$DW$1174, DW_AT_bit_offset(0x0e)
   11969                      .dwattr $C$DW$1174, DW_AT_bit_size(0x01)
TMS320C2000 Assembler PC v16.9.6 Tue Mar 06 18:34:46 2018

Tools Copyright (c) 1996-2017 Texas Instruments Incorporated
C:\Users\Admin\AppData\Local\Temp\{ED9AE313-281A-4435-8F2A-5411619B06A2} PAGE  226

   11970                      .dwattr $C$DW$1174, DW_AT_data_member_location[DW_OP_plus_uconst 0x0]
   11971                      .dwattr $C$DW$1174, DW_AT_accessibility(DW_ACCESS_public)
   11972              
   11973              $C$DW$1175      .dwtag  DW_TAG_member
   11974                      .dwattr $C$DW$1175, DW_AT_type(*$C$DW$T$19)
   11975                      .dwattr $C$DW$1175, DW_AT_name("OST")
   11976                      .dwattr $C$DW$1175, DW_AT_TI_symbol_name("_OST")
   11977                      .dwattr $C$DW$1175, DW_AT_bit_offset(0x0d)
   11978                      .dwattr $C$DW$1175, DW_AT_bit_size(0x01)
   11979                      .dwattr $C$DW$1175, DW_AT_data_member_location[DW_OP_plus_uconst 0x0]
   11980                      .dwattr $C$DW$1175, DW_AT_accessibility(DW_ACCESS_public)
   11981              
   11982              $C$DW$1176      .dwtag  DW_TAG_member
   11983                      .dwattr $C$DW$1176, DW_AT_type(*$C$DW$T$19)
   11984                      .dwattr $C$DW$1176, DW_AT_name("DCAEVT1")
   11985                      .dwattr $C$DW$1176, DW_AT_TI_symbol_name("_DCAEVT1")
   11986                      .dwattr $C$DW$1176, DW_AT_bit_offset(0x0c)
   11987                      .dwattr $C$DW$1176, DW_AT_bit_size(0x01)
   11988                      .dwattr $C$DW$1176, DW_AT_data_member_location[DW_OP_plus_uconst 0x0]
   11989                      .dwattr $C$DW$1176, DW_AT_accessibility(DW_ACCESS_public)
   11990              
   11991              $C$DW$1177      .dwtag  DW_TAG_member
   11992                      .dwattr $C$DW$1177, DW_AT_type(*$C$DW$T$19)
   11993                      .dwattr $C$DW$1177, DW_AT_name("DCAEVT2")
   11994                      .dwattr $C$DW$1177, DW_AT_TI_symbol_name("_DCAEVT2")
   11995                      .dwattr $C$DW$1177, DW_AT_bit_offset(0x0b)
   11996                      .dwattr $C$DW$1177, DW_AT_bit_size(0x01)
   11997                      .dwattr $C$DW$1177, DW_AT_data_member_location[DW_OP_plus_uconst 0x0]
   11998                      .dwattr $C$DW$1177, DW_AT_accessibility(DW_ACCESS_public)
   11999              
   12000              $C$DW$1178      .dwtag  DW_TAG_member
   12001                      .dwattr $C$DW$1178, DW_AT_type(*$C$DW$T$19)
   12002                      .dwattr $C$DW$1178, DW_AT_name("DCBEVT1")
   12003                      .dwattr $C$DW$1178, DW_AT_TI_symbol_name("_DCBEVT1")
   12004                      .dwattr $C$DW$1178, DW_AT_bit_offset(0x0a)
   12005                      .dwattr $C$DW$1178, DW_AT_bit_size(0x01)
   12006                      .dwattr $C$DW$1178, DW_AT_data_member_location[DW_OP_plus_uconst 0x0]
   12007                      .dwattr $C$DW$1178, DW_AT_accessibility(DW_ACCESS_public)
   12008              
   12009              $C$DW$1179      .dwtag  DW_TAG_member
   12010                      .dwattr $C$DW$1179, DW_AT_type(*$C$DW$T$19)
   12011                      .dwattr $C$DW$1179, DW_AT_name("DCBEVT2")
   12012                      .dwattr $C$DW$1179, DW_AT_TI_symbol_name("_DCBEVT2")
   12013                      .dwattr $C$DW$1179, DW_AT_bit_offset(0x09)
   12014                      .dwattr $C$DW$1179, DW_AT_bit_size(0x01)
   12015                      .dwattr $C$DW$1179, DW_AT_data_member_location[DW_OP_plus_uconst 0x0]
   12016                      .dwattr $C$DW$1179, DW_AT_accessibility(DW_ACCESS_public)
   12017              
   12018              $C$DW$1180      .dwtag  DW_TAG_member
   12019                      .dwattr $C$DW$1180, DW_AT_type(*$C$DW$T$19)
   12020                      .dwattr $C$DW$1180, DW_AT_name("rsvd2")
   12021                      .dwattr $C$DW$1180, DW_AT_TI_symbol_name("_rsvd2")
   12022                      .dwattr $C$DW$1180, DW_AT_bit_offset(0x00)
   12023                      .dwattr $C$DW$1180, DW_AT_bit_size(0x09)
   12024                      .dwattr $C$DW$1180, DW_AT_data_member_location[DW_OP_plus_uconst 0x0]
TMS320C2000 Assembler PC v16.9.6 Tue Mar 06 18:34:46 2018

Tools Copyright (c) 1996-2017 Texas Instruments Incorporated
C:\Users\Admin\AppData\Local\Temp\{ED9AE313-281A-4435-8F2A-5411619B06A2} PAGE  227

   12025                      .dwattr $C$DW$1180, DW_AT_accessibility(DW_ACCESS_public)
   12026              
   12027                      .dwendtag $C$DW$T$192
   12028              
   12029              
   12030              $C$DW$T$193     .dwtag  DW_TAG_union_type
   12031                      .dwattr $C$DW$T$193, DW_AT_name("TZFRC_REG")
   12032                      .dwattr $C$DW$T$193, DW_AT_byte_size(0x01)
   12033              $C$DW$1181      .dwtag  DW_TAG_member
   12034                      .dwattr $C$DW$1181, DW_AT_type(*$C$DW$T$19)
   12035                      .dwattr $C$DW$1181, DW_AT_name("all")
   12036                      .dwattr $C$DW$1181, DW_AT_TI_symbol_name("_all")
   12037                      .dwattr $C$DW$1181, DW_AT_data_member_location[DW_OP_plus_uconst 0x0]
   12038                      .dwattr $C$DW$1181, DW_AT_accessibility(DW_ACCESS_public)
   12039              
   12040              $C$DW$1182      .dwtag  DW_TAG_member
   12041                      .dwattr $C$DW$1182, DW_AT_type(*$C$DW$T$192)
   12042                      .dwattr $C$DW$1182, DW_AT_name("bit")
   12043                      .dwattr $C$DW$1182, DW_AT_TI_symbol_name("_bit")
   12044                      .dwattr $C$DW$1182, DW_AT_data_member_location[DW_OP_plus_uconst 0x0]
   12045                      .dwattr $C$DW$1182, DW_AT_accessibility(DW_ACCESS_public)
   12046              
   12047                      .dwendtag $C$DW$T$193
   12048              
   12049              
   12050              $C$DW$T$194     .dwtag  DW_TAG_structure_type
   12051                      .dwattr $C$DW$T$194, DW_AT_name("TZSEL_BITS")
   12052                      .dwattr $C$DW$T$194, DW_AT_byte_size(0x01)
   12053              $C$DW$1183      .dwtag  DW_TAG_member
   12054                      .dwattr $C$DW$1183, DW_AT_type(*$C$DW$T$19)
   12055                      .dwattr $C$DW$1183, DW_AT_name("CBC1")
   12056                      .dwattr $C$DW$1183, DW_AT_TI_symbol_name("_CBC1")
   12057                      .dwattr $C$DW$1183, DW_AT_bit_offset(0x0f)
   12058                      .dwattr $C$DW$1183, DW_AT_bit_size(0x01)
   12059                      .dwattr $C$DW$1183, DW_AT_data_member_location[DW_OP_plus_uconst 0x0]
   12060                      .dwattr $C$DW$1183, DW_AT_accessibility(DW_ACCESS_public)
   12061              
   12062              $C$DW$1184      .dwtag  DW_TAG_member
   12063                      .dwattr $C$DW$1184, DW_AT_type(*$C$DW$T$19)
   12064                      .dwattr $C$DW$1184, DW_AT_name("CBC2")
   12065                      .dwattr $C$DW$1184, DW_AT_TI_symbol_name("_CBC2")
   12066                      .dwattr $C$DW$1184, DW_AT_bit_offset(0x0e)
   12067                      .dwattr $C$DW$1184, DW_AT_bit_size(0x01)
   12068                      .dwattr $C$DW$1184, DW_AT_data_member_location[DW_OP_plus_uconst 0x0]
   12069                      .dwattr $C$DW$1184, DW_AT_accessibility(DW_ACCESS_public)
   12070              
   12071              $C$DW$1185      .dwtag  DW_TAG_member
   12072                      .dwattr $C$DW$1185, DW_AT_type(*$C$DW$T$19)
   12073                      .dwattr $C$DW$1185, DW_AT_name("CBC3")
   12074                      .dwattr $C$DW$1185, DW_AT_TI_symbol_name("_CBC3")
   12075                      .dwattr $C$DW$1185, DW_AT_bit_offset(0x0d)
   12076                      .dwattr $C$DW$1185, DW_AT_bit_size(0x01)
   12077                      .dwattr $C$DW$1185, DW_AT_data_member_location[DW_OP_plus_uconst 0x0]
   12078                      .dwattr $C$DW$1185, DW_AT_accessibility(DW_ACCESS_public)
   12079              
TMS320C2000 Assembler PC v16.9.6 Tue Mar 06 18:34:46 2018

Tools Copyright (c) 1996-2017 Texas Instruments Incorporated
C:\Users\Admin\AppData\Local\Temp\{ED9AE313-281A-4435-8F2A-5411619B06A2} PAGE  228

   12080              $C$DW$1186      .dwtag  DW_TAG_member
   12081                      .dwattr $C$DW$1186, DW_AT_type(*$C$DW$T$19)
   12082                      .dwattr $C$DW$1186, DW_AT_name("CBC4")
   12083                      .dwattr $C$DW$1186, DW_AT_TI_symbol_name("_CBC4")
   12084                      .dwattr $C$DW$1186, DW_AT_bit_offset(0x0c)
   12085                      .dwattr $C$DW$1186, DW_AT_bit_size(0x01)
   12086                      .dwattr $C$DW$1186, DW_AT_data_member_location[DW_OP_plus_uconst 0x0]
   12087                      .dwattr $C$DW$1186, DW_AT_accessibility(DW_ACCESS_public)
   12088              
   12089              $C$DW$1187      .dwtag  DW_TAG_member
   12090                      .dwattr $C$DW$1187, DW_AT_type(*$C$DW$T$19)
   12091                      .dwattr $C$DW$1187, DW_AT_name("CBC5")
   12092                      .dwattr $C$DW$1187, DW_AT_TI_symbol_name("_CBC5")
   12093                      .dwattr $C$DW$1187, DW_AT_bit_offset(0x0b)
   12094                      .dwattr $C$DW$1187, DW_AT_bit_size(0x01)
   12095                      .dwattr $C$DW$1187, DW_AT_data_member_location[DW_OP_plus_uconst 0x0]
   12096                      .dwattr $C$DW$1187, DW_AT_accessibility(DW_ACCESS_public)
   12097              
   12098              $C$DW$1188      .dwtag  DW_TAG_member
   12099                      .dwattr $C$DW$1188, DW_AT_type(*$C$DW$T$19)
   12100                      .dwattr $C$DW$1188, DW_AT_name("CBC6")
   12101                      .dwattr $C$DW$1188, DW_AT_TI_symbol_name("_CBC6")
   12102                      .dwattr $C$DW$1188, DW_AT_bit_offset(0x0a)
   12103                      .dwattr $C$DW$1188, DW_AT_bit_size(0x01)
   12104                      .dwattr $C$DW$1188, DW_AT_data_member_location[DW_OP_plus_uconst 0x0]
   12105                      .dwattr $C$DW$1188, DW_AT_accessibility(DW_ACCESS_public)
   12106              
   12107              $C$DW$1189      .dwtag  DW_TAG_member
   12108                      .dwattr $C$DW$1189, DW_AT_type(*$C$DW$T$19)
   12109                      .dwattr $C$DW$1189, DW_AT_name("DCAEVT2")
   12110                      .dwattr $C$DW$1189, DW_AT_TI_symbol_name("_DCAEVT2")
   12111                      .dwattr $C$DW$1189, DW_AT_bit_offset(0x09)
   12112                      .dwattr $C$DW$1189, DW_AT_bit_size(0x01)
   12113                      .dwattr $C$DW$1189, DW_AT_data_member_location[DW_OP_plus_uconst 0x0]
   12114                      .dwattr $C$DW$1189, DW_AT_accessibility(DW_ACCESS_public)
   12115              
   12116              $C$DW$1190      .dwtag  DW_TAG_member
   12117                      .dwattr $C$DW$1190, DW_AT_type(*$C$DW$T$19)
   12118                      .dwattr $C$DW$1190, DW_AT_name("DCBEVT2")
   12119                      .dwattr $C$DW$1190, DW_AT_TI_symbol_name("_DCBEVT2")
   12120                      .dwattr $C$DW$1190, DW_AT_bit_offset(0x08)
   12121                      .dwattr $C$DW$1190, DW_AT_bit_size(0x01)
   12122                      .dwattr $C$DW$1190, DW_AT_data_member_location[DW_OP_plus_uconst 0x0]
   12123                      .dwattr $C$DW$1190, DW_AT_accessibility(DW_ACCESS_public)
   12124              
   12125              $C$DW$1191      .dwtag  DW_TAG_member
   12126                      .dwattr $C$DW$1191, DW_AT_type(*$C$DW$T$19)
   12127                      .dwattr $C$DW$1191, DW_AT_name("OSHT1")
   12128                      .dwattr $C$DW$1191, DW_AT_TI_symbol_name("_OSHT1")
   12129                      .dwattr $C$DW$1191, DW_AT_bit_offset(0x07)
   12130                      .dwattr $C$DW$1191, DW_AT_bit_size(0x01)
   12131                      .dwattr $C$DW$1191, DW_AT_data_member_location[DW_OP_plus_uconst 0x0]
   12132                      .dwattr $C$DW$1191, DW_AT_accessibility(DW_ACCESS_public)
   12133              
   12134              $C$DW$1192      .dwtag  DW_TAG_member
TMS320C2000 Assembler PC v16.9.6 Tue Mar 06 18:34:46 2018

Tools Copyright (c) 1996-2017 Texas Instruments Incorporated
C:\Users\Admin\AppData\Local\Temp\{ED9AE313-281A-4435-8F2A-5411619B06A2} PAGE  229

   12135                      .dwattr $C$DW$1192, DW_AT_type(*$C$DW$T$19)
   12136                      .dwattr $C$DW$1192, DW_AT_name("OSHT2")
   12137                      .dwattr $C$DW$1192, DW_AT_TI_symbol_name("_OSHT2")
   12138                      .dwattr $C$DW$1192, DW_AT_bit_offset(0x06)
   12139                      .dwattr $C$DW$1192, DW_AT_bit_size(0x01)
   12140                      .dwattr $C$DW$1192, DW_AT_data_member_location[DW_OP_plus_uconst 0x0]
   12141                      .dwattr $C$DW$1192, DW_AT_accessibility(DW_ACCESS_public)
   12142              
   12143              $C$DW$1193      .dwtag  DW_TAG_member
   12144                      .dwattr $C$DW$1193, DW_AT_type(*$C$DW$T$19)
   12145                      .dwattr $C$DW$1193, DW_AT_name("OSHT3")
   12146                      .dwattr $C$DW$1193, DW_AT_TI_symbol_name("_OSHT3")
   12147                      .dwattr $C$DW$1193, DW_AT_bit_offset(0x05)
   12148                      .dwattr $C$DW$1193, DW_AT_bit_size(0x01)
   12149                      .dwattr $C$DW$1193, DW_AT_data_member_location[DW_OP_plus_uconst 0x0]
   12150                      .dwattr $C$DW$1193, DW_AT_accessibility(DW_ACCESS_public)
   12151              
   12152              $C$DW$1194      .dwtag  DW_TAG_member
   12153                      .dwattr $C$DW$1194, DW_AT_type(*$C$DW$T$19)
   12154                      .dwattr $C$DW$1194, DW_AT_name("OSHT4")
   12155                      .dwattr $C$DW$1194, DW_AT_TI_symbol_name("_OSHT4")
   12156                      .dwattr $C$DW$1194, DW_AT_bit_offset(0x04)
   12157                      .dwattr $C$DW$1194, DW_AT_bit_size(0x01)
   12158                      .dwattr $C$DW$1194, DW_AT_data_member_location[DW_OP_plus_uconst 0x0]
   12159                      .dwattr $C$DW$1194, DW_AT_accessibility(DW_ACCESS_public)
   12160              
   12161              $C$DW$1195      .dwtag  DW_TAG_member
   12162                      .dwattr $C$DW$1195, DW_AT_type(*$C$DW$T$19)
   12163                      .dwattr $C$DW$1195, DW_AT_name("OSHT5")
   12164                      .dwattr $C$DW$1195, DW_AT_TI_symbol_name("_OSHT5")
   12165                      .dwattr $C$DW$1195, DW_AT_bit_offset(0x03)
   12166                      .dwattr $C$DW$1195, DW_AT_bit_size(0x01)
   12167                      .dwattr $C$DW$1195, DW_AT_data_member_location[DW_OP_plus_uconst 0x0]
   12168                      .dwattr $C$DW$1195, DW_AT_accessibility(DW_ACCESS_public)
   12169              
   12170              $C$DW$1196      .dwtag  DW_TAG_member
   12171                      .dwattr $C$DW$1196, DW_AT_type(*$C$DW$T$19)
   12172                      .dwattr $C$DW$1196, DW_AT_name("OSHT6")
   12173                      .dwattr $C$DW$1196, DW_AT_TI_symbol_name("_OSHT6")
   12174                      .dwattr $C$DW$1196, DW_AT_bit_offset(0x02)
   12175                      .dwattr $C$DW$1196, DW_AT_bit_size(0x01)
   12176                      .dwattr $C$DW$1196, DW_AT_data_member_location[DW_OP_plus_uconst 0x0]
   12177                      .dwattr $C$DW$1196, DW_AT_accessibility(DW_ACCESS_public)
   12178              
   12179              $C$DW$1197      .dwtag  DW_TAG_member
   12180                      .dwattr $C$DW$1197, DW_AT_type(*$C$DW$T$19)
   12181                      .dwattr $C$DW$1197, DW_AT_name("DCAEVT1")
   12182                      .dwattr $C$DW$1197, DW_AT_TI_symbol_name("_DCAEVT1")
   12183                      .dwattr $C$DW$1197, DW_AT_bit_offset(0x01)
   12184                      .dwattr $C$DW$1197, DW_AT_bit_size(0x01)
   12185                      .dwattr $C$DW$1197, DW_AT_data_member_location[DW_OP_plus_uconst 0x0]
   12186                      .dwattr $C$DW$1197, DW_AT_accessibility(DW_ACCESS_public)
   12187              
   12188              $C$DW$1198      .dwtag  DW_TAG_member
   12189                      .dwattr $C$DW$1198, DW_AT_type(*$C$DW$T$19)
TMS320C2000 Assembler PC v16.9.6 Tue Mar 06 18:34:46 2018

Tools Copyright (c) 1996-2017 Texas Instruments Incorporated
C:\Users\Admin\AppData\Local\Temp\{ED9AE313-281A-4435-8F2A-5411619B06A2} PAGE  230

   12190                      .dwattr $C$DW$1198, DW_AT_name("DCBEVT1")
   12191                      .dwattr $C$DW$1198, DW_AT_TI_symbol_name("_DCBEVT1")
   12192                      .dwattr $C$DW$1198, DW_AT_bit_offset(0x00)
   12193                      .dwattr $C$DW$1198, DW_AT_bit_size(0x01)
   12194                      .dwattr $C$DW$1198, DW_AT_data_member_location[DW_OP_plus_uconst 0x0]
   12195                      .dwattr $C$DW$1198, DW_AT_accessibility(DW_ACCESS_public)
   12196              
   12197                      .dwendtag $C$DW$T$194
   12198              
   12199              
   12200              $C$DW$T$195     .dwtag  DW_TAG_union_type
   12201                      .dwattr $C$DW$T$195, DW_AT_name("TZSEL_REG")
   12202                      .dwattr $C$DW$T$195, DW_AT_byte_size(0x01)
   12203              $C$DW$1199      .dwtag  DW_TAG_member
   12204                      .dwattr $C$DW$1199, DW_AT_type(*$C$DW$T$19)
   12205                      .dwattr $C$DW$1199, DW_AT_name("all")
   12206                      .dwattr $C$DW$1199, DW_AT_TI_symbol_name("_all")
   12207                      .dwattr $C$DW$1199, DW_AT_data_member_location[DW_OP_plus_uconst 0x0]
   12208                      .dwattr $C$DW$1199, DW_AT_accessibility(DW_ACCESS_public)
   12209              
   12210              $C$DW$1200      .dwtag  DW_TAG_member
   12211                      .dwattr $C$DW$1200, DW_AT_type(*$C$DW$T$194)
   12212                      .dwattr $C$DW$1200, DW_AT_name("bit")
   12213                      .dwattr $C$DW$1200, DW_AT_TI_symbol_name("_bit")
   12214                      .dwattr $C$DW$1200, DW_AT_data_member_location[DW_OP_plus_uconst 0x0]
   12215                      .dwattr $C$DW$1200, DW_AT_accessibility(DW_ACCESS_public)
   12216              
   12217                      .dwendtag $C$DW$T$195
   12218              
   12219              
   12220              $C$DW$T$196     .dwtag  DW_TAG_structure_type
   12221                      .dwattr $C$DW$T$196, DW_AT_name("XCLK_BITS")
   12222                      .dwattr $C$DW$T$196, DW_AT_byte_size(0x01)
   12223              $C$DW$1201      .dwtag  DW_TAG_member
   12224                      .dwattr $C$DW$1201, DW_AT_type(*$C$DW$T$19)
   12225                      .dwattr $C$DW$1201, DW_AT_name("XCLKOUTDIV")
   12226                      .dwattr $C$DW$1201, DW_AT_TI_symbol_name("_XCLKOUTDIV")
   12227                      .dwattr $C$DW$1201, DW_AT_bit_offset(0x0e)
   12228                      .dwattr $C$DW$1201, DW_AT_bit_size(0x02)
   12229                      .dwattr $C$DW$1201, DW_AT_data_member_location[DW_OP_plus_uconst 0x0]
   12230                      .dwattr $C$DW$1201, DW_AT_accessibility(DW_ACCESS_public)
   12231              
   12232              $C$DW$1202      .dwtag  DW_TAG_member
   12233                      .dwattr $C$DW$1202, DW_AT_type(*$C$DW$T$19)
   12234                      .dwattr $C$DW$1202, DW_AT_name("rsvd1")
   12235                      .dwattr $C$DW$1202, DW_AT_TI_symbol_name("_rsvd1")
   12236                      .dwattr $C$DW$1202, DW_AT_bit_offset(0x0a)
   12237                      .dwattr $C$DW$1202, DW_AT_bit_size(0x04)
   12238                      .dwattr $C$DW$1202, DW_AT_data_member_location[DW_OP_plus_uconst 0x0]
   12239                      .dwattr $C$DW$1202, DW_AT_accessibility(DW_ACCESS_public)
   12240              
   12241              $C$DW$1203      .dwtag  DW_TAG_member
   12242                      .dwattr $C$DW$1203, DW_AT_type(*$C$DW$T$19)
   12243                      .dwattr $C$DW$1203, DW_AT_name("XCLKINSEL")
   12244                      .dwattr $C$DW$1203, DW_AT_TI_symbol_name("_XCLKINSEL")
TMS320C2000 Assembler PC v16.9.6 Tue Mar 06 18:34:46 2018

Tools Copyright (c) 1996-2017 Texas Instruments Incorporated
C:\Users\Admin\AppData\Local\Temp\{ED9AE313-281A-4435-8F2A-5411619B06A2} PAGE  231

   12245                      .dwattr $C$DW$1203, DW_AT_bit_offset(0x09)
   12246                      .dwattr $C$DW$1203, DW_AT_bit_size(0x01)
   12247                      .dwattr $C$DW$1203, DW_AT_data_member_location[DW_OP_plus_uconst 0x0]
   12248                      .dwattr $C$DW$1203, DW_AT_accessibility(DW_ACCESS_public)
   12249              
   12250              $C$DW$1204      .dwtag  DW_TAG_member
   12251                      .dwattr $C$DW$1204, DW_AT_type(*$C$DW$T$19)
   12252                      .dwattr $C$DW$1204, DW_AT_name("rsvd3")
   12253                      .dwattr $C$DW$1204, DW_AT_TI_symbol_name("_rsvd3")
   12254                      .dwattr $C$DW$1204, DW_AT_bit_offset(0x00)
   12255                      .dwattr $C$DW$1204, DW_AT_bit_size(0x09)
   12256                      .dwattr $C$DW$1204, DW_AT_data_member_location[DW_OP_plus_uconst 0x0]
   12257                      .dwattr $C$DW$1204, DW_AT_accessibility(DW_ACCESS_public)
   12258              
   12259                      .dwendtag $C$DW$T$196
   12260              
   12261              
   12262              $C$DW$T$197     .dwtag  DW_TAG_union_type
   12263                      .dwattr $C$DW$T$197, DW_AT_name("XCLK_REG")
   12264                      .dwattr $C$DW$T$197, DW_AT_byte_size(0x01)
   12265              $C$DW$1205      .dwtag  DW_TAG_member
   12266                      .dwattr $C$DW$1205, DW_AT_type(*$C$DW$T$19)
   12267                      .dwattr $C$DW$1205, DW_AT_name("all")
   12268                      .dwattr $C$DW$1205, DW_AT_TI_symbol_name("_all")
   12269                      .dwattr $C$DW$1205, DW_AT_data_member_location[DW_OP_plus_uconst 0x0]
   12270                      .dwattr $C$DW$1205, DW_AT_accessibility(DW_ACCESS_public)
   12271              
   12272              $C$DW$1206      .dwtag  DW_TAG_member
   12273                      .dwattr $C$DW$1206, DW_AT_type(*$C$DW$T$196)
   12274                      .dwattr $C$DW$1206, DW_AT_name("bit")
   12275                      .dwattr $C$DW$1206, DW_AT_TI_symbol_name("_bit")
   12276                      .dwattr $C$DW$1206, DW_AT_data_member_location[DW_OP_plus_uconst 0x0]
   12277                      .dwattr $C$DW$1206, DW_AT_accessibility(DW_ACCESS_public)
   12278              
   12279                      .dwendtag $C$DW$T$197
   12280              
   12281              $C$DW$T$2       .dwtag  DW_TAG_unspecified_type
   12282                      .dwattr $C$DW$T$2, DW_AT_name("void")
   12283              
   12284              
   12285              $C$DW$T$163     .dwtag  DW_TAG_subroutine_type
   12286                      .dwattr $C$DW$T$163, DW_AT_language(DW_LANG_C)
   12287                      .dwendtag $C$DW$T$163
   12288              
   12289              $C$DW$T$164     .dwtag  DW_TAG_pointer_type
   12290                      .dwattr $C$DW$T$164, DW_AT_type(*$C$DW$T$163)
   12291                      .dwattr $C$DW$T$164, DW_AT_address_class(0x20)
   12292              
   12293              $C$DW$T$165     .dwtag  DW_TAG_typedef
   12294                      .dwattr $C$DW$T$165, DW_AT_name("PINT")
   12295                      .dwattr $C$DW$T$165, DW_AT_type(*$C$DW$T$164)
   12296                      .dwattr $C$DW$T$165, DW_AT_language(DW_LANG_C)
   12297              
   12298              $C$DW$T$4       .dwtag  DW_TAG_base_type
   12299                      .dwattr $C$DW$T$4, DW_AT_encoding(DW_ATE_boolean)
TMS320C2000 Assembler PC v16.9.6 Tue Mar 06 18:34:46 2018

Tools Copyright (c) 1996-2017 Texas Instruments Incorporated
C:\Users\Admin\AppData\Local\Temp\{ED9AE313-281A-4435-8F2A-5411619B06A2} PAGE  232

   12300                      .dwattr $C$DW$T$4, DW_AT_name("bool")
   12301                      .dwattr $C$DW$T$4, DW_AT_byte_size(0x01)
   12302              
   12303              $C$DW$T$5       .dwtag  DW_TAG_base_type
   12304                      .dwattr $C$DW$T$5, DW_AT_encoding(DW_ATE_signed_char)
   12305                      .dwattr $C$DW$T$5, DW_AT_name("signed char")
   12306                      .dwattr $C$DW$T$5, DW_AT_byte_size(0x01)
   12307              
   12308              $C$DW$T$6       .dwtag  DW_TAG_base_type
   12309                      .dwattr $C$DW$T$6, DW_AT_encoding(DW_ATE_unsigned_char)
   12310                      .dwattr $C$DW$T$6, DW_AT_name("unsigned char")
   12311                      .dwattr $C$DW$T$6, DW_AT_byte_size(0x01)
   12312              
   12313              $C$DW$1207      .dwtag  DW_TAG_TI_far_type
   12314                      .dwattr $C$DW$1207, DW_AT_type(*$C$DW$T$6)
   12315              
   12316              $C$DW$T$280     .dwtag  DW_TAG_volatile_type
   12317                      .dwattr $C$DW$T$280, DW_AT_type(*$C$DW$1207)
   12318              
   12319              $C$DW$T$7       .dwtag  DW_TAG_base_type
   12320                      .dwattr $C$DW$T$7, DW_AT_encoding(DW_ATE_signed_char)
   12321                      .dwattr $C$DW$T$7, DW_AT_name("wchar_t")
   12322                      .dwattr $C$DW$T$7, DW_AT_byte_size(0x01)
   12323              
   12324              $C$DW$T$8       .dwtag  DW_TAG_base_type
   12325                      .dwattr $C$DW$T$8, DW_AT_encoding(DW_ATE_signed)
   12326                      .dwattr $C$DW$T$8, DW_AT_name("short")
   12327                      .dwattr $C$DW$T$8, DW_AT_byte_size(0x01)
   12328              
   12329              $C$DW$T$9       .dwtag  DW_TAG_base_type
   12330                      .dwattr $C$DW$T$9, DW_AT_encoding(DW_ATE_unsigned)
   12331                      .dwattr $C$DW$T$9, DW_AT_name("unsigned short")
   12332                      .dwattr $C$DW$T$9, DW_AT_byte_size(0x01)
   12333              
   12334              $C$DW$T$10      .dwtag  DW_TAG_base_type
   12335                      .dwattr $C$DW$T$10, DW_AT_encoding(DW_ATE_signed)
   12336                      .dwattr $C$DW$T$10, DW_AT_name("int")
   12337                      .dwattr $C$DW$T$10, DW_AT_byte_size(0x01)
   12338              
   12339              $C$DW$1208      .dwtag  DW_TAG_TI_far_type
   12340                      .dwattr $C$DW$1208, DW_AT_type(*$C$DW$T$10)
   12341              
   12342              $C$DW$T$281     .dwtag  DW_TAG_volatile_type
   12343                      .dwattr $C$DW$T$281, DW_AT_type(*$C$DW$1208)
   12344              
   12345              $C$DW$T$30      .dwtag  DW_TAG_typedef
   12346                      .dwattr $C$DW$T$30, DW_AT_name("int16")
   12347                      .dwattr $C$DW$T$30, DW_AT_type(*$C$DW$T$10)
   12348                      .dwattr $C$DW$T$30, DW_AT_language(DW_LANG_C)
   12349              
   12350              $C$DW$T$11      .dwtag  DW_TAG_base_type
   12351                      .dwattr $C$DW$T$11, DW_AT_encoding(DW_ATE_unsigned)
   12352                      .dwattr $C$DW$T$11, DW_AT_name("unsigned int")
   12353                      .dwattr $C$DW$T$11, DW_AT_byte_size(0x01)
   12354              
TMS320C2000 Assembler PC v16.9.6 Tue Mar 06 18:34:46 2018

Tools Copyright (c) 1996-2017 Texas Instruments Incorporated
C:\Users\Admin\AppData\Local\Temp\{ED9AE313-281A-4435-8F2A-5411619B06A2} PAGE  233

   12355              $C$DW$T$19      .dwtag  DW_TAG_typedef
   12356                      .dwattr $C$DW$T$19, DW_AT_name("Uint16")
   12357                      .dwattr $C$DW$T$19, DW_AT_type(*$C$DW$T$11)
   12358                      .dwattr $C$DW$T$19, DW_AT_language(DW_LANG_C)
   12359              
   12360              
   12361              $C$DW$T$41      .dwtag  DW_TAG_array_type
   12362                      .dwattr $C$DW$T$41, DW_AT_type(*$C$DW$T$19)
   12363                      .dwattr $C$DW$T$41, DW_AT_language(DW_LANG_C)
   12364                      .dwattr $C$DW$T$41, DW_AT_byte_size(0x02)
   12365              $C$DW$1209      .dwtag  DW_TAG_subrange_type
   12366                      .dwattr $C$DW$1209, DW_AT_upper_bound(0x01)
   12367              
   12368                      .dwendtag $C$DW$T$41
   12369              
   12370              
   12371              $C$DW$T$42      .dwtag  DW_TAG_array_type
   12372                      .dwattr $C$DW$T$42, DW_AT_type(*$C$DW$T$19)
   12373                      .dwattr $C$DW$T$42, DW_AT_language(DW_LANG_C)
   12374                      .dwattr $C$DW$T$42, DW_AT_byte_size(0x03)
   12375              $C$DW$1210      .dwtag  DW_TAG_subrange_type
   12376                      .dwattr $C$DW$1210, DW_AT_upper_bound(0x02)
   12377              
   12378                      .dwendtag $C$DW$T$42
   12379              
   12380              
   12381              $C$DW$T$43      .dwtag  DW_TAG_array_type
   12382                      .dwattr $C$DW$T$43, DW_AT_type(*$C$DW$T$19)
   12383                      .dwattr $C$DW$T$43, DW_AT_language(DW_LANG_C)
   12384                      .dwattr $C$DW$T$43, DW_AT_byte_size(0x10)
   12385              $C$DW$1211      .dwtag  DW_TAG_subrange_type
   12386                      .dwattr $C$DW$1211, DW_AT_upper_bound(0x0f)
   12387              
   12388                      .dwendtag $C$DW$T$43
   12389              
   12390              
   12391              $C$DW$T$44      .dwtag  DW_TAG_array_type
   12392                      .dwattr $C$DW$T$44, DW_AT_type(*$C$DW$T$19)
   12393                      .dwattr $C$DW$T$44, DW_AT_language(DW_LANG_C)
   12394                      .dwattr $C$DW$T$44, DW_AT_byte_size(0x0e)
   12395              $C$DW$1212      .dwtag  DW_TAG_subrange_type
   12396                      .dwattr $C$DW$1212, DW_AT_upper_bound(0x0d)
   12397              
   12398                      .dwendtag $C$DW$T$44
   12399              
   12400              
   12401              $C$DW$T$67      .dwtag  DW_TAG_array_type
   12402                      .dwattr $C$DW$T$67, DW_AT_type(*$C$DW$T$19)
   12403                      .dwattr $C$DW$T$67, DW_AT_language(DW_LANG_C)
   12404                      .dwattr $C$DW$T$67, DW_AT_byte_size(0x0a)
   12405              $C$DW$1213      .dwtag  DW_TAG_subrange_type
   12406                      .dwattr $C$DW$1213, DW_AT_upper_bound(0x09)
   12407              
   12408                      .dwendtag $C$DW$T$67
   12409              
TMS320C2000 Assembler PC v16.9.6 Tue Mar 06 18:34:46 2018

Tools Copyright (c) 1996-2017 Texas Instruments Incorporated
C:\Users\Admin\AppData\Local\Temp\{ED9AE313-281A-4435-8F2A-5411619B06A2} PAGE  234

   12410              
   12411              $C$DW$T$81      .dwtag  DW_TAG_array_type
   12412                      .dwattr $C$DW$T$81, DW_AT_type(*$C$DW$T$19)
   12413                      .dwattr $C$DW$T$81, DW_AT_language(DW_LANG_C)
   12414                      .dwattr $C$DW$T$81, DW_AT_byte_size(0x08)
   12415              $C$DW$1214      .dwtag  DW_TAG_subrange_type
   12416                      .dwattr $C$DW$1214, DW_AT_upper_bound(0x07)
   12417              
   12418                      .dwendtag $C$DW$T$81
   12419              
   12420              
   12421              $C$DW$T$82      .dwtag  DW_TAG_array_type
   12422                      .dwattr $C$DW$T$82, DW_AT_type(*$C$DW$T$19)
   12423                      .dwattr $C$DW$T$82, DW_AT_language(DW_LANG_C)
   12424                      .dwattr $C$DW$T$82, DW_AT_byte_size(0x06)
   12425              $C$DW$1215      .dwtag  DW_TAG_subrange_type
   12426                      .dwattr $C$DW$1215, DW_AT_upper_bound(0x05)
   12427              
   12428                      .dwendtag $C$DW$T$82
   12429              
   12430              
   12431              $C$DW$T$92      .dwtag  DW_TAG_array_type
   12432                      .dwattr $C$DW$T$92, DW_AT_type(*$C$DW$T$19)
   12433                      .dwattr $C$DW$T$92, DW_AT_language(DW_LANG_C)
   12434                      .dwattr $C$DW$T$92, DW_AT_byte_size(0x04)
   12435              $C$DW$1216      .dwtag  DW_TAG_subrange_type
   12436                      .dwattr $C$DW$1216, DW_AT_upper_bound(0x03)
   12437              
   12438                      .dwendtag $C$DW$T$92
   12439              
   12440              
   12441              $C$DW$T$118     .dwtag  DW_TAG_array_type
   12442                      .dwattr $C$DW$T$118, DW_AT_type(*$C$DW$T$19)
   12443                      .dwattr $C$DW$T$118, DW_AT_language(DW_LANG_C)
   12444                      .dwattr $C$DW$T$118, DW_AT_byte_size(0x18)
   12445              $C$DW$1217      .dwtag  DW_TAG_subrange_type
   12446                      .dwattr $C$DW$1217, DW_AT_upper_bound(0x17)
   12447              
   12448                      .dwendtag $C$DW$T$118
   12449              
   12450              
   12451              $C$DW$T$119     .dwtag  DW_TAG_array_type
   12452                      .dwattr $C$DW$T$119, DW_AT_type(*$C$DW$T$19)
   12453                      .dwattr $C$DW$T$119, DW_AT_language(DW_LANG_C)
   12454                      .dwattr $C$DW$T$119, DW_AT_byte_size(0x05)
   12455              $C$DW$1218      .dwtag  DW_TAG_subrange_type
   12456                      .dwattr $C$DW$1218, DW_AT_upper_bound(0x04)
   12457              
   12458                      .dwendtag $C$DW$T$119
   12459              
   12460              $C$DW$T$277     .dwtag  DW_TAG_pointer_type
   12461                      .dwattr $C$DW$T$277, DW_AT_type(*$C$DW$T$19)
   12462                      .dwattr $C$DW$T$277, DW_AT_address_class(0x20)
   12463              
   12464              $C$DW$1219      .dwtag  DW_TAG_TI_far_type
TMS320C2000 Assembler PC v16.9.6 Tue Mar 06 18:34:46 2018

Tools Copyright (c) 1996-2017 Texas Instruments Incorporated
C:\Users\Admin\AppData\Local\Temp\{ED9AE313-281A-4435-8F2A-5411619B06A2} PAGE  235

   12465                      .dwattr $C$DW$1219, DW_AT_type(*$C$DW$T$11)
   12466              
   12467              $C$DW$T$283     .dwtag  DW_TAG_volatile_type
   12468                      .dwattr $C$DW$T$283, DW_AT_type(*$C$DW$1219)
   12469              
   12470              $C$DW$T$12      .dwtag  DW_TAG_base_type
   12471                      .dwattr $C$DW$T$12, DW_AT_encoding(DW_ATE_signed)
   12472                      .dwattr $C$DW$T$12, DW_AT_name("long")
   12473                      .dwattr $C$DW$T$12, DW_AT_byte_size(0x02)
   12474              
   12475              $C$DW$T$13      .dwtag  DW_TAG_base_type
   12476                      .dwattr $C$DW$T$13, DW_AT_encoding(DW_ATE_unsigned)
   12477                      .dwattr $C$DW$T$13, DW_AT_name("unsigned long")
   12478                      .dwattr $C$DW$T$13, DW_AT_byte_size(0x02)
   12479              
   12480              $C$DW$T$49      .dwtag  DW_TAG_typedef
   12481                      .dwattr $C$DW$T$49, DW_AT_name("Uint32")
   12482                      .dwattr $C$DW$T$49, DW_AT_type(*$C$DW$T$13)
   12483                      .dwattr $C$DW$T$49, DW_AT_language(DW_LANG_C)
   12484              
   12485              $C$DW$T$14      .dwtag  DW_TAG_base_type
   12486                      .dwattr $C$DW$T$14, DW_AT_encoding(DW_ATE_signed)
   12487                      .dwattr $C$DW$T$14, DW_AT_name("long long")
   12488                      .dwattr $C$DW$T$14, DW_AT_byte_size(0x04)
   12489              
   12490              $C$DW$T$15      .dwtag  DW_TAG_base_type
   12491                      .dwattr $C$DW$T$15, DW_AT_encoding(DW_ATE_unsigned)
   12492                      .dwattr $C$DW$T$15, DW_AT_name("unsigned long long")
   12493                      .dwattr $C$DW$T$15, DW_AT_byte_size(0x04)
   12494              
   12495              $C$DW$T$16      .dwtag  DW_TAG_base_type
   12496                      .dwattr $C$DW$T$16, DW_AT_encoding(DW_ATE_float)
   12497                      .dwattr $C$DW$T$16, DW_AT_name("float")
   12498                      .dwattr $C$DW$T$16, DW_AT_byte_size(0x02)
   12499              
   12500              $C$DW$T$17      .dwtag  DW_TAG_base_type
   12501                      .dwattr $C$DW$T$17, DW_AT_encoding(DW_ATE_float)
   12502                      .dwattr $C$DW$T$17, DW_AT_name("double")
   12503                      .dwattr $C$DW$T$17, DW_AT_byte_size(0x02)
   12504              
   12505              $C$DW$T$18      .dwtag  DW_TAG_base_type
   12506                      .dwattr $C$DW$T$18, DW_AT_encoding(DW_ATE_float)
   12507                      .dwattr $C$DW$T$18, DW_AT_name("long double")
   12508                      .dwattr $C$DW$T$18, DW_AT_byte_size(0x04)
   12509              
   12510                      .dwattr $C$DW$CU, DW_AT_language(DW_LANG_C)
   12511              
   12512              ;***************************************************************
   12513              ;* DWARF CIE ENTRIES                                           *
   12514              ;***************************************************************
   12515              
   12516              $C$DW$CIE       .dwcie 26
   12517                      .dwcfi  cfa_register, 20
   12518                      .dwcfi  cfa_offset, 0
   12519                      .dwcfi  same_value, 28
TMS320C2000 Assembler PC v16.9.6 Tue Mar 06 18:34:46 2018

Tools Copyright (c) 1996-2017 Texas Instruments Incorporated
C:\Users\Admin\AppData\Local\Temp\{ED9AE313-281A-4435-8F2A-5411619B06A2} PAGE  236

   12520                      .dwcfi  same_value, 6
   12521                      .dwcfi  same_value, 7
   12522                      .dwcfi  same_value, 8
   12523                      .dwcfi  same_value, 9
   12524                      .dwcfi  same_value, 10
   12525                      .dwcfi  same_value, 11
   12526                      .dwendentry
   12527              
   12528              ;***************************************************************
   12529              ;* DWARF REGISTER MAP                                          *
   12530              ;***************************************************************
   12531              
   12532              $C$DW$1220      .dwtag  DW_TAG_TI_assign_register
   12533                      .dwattr $C$DW$1220, DW_AT_name("AL")
   12534                      .dwattr $C$DW$1220, DW_AT_location[DW_OP_reg0]
   12535              
   12536              $C$DW$1221      .dwtag  DW_TAG_TI_assign_register
   12537                      .dwattr $C$DW$1221, DW_AT_name("AH")
   12538                      .dwattr $C$DW$1221, DW_AT_location[DW_OP_reg1]
   12539              
   12540              $C$DW$1222      .dwtag  DW_TAG_TI_assign_register
   12541                      .dwattr $C$DW$1222, DW_AT_name("PL")
   12542                      .dwattr $C$DW$1222, DW_AT_location[DW_OP_reg2]
   12543              
   12544              $C$DW$1223      .dwtag  DW_TAG_TI_assign_register
   12545                      .dwattr $C$DW$1223, DW_AT_name("PH")
   12546                      .dwattr $C$DW$1223, DW_AT_location[DW_OP_reg3]
   12547              
   12548              $C$DW$1224      .dwtag  DW_TAG_TI_assign_register
   12549                      .dwattr $C$DW$1224, DW_AT_name("SP")
   12550                      .dwattr $C$DW$1224, DW_AT_location[DW_OP_reg20]
   12551              
   12552              $C$DW$1225      .dwtag  DW_TAG_TI_assign_register
   12553                      .dwattr $C$DW$1225, DW_AT_name("XT")
   12554                      .dwattr $C$DW$1225, DW_AT_location[DW_OP_reg21]
   12555              
   12556              $C$DW$1226      .dwtag  DW_TAG_TI_assign_register
   12557                      .dwattr $C$DW$1226, DW_AT_name("T")
   12558                      .dwattr $C$DW$1226, DW_AT_location[DW_OP_reg22]
   12559              
   12560              $C$DW$1227      .dwtag  DW_TAG_TI_assign_register
   12561                      .dwattr $C$DW$1227, DW_AT_name("ST0")
   12562                      .dwattr $C$DW$1227, DW_AT_location[DW_OP_reg23]
   12563              
   12564              $C$DW$1228      .dwtag  DW_TAG_TI_assign_register
   12565                      .dwattr $C$DW$1228, DW_AT_name("ST1")
   12566                      .dwattr $C$DW$1228, DW_AT_location[DW_OP_reg24]
   12567              
   12568              $C$DW$1229      .dwtag  DW_TAG_TI_assign_register
   12569                      .dwattr $C$DW$1229, DW_AT_name("PC")
   12570                      .dwattr $C$DW$1229, DW_AT_location[DW_OP_reg25]
   12571              
   12572              $C$DW$1230      .dwtag  DW_TAG_TI_assign_register
   12573                      .dwattr $C$DW$1230, DW_AT_name("RPC")
   12574                      .dwattr $C$DW$1230, DW_AT_location[DW_OP_reg26]
TMS320C2000 Assembler PC v16.9.6 Tue Mar 06 18:34:46 2018

Tools Copyright (c) 1996-2017 Texas Instruments Incorporated
C:\Users\Admin\AppData\Local\Temp\{ED9AE313-281A-4435-8F2A-5411619B06A2} PAGE  237

   12575              
   12576              $C$DW$1231      .dwtag  DW_TAG_TI_assign_register
   12577                      .dwattr $C$DW$1231, DW_AT_name("FP")
   12578                      .dwattr $C$DW$1231, DW_AT_location[DW_OP_reg28]
   12579              
   12580              $C$DW$1232      .dwtag  DW_TAG_TI_assign_register
   12581                      .dwattr $C$DW$1232, DW_AT_name("DP")
   12582                      .dwattr $C$DW$1232, DW_AT_location[DW_OP_reg29]
   12583              
   12584              $C$DW$1233      .dwtag  DW_TAG_TI_assign_register
   12585                      .dwattr $C$DW$1233, DW_AT_name("SXM")
   12586                      .dwattr $C$DW$1233, DW_AT_location[DW_OP_reg30]
   12587              
   12588              $C$DW$1234      .dwtag  DW_TAG_TI_assign_register
   12589                      .dwattr $C$DW$1234, DW_AT_name("PM")
   12590                      .dwattr $C$DW$1234, DW_AT_location[DW_OP_reg31]
   12591              
   12592              $C$DW$1235      .dwtag  DW_TAG_TI_assign_register
   12593                      .dwattr $C$DW$1235, DW_AT_name("OVM")
   12594                      .dwattr $C$DW$1235, DW_AT_location[DW_OP_regx 0x20]
   12595              
   12596              $C$DW$1236      .dwtag  DW_TAG_TI_assign_register
   12597                      .dwattr $C$DW$1236, DW_AT_name("PAGE0")
   12598                      .dwattr $C$DW$1236, DW_AT_location[DW_OP_regx 0x21]
   12599              
   12600              $C$DW$1237      .dwtag  DW_TAG_TI_assign_register
   12601                      .dwattr $C$DW$1237, DW_AT_name("AMODE")
   12602                      .dwattr $C$DW$1237, DW_AT_location[DW_OP_regx 0x22]
   12603              
   12604              $C$DW$1238      .dwtag  DW_TAG_TI_assign_register
   12605                      .dwattr $C$DW$1238, DW_AT_name("INTM")
   12606                      .dwattr $C$DW$1238, DW_AT_location[DW_OP_regx 0x23]
   12607              
   12608              $C$DW$1239      .dwtag  DW_TAG_TI_assign_register
   12609                      .dwattr $C$DW$1239, DW_AT_name("IFR")
   12610                      .dwattr $C$DW$1239, DW_AT_location[DW_OP_regx 0x24]
   12611              
   12612              $C$DW$1240      .dwtag  DW_TAG_TI_assign_register
   12613                      .dwattr $C$DW$1240, DW_AT_name("IER")
   12614                      .dwattr $C$DW$1240, DW_AT_location[DW_OP_regx 0x25]
   12615              
   12616              $C$DW$1241      .dwtag  DW_TAG_TI_assign_register
   12617                      .dwattr $C$DW$1241, DW_AT_name("V")
   12618                      .dwattr $C$DW$1241, DW_AT_location[DW_OP_regx 0x26]
   12619              
   12620              $C$DW$1242      .dwtag  DW_TAG_TI_assign_register
   12621                      .dwattr $C$DW$1242, DW_AT_name("PSEUDOH")
   12622                      .dwattr $C$DW$1242, DW_AT_location[DW_OP_regx 0x4c]
   12623              
   12624              $C$DW$1243      .dwtag  DW_TAG_TI_assign_register
   12625                      .dwattr $C$DW$1243, DW_AT_name("VOL")
   12626                      .dwattr $C$DW$1243, DW_AT_location[DW_OP_regx 0x4d]
   12627              
   12628              $C$DW$1244      .dwtag  DW_TAG_TI_assign_register
   12629                      .dwattr $C$DW$1244, DW_AT_name("AR0")
TMS320C2000 Assembler PC v16.9.6 Tue Mar 06 18:34:46 2018

Tools Copyright (c) 1996-2017 Texas Instruments Incorporated
C:\Users\Admin\AppData\Local\Temp\{ED9AE313-281A-4435-8F2A-5411619B06A2} PAGE  238

   12630                      .dwattr $C$DW$1244, DW_AT_location[DW_OP_reg4]
   12631              
   12632              $C$DW$1245      .dwtag  DW_TAG_TI_assign_register
   12633                      .dwattr $C$DW$1245, DW_AT_name("XAR0")
   12634                      .dwattr $C$DW$1245, DW_AT_location[DW_OP_reg5]
   12635              
   12636              $C$DW$1246      .dwtag  DW_TAG_TI_assign_register
   12637                      .dwattr $C$DW$1246, DW_AT_name("AR1")
   12638                      .dwattr $C$DW$1246, DW_AT_location[DW_OP_reg6]
   12639              
   12640              $C$DW$1247      .dwtag  DW_TAG_TI_assign_register
   12641                      .dwattr $C$DW$1247, DW_AT_name("XAR1")
   12642                      .dwattr $C$DW$1247, DW_AT_location[DW_OP_reg7]
   12643              
   12644              $C$DW$1248      .dwtag  DW_TAG_TI_assign_register
   12645                      .dwattr $C$DW$1248, DW_AT_name("AR2")
   12646                      .dwattr $C$DW$1248, DW_AT_location[DW_OP_reg8]
   12647              
   12648              $C$DW$1249      .dwtag  DW_TAG_TI_assign_register
   12649                      .dwattr $C$DW$1249, DW_AT_name("XAR2")
   12650                      .dwattr $C$DW$1249, DW_AT_location[DW_OP_reg9]
   12651              
   12652              $C$DW$1250      .dwtag  DW_TAG_TI_assign_register
   12653                      .dwattr $C$DW$1250, DW_AT_name("AR3")
   12654                      .dwattr $C$DW$1250, DW_AT_location[DW_OP_reg10]
   12655              
   12656              $C$DW$1251      .dwtag  DW_TAG_TI_assign_register
   12657                      .dwattr $C$DW$1251, DW_AT_name("XAR3")
   12658                      .dwattr $C$DW$1251, DW_AT_location[DW_OP_reg11]
   12659              
   12660              $C$DW$1252      .dwtag  DW_TAG_TI_assign_register
   12661                      .dwattr $C$DW$1252, DW_AT_name("AR4")
   12662                      .dwattr $C$DW$1252, DW_AT_location[DW_OP_reg12]
   12663              
   12664              $C$DW$1253      .dwtag  DW_TAG_TI_assign_register
   12665                      .dwattr $C$DW$1253, DW_AT_name("XAR4")
   12666                      .dwattr $C$DW$1253, DW_AT_location[DW_OP_reg13]
   12667              
   12668              $C$DW$1254      .dwtag  DW_TAG_TI_assign_register
   12669                      .dwattr $C$DW$1254, DW_AT_name("AR5")
   12670                      .dwattr $C$DW$1254, DW_AT_location[DW_OP_reg14]
   12671              
   12672              $C$DW$1255      .dwtag  DW_TAG_TI_assign_register
   12673                      .dwattr $C$DW$1255, DW_AT_name("XAR5")
   12674                      .dwattr $C$DW$1255, DW_AT_location[DW_OP_reg15]
   12675              
   12676              $C$DW$1256      .dwtag  DW_TAG_TI_assign_register
   12677                      .dwattr $C$DW$1256, DW_AT_name("AR6")
   12678                      .dwattr $C$DW$1256, DW_AT_location[DW_OP_reg16]
   12679              
   12680              $C$DW$1257      .dwtag  DW_TAG_TI_assign_register
   12681                      .dwattr $C$DW$1257, DW_AT_name("XAR6")
   12682                      .dwattr $C$DW$1257, DW_AT_location[DW_OP_reg17]
   12683              
   12684              $C$DW$1258      .dwtag  DW_TAG_TI_assign_register
TMS320C2000 Assembler PC v16.9.6 Tue Mar 06 18:34:46 2018

Tools Copyright (c) 1996-2017 Texas Instruments Incorporated
C:\Users\Admin\AppData\Local\Temp\{ED9AE313-281A-4435-8F2A-5411619B06A2} PAGE  239

   12685                      .dwattr $C$DW$1258, DW_AT_name("AR7")
   12686                      .dwattr $C$DW$1258, DW_AT_location[DW_OP_reg18]
   12687              
   12688              $C$DW$1259      .dwtag  DW_TAG_TI_assign_register
   12689                      .dwattr $C$DW$1259, DW_AT_name("XAR7")
   12690                      .dwattr $C$DW$1259, DW_AT_location[DW_OP_reg19]
   12691              
   12692                      .dwendtag $C$DW$CU
   12693              

No Assembly Errors, No Assembly Warnings
