TMS320C2000 Assembler PC v16.9.6 Tue Mar 06 18:34:46 2018

Tools Copyright (c) 1996-2017 Texas Instruments Incorporated
C:\Users\Admin\AppData\Local\Temp\{ED9AE313-281A-4435-8F2A-5411619B06A2} PAGE    1

       1              ;***************************************************************
       2              ;* TMS320C2000 C/C++ Codegen                    PC v16.9.6.LTS *
       3              ;* Date/Time created: Tue Mar 06 18:34:46 2018                 *
       4              ;***************************************************************
       5                      .compiler_opts --abi=coffabi --cla_support=cla0 --diag_wrap=off --float_support=softlib --hll_source=
       6                      .asg    XAR2, FP
       7              
       8              $C$DW$CU        .dwtag  DW_TAG_compile_unit
       9                      .dwattr $C$DW$CU, DW_AT_name("../source/Solar Microinverter_main.c")
      10                      .dwattr $C$DW$CU, DW_AT_producer("TI TMS320C2000 C/C++ Codegen PC v16.9.6.LTS Copyright (c) 1996-2017
      11                      .dwattr $C$DW$CU, DW_AT_TI_version(0x01)
      12                      .dwattr $C$DW$CU, DW_AT_comp_dir("C:\Users\Admin\workspace_v7\KT1205_MGI_V7.2_REVC_MASTER_GPRS_180301
      13              ;**************************************************************
      14              ;* CINIT RECORDS                                              *
      15              ;**************************************************************
      16 00000000               .sect   ".cinit"
      17                      .align  1
      18 00000000 FFFF          .field          -1,16
      19 00000001 0000-         .field          _max_count+0,32
         00000002 0000 
      20 00000003 0230          .bits   560,16                  ; _max_count @ 0
      21              
      22 00000004               .sect   ".cinit"
      23                      .align  1
      24 00000004 FFFF          .field          -1,16
      25 00000005 0001-         .field          _count+0,32
         00000006 0000 
      26 00000007 0000          .bits   0,16                    ; _count @ 0
      27              
      28 00000008               .sect   ".cinit"
      29                      .align  1
      30 00000008 FFFF          .field          -1,16
      31 00000009 0002-         .field          _current_counter+0,32
         0000000a 0000 
      32 0000000b 0000          .bits   0,16                    ; _current_counter @ 0
      33              
      34 0000000c               .sect   ".cinit"
      35                      .align  1
      36 0000000c FFFF          .field          -1,16
      37 0000000d 0003-         .field          _i+0,32
         0000000e 0000 
      38 0000000f 0000          .bits   0,16                    ; _i @ 0
      39              
      40 00000010               .sect   ".cinit"
      41                      .align  1
      42 00000010 FFFF          .field          -1,16
      43 00000011 0004-         .field          _counter_100us+0,32
         00000012 0000 
      44 00000013 0000          .bits   0,16                    ; _counter_100us @ 0
      45              
      46 00000014               .sect   ".cinit"
      47                      .align  1
      48 00000014 FFFF          .field          -1,16
      49 00000015 0005-         .field          _statemachineflag+0,32
         00000016 0000 
TMS320C2000 Assembler PC v16.9.6 Tue Mar 06 18:34:46 2018

Tools Copyright (c) 1996-2017 Texas Instruments Incorporated
C:\Users\Admin\AppData\Local\Temp\{ED9AE313-281A-4435-8F2A-5411619B06A2} PAGE    2

      50 00000017 0000          .bits   0,16                    ; _statemachineflag @ 0
      51              
      52 00000018               .sect   ".cinit"
      53                      .align  1
      54 00000018 FFFF          .field          -1,16
      55 00000019 0006-         .field          _flag_10ms+0,32
         0000001a 0000 
      56 0000001b 0000          .bits   0,16                    ; _flag_10ms @ 0
      57              
      58 0000001c               .sect   ".cinit"
      59                      .align  1
      60 0000001c FFFE          .field          -2,16
      61 0000001d 0008-         .field          _frequancy_mains+0,32
         0000001e 0000 
      62 0000001f 0000          .bits   0,32                    ; _frequancy_mains @ 0
         00000020 0000 
      63              
      64 00000021               .sect   ".cinit"
      65                      .align  1
      66 00000021 FFFE          .field          -2,16
      67 00000022 000A-         .field          _Zc1+0,32
         00000023 0000 
      68 00000024 0000          .bits   0,32                    ; _Zc1 @ 0
         00000025 0000 
      69              
      70 00000026               .sect   ".cinit"
      71                      .align  1
      72 00000026 FFFE          .field          -2,16
      73 00000027 000C-         .field          _ECAP1+0,32
         00000028 0000 
      74 00000029 0000          .bits   0,32                    ; _ECAP1 @ 0
         0000002a 0000 
      75              
      76 0000002b               .sect   ".cinit"
      77                      .align  1
      78 0000002b FFFE          .field          -2,16
      79 0000002c 000E-         .field          _ECAP3+0,32
         0000002d 0000 
      80 0000002e 0000          .bits   0,32                    ; _ECAP3 @ 0
         0000002f 0000 
      81              
      82 00000030               .sect   ".cinit"
      83                      .align  1
      84 00000030 FFFE          .field          -2,16
      85 00000031 0010-         .field          _ECAP4+0,32
         00000032 0000 
      86 00000033 0000          .bits   0,32                    ; _ECAP4 @ 0
         00000034 0000 
      87              
      88 00000035               .sect   ".cinit"
      89                      .align  1
      90 00000035 FFFE          .field          -2,16
      91 00000036 0012-         .field          _ECAP2+0,32
         00000037 0000 
      92 00000038 0000          .bits   0,32                    ; _ECAP2 @ 0
TMS320C2000 Assembler PC v16.9.6 Tue Mar 06 18:34:46 2018

Tools Copyright (c) 1996-2017 Texas Instruments Incorporated
C:\Users\Admin\AppData\Local\Temp\{ED9AE313-281A-4435-8F2A-5411619B06A2} PAGE    3

         00000039 0000 
      93              
      94 0000003a               .sect   ".cinit"
      95                      .align  1
      96 0000003a FFFE          .field          -2,16
      97 0000003b 0014-         .field          _ECAP_AVG+0,32
         0000003c 0000 
      98 0000003d 0000          .bits   0,32                    ; _ECAP_AVG @ 0
         0000003e 0000 
      99              
     100              
     101              $C$DW$1 .dwtag  DW_TAG_subprogram
     102                      .dwattr $C$DW$1, DW_AT_name("variablePI")
     103                      .dwattr $C$DW$1, DW_AT_TI_symbol_name("_variablePI")
     104                      .dwattr $C$DW$1, DW_AT_declaration
     105                      .dwattr $C$DW$1, DW_AT_external
     106                      .dwendtag $C$DW$1
     107              
     108              
     109              $C$DW$2 .dwtag  DW_TAG_subprogram
     110                      .dwattr $C$DW$2, DW_AT_name("statemachine")
     111                      .dwattr $C$DW$2, DW_AT_TI_symbol_name("_statemachine")
     112                      .dwattr $C$DW$2, DW_AT_declaration
     113                      .dwattr $C$DW$2, DW_AT_external
     114                      .dwendtag $C$DW$2
     115              
     116              
     117              $C$DW$3 .dwtag  DW_TAG_subprogram
     118                      .dwattr $C$DW$3, DW_AT_name("tx_gsm")
     119                      .dwattr $C$DW$3, DW_AT_TI_symbol_name("_tx_gsm")
     120                      .dwattr $C$DW$3, DW_AT_declaration
     121                      .dwattr $C$DW$3, DW_AT_external
     122                      .dwendtag $C$DW$3
     123              
     124              
     125              $C$DW$4 .dwtag  DW_TAG_subprogram
     126                      .dwattr $C$DW$4, DW_AT_name("InitEPwmSyncGpio")
     127                      .dwattr $C$DW$4, DW_AT_TI_symbol_name("_InitEPwmSyncGpio")
     128                      .dwattr $C$DW$4, DW_AT_declaration
     129                      .dwattr $C$DW$4, DW_AT_external
     130                      .dwendtag $C$DW$4
     131              
     132              
     133              $C$DW$5 .dwtag  DW_TAG_subprogram
     134                      .dwattr $C$DW$5, DW_AT_name("adc_isr")
     135                      .dwattr $C$DW$5, DW_AT_TI_symbol_name("_adc_isr")
     136                      .dwattr $C$DW$5, DW_AT_declaration
     137                      .dwattr $C$DW$5, DW_AT_external
     138                      .dwendtag $C$DW$5
     139              
     140              
     141              $C$DW$6 .dwtag  DW_TAG_subprogram
     142                      .dwattr $C$DW$6, DW_AT_name("InitPieCtrl")
     143                      .dwattr $C$DW$6, DW_AT_TI_symbol_name("_InitPieCtrl")
     144                      .dwattr $C$DW$6, DW_AT_declaration
TMS320C2000 Assembler PC v16.9.6 Tue Mar 06 18:34:46 2018

Tools Copyright (c) 1996-2017 Texas Instruments Incorporated
C:\Users\Admin\AppData\Local\Temp\{ED9AE313-281A-4435-8F2A-5411619B06A2} PAGE    4

     145                      .dwattr $C$DW$6, DW_AT_external
     146                      .dwendtag $C$DW$6
     147              
     148              
     149              $C$DW$7 .dwtag  DW_TAG_subprogram
     150                      .dwattr $C$DW$7, DW_AT_name("InitEPwm3Gpio")
     151                      .dwattr $C$DW$7, DW_AT_TI_symbol_name("_InitEPwm3Gpio")
     152                      .dwattr $C$DW$7, DW_AT_declaration
     153                      .dwattr $C$DW$7, DW_AT_external
     154                      .dwendtag $C$DW$7
     155              
     156              
     157              $C$DW$8 .dwtag  DW_TAG_subprogram
     158                      .dwattr $C$DW$8, DW_AT_name("InitSciaGpio")
     159                      .dwattr $C$DW$8, DW_AT_TI_symbol_name("_InitSciaGpio")
     160                      .dwattr $C$DW$8, DW_AT_declaration
     161                      .dwattr $C$DW$8, DW_AT_external
     162                      .dwendtag $C$DW$8
     163              
     164              
     165              $C$DW$9 .dwtag  DW_TAG_subprogram
     166                      .dwattr $C$DW$9, DW_AT_name("InitPieVectTable")
     167                      .dwattr $C$DW$9, DW_AT_TI_symbol_name("_InitPieVectTable")
     168                      .dwattr $C$DW$9, DW_AT_declaration
     169                      .dwattr $C$DW$9, DW_AT_external
     170                      .dwendtag $C$DW$9
     171              
     172              
     173              $C$DW$10        .dwtag  DW_TAG_subprogram
     174                      .dwattr $C$DW$10, DW_AT_name("InitECap1Gpio")
     175                      .dwattr $C$DW$10, DW_AT_TI_symbol_name("_InitECap1Gpio")
     176                      .dwattr $C$DW$10, DW_AT_declaration
     177                      .dwattr $C$DW$10, DW_AT_external
     178                      .dwendtag $C$DW$10
     179              
     180              
     181              $C$DW$11        .dwtag  DW_TAG_subprogram
     182                      .dwattr $C$DW$11, DW_AT_name("InitAdc")
     183                      .dwattr $C$DW$11, DW_AT_TI_symbol_name("_InitAdc")
     184                      .dwattr $C$DW$11, DW_AT_declaration
     185                      .dwattr $C$DW$11, DW_AT_external
     186                      .dwendtag $C$DW$11
     187              
     188              
     189              $C$DW$12        .dwtag  DW_TAG_subprogram
     190                      .dwattr $C$DW$12, DW_AT_name("InitEPwm2Gpio")
     191                      .dwattr $C$DW$12, DW_AT_TI_symbol_name("_InitEPwm2Gpio")
     192                      .dwattr $C$DW$12, DW_AT_declaration
     193                      .dwattr $C$DW$12, DW_AT_external
     194                      .dwendtag $C$DW$12
     195              
     196              
     197              $C$DW$13        .dwtag  DW_TAG_subprogram
     198                      .dwattr $C$DW$13, DW_AT_name("InitEPwm1Gpio")
     199                      .dwattr $C$DW$13, DW_AT_TI_symbol_name("_InitEPwm1Gpio")
TMS320C2000 Assembler PC v16.9.6 Tue Mar 06 18:34:46 2018

Tools Copyright (c) 1996-2017 Texas Instruments Incorporated
C:\Users\Admin\AppData\Local\Temp\{ED9AE313-281A-4435-8F2A-5411619B06A2} PAGE    5

     200                      .dwattr $C$DW$13, DW_AT_declaration
     201                      .dwattr $C$DW$13, DW_AT_external
     202                      .dwendtag $C$DW$13
     203              
     204              
     205              $C$DW$14        .dwtag  DW_TAG_subprogram
     206                      .dwattr $C$DW$14, DW_AT_name("oi_uart")
     207                      .dwattr $C$DW$14, DW_AT_TI_symbol_name("_oi_uart")
     208                      .dwattr $C$DW$14, DW_AT_declaration
     209                      .dwattr $C$DW$14, DW_AT_external
     210                      .dwendtag $C$DW$14
     211              
     212              
     213              $C$DW$15        .dwtag  DW_TAG_subprogram
     214                      .dwattr $C$DW$15, DW_AT_name("MemCopy")
     215                      .dwattr $C$DW$15, DW_AT_TI_symbol_name("_MemCopy")
     216                      .dwattr $C$DW$15, DW_AT_declaration
     217                      .dwattr $C$DW$15, DW_AT_external
     218              $C$DW$16        .dwtag  DW_TAG_formal_parameter
     219                      .dwattr $C$DW$16, DW_AT_type(*$C$DW$T$277)
     220              
     221              $C$DW$17        .dwtag  DW_TAG_formal_parameter
     222                      .dwattr $C$DW$17, DW_AT_type(*$C$DW$T$277)
     223              
     224              $C$DW$18        .dwtag  DW_TAG_formal_parameter
     225                      .dwattr $C$DW$18, DW_AT_type(*$C$DW$T$277)
     226              
     227                      .dwendtag $C$DW$15
     228              
     229              
     230              $C$DW$19        .dwtag  DW_TAG_subprogram
     231                      .dwattr $C$DW$19, DW_AT_name("sciRxFifoIsr")
     232                      .dwattr $C$DW$19, DW_AT_TI_symbol_name("_sciRxFifoIsr")
     233                      .dwattr $C$DW$19, DW_AT_declaration
     234                      .dwattr $C$DW$19, DW_AT_external
     235                      .dwendtag $C$DW$19
     236              
     237              
     238              $C$DW$20        .dwtag  DW_TAG_subprogram
     239                      .dwattr $C$DW$20, DW_AT_name("sciTxFifoIsr")
     240                      .dwattr $C$DW$20, DW_AT_TI_symbol_name("_sciTxFifoIsr")
     241                      .dwattr $C$DW$20, DW_AT_declaration
     242                      .dwattr $C$DW$20, DW_AT_external
     243                      .dwendtag $C$DW$20
     244              
     245              
     246              $C$DW$21        .dwtag  DW_TAG_subprogram
     247                      .dwattr $C$DW$21, DW_AT_name("InitTzGpio")
     248                      .dwattr $C$DW$21, DW_AT_TI_symbol_name("_InitTzGpio")
     249                      .dwattr $C$DW$21, DW_AT_declaration
     250                      .dwattr $C$DW$21, DW_AT_external
     251                      .dwendtag $C$DW$21
     252              
     253              
     254              $C$DW$22        .dwtag  DW_TAG_subprogram
TMS320C2000 Assembler PC v16.9.6 Tue Mar 06 18:34:46 2018

Tools Copyright (c) 1996-2017 Texas Instruments Incorporated
C:\Users\Admin\AppData\Local\Temp\{ED9AE313-281A-4435-8F2A-5411619B06A2} PAGE    6

     255                      .dwattr $C$DW$22, DW_AT_name("InitSysCtrl")
     256                      .dwattr $C$DW$22, DW_AT_TI_symbol_name("_InitSysCtrl")
     257                      .dwattr $C$DW$22, DW_AT_declaration
     258                      .dwattr $C$DW$22, DW_AT_external
     259                      .dwendtag $C$DW$22
     260              
     261              
     262              $C$DW$23        .dwtag  DW_TAG_subprogram
     263                      .dwattr $C$DW$23, DW_AT_name("InitFlash")
     264                      .dwattr $C$DW$23, DW_AT_TI_symbol_name("_InitFlash")
     265                      .dwattr $C$DW$23, DW_AT_declaration
     266                      .dwattr $C$DW$23, DW_AT_external
     267                      .dwendtag $C$DW$23
     268              
     269              
     270              $C$DW$24        .dwtag  DW_TAG_subprogram
     271                      .dwattr $C$DW$24, DW_AT_name("ServiceDog")
     272                      .dwattr $C$DW$24, DW_AT_TI_symbol_name("_ServiceDog")
     273                      .dwattr $C$DW$24, DW_AT_declaration
     274                      .dwattr $C$DW$24, DW_AT_external
     275                      .dwendtag $C$DW$24
     276              
     277              
     278              $C$DW$25        .dwtag  DW_TAG_subprogram
     279                      .dwattr $C$DW$25, DW_AT_name("scia_fifo_init")
     280                      .dwattr $C$DW$25, DW_AT_TI_symbol_name("_scia_fifo_init")
     281                      .dwattr $C$DW$25, DW_AT_declaration
     282                      .dwattr $C$DW$25, DW_AT_external
     283                      .dwendtag $C$DW$25
     284              
     285              $C$DW$26        .dwtag  DW_TAG_variable
     286                      .dwattr $C$DW$26, DW_AT_name("RamconstsLoadEnd")
     287                      .dwattr $C$DW$26, DW_AT_TI_symbol_name("_RamconstsLoadEnd")
     288                      .dwattr $C$DW$26, DW_AT_type(*$C$DW$T$19)
     289                      .dwattr $C$DW$26, DW_AT_declaration
     290                      .dwattr $C$DW$26, DW_AT_external
     291              
     292              $C$DW$27        .dwtag  DW_TAG_variable
     293                      .dwattr $C$DW$27, DW_AT_name("RamconstsLoadStart")
     294                      .dwattr $C$DW$27, DW_AT_TI_symbol_name("_RamconstsLoadStart")
     295                      .dwattr $C$DW$27, DW_AT_type(*$C$DW$T$19)
     296                      .dwattr $C$DW$27, DW_AT_declaration
     297                      .dwattr $C$DW$27, DW_AT_external
     298              
     299              $C$DW$28        .dwtag  DW_TAG_variable
     300                      .dwattr $C$DW$28, DW_AT_name("systemState")
     301                      .dwattr $C$DW$28, DW_AT_TI_symbol_name("_systemState")
     302                      .dwattr $C$DW$28, DW_AT_type(*$C$DW$T$6)
     303                      .dwattr $C$DW$28, DW_AT_declaration
     304                      .dwattr $C$DW$28, DW_AT_external
     305              
     306              $C$DW$29        .dwtag  DW_TAG_variable
     307                      .dwattr $C$DW$29, DW_AT_name("RamconstsRunStart")
     308                      .dwattr $C$DW$29, DW_AT_TI_symbol_name("_RamconstsRunStart")
     309                      .dwattr $C$DW$29, DW_AT_type(*$C$DW$T$19)
TMS320C2000 Assembler PC v16.9.6 Tue Mar 06 18:34:46 2018

Tools Copyright (c) 1996-2017 Texas Instruments Incorporated
C:\Users\Admin\AppData\Local\Temp\{ED9AE313-281A-4435-8F2A-5411619B06A2} PAGE    7

     310                      .dwattr $C$DW$29, DW_AT_declaration
     311                      .dwattr $C$DW$29, DW_AT_external
     312              
     313              $C$DW$30        .dwtag  DW_TAG_variable
     314                      .dwattr $C$DW$30, DW_AT_name("RamfuncsRunStart")
     315                      .dwattr $C$DW$30, DW_AT_TI_symbol_name("_RamfuncsRunStart")
     316                      .dwattr $C$DW$30, DW_AT_type(*$C$DW$T$19)
     317                      .dwattr $C$DW$30, DW_AT_declaration
     318                      .dwattr $C$DW$30, DW_AT_external
     319              
     320              $C$DW$31        .dwtag  DW_TAG_variable
     321                      .dwattr $C$DW$31, DW_AT_name("RamfuncsLoadEnd")
     322                      .dwattr $C$DW$31, DW_AT_TI_symbol_name("_RamfuncsLoadEnd")
     323                      .dwattr $C$DW$31, DW_AT_type(*$C$DW$T$19)
     324                      .dwattr $C$DW$31, DW_AT_declaration
     325                      .dwattr $C$DW$31, DW_AT_external
     326              
     327              $C$DW$32        .dwtag  DW_TAG_variable
     328                      .dwattr $C$DW$32, DW_AT_name("Rx_timeout")
     329                      .dwattr $C$DW$32, DW_AT_TI_symbol_name("_Rx_timeout")
     330                      .dwattr $C$DW$32, DW_AT_type(*$C$DW$T$283)
     331                      .dwattr $C$DW$32, DW_AT_declaration
     332                      .dwattr $C$DW$32, DW_AT_external
     333              
     334              $C$DW$33        .dwtag  DW_TAG_variable
     335                      .dwattr $C$DW$33, DW_AT_name("Tx_timeout")
     336                      .dwattr $C$DW$33, DW_AT_TI_symbol_name("_Tx_timeout")
     337                      .dwattr $C$DW$33, DW_AT_type(*$C$DW$T$283)
     338                      .dwattr $C$DW$33, DW_AT_declaration
     339                      .dwattr $C$DW$33, DW_AT_external
     340              
     341                      .global _max_count
     342 00000000       _max_count:     .usect  ".ebss",1,1,0
     343              $C$DW$34        .dwtag  DW_TAG_variable
     344                      .dwattr $C$DW$34, DW_AT_name("max_count")
     345                      .dwattr $C$DW$34, DW_AT_TI_symbol_name("_max_count")
     346                      .dwattr $C$DW$34, DW_AT_location[DW_OP_addr _max_count]
     347                      .dwattr $C$DW$34, DW_AT_type(*$C$DW$T$10)
     348                      .dwattr $C$DW$34, DW_AT_external
     349              
     350                      .global _count
     351 00000001       _count: .usect  ".ebss",1,1,0
     352              $C$DW$35        .dwtag  DW_TAG_variable
     353                      .dwattr $C$DW$35, DW_AT_name("count")
     354                      .dwattr $C$DW$35, DW_AT_TI_symbol_name("_count")
     355                      .dwattr $C$DW$35, DW_AT_location[DW_OP_addr _count]
     356                      .dwattr $C$DW$35, DW_AT_type(*$C$DW$T$10)
     357                      .dwattr $C$DW$35, DW_AT_external
     358              
     359                      .global _current_counter
     360 00000002       _current_counter:       .usect  ".ebss",1,1,0
     361              $C$DW$36        .dwtag  DW_TAG_variable
     362                      .dwattr $C$DW$36, DW_AT_name("current_counter")
     363                      .dwattr $C$DW$36, DW_AT_TI_symbol_name("_current_counter")
     364                      .dwattr $C$DW$36, DW_AT_location[DW_OP_addr _current_counter]
TMS320C2000 Assembler PC v16.9.6 Tue Mar 06 18:34:46 2018

Tools Copyright (c) 1996-2017 Texas Instruments Incorporated
C:\Users\Admin\AppData\Local\Temp\{ED9AE313-281A-4435-8F2A-5411619B06A2} PAGE    8

     365                      .dwattr $C$DW$36, DW_AT_type(*$C$DW$T$281)
     366                      .dwattr $C$DW$36, DW_AT_external
     367              
     368                      .global _i
     369 00000003       _i:     .usect  ".ebss",1,1,0
     370              $C$DW$37        .dwtag  DW_TAG_variable
     371                      .dwattr $C$DW$37, DW_AT_name("i")
     372                      .dwattr $C$DW$37, DW_AT_TI_symbol_name("_i")
     373                      .dwattr $C$DW$37, DW_AT_location[DW_OP_addr _i]
     374                      .dwattr $C$DW$37, DW_AT_type(*$C$DW$T$10)
     375                      .dwattr $C$DW$37, DW_AT_external
     376              
     377                      .global _counter_100us
     378 00000004       _counter_100us: .usect  ".ebss",1,1,0
     379              $C$DW$38        .dwtag  DW_TAG_variable
     380                      .dwattr $C$DW$38, DW_AT_name("counter_100us")
     381                      .dwattr $C$DW$38, DW_AT_TI_symbol_name("_counter_100us")
     382                      .dwattr $C$DW$38, DW_AT_location[DW_OP_addr _counter_100us]
     383                      .dwattr $C$DW$38, DW_AT_type(*$C$DW$T$283)
     384                      .dwattr $C$DW$38, DW_AT_external
     385              
     386              $C$DW$39        .dwtag  DW_TAG_variable
     387                      .dwattr $C$DW$39, DW_AT_name("gridFlag")
     388                      .dwattr $C$DW$39, DW_AT_TI_symbol_name("_gridFlag")
     389                      .dwattr $C$DW$39, DW_AT_type(*$C$DW$T$280)
     390                      .dwattr $C$DW$39, DW_AT_declaration
     391                      .dwattr $C$DW$39, DW_AT_external
     392              
     393                      .global _statemachineflag
     394 00000005       _statemachineflag:      .usect  ".ebss",1,1,0
     395              $C$DW$40        .dwtag  DW_TAG_variable
     396                      .dwattr $C$DW$40, DW_AT_name("statemachineflag")
     397                      .dwattr $C$DW$40, DW_AT_TI_symbol_name("_statemachineflag")
     398                      .dwattr $C$DW$40, DW_AT_location[DW_OP_addr _statemachineflag]
     399                      .dwattr $C$DW$40, DW_AT_type(*$C$DW$T$6)
     400                      .dwattr $C$DW$40, DW_AT_external
     401              
     402                      .global _flag_10ms
     403 00000006       _flag_10ms:     .usect  ".ebss",1,1,0
     404              $C$DW$41        .dwtag  DW_TAG_variable
     405                      .dwattr $C$DW$41, DW_AT_name("flag_10ms")
     406                      .dwattr $C$DW$41, DW_AT_TI_symbol_name("_flag_10ms")
     407                      .dwattr $C$DW$41, DW_AT_location[DW_OP_addr _flag_10ms]
     408                      .dwattr $C$DW$41, DW_AT_type(*$C$DW$T$283)
     409                      .dwattr $C$DW$41, DW_AT_external
     410              
     411              $C$DW$42        .dwtag  DW_TAG_variable
     412                      .dwattr $C$DW$42, DW_AT_name("acoffset_cal2")
     413                      .dwattr $C$DW$42, DW_AT_TI_symbol_name("_acoffset_cal2")
     414                      .dwattr $C$DW$42, DW_AT_type(*$C$DW$T$283)
     415                      .dwattr $C$DW$42, DW_AT_declaration
     416                      .dwattr $C$DW$42, DW_AT_external
     417              
     418              $C$DW$43        .dwtag  DW_TAG_variable
     419                      .dwattr $C$DW$43, DW_AT_name("GSM_Restart_Count")
TMS320C2000 Assembler PC v16.9.6 Tue Mar 06 18:34:46 2018

Tools Copyright (c) 1996-2017 Texas Instruments Incorporated
C:\Users\Admin\AppData\Local\Temp\{ED9AE313-281A-4435-8F2A-5411619B06A2} PAGE    9

     420                      .dwattr $C$DW$43, DW_AT_TI_symbol_name("_GSM_Restart_Count")
     421                      .dwattr $C$DW$43, DW_AT_type(*$C$DW$T$11)
     422                      .dwattr $C$DW$43, DW_AT_declaration
     423                      .dwattr $C$DW$43, DW_AT_external
     424              
     425              $C$DW$44        .dwtag  DW_TAG_variable
     426                      .dwattr $C$DW$44, DW_AT_name("GSM_DelayCount")
     427                      .dwattr $C$DW$44, DW_AT_TI_symbol_name("_GSM_DelayCount")
     428                      .dwattr $C$DW$44, DW_AT_type(*$C$DW$T$11)
     429                      .dwattr $C$DW$44, DW_AT_declaration
     430                      .dwattr $C$DW$44, DW_AT_external
     431              
     432              $C$DW$45        .dwtag  DW_TAG_variable
     433                      .dwattr $C$DW$45, DW_AT_name("RS485_TXEnable_Count")
     434                      .dwattr $C$DW$45, DW_AT_TI_symbol_name("_RS485_TXEnable_Count")
     435                      .dwattr $C$DW$45, DW_AT_type(*$C$DW$T$11)
     436                      .dwattr $C$DW$45, DW_AT_declaration
     437                      .dwattr $C$DW$45, DW_AT_external
     438              
     439              $C$DW$46        .dwtag  DW_TAG_variable
     440                      .dwattr $C$DW$46, DW_AT_name("VariablePIFlag")
     441                      .dwattr $C$DW$46, DW_AT_TI_symbol_name("_VariablePIFlag")
     442                      .dwattr $C$DW$46, DW_AT_type(*$C$DW$T$11)
     443                      .dwattr $C$DW$46, DW_AT_declaration
     444                      .dwattr $C$DW$46, DW_AT_external
     445              
     446              $C$DW$47        .dwtag  DW_TAG_variable
     447                      .dwattr $C$DW$47, DW_AT_name("Rx_time_count")
     448                      .dwattr $C$DW$47, DW_AT_TI_symbol_name("_Rx_time_count")
     449                      .dwattr $C$DW$47, DW_AT_type(*$C$DW$T$283)
     450                      .dwattr $C$DW$47, DW_AT_declaration
     451                      .dwattr $C$DW$47, DW_AT_external
     452              
     453              $C$DW$48        .dwtag  DW_TAG_variable
     454                      .dwattr $C$DW$48, DW_AT_name("gsm_count")
     455                      .dwattr $C$DW$48, DW_AT_TI_symbol_name("_gsm_count")
     456                      .dwattr $C$DW$48, DW_AT_type(*$C$DW$T$11)
     457                      .dwattr $C$DW$48, DW_AT_declaration
     458                      .dwattr $C$DW$48, DW_AT_external
     459              
     460              $C$DW$49        .dwtag  DW_TAG_variable
     461                      .dwattr $C$DW$49, DW_AT_name("RamfuncsLoadStart")
     462                      .dwattr $C$DW$49, DW_AT_TI_symbol_name("_RamfuncsLoadStart")
     463                      .dwattr $C$DW$49, DW_AT_type(*$C$DW$T$19)
     464                      .dwattr $C$DW$49, DW_AT_declaration
     465                      .dwattr $C$DW$49, DW_AT_external
     466              
     467                      .global _frequancy_mains
     468 00000008       _frequancy_mains:       .usect  ".ebss",2,1,1
     469              $C$DW$50        .dwtag  DW_TAG_variable
     470                      .dwattr $C$DW$50, DW_AT_name("frequancy_mains")
     471                      .dwattr $C$DW$50, DW_AT_TI_symbol_name("_frequancy_mains")
     472                      .dwattr $C$DW$50, DW_AT_location[DW_OP_addr _frequancy_mains]
     473                      .dwattr $C$DW$50, DW_AT_type(*$C$DW$T$49)
     474                      .dwattr $C$DW$50, DW_AT_external
TMS320C2000 Assembler PC v16.9.6 Tue Mar 06 18:34:46 2018

Tools Copyright (c) 1996-2017 Texas Instruments Incorporated
C:\Users\Admin\AppData\Local\Temp\{ED9AE313-281A-4435-8F2A-5411619B06A2} PAGE   10

     475              
     476                      .global _Zc1
     477 0000000a       _Zc1:   .usect  ".ebss",2,1,1
     478              $C$DW$51        .dwtag  DW_TAG_variable
     479                      .dwattr $C$DW$51, DW_AT_name("Zc1")
     480                      .dwattr $C$DW$51, DW_AT_TI_symbol_name("_Zc1")
     481                      .dwattr $C$DW$51, DW_AT_location[DW_OP_addr _Zc1]
     482                      .dwattr $C$DW$51, DW_AT_type(*$C$DW$T$49)
     483                      .dwattr $C$DW$51, DW_AT_external
     484              
     485                      .global _ECAP1
     486 0000000c       _ECAP1: .usect  ".ebss",2,1,1
     487              $C$DW$52        .dwtag  DW_TAG_variable
     488                      .dwattr $C$DW$52, DW_AT_name("ECAP1")
     489                      .dwattr $C$DW$52, DW_AT_TI_symbol_name("_ECAP1")
     490                      .dwattr $C$DW$52, DW_AT_location[DW_OP_addr _ECAP1]
     491                      .dwattr $C$DW$52, DW_AT_type(*$C$DW$T$49)
     492                      .dwattr $C$DW$52, DW_AT_external
     493              
     494                      .global _ECAP3
     495 0000000e       _ECAP3: .usect  ".ebss",2,1,1
     496              $C$DW$53        .dwtag  DW_TAG_variable
     497                      .dwattr $C$DW$53, DW_AT_name("ECAP3")
     498                      .dwattr $C$DW$53, DW_AT_TI_symbol_name("_ECAP3")
     499                      .dwattr $C$DW$53, DW_AT_location[DW_OP_addr _ECAP3]
     500                      .dwattr $C$DW$53, DW_AT_type(*$C$DW$T$49)
     501                      .dwattr $C$DW$53, DW_AT_external
     502              
     503              $C$DW$54        .dwtag  DW_TAG_variable
     504                      .dwattr $C$DW$54, DW_AT_name("GSM_Repeat_Count")
     505                      .dwattr $C$DW$54, DW_AT_TI_symbol_name("_GSM_Repeat_Count")
     506                      .dwattr $C$DW$54, DW_AT_type(*$C$DW$T$12)
     507                      .dwattr $C$DW$54, DW_AT_declaration
     508                      .dwattr $C$DW$54, DW_AT_external
     509              
     510                      .global _ECAP4
     511 00000010       _ECAP4: .usect  ".ebss",2,1,1
     512              $C$DW$55        .dwtag  DW_TAG_variable
     513                      .dwattr $C$DW$55, DW_AT_name("ECAP4")
     514                      .dwattr $C$DW$55, DW_AT_TI_symbol_name("_ECAP4")
     515                      .dwattr $C$DW$55, DW_AT_location[DW_OP_addr _ECAP4]
     516                      .dwattr $C$DW$55, DW_AT_type(*$C$DW$T$49)
     517                      .dwattr $C$DW$55, DW_AT_external
     518              
     519                      .global _ECAP2
     520 00000012       _ECAP2: .usect  ".ebss",2,1,1
     521              $C$DW$56        .dwtag  DW_TAG_variable
     522                      .dwattr $C$DW$56, DW_AT_name("ECAP2")
     523                      .dwattr $C$DW$56, DW_AT_TI_symbol_name("_ECAP2")
     524                      .dwattr $C$DW$56, DW_AT_location[DW_OP_addr _ECAP2]
     525                      .dwattr $C$DW$56, DW_AT_type(*$C$DW$T$49)
     526                      .dwattr $C$DW$56, DW_AT_external
     527              
     528                      .global _ECAP_AVG
     529 00000014       _ECAP_AVG:      .usect  ".ebss",2,1,1
TMS320C2000 Assembler PC v16.9.6 Tue Mar 06 18:34:46 2018

Tools Copyright (c) 1996-2017 Texas Instruments Incorporated
C:\Users\Admin\AppData\Local\Temp\{ED9AE313-281A-4435-8F2A-5411619B06A2} PAGE   11

     530              $C$DW$57        .dwtag  DW_TAG_variable
     531                      .dwattr $C$DW$57, DW_AT_name("ECAP_AVG")
     532                      .dwattr $C$DW$57, DW_AT_TI_symbol_name("_ECAP_AVG")
     533                      .dwattr $C$DW$57, DW_AT_location[DW_OP_addr _ECAP_AVG]
     534                      .dwattr $C$DW$57, DW_AT_type(*$C$DW$T$49)
     535                      .dwattr $C$DW$57, DW_AT_external
     536              
     537              $C$DW$58        .dwtag  DW_TAG_variable
     538                      .dwattr $C$DW$58, DW_AT_name("Comp2Regs")
     539                      .dwattr $C$DW$58, DW_AT_TI_symbol_name("_Comp2Regs")
     540                      .dwattr $C$DW$58, DW_AT_type(*$C$DW$T$208)
     541                      .dwattr $C$DW$58, DW_AT_declaration
     542                      .dwattr $C$DW$58, DW_AT_external
     543              
     544              $C$DW$59        .dwtag  DW_TAG_variable
     545                      .dwattr $C$DW$59, DW_AT_name("Comp3Regs")
     546                      .dwattr $C$DW$59, DW_AT_TI_symbol_name("_Comp3Regs")
     547                      .dwattr $C$DW$59, DW_AT_type(*$C$DW$T$208)
     548                      .dwattr $C$DW$59, DW_AT_declaration
     549                      .dwattr $C$DW$59, DW_AT_external
     550              
     551              $C$DW$60        .dwtag  DW_TAG_variable
     552                      .dwattr $C$DW$60, DW_AT_name("Comp1Regs")
     553                      .dwattr $C$DW$60, DW_AT_TI_symbol_name("_Comp1Regs")
     554                      .dwattr $C$DW$60, DW_AT_type(*$C$DW$T$208)
     555                      .dwattr $C$DW$60, DW_AT_declaration
     556                      .dwattr $C$DW$60, DW_AT_external
     557              
     558              $C$DW$61        .dwtag  DW_TAG_variable
     559                      .dwattr $C$DW$61, DW_AT_name("PieCtrlRegs")
     560                      .dwattr $C$DW$61, DW_AT_TI_symbol_name("_PieCtrlRegs")
     561                      .dwattr $C$DW$61, DW_AT_type(*$C$DW$T$263)
     562                      .dwattr $C$DW$61, DW_AT_declaration
     563                      .dwattr $C$DW$61, DW_AT_external
     564              
     565              $C$DW$62        .dwtag  DW_TAG_variable
     566                      .dwattr $C$DW$62, DW_AT_name("GpioDataRegs")
     567                      .dwattr $C$DW$62, DW_AT_TI_symbol_name("_GpioDataRegs")
     568                      .dwattr $C$DW$62, DW_AT_type(*$C$DW$T$252)
     569                      .dwattr $C$DW$62, DW_AT_declaration
     570                      .dwattr $C$DW$62, DW_AT_external
     571              
     572              $C$DW$63        .dwtag  DW_TAG_variable
     573                      .dwattr $C$DW$63, DW_AT_name("ECap1Regs")
     574                      .dwattr $C$DW$63, DW_AT_TI_symbol_name("_ECap1Regs")
     575                      .dwattr $C$DW$63, DW_AT_type(*$C$DW$T$220)
     576                      .dwattr $C$DW$63, DW_AT_declaration
     577                      .dwattr $C$DW$63, DW_AT_external
     578              
     579              $C$DW$64        .dwtag  DW_TAG_variable
     580                      .dwattr $C$DW$64, DW_AT_name("SysCtrlRegs")
     581                      .dwattr $C$DW$64, DW_AT_TI_symbol_name("_SysCtrlRegs")
     582                      .dwattr $C$DW$64, DW_AT_type(*$C$DW$T$265)
     583                      .dwattr $C$DW$64, DW_AT_declaration
     584                      .dwattr $C$DW$64, DW_AT_external
TMS320C2000 Assembler PC v16.9.6 Tue Mar 06 18:34:46 2018

Tools Copyright (c) 1996-2017 Texas Instruments Incorporated
C:\Users\Admin\AppData\Local\Temp\{ED9AE313-281A-4435-8F2A-5411619B06A2} PAGE   12

     585              
     586              $C$DW$65        .dwtag  DW_TAG_variable
     587                      .dwattr $C$DW$65, DW_AT_name("EPwm2Regs")
     588                      .dwattr $C$DW$65, DW_AT_TI_symbol_name("_EPwm2Regs")
     589                      .dwattr $C$DW$65, DW_AT_type(*$C$DW$T$232)
     590                      .dwattr $C$DW$65, DW_AT_declaration
     591                      .dwattr $C$DW$65, DW_AT_external
     592              
     593              $C$DW$66        .dwtag  DW_TAG_variable
     594                      .dwattr $C$DW$66, DW_AT_name("EPwm1Regs")
     595                      .dwattr $C$DW$66, DW_AT_TI_symbol_name("_EPwm1Regs")
     596                      .dwattr $C$DW$66, DW_AT_type(*$C$DW$T$232)
     597                      .dwattr $C$DW$66, DW_AT_declaration
     598                      .dwattr $C$DW$66, DW_AT_external
     599              
     600              $C$DW$67        .dwtag  DW_TAG_variable
     601                      .dwattr $C$DW$67, DW_AT_name("EPwm3Regs")
     602                      .dwattr $C$DW$67, DW_AT_TI_symbol_name("_EPwm3Regs")
     603                      .dwattr $C$DW$67, DW_AT_type(*$C$DW$T$232)
     604                      .dwattr $C$DW$67, DW_AT_declaration
     605                      .dwattr $C$DW$67, DW_AT_external
     606              
     607              $C$DW$68        .dwtag  DW_TAG_variable
     608                      .dwattr $C$DW$68, DW_AT_name("EPwm4Regs")
     609                      .dwattr $C$DW$68, DW_AT_TI_symbol_name("_EPwm4Regs")
     610                      .dwattr $C$DW$68, DW_AT_type(*$C$DW$T$232)
     611                      .dwattr $C$DW$68, DW_AT_declaration
     612                      .dwattr $C$DW$68, DW_AT_external
     613              
     614              $C$DW$69        .dwtag  DW_TAG_variable
     615                      .dwattr $C$DW$69, DW_AT_name("GpioCtrlRegs")
     616                      .dwattr $C$DW$69, DW_AT_TI_symbol_name("_GpioCtrlRegs")
     617                      .dwattr $C$DW$69, DW_AT_type(*$C$DW$T$250)
     618                      .dwattr $C$DW$69, DW_AT_declaration
     619                      .dwattr $C$DW$69, DW_AT_external
     620              
     621              $C$DW$70        .dwtag  DW_TAG_variable
     622                      .dwattr $C$DW$70, DW_AT_name("AdcRegs")
     623                      .dwattr $C$DW$70, DW_AT_TI_symbol_name("_AdcRegs")
     624                      .dwattr $C$DW$70, DW_AT_type(*$C$DW$T$200)
     625                      .dwattr $C$DW$70, DW_AT_declaration
     626                      .dwattr $C$DW$70, DW_AT_external
     627              
     628              $C$DW$71        .dwtag  DW_TAG_variable
     629                      .dwattr $C$DW$71, DW_AT_name("PieVectTable")
     630                      .dwattr $C$DW$71, DW_AT_TI_symbol_name("_PieVectTable")
     631                      .dwattr $C$DW$71, DW_AT_type(*$C$DW$T$166)
     632                      .dwattr $C$DW$71, DW_AT_declaration
     633                      .dwattr $C$DW$71, DW_AT_external
     634              
     635              ;       C:\ti\ccsv7\tools\compiler\ti-cgt-c2000_16.9.6.LTS\bin\opt2000.exe C:\\Users\\Admin\\AppData\\Local\\
     636              ;       C:\ti\ccsv7\tools\compiler\ti-cgt-c2000_16.9.6.LTS\bin\ac2000.exe -@C:\\Users\\Admin\\AppData\\Local\
     637 00000000               .sect   ".text"
     638                      .clink
     639                      .global _InitEPwm1Example
TMS320C2000 Assembler PC v16.9.6 Tue Mar 06 18:34:46 2018

Tools Copyright (c) 1996-2017 Texas Instruments Incorporated
C:\Users\Admin\AppData\Local\Temp\{ED9AE313-281A-4435-8F2A-5411619B06A2} PAGE   13

     640              
     641              $C$DW$72        .dwtag  DW_TAG_subprogram
     642                      .dwattr $C$DW$72, DW_AT_name("InitEPwm1Example")
     643                      .dwattr $C$DW$72, DW_AT_low_pc(_InitEPwm1Example)
     644                      .dwattr $C$DW$72, DW_AT_high_pc(0x00)
     645                      .dwattr $C$DW$72, DW_AT_TI_symbol_name("_InitEPwm1Example")
     646                      .dwattr $C$DW$72, DW_AT_external
     647                      .dwattr $C$DW$72, DW_AT_TI_begin_file("../source/Solar Microinverter_main.c")
     648                      .dwattr $C$DW$72, DW_AT_TI_begin_line(0x144)
     649                      .dwattr $C$DW$72, DW_AT_TI_begin_column(0x06)
     650                      .dwattr $C$DW$72, DW_AT_TI_max_frame_size(-2)
     651                      .dwpsn  file "../source/Solar Microinverter_main.c",line 325,column 1,is_stmt,address _InitEPwm1Examp
     652              
     653                      .dwfde $C$DW$CIE, _InitEPwm1Example
     654              
     655              ;***************************************************************
     656              ;* FNAME: _InitEPwm1Example             FR SIZE:   0           *
     657              ;*                                                             *
     658              ;* FUNCTION ENVIRONMENT                                        *
     659              ;*                                                             *
     660              ;* FUNCTION PROPERTIES                                         *
     661              ;*                            0 Parameter,  0 Auto,  0 SOE     *
     662              ;***************************************************************
     663              
     664 00000000       _InitEPwm1Example:
     665              ;* AR4   assigned to $O$C1
     666                      .dwcfi  cfa_offset, -2
     667                      .dwcfi  save_reg_to_mem, 26, 0
     668 00000000 7622   EALLOW
     669 00000001 761F!         MOVW      DP,#_EPwm1Regs+5      ; [CPU_U] 
         00000002 0000 
     670                      .dwpsn  file "../source/Solar Microinverter_main.c",line 329,column 4,is_stmt,isa 0
     671 00000003 8F00!         MOVL      XAR4,#_EPwm1Regs      ; [CPU_U] |329| 
         00000004 0000 
     672                      .dwpsn  file "../source/Solar Microinverter_main.c",line 327,column 4,is_stmt,isa 0
     673 00000005 2805!         MOV       @_EPwm1Regs+5,#535    ; [CPU_] |327| 
         00000006 0217 
     674                      .dwpsn  file "../source/Solar Microinverter_main.c",line 357,column 4,is_stmt,isa 0
     675 00000007 83A4          MOVL      XAR5,XAR4             ; [CPU_] |357| 
     676                      .dwpsn  file "../source/Solar Microinverter_main.c",line 328,column 4,is_stmt,isa 0
     677 00000008 2B03!         MOV       @_EPwm1Regs+3,#0      ; [CPU_] |328| 
     678                      .dwpsn  file "../source/Solar Microinverter_main.c",line 347,column 4,is_stmt,isa 0
     679 00000009 D00B          MOVB      XAR0,#11              ; [CPU_] |347| 
     680                      .dwpsn  file "../source/Solar Microinverter_main.c",line 329,column 4,is_stmt,isa 0
     681 0000000a CCC4          AND       AL,*+XAR4[0],#0xffdf  ; [CPU_] |329| 
         0000000b FFDF 
     682 0000000c 5010          ORB       AL,#0x10              ; [CPU_] |329| 
     683 0000000d 96C4          MOV       *+XAR4[0],AL          ; [CPU_] |329| 
     684                      .dwpsn  file "../source/Solar Microinverter_main.c",line 357,column 4,is_stmt,isa 0
     685 0000000e DD0F          ADDB      XAR5,#15              ; [CPU_] |357| 
     686                      .dwpsn  file "../source/Solar Microinverter_main.c",line 330,column 4,is_stmt,isa 0
     687 0000000f 2B04!         MOV       @_EPwm1Regs+4,#0      ; [CPU_] |330| 
     688                      .dwpsn  file "../source/Solar Microinverter_main.c",line 333,column 4,is_stmt,isa 0
     689 00000010 CCC4          AND       AL,*+XAR4[0],#0xfffe  ; [CPU_] |333| 
         00000011 FFFE 
TMS320C2000 Assembler PC v16.9.6 Tue Mar 06 18:34:46 2018

Tools Copyright (c) 1996-2017 Texas Instruments Incorporated
C:\Users\Admin\AppData\Local\Temp\{ED9AE313-281A-4435-8F2A-5411619B06A2} PAGE   14

     690 00000012 5002          ORB       AL,#0x02              ; [CPU_] |333| 
     691 00000013 96C4          MOV       *+XAR4[0],AL          ; [CPU_] |333| 
     692                      .dwpsn  file "../source/Solar Microinverter_main.c",line 334,column 4,is_stmt,isa 0
     693 00000014 18C4          AND       *+XAR4[0],#0xfffb     ; [CPU_] |334| 
         00000015 FFFB 
     694                      .dwpsn  file "../source/Solar Microinverter_main.c",line 335,column 4,is_stmt,isa 0
     695 00000016 18C4          AND       *+XAR4[0],#0xfc7f     ; [CPU_] |335| 
         00000017 FC7F 
     696                      .dwpsn  file "../source/Solar Microinverter_main.c",line 336,column 4,is_stmt,isa 0
     697 00000018 18C4          AND       *+XAR4[0],#0xe3ff     ; [CPU_] |336| 
         00000019 E3FF 
     698                      .dwpsn  file "../source/Solar Microinverter_main.c",line 338,column 4,is_stmt,isa 0
     699 0000001a 18FC          AND       *+XAR4[7],#0xffef     ; [CPU_] |338| 
         0000001b FFEF 
     700                      .dwpsn  file "../source/Solar Microinverter_main.c",line 339,column 4,is_stmt,isa 0
     701 0000001c 1807!         AND       @_EPwm1Regs+7,#0xffbf ; [CPU_] |339| 
         0000001d FFBF 
     702                      .dwpsn  file "../source/Solar Microinverter_main.c",line 340,column 4,is_stmt,isa 0
     703 0000001e 1807!         AND       @_EPwm1Regs+7,#0xfffc ; [CPU_] |340| 
         0000001f FFFC 
     704                      .dwpsn  file "../source/Solar Microinverter_main.c",line 341,column 4,is_stmt,isa 0
     705 00000020 1807!         AND       @_EPwm1Regs+7,#0xfff3 ; [CPU_] |341| 
         00000021 FFF3 
     706                      .dwpsn  file "../source/Solar Microinverter_main.c",line 343,column 4,is_stmt,isa 0
     707 00000022 2B09!         MOV       @_EPwm1Regs+9,#0      ; [CPU_] |343| 
     708                      .dwpsn  file "../source/Solar Microinverter_main.c",line 347,column 4,is_stmt,isa 0
     709 00000023 CC94          AND       AL,*+XAR4[AR0],#0xffdf ; [CPU_] |347| 
         00000024 FFDF 
     710 00000025 5010          ORB       AL,#0x10              ; [CPU_] |347| 
     711 00000026 960B!         MOV       @_EPwm1Regs+11,AL     ; [CPU_] |347| 
     712                      .dwpsn  file "../source/Solar Microinverter_main.c",line 349,column 4,is_stmt,isa 0
     713 00000027 CC0B!         AND       AL,@_EPwm1Regs+11,#0xfffe ; [CPU_] |349| 
         00000028 FFFE 
     714 00000029 5002          ORB       AL,#0x02              ; [CPU_] |349| 
     715 0000002a 960B!         MOV       @_EPwm1Regs+11,AL     ; [CPU_] |349| 
     716                      .dwpsn  file "../source/Solar Microinverter_main.c",line 357,column 4,is_stmt,isa 0
     717 0000002b 1AC5          OR        *+XAR5[0],#0x0003     ; [CPU_] |357| 
         0000002c 0003 
     718                      .dwpsn  file "../source/Solar Microinverter_main.c",line 364,column 4,is_stmt,isa 0
     719 0000002d 83A4          MOVL      XAR5,XAR4             ; [CPU_] |364| 
     720 0000002e DD19          ADDB      XAR5,#25              ; [CPU_] |364| 
     721                      .dwpsn  file "../source/Solar Microinverter_main.c",line 358,column 4,is_stmt,isa 0
     722 0000002f 180F!         AND       @_EPwm1Regs+15,#0xfff3 ; [CPU_] |358| 
         00000030 FFF3 
     723                      .dwpsn  file "../source/Solar Microinverter_main.c",line 359,column 4,is_stmt,isa 0
     724 00000031 180F!         AND       @_EPwm1Regs+15,#0xffcf ; [CPU_] |359| 
         00000032 FFCF 
     725                      .dwpsn  file "../source/Solar Microinverter_main.c",line 360,column 4,is_stmt,isa 0
     726 00000033 1A0F!         OR        @_EPwm1Regs+15,#0x8000 ; [CPU_] |360| 
         00000034 8000 
     727                      .dwpsn  file "../source/Solar Microinverter_main.c",line 361,column 4,is_stmt,isa 0
     728 00000035 56BF!         MOVB      @_EPwm1Regs+16,#10,UNC ; [CPU_] |361| 
         00000036 0A10 
     729                      .dwpsn  file "../source/Solar Microinverter_main.c",line 362,column 4,is_stmt,isa 0
     730 00000037 56BF!         MOVB      @_EPwm1Regs+17,#30,UNC ; [CPU_] |362| 
TMS320C2000 Assembler PC v16.9.6 Tue Mar 06 18:34:46 2018

Tools Copyright (c) 1996-2017 Texas Instruments Incorporated
C:\Users\Admin\AppData\Local\Temp\{ED9AE313-281A-4435-8F2A-5411619B06A2} PAGE   15

         00000038 1E11 
     731                      .dwpsn  file "../source/Solar Microinverter_main.c",line 364,column 4,is_stmt,isa 0
     732 00000039 1AC5          OR        *+XAR5[0],#0x0800     ; [CPU_] |364| 
         0000003a 0800 
     733                      .dwpsn  file "../source/Solar Microinverter_main.c",line 376,column 4,is_stmt,isa 0
     734 0000003b 83A4          MOVL      XAR5,XAR4             ; [CPU_] |376| 
     735                      .dwpsn  file "../source/Solar Microinverter_main.c",line 366,column 4,is_stmt,isa 0
     736 0000003c D01A          MOVB      XAR0,#26              ; [CPU_] |366| 
     737                      .dwpsn  file "../source/Solar Microinverter_main.c",line 376,column 4,is_stmt,isa 0
     738 0000003d DD31          ADDB      XAR5,#49              ; [CPU_] |376| 
     739                      .dwpsn  file "../source/Solar Microinverter_main.c",line 365,column 4,is_stmt,isa 0
     740 0000003e CC19!         AND       AL,@_EPwm1Regs+25,#0xf9ff ; [CPU_] |365| 
         0000003f F9FF 
     741 00000040 1AA9          OR        AL,#0x0100            ; [CPU_] |365| 
         00000041 0100 
     742 00000042 9619!         MOV       @_EPwm1Regs+25,AL     ; [CPU_] |365| 
     743                      .dwpsn  file "../source/Solar Microinverter_main.c",line 366,column 4,is_stmt,isa 0
     744 00000043 CC94          AND       AL,*+XAR4[AR0],#0xfdff ; [CPU_] |366| 
         00000044 FDFF 
     745 00000045 1AA9          OR        AL,#0x0100            ; [CPU_] |366| 
         00000046 0100 
     746                      .dwpsn  file "../source/Solar Microinverter_main.c",line 372,column 4,is_stmt,isa 0
     747 00000047 D030          MOVB      XAR0,#48              ; [CPU_] |372| 
     748                      .dwpsn  file "../source/Solar Microinverter_main.c",line 366,column 4,is_stmt,isa 0
     749 00000048 961A!         MOV       @_EPwm1Regs+26,AL     ; [CPU_] |366| 
     750                      .dwpsn  file "../source/Solar Microinverter_main.c",line 367,column 4,is_stmt,isa 0
     751 00000049 CC19!         AND       AL,@_EPwm1Regs+25,#0xfff8 ; [CPU_] |367| 
         0000004a FFF8 
     752 0000004b 5001          ORB       AL,#0x01              ; [CPU_] |367| 
     753 0000004c 9619!         MOV       @_EPwm1Regs+25,AL     ; [CPU_] |367| 
     754                      .dwpsn  file "../source/Solar Microinverter_main.c",line 368,column 4,is_stmt,isa 0
     755 0000004d 1A19!         OR        @_EPwm1Regs+25,#0x0008 ; [CPU_] |368| 
         0000004e 0008 
     756                      .dwpsn  file "../source/Solar Microinverter_main.c",line 369,column 4,is_stmt,isa 0
     757 0000004f CC1A!         AND       AL,@_EPwm1Regs+26,#0xfffc ; [CPU_] |369| 
         00000050 FFFC 
     758 00000051 5001          ORB       AL,#0x01              ; [CPU_] |369| 
     759 00000052 961A!         MOV       @_EPwm1Regs+26,AL     ; [CPU_] |369| 
     760                      .dwpsn  file "../source/Solar Microinverter_main.c",line 372,column 4,is_stmt,isa 0
     761 00000053 CC94          AND       AL,*+XAR4[AR0],#0xfff8 ; [CPU_] |372| 
         00000054 FFF8 
     762 00000055 5009          ORB       AL,#0x09              ; [CPU_] |372| 
     763                      .dwpsn  file "../source/Solar Microinverter_main.c",line 374,column 4,is_stmt,isa 0
     764 00000056 D013          MOVB      XAR0,#19              ; [CPU_] |374| 
     765                      .dwpsn  file "../source/Solar Microinverter_main.c",line 372,column 4,is_stmt,isa 0
     766 00000057 9630!         MOV       @_EPwm1Regs+48,AL     ; [CPU_] |372| 
     767                      .dwpsn  file "../source/Solar Microinverter_main.c",line 373,column 4,is_stmt,isa 0
     768 00000058 CC30!         AND       AL,@_EPwm1Regs+48,#0xf9ff ; [CPU_] |373| 
         00000059 F9FF 
     769 0000005a 1AA9          OR        AL,#0x0900            ; [CPU_] |373| 
         0000005b 0900 
     770 0000005c 9630!         MOV       @_EPwm1Regs+48,AL     ; [CPU_] |373| 
     771                      .dwpsn  file "../source/Solar Microinverter_main.c",line 374,column 4,is_stmt,isa 0
     772 0000005d CC94          AND       AL,*+XAR4[AR0],#0xfff8 ; [CPU_] |374| 
         0000005e FFF8 
TMS320C2000 Assembler PC v16.9.6 Tue Mar 06 18:34:46 2018

Tools Copyright (c) 1996-2017 Texas Instruments Incorporated
C:\Users\Admin\AppData\Local\Temp\{ED9AE313-281A-4435-8F2A-5411619B06A2} PAGE   16

     773 0000005f 5002          ORB       AL,#0x02              ; [CPU_] |374| 
     774 00000060 9613!         MOV       @_EPwm1Regs+19,AL     ; [CPU_] |374| 
     775                      .dwpsn  file "../source/Solar Microinverter_main.c",line 375,column 4,is_stmt,isa 0
     776 00000061 CC13!         AND       AL,@_EPwm1Regs+19,#0xfe3f ; [CPU_] |375| 
         00000062 FE3F 
     777 00000063 5080          ORB       AL,#0x80              ; [CPU_] |375| 
     778 00000064 9613!         MOV       @_EPwm1Regs+19,AL     ; [CPU_] |375| 
     779                      .dwpsn  file "../source/Solar Microinverter_main.c",line 376,column 4,is_stmt,isa 0
     780 00000065 18C5          AND       *+XAR5[0],#0xfffe     ; [CPU_] |376| 
         00000066 FFFE 
     781                      .dwpsn  file "../source/Solar Microinverter_main.c",line 378,column 4,is_stmt,isa 0
     782 00000067 83A4          MOVL      XAR5,XAR4             ; [CPU_] |378| 
     783                      .dwpsn  file "../source/Solar Microinverter_main.c",line 387,column 3,is_stmt,isa 0
     784 00000068 D014          MOVB      XAR0,#20              ; [CPU_] |387| 
     785                      .dwpsn  file "../source/Solar Microinverter_main.c",line 378,column 4,is_stmt,isa 0
     786 00000069 DD12          ADDB      XAR5,#18              ; [CPU_] |378| 
     787                      .dwpsn  file "../source/Solar Microinverter_main.c",line 377,column 4,is_stmt,isa 0
     788 0000006a 1A31!         OR        @_EPwm1Regs+49,#0x0002 ; [CPU_] |377| 
         0000006b 0002 
     789                      .dwpsn  file "../source/Solar Microinverter_main.c",line 378,column 4,is_stmt,isa 0
     790 0000006c 1AC5          OR        *+XAR5[0],#0x4000     ; [CPU_] |378| 
         0000006d 4000 
     791                      .dwpsn  file "../source/Solar Microinverter_main.c",line 379,column 4,is_stmt,isa 0
     792 0000006e 1A12!         OR        @_EPwm1Regs+18,#0x8000 ; [CPU_] |379| 
         0000006f 8000 
     793                      .dwpsn  file "../source/Solar Microinverter_main.c",line 383,column 4,is_stmt,isa 0
     794 00000070 1A12!         OR        @_EPwm1Regs+18,#0x0200 ; [CPU_] |383| 
         00000071 0200 
     795                      .dwpsn  file "../source/Solar Microinverter_main.c",line 387,column 3,is_stmt,isa 0
     796 00000072 CC94          AND       AL,*+XAR4[AR0],#0xfffe ; [CPU_] |387| 
         00000073 FFFE 
     797 00000074 5002          ORB       AL,#0x02              ; [CPU_] |387| 
     798                      .dwpsn  file "../source/Solar Microinverter_main.c",line 392,column 3,is_stmt,isa 0
     799 00000075 DC15          ADDB      XAR4,#21              ; [CPU_] |392| 
     800                      .dwpsn  file "../source/Solar Microinverter_main.c",line 387,column 3,is_stmt,isa 0
     801 00000076 9614!         MOV       @_EPwm1Regs+20,AL     ; [CPU_] |387| 
     802                      .dwpsn  file "../source/Solar Microinverter_main.c",line 388,column 3,is_stmt,isa 0
     803 00000077 CC14!         AND       AL,@_EPwm1Regs+20,#0xfff7 ; [CPU_] |388| 
         00000078 FFF7 
     804 00000079 5004          ORB       AL,#0x04              ; [CPU_] |388| 
     805 0000007a 9614!         MOV       @_EPwm1Regs+20,AL     ; [CPU_] |388| 
     806                      .dwpsn  file "../source/Solar Microinverter_main.c",line 389,column 3,is_stmt,isa 0
     807 0000007b CC14!         AND       AL,@_EPwm1Regs+20,#0xffef ; [CPU_] |389| 
         0000007c FFEF 
     808 0000007d 5020          ORB       AL,#0x20              ; [CPU_] |389| 
     809 0000007e 9614!         MOV       @_EPwm1Regs+20,AL     ; [CPU_] |389| 
     810                      .dwpsn  file "../source/Solar Microinverter_main.c",line 390,column 3,is_stmt,isa 0
     811 0000007f CC14!         AND       AL,@_EPwm1Regs+20,#0xfdff ; [CPU_] |390| 
         00000080 FDFF 
     812 00000081 1AA9          OR        AL,#0x0100            ; [CPU_] |390| 
         00000082 0100 
     813 00000083 9614!         MOV       @_EPwm1Regs+20,AL     ; [CPU_] |390| 
     814                      .dwpsn  file "../source/Solar Microinverter_main.c",line 392,column 3,is_stmt,isa 0
     815 00000084 1AC4          OR        *+XAR4[0],#0x0004     ; [CPU_] |392| 
         00000085 0004 
TMS320C2000 Assembler PC v16.9.6 Tue Mar 06 18:34:46 2018

Tools Copyright (c) 1996-2017 Texas Instruments Incorporated
C:\Users\Admin\AppData\Local\Temp\{ED9AE313-281A-4435-8F2A-5411619B06A2} PAGE   17

     816                      .dwpsn  file "../source/Solar Microinverter_main.c",line 393,column 3,is_stmt,isa 0
     817 00000086 1A15!         OR        @_EPwm1Regs+21,#0x0008 ; [CPU_] |393| 
         00000087 0008 
     818                      .dwpsn  file "../source/Solar Microinverter_main.c",line 394,column 3,is_stmt,isa 0
     819 00000088 1A15!         OR        @_EPwm1Regs+21,#0x0020 ; [CPU_] |394| 
         00000089 0020 
     820 0000008a 761A   EDIS
     821 0000008b FF69          SPM       #0                    ; [CPU_] 
     822              $C$DW$73        .dwtag  DW_TAG_TI_branch
     823                      .dwattr $C$DW$73, DW_AT_low_pc(0x00)
     824                      .dwattr $C$DW$73, DW_AT_TI_return
     825              
     826 0000008c 0006          LRETR     ; [CPU_] 
     827                      ; return occurs ; [] 
     828                      .dwattr $C$DW$72, DW_AT_TI_end_file("../source/Solar Microinverter_main.c")
     829                      .dwattr $C$DW$72, DW_AT_TI_end_line(0x18c)
     830                      .dwattr $C$DW$72, DW_AT_TI_end_column(0x01)
     831                      .dwendentry
     832                      .dwendtag $C$DW$72
     833              
     834 0000008d               .sect   ".text"
     835                      .clink
     836                      .global _InitEPwm2Example
     837              
     838              $C$DW$74        .dwtag  DW_TAG_subprogram
     839                      .dwattr $C$DW$74, DW_AT_name("InitEPwm2Example")
     840                      .dwattr $C$DW$74, DW_AT_low_pc(_InitEPwm2Example)
     841                      .dwattr $C$DW$74, DW_AT_high_pc(0x00)
     842                      .dwattr $C$DW$74, DW_AT_TI_symbol_name("_InitEPwm2Example")
     843                      .dwattr $C$DW$74, DW_AT_external
     844                      .dwattr $C$DW$74, DW_AT_TI_begin_file("../source/Solar Microinverter_main.c")
     845                      .dwattr $C$DW$74, DW_AT_TI_begin_line(0x18e)
     846                      .dwattr $C$DW$74, DW_AT_TI_begin_column(0x06)
     847                      .dwattr $C$DW$74, DW_AT_TI_max_frame_size(-2)
     848                      .dwpsn  file "../source/Solar Microinverter_main.c",line 399,column 1,is_stmt,address _InitEPwm2Examp
     849              
     850                      .dwfde $C$DW$CIE, _InitEPwm2Example
     851              
     852              ;***************************************************************
     853              ;* FNAME: _InitEPwm2Example             FR SIZE:   0           *
     854              ;*                                                             *
     855              ;* FUNCTION ENVIRONMENT                                        *
     856              ;*                                                             *
     857              ;* FUNCTION PROPERTIES                                         *
     858              ;*                            0 Parameter,  0 Auto,  0 SOE     *
     859              ;***************************************************************
     860              
     861 0000008d       _InitEPwm2Example:
     862              ;* AR4   assigned to $O$C1
     863                      .dwcfi  cfa_offset, -2
     864                      .dwcfi  save_reg_to_mem, 26, 0
     865 0000008d 7622   EALLOW
     866 0000008e 761F!         MOVW      DP,#_EPwm2Regs+5      ; [CPU_U] 
         0000008f 0000 
     867                      .dwpsn  file "../source/Solar Microinverter_main.c",line 404,column 4,is_stmt,isa 0
TMS320C2000 Assembler PC v16.9.6 Tue Mar 06 18:34:46 2018

Tools Copyright (c) 1996-2017 Texas Instruments Incorporated
C:\Users\Admin\AppData\Local\Temp\{ED9AE313-281A-4435-8F2A-5411619B06A2} PAGE   18

     868 00000090 8F00!         MOVL      XAR4,#_EPwm2Regs      ; [CPU_U] |404| 
         00000091 0000 
     869                      .dwpsn  file "../source/Solar Microinverter_main.c",line 401,column 4,is_stmt,isa 0
     870 00000092 2805!         MOV       @_EPwm2Regs+5,#535    ; [CPU_] |401| 
         00000093 0217 
     871                      .dwpsn  file "../source/Solar Microinverter_main.c",line 427,column 4,is_stmt,isa 0
     872 00000094 83A4          MOVL      XAR5,XAR4             ; [CPU_] |427| 
     873                      .dwpsn  file "../source/Solar Microinverter_main.c",line 402,column 4,is_stmt,isa 0
     874 00000095 2803!         MOV       @_EPwm2Regs+3,#535    ; [CPU_] |402| 
         00000096 0217 
     875                      .dwpsn  file "../source/Solar Microinverter_main.c",line 422,column 4,is_stmt,isa 0
     876 00000097 D00B          MOVB      XAR0,#11              ; [CPU_] |422| 
     877                      .dwpsn  file "../source/Solar Microinverter_main.c",line 403,column 4,is_stmt,isa 0
     878 00000098 2B04!         MOV       @_EPwm2Regs+4,#0      ; [CPU_] |403| 
     879                      .dwpsn  file "../source/Solar Microinverter_main.c",line 404,column 4,is_stmt,isa 0
     880 00000099 18C4          AND       *+XAR4[0],#0xffcf     ; [CPU_] |404| 
         0000009a FFCF 
     881                      .dwpsn  file "../source/Solar Microinverter_main.c",line 405,column 4,is_stmt,isa 0
     882 0000009b 1AC4          OR        *+XAR4[0],#0x0004     ; [CPU_] |405| 
         0000009c 0004 
     883                      .dwpsn  file "../source/Solar Microinverter_main.c",line 427,column 4,is_stmt,isa 0
     884 0000009d DD0F          ADDB      XAR5,#15              ; [CPU_] |427| 
     885                      .dwpsn  file "../source/Solar Microinverter_main.c",line 406,column 4,is_stmt,isa 0
     886 0000009e 1AC4          OR        *+XAR4[0],#0x2000     ; [CPU_] |406| 
         0000009f 2000 
     887                      .dwpsn  file "../source/Solar Microinverter_main.c",line 409,column 4,is_stmt,isa 0
     888 000000a0 CCC4          AND       AL,*+XAR4[0],#0xfffe  ; [CPU_] |409| 
         000000a1 FFFE 
     889 000000a2 5002          ORB       AL,#0x02              ; [CPU_] |409| 
     890 000000a3 96C4          MOV       *+XAR4[0],AL          ; [CPU_] |409| 
     891                      .dwpsn  file "../source/Solar Microinverter_main.c",line 410,column 4,is_stmt,isa 0
     892 000000a4 18C4          AND       *+XAR4[0],#0xfc7f     ; [CPU_] |410| 
         000000a5 FC7F 
     893                      .dwpsn  file "../source/Solar Microinverter_main.c",line 411,column 4,is_stmt,isa 0
     894 000000a6 18C4          AND       *+XAR4[0],#0xe3ff     ; [CPU_] |411| 
         000000a7 E3FF 
     895                      .dwpsn  file "../source/Solar Microinverter_main.c",line 413,column 4,is_stmt,isa 0
     896 000000a8 18FC          AND       *+XAR4[7],#0xffef     ; [CPU_] |413| 
         000000a9 FFEF 
     897                      .dwpsn  file "../source/Solar Microinverter_main.c",line 414,column 4,is_stmt,isa 0
     898 000000aa 1807!         AND       @_EPwm2Regs+7,#0xffbf ; [CPU_] |414| 
         000000ab FFBF 
     899                      .dwpsn  file "../source/Solar Microinverter_main.c",line 415,column 4,is_stmt,isa 0
     900 000000ac 1807!         AND       @_EPwm2Regs+7,#0xfffc ; [CPU_] |415| 
         000000ad FFFC 
     901                      .dwpsn  file "../source/Solar Microinverter_main.c",line 416,column 4,is_stmt,isa 0
     902 000000ae 1807!         AND       @_EPwm2Regs+7,#0xfff3 ; [CPU_] |416| 
         000000af FFF3 
     903                      .dwpsn  file "../source/Solar Microinverter_main.c",line 419,column 4,is_stmt,isa 0
     904 000000b0 2B09!         MOV       @_EPwm2Regs+9,#0      ; [CPU_] |419| 
     905                      .dwpsn  file "../source/Solar Microinverter_main.c",line 422,column 4,is_stmt,isa 0
     906 000000b1 CC94          AND       AL,*+XAR4[AR0],#0xffdf ; [CPU_] |422| 
         000000b2 FFDF 
     907 000000b3 5010          ORB       AL,#0x10              ; [CPU_] |422| 
     908 000000b4 960B!         MOV       @_EPwm2Regs+11,AL     ; [CPU_] |422| 
TMS320C2000 Assembler PC v16.9.6 Tue Mar 06 18:34:46 2018

Tools Copyright (c) 1996-2017 Texas Instruments Incorporated
C:\Users\Admin\AppData\Local\Temp\{ED9AE313-281A-4435-8F2A-5411619B06A2} PAGE   19

     909                      .dwpsn  file "../source/Solar Microinverter_main.c",line 423,column 4,is_stmt,isa 0
     910 000000b5 CC0B!         AND       AL,@_EPwm2Regs+11,#0xfffe ; [CPU_] |423| 
         000000b6 FFFE 
     911 000000b7 5002          ORB       AL,#0x02              ; [CPU_] |423| 
     912 000000b8 960B!         MOV       @_EPwm2Regs+11,AL     ; [CPU_] |423| 
     913                      .dwpsn  file "../source/Solar Microinverter_main.c",line 427,column 4,is_stmt,isa 0
     914 000000b9 1AC5          OR        *+XAR5[0],#0x0003     ; [CPU_] |427| 
         000000ba 0003 
     915                      .dwpsn  file "../source/Solar Microinverter_main.c",line 439,column 4,is_stmt,isa 0
     916 000000bb 83A4          MOVL      XAR5,XAR4             ; [CPU_] |439| 
     917                      .dwpsn  file "../source/Solar Microinverter_main.c",line 435,column 4,is_stmt,isa 0
     918 000000bc D030          MOVB      XAR0,#48              ; [CPU_] |435| 
     919                      .dwpsn  file "../source/Solar Microinverter_main.c",line 428,column 4,is_stmt,isa 0
     920 000000bd 180F!         AND       @_EPwm2Regs+15,#0xfff3 ; [CPU_] |428| 
         000000be FFF3 
     921                      .dwpsn  file "../source/Solar Microinverter_main.c",line 439,column 4,is_stmt,isa 0
     922 000000bf DD31          ADDB      XAR5,#49              ; [CPU_] |439| 
     923                      .dwpsn  file "../source/Solar Microinverter_main.c",line 429,column 4,is_stmt,isa 0
     924 000000c0 180F!         AND       @_EPwm2Regs+15,#0xffcf ; [CPU_] |429| 
         000000c1 FFCF 
     925                      .dwpsn  file "../source/Solar Microinverter_main.c",line 430,column 4,is_stmt,isa 0
     926 000000c2 1A0F!         OR        @_EPwm2Regs+15,#0x8000 ; [CPU_] |430| 
         000000c3 8000 
     927                      .dwpsn  file "../source/Solar Microinverter_main.c",line 431,column 4,is_stmt,isa 0
     928 000000c4 56BF!         MOVB      @_EPwm2Regs+16,#10,UNC ; [CPU_] |431| 
         000000c5 0A10 
     929                      .dwpsn  file "../source/Solar Microinverter_main.c",line 432,column 4,is_stmt,isa 0
     930 000000c6 56BF!         MOVB      @_EPwm2Regs+17,#30,UNC ; [CPU_] |432| 
         000000c7 1E11 
     931                      .dwpsn  file "../source/Solar Microinverter_main.c",line 435,column 4,is_stmt,isa 0
     932 000000c8 CC94          AND       AL,*+XAR4[AR0],#0xfff8 ; [CPU_] |435| 
         000000c9 FFF8 
     933 000000ca 500A          ORB       AL,#0x0a              ; [CPU_] |435| 
     934                      .dwpsn  file "../source/Solar Microinverter_main.c",line 437,column 4,is_stmt,isa 0
     935 000000cb D013          MOVB      XAR0,#19              ; [CPU_] |437| 
     936                      .dwpsn  file "../source/Solar Microinverter_main.c",line 435,column 4,is_stmt,isa 0
     937 000000cc 9630!         MOV       @_EPwm2Regs+48,AL     ; [CPU_] |435| 
     938                      .dwpsn  file "../source/Solar Microinverter_main.c",line 436,column 4,is_stmt,isa 0
     939 000000cd CC30!         AND       AL,@_EPwm2Regs+48,#0xf8ff ; [CPU_] |436| 
         000000ce F8FF 
     940 000000cf 1AA9          OR        AL,#0x0a00            ; [CPU_] |436| 
         000000d0 0A00 
     941 000000d1 9630!         MOV       @_EPwm2Regs+48,AL     ; [CPU_] |436| 
     942                      .dwpsn  file "../source/Solar Microinverter_main.c",line 437,column 4,is_stmt,isa 0
     943 000000d2 CC94          AND       AL,*+XAR4[AR0],#0xfff8 ; [CPU_] |437| 
         000000d3 FFF8 
     944 000000d4 5002          ORB       AL,#0x02              ; [CPU_] |437| 
     945 000000d5 9613!         MOV       @_EPwm2Regs+19,AL     ; [CPU_] |437| 
     946                      .dwpsn  file "../source/Solar Microinverter_main.c",line 438,column 4,is_stmt,isa 0
     947 000000d6 CC13!         AND       AL,@_EPwm2Regs+19,#0xfe3f ; [CPU_] |438| 
         000000d7 FE3F 
     948 000000d8 5080          ORB       AL,#0x80              ; [CPU_] |438| 
     949 000000d9 9613!         MOV       @_EPwm2Regs+19,AL     ; [CPU_] |438| 
     950                      .dwpsn  file "../source/Solar Microinverter_main.c",line 439,column 4,is_stmt,isa 0
     951 000000da 18C5          AND       *+XAR5[0],#0xfffe     ; [CPU_] |439| 
TMS320C2000 Assembler PC v16.9.6 Tue Mar 06 18:34:46 2018

Tools Copyright (c) 1996-2017 Texas Instruments Incorporated
C:\Users\Admin\AppData\Local\Temp\{ED9AE313-281A-4435-8F2A-5411619B06A2} PAGE   20

         000000db FFFE 
     952                      .dwpsn  file "../source/Solar Microinverter_main.c",line 441,column 4,is_stmt,isa 0
     953 000000dc 83A4          MOVL      XAR5,XAR4             ; [CPU_] |441| 
     954                      .dwpsn  file "../source/Solar Microinverter_main.c",line 450,column 3,is_stmt,isa 0
     955 000000dd D014          MOVB      XAR0,#20              ; [CPU_] |450| 
     956                      .dwpsn  file "../source/Solar Microinverter_main.c",line 441,column 4,is_stmt,isa 0
     957 000000de DD12          ADDB      XAR5,#18              ; [CPU_] |441| 
     958                      .dwpsn  file "../source/Solar Microinverter_main.c",line 440,column 4,is_stmt,isa 0
     959 000000df 1A31!         OR        @_EPwm2Regs+49,#0x0002 ; [CPU_] |440| 
         000000e0 0002 
     960                      .dwpsn  file "../source/Solar Microinverter_main.c",line 441,column 4,is_stmt,isa 0
     961 000000e1 1AC5          OR        *+XAR5[0],#0x4000     ; [CPU_] |441| 
         000000e2 4000 
     962                      .dwpsn  file "../source/Solar Microinverter_main.c",line 442,column 4,is_stmt,isa 0
     963 000000e3 1A12!         OR        @_EPwm2Regs+18,#0x8000 ; [CPU_] |442| 
         000000e4 8000 
     964                      .dwpsn  file "../source/Solar Microinverter_main.c",line 446,column 4,is_stmt,isa 0
     965 000000e5 1A12!         OR        @_EPwm2Regs+18,#0x0200 ; [CPU_] |446| 
         000000e6 0200 
     966                      .dwpsn  file "../source/Solar Microinverter_main.c",line 450,column 3,is_stmt,isa 0
     967 000000e7 CC94          AND       AL,*+XAR4[AR0],#0xfffe ; [CPU_] |450| 
         000000e8 FFFE 
     968 000000e9 5002          ORB       AL,#0x02              ; [CPU_] |450| 
     969                      .dwpsn  file "../source/Solar Microinverter_main.c",line 455,column 3,is_stmt,isa 0
     970 000000ea DC15          ADDB      XAR4,#21              ; [CPU_] |455| 
     971                      .dwpsn  file "../source/Solar Microinverter_main.c",line 450,column 3,is_stmt,isa 0
     972 000000eb 9614!         MOV       @_EPwm2Regs+20,AL     ; [CPU_] |450| 
     973                      .dwpsn  file "../source/Solar Microinverter_main.c",line 451,column 3,is_stmt,isa 0
     974 000000ec CC14!         AND       AL,@_EPwm2Regs+20,#0xfff7 ; [CPU_] |451| 
         000000ed FFF7 
     975 000000ee 5004          ORB       AL,#0x04              ; [CPU_] |451| 
     976 000000ef 9614!         MOV       @_EPwm2Regs+20,AL     ; [CPU_] |451| 
     977                      .dwpsn  file "../source/Solar Microinverter_main.c",line 452,column 3,is_stmt,isa 0
     978 000000f0 CC14!         AND       AL,@_EPwm2Regs+20,#0xffef ; [CPU_] |452| 
         000000f1 FFEF 
     979 000000f2 5020          ORB       AL,#0x20              ; [CPU_] |452| 
     980 000000f3 9614!         MOV       @_EPwm2Regs+20,AL     ; [CPU_] |452| 
     981                      .dwpsn  file "../source/Solar Microinverter_main.c",line 453,column 3,is_stmt,isa 0
     982 000000f4 CC14!         AND       AL,@_EPwm2Regs+20,#0xfdff ; [CPU_] |453| 
         000000f5 FDFF 
     983 000000f6 1AA9          OR        AL,#0x0100            ; [CPU_] |453| 
         000000f7 0100 
     984 000000f8 9614!         MOV       @_EPwm2Regs+20,AL     ; [CPU_] |453| 
     985                      .dwpsn  file "../source/Solar Microinverter_main.c",line 455,column 3,is_stmt,isa 0
     986 000000f9 1AC4          OR        *+XAR4[0],#0x0004     ; [CPU_] |455| 
         000000fa 0004 
     987                      .dwpsn  file "../source/Solar Microinverter_main.c",line 456,column 3,is_stmt,isa 0
     988 000000fb 1A15!         OR        @_EPwm2Regs+21,#0x0008 ; [CPU_] |456| 
         000000fc 0008 
     989                      .dwpsn  file "../source/Solar Microinverter_main.c",line 457,column 3,is_stmt,isa 0
     990 000000fd 1A15!         OR        @_EPwm2Regs+21,#0x0020 ; [CPU_] |457| 
         000000fe 0020 
     991 000000ff 761A   EDIS
     992 00000100 FF69          SPM       #0                    ; [CPU_] 
     993              $C$DW$75        .dwtag  DW_TAG_TI_branch
TMS320C2000 Assembler PC v16.9.6 Tue Mar 06 18:34:46 2018

Tools Copyright (c) 1996-2017 Texas Instruments Incorporated
C:\Users\Admin\AppData\Local\Temp\{ED9AE313-281A-4435-8F2A-5411619B06A2} PAGE   21

     994                      .dwattr $C$DW$75, DW_AT_low_pc(0x00)
     995                      .dwattr $C$DW$75, DW_AT_TI_return
     996              
     997 00000101 0006          LRETR     ; [CPU_] 
     998                      ; return occurs ; [] 
     999                      .dwattr $C$DW$74, DW_AT_TI_end_file("../source/Solar Microinverter_main.c")
    1000                      .dwattr $C$DW$74, DW_AT_TI_end_line(0x1cb)
    1001                      .dwattr $C$DW$74, DW_AT_TI_end_column(0x01)
    1002                      .dwendentry
    1003                      .dwendtag $C$DW$74
    1004              
    1005 00000102               .sect   ".text"
    1006                      .clink
    1007                      .global _InitEPwm3Example
    1008              
    1009              $C$DW$76        .dwtag  DW_TAG_subprogram
    1010                      .dwattr $C$DW$76, DW_AT_name("InitEPwm3Example")
    1011                      .dwattr $C$DW$76, DW_AT_low_pc(_InitEPwm3Example)
    1012                      .dwattr $C$DW$76, DW_AT_high_pc(0x00)
    1013                      .dwattr $C$DW$76, DW_AT_TI_symbol_name("_InitEPwm3Example")
    1014                      .dwattr $C$DW$76, DW_AT_external
    1015                      .dwattr $C$DW$76, DW_AT_TI_begin_file("../source/Solar Microinverter_main.c")
    1016                      .dwattr $C$DW$76, DW_AT_TI_begin_line(0x1ce)
    1017                      .dwattr $C$DW$76, DW_AT_TI_begin_column(0x06)
    1018                      .dwattr $C$DW$76, DW_AT_TI_max_frame_size(-2)
    1019                      .dwpsn  file "../source/Solar Microinverter_main.c",line 463,column 1,is_stmt,address _InitEPwm3Examp
    1020              
    1021                      .dwfde $C$DW$CIE, _InitEPwm3Example
    1022              
    1023              ;***************************************************************
    1024              ;* FNAME: _InitEPwm3Example             FR SIZE:   0           *
    1025              ;*                                                             *
    1026              ;* FUNCTION ENVIRONMENT                                        *
    1027              ;*                                                             *
    1028              ;* FUNCTION PROPERTIES                                         *
    1029              ;*                            0 Parameter,  0 Auto,  0 SOE     *
    1030              ;***************************************************************
    1031              
    1032 00000102       _InitEPwm3Example:
    1033              ;* AR4   assigned to $O$C1
    1034                      .dwcfi  cfa_offset, -2
    1035                      .dwcfi  save_reg_to_mem, 26, 0
    1036 00000102 7622   EALLOW
    1037 00000103 761F!         MOVW      DP,#_EPwm3Regs+5      ; [CPU_U] 
         00000104 0000 
    1038                      .dwpsn  file "../source/Solar Microinverter_main.c",line 468,column 4,is_stmt,isa 0
    1039 00000105 8F00!         MOVL      XAR4,#_EPwm3Regs      ; [CPU_U] |468| 
         00000106 0000 
    1040                      .dwpsn  file "../source/Solar Microinverter_main.c",line 465,column 4,is_stmt,isa 0
    1041 00000107 2805!         MOV       @_EPwm3Regs+5,#267    ; [CPU_] |465| 
         00000108 010B 
    1042                      .dwpsn  file "../source/Solar Microinverter_main.c",line 491,column 4,is_stmt,isa 0
    1043 00000109 83A4          MOVL      XAR5,XAR4             ; [CPU_] |491| 
    1044                      .dwpsn  file "../source/Solar Microinverter_main.c",line 466,column 4,is_stmt,isa 0
    1045 0000010a 2B03!         MOV       @_EPwm3Regs+3,#0      ; [CPU_] |466| 
TMS320C2000 Assembler PC v16.9.6 Tue Mar 06 18:34:46 2018

Tools Copyright (c) 1996-2017 Texas Instruments Incorporated
C:\Users\Admin\AppData\Local\Temp\{ED9AE313-281A-4435-8F2A-5411619B06A2} PAGE   22

    1046                      .dwpsn  file "../source/Solar Microinverter_main.c",line 484,column 4,is_stmt,isa 0
    1047 0000010b D00B          MOVB      XAR0,#11              ; [CPU_] |484| 
    1048                      .dwpsn  file "../source/Solar Microinverter_main.c",line 467,column 4,is_stmt,isa 0
    1049 0000010c 2B04!         MOV       @_EPwm3Regs+4,#0      ; [CPU_] |467| 
    1050                      .dwpsn  file "../source/Solar Microinverter_main.c",line 468,column 4,is_stmt,isa 0
    1051 0000010d 18C4          AND       *+XAR4[0],#0xfffb     ; [CPU_] |468| 
         0000010e FFFB 
    1052                      .dwpsn  file "../source/Solar Microinverter_main.c",line 471,column 4,is_stmt,isa 0
    1053 0000010f 18C4          AND       *+XAR4[0],#0xfffc     ; [CPU_] |471| 
         00000110 FFFC 
    1054                      .dwpsn  file "../source/Solar Microinverter_main.c",line 491,column 4,is_stmt,isa 0
    1055 00000111 DD0F          ADDB      XAR5,#15              ; [CPU_] |491| 
    1056                      .dwpsn  file "../source/Solar Microinverter_main.c",line 472,column 4,is_stmt,isa 0
    1057 00000112 18C4          AND       *+XAR4[0],#0xfc7f     ; [CPU_] |472| 
         00000113 FC7F 
    1058                      .dwpsn  file "../source/Solar Microinverter_main.c",line 473,column 4,is_stmt,isa 0
    1059 00000114 18C4          AND       *+XAR4[0],#0xe3ff     ; [CPU_] |473| 
         00000115 E3FF 
    1060                      .dwpsn  file "../source/Solar Microinverter_main.c",line 476,column 4,is_stmt,isa 0
    1061 00000116 56BF!         MOVB      @_EPwm3Regs+9,#133,UNC ; [CPU_] |476| 
         00000117 8509 
    1062                      .dwpsn  file "../source/Solar Microinverter_main.c",line 478,column 4,is_stmt,isa 0
    1063 00000118 18FC          AND       *+XAR4[7],#0xffef     ; [CPU_] |478| 
         00000119 FFEF 
    1064                      .dwpsn  file "../source/Solar Microinverter_main.c",line 479,column 4,is_stmt,isa 0
    1065 0000011a 1807!         AND       @_EPwm3Regs+7,#0xffbf ; [CPU_] |479| 
         0000011b FFBF 
    1066                      .dwpsn  file "../source/Solar Microinverter_main.c",line 480,column 4,is_stmt,isa 0
    1067 0000011c 1807!         AND       @_EPwm3Regs+7,#0xfffc ; [CPU_] |480| 
         0000011d FFFC 
    1068                      .dwpsn  file "../source/Solar Microinverter_main.c",line 481,column 4,is_stmt,isa 0
    1069 0000011e 1807!         AND       @_EPwm3Regs+7,#0xfff3 ; [CPU_] |481| 
         0000011f FFF3 
    1070                      .dwpsn  file "../source/Solar Microinverter_main.c",line 484,column 4,is_stmt,isa 0
    1071 00000120 CC94          AND       AL,*+XAR4[AR0],#0xffdf ; [CPU_] |484| 
         00000121 FFDF 
    1072 00000122 5010          ORB       AL,#0x10              ; [CPU_] |484| 
    1073                      .dwpsn  file "../source/Solar Microinverter_main.c",line 486,column 4,is_stmt,isa 0
    1074 00000123 D00C          MOVB      XAR0,#12              ; [CPU_] |486| 
    1075                      .dwpsn  file "../source/Solar Microinverter_main.c",line 484,column 4,is_stmt,isa 0
    1076 00000124 960B!         MOV       @_EPwm3Regs+11,AL     ; [CPU_] |484| 
    1077                      .dwpsn  file "../source/Solar Microinverter_main.c",line 485,column 4,is_stmt,isa 0
    1078 00000125 CC0B!         AND       AL,@_EPwm3Regs+11,#0xfffe ; [CPU_] |485| 
         00000126 FFFE 
    1079 00000127 5002          ORB       AL,#0x02              ; [CPU_] |485| 
    1080 00000128 960B!         MOV       @_EPwm3Regs+11,AL     ; [CPU_] |485| 
    1081                      .dwpsn  file "../source/Solar Microinverter_main.c",line 486,column 4,is_stmt,isa 0
    1082 00000129 CC94          AND       AL,*+XAR4[AR0],#0xffdf ; [CPU_] |486| 
         0000012a FFDF 
    1083 0000012b 5010          ORB       AL,#0x10              ; [CPU_] |486| 
    1084 0000012c 960C!         MOV       @_EPwm3Regs+12,AL     ; [CPU_] |486| 
    1085                      .dwpsn  file "../source/Solar Microinverter_main.c",line 487,column 4,is_stmt,isa 0
    1086 0000012d CC0C!         AND       AL,@_EPwm3Regs+12,#0xfffe ; [CPU_] |487| 
         0000012e FFFE 
    1087 0000012f 5002          ORB       AL,#0x02              ; [CPU_] |487| 
TMS320C2000 Assembler PC v16.9.6 Tue Mar 06 18:34:46 2018

Tools Copyright (c) 1996-2017 Texas Instruments Incorporated
C:\Users\Admin\AppData\Local\Temp\{ED9AE313-281A-4435-8F2A-5411619B06A2} PAGE   23

    1088 00000130 960C!         MOV       @_EPwm3Regs+12,AL     ; [CPU_] |487| 
    1089                      .dwpsn  file "../source/Solar Microinverter_main.c",line 491,column 4,is_stmt,isa 0
    1090 00000131 18C5          AND       *+XAR5[0],#0xfffc     ; [CPU_] |491| 
         00000132 FFFC 
    1091                      .dwpsn  file "../source/Solar Microinverter_main.c",line 496,column 4,is_stmt,isa 0
    1092 00000133 83A4          MOVL      XAR5,XAR4             ; [CPU_] |496| 
    1093                      .dwpsn  file "../source/Solar Microinverter_main.c",line 494,column 4,is_stmt,isa 0
    1094 00000134 D030          MOVB      XAR0,#48              ; [CPU_] |494| 
    1095                      .dwpsn  file "../source/Solar Microinverter_main.c",line 496,column 4,is_stmt,isa 0
    1096 00000135 DD33          ADDB      XAR5,#51              ; [CPU_] |496| 
    1097                      .dwpsn  file "../source/Solar Microinverter_main.c",line 494,column 4,is_stmt,isa 0
    1098 00000136 CC94          AND       AL,*+XAR4[AR0],#0xfff8 ; [CPU_] |494| 
         00000137 FFF8 
    1099 00000138 5008          ORB       AL,#0x08              ; [CPU_] |494| 
    1100 00000139 9630!         MOV       @_EPwm3Regs+48,AL     ; [CPU_] |494| 
    1101                      .dwpsn  file "../source/Solar Microinverter_main.c",line 495,column 4,is_stmt,isa 0
    1102 0000013a CC30!         AND       AL,@_EPwm3Regs+48,#0xf8ff ; [CPU_] |495| 
         0000013b F8FF 
    1103 0000013c 1AA9          OR        AL,#0x0800            ; [CPU_] |495| 
         0000013d 0800 
    1104 0000013e 9630!         MOV       @_EPwm3Regs+48,AL     ; [CPU_] |495| 
    1105                      .dwpsn  file "../source/Solar Microinverter_main.c",line 496,column 4,is_stmt,isa 0
    1106 0000013f 18C5          AND       *+XAR5[0],#0xfffb     ; [CPU_] |496| 
         00000140 FFFB 
    1107                      .dwpsn  file "../source/Solar Microinverter_main.c",line 500,column 4,is_stmt,isa 0
    1108 00000141 83A4          MOVL      XAR5,XAR4             ; [CPU_] |500| 
    1109                      .dwpsn  file "../source/Solar Microinverter_main.c",line 498,column 4,is_stmt,isa 0
    1110 00000142 D013          MOVB      XAR0,#19              ; [CPU_] |498| 
    1111                      .dwpsn  file "../source/Solar Microinverter_main.c",line 500,column 4,is_stmt,isa 0
    1112 00000143 DD31          ADDB      XAR5,#49              ; [CPU_] |500| 
    1113                      .dwpsn  file "../source/Solar Microinverter_main.c",line 498,column 4,is_stmt,isa 0
    1114 00000144 CC94          AND       AL,*+XAR4[AR0],#0xfff8 ; [CPU_] |498| 
         00000145 FFF8 
    1115 00000146 5002          ORB       AL,#0x02              ; [CPU_] |498| 
    1116 00000147 9613!         MOV       @_EPwm3Regs+19,AL     ; [CPU_] |498| 
    1117                      .dwpsn  file "../source/Solar Microinverter_main.c",line 499,column 4,is_stmt,isa 0
    1118 00000148 CC13!         AND       AL,@_EPwm3Regs+19,#0xfe3f ; [CPU_] |499| 
         00000149 FE3F 
    1119 0000014a 5080          ORB       AL,#0x80              ; [CPU_] |499| 
    1120 0000014b 9613!         MOV       @_EPwm3Regs+19,AL     ; [CPU_] |499| 
    1121                      .dwpsn  file "../source/Solar Microinverter_main.c",line 500,column 4,is_stmt,isa 0
    1122 0000014c 18C5          AND       *+XAR5[0],#0xfffe     ; [CPU_] |500| 
         0000014d FFFE 
    1123                      .dwpsn  file "../source/Solar Microinverter_main.c",line 502,column 4,is_stmt,isa 0
    1124 0000014e 83A4          MOVL      XAR5,XAR4             ; [CPU_] |502| 
    1125                      .dwpsn  file "../source/Solar Microinverter_main.c",line 511,column 4,is_stmt,isa 0
    1126 0000014f D014          MOVB      XAR0,#20              ; [CPU_] |511| 
    1127                      .dwpsn  file "../source/Solar Microinverter_main.c",line 502,column 4,is_stmt,isa 0
    1128 00000150 DD12          ADDB      XAR5,#18              ; [CPU_] |502| 
    1129                      .dwpsn  file "../source/Solar Microinverter_main.c",line 501,column 4,is_stmt,isa 0
    1130 00000151 1A31!         OR        @_EPwm3Regs+49,#0x0002 ; [CPU_] |501| 
         00000152 0002 
    1131                      .dwpsn  file "../source/Solar Microinverter_main.c",line 502,column 4,is_stmt,isa 0
    1132 00000153 1AC5          OR        *+XAR5[0],#0x4000     ; [CPU_] |502| 
         00000154 4000 
TMS320C2000 Assembler PC v16.9.6 Tue Mar 06 18:34:46 2018

Tools Copyright (c) 1996-2017 Texas Instruments Incorporated
C:\Users\Admin\AppData\Local\Temp\{ED9AE313-281A-4435-8F2A-5411619B06A2} PAGE   24

    1133                      .dwpsn  file "../source/Solar Microinverter_main.c",line 503,column 4,is_stmt,isa 0
    1134 00000155 1A12!         OR        @_EPwm3Regs+18,#0x8000 ; [CPU_] |503| 
         00000156 8000 
    1135                      .dwpsn  file "../source/Solar Microinverter_main.c",line 507,column 4,is_stmt,isa 0
    1136 00000157 1A12!         OR        @_EPwm3Regs+18,#0x0200 ; [CPU_] |507| 
         00000158 0200 
    1137                      .dwpsn  file "../source/Solar Microinverter_main.c",line 511,column 4,is_stmt,isa 0
    1138 00000159 CC94          AND       AL,*+XAR4[AR0],#0xfffe ; [CPU_] |511| 
         0000015a FFFE 
    1139 0000015b 5002          ORB       AL,#0x02              ; [CPU_] |511| 
    1140                      .dwpsn  file "../source/Solar Microinverter_main.c",line 516,column 4,is_stmt,isa 0
    1141 0000015c DC15          ADDB      XAR4,#21              ; [CPU_] |516| 
    1142                      .dwpsn  file "../source/Solar Microinverter_main.c",line 511,column 4,is_stmt,isa 0
    1143 0000015d 9614!         MOV       @_EPwm3Regs+20,AL     ; [CPU_] |511| 
    1144                      .dwpsn  file "../source/Solar Microinverter_main.c",line 512,column 4,is_stmt,isa 0
    1145 0000015e CC14!         AND       AL,@_EPwm3Regs+20,#0xfffb ; [CPU_] |512| 
         0000015f FFFB 
    1146 00000160 5008          ORB       AL,#0x08              ; [CPU_] |512| 
    1147 00000161 9614!         MOV       @_EPwm3Regs+20,AL     ; [CPU_] |512| 
    1148                      .dwpsn  file "../source/Solar Microinverter_main.c",line 513,column 4,is_stmt,isa 0
    1149 00000162 CC14!         AND       AL,@_EPwm3Regs+20,#0xffef ; [CPU_] |513| 
         00000163 FFEF 
    1150 00000164 5020          ORB       AL,#0x20              ; [CPU_] |513| 
    1151 00000165 9614!         MOV       @_EPwm3Regs+20,AL     ; [CPU_] |513| 
    1152                      .dwpsn  file "../source/Solar Microinverter_main.c",line 514,column 4,is_stmt,isa 0
    1153 00000166 CC14!         AND       AL,@_EPwm3Regs+20,#0xfeff ; [CPU_] |514| 
         00000167 FEFF 
    1154 00000168 1AA9          OR        AL,#0x0200            ; [CPU_] |514| 
         00000169 0200 
    1155 0000016a 9614!         MOV       @_EPwm3Regs+20,AL     ; [CPU_] |514| 
    1156                      .dwpsn  file "../source/Solar Microinverter_main.c",line 516,column 4,is_stmt,isa 0
    1157 0000016b 1AC4          OR        *+XAR4[0],#0x0004     ; [CPU_] |516| 
         0000016c 0004 
    1158                      .dwpsn  file "../source/Solar Microinverter_main.c",line 517,column 4,is_stmt,isa 0
    1159 0000016d 1A15!         OR        @_EPwm3Regs+21,#0x0008 ; [CPU_] |517| 
         0000016e 0008 
    1160                      .dwpsn  file "../source/Solar Microinverter_main.c",line 518,column 4,is_stmt,isa 0
    1161 0000016f 1A15!         OR        @_EPwm3Regs+21,#0x0020 ; [CPU_] |518| 
         00000170 0020 
    1162 00000171 761A   EDIS
    1163 00000172 FF69          SPM       #0                    ; [CPU_] 
    1164              $C$DW$77        .dwtag  DW_TAG_TI_branch
    1165                      .dwattr $C$DW$77, DW_AT_low_pc(0x00)
    1166                      .dwattr $C$DW$77, DW_AT_TI_return
    1167              
    1168 00000173 0006          LRETR     ; [CPU_] 
    1169                      ; return occurs ; [] 
    1170                      .dwattr $C$DW$76, DW_AT_TI_end_file("../source/Solar Microinverter_main.c")
    1171                      .dwattr $C$DW$76, DW_AT_TI_end_line(0x208)
    1172                      .dwattr $C$DW$76, DW_AT_TI_end_column(0x01)
    1173                      .dwendentry
    1174                      .dwendtag $C$DW$76
    1175              
    1176 00000174               .sect   ".text"
    1177                      .clink
TMS320C2000 Assembler PC v16.9.6 Tue Mar 06 18:34:46 2018

Tools Copyright (c) 1996-2017 Texas Instruments Incorporated
C:\Users\Admin\AppData\Local\Temp\{ED9AE313-281A-4435-8F2A-5411619B06A2} PAGE   25

    1178                      .global _InitEPwm4Example
    1179              
    1180              $C$DW$78        .dwtag  DW_TAG_subprogram
    1181                      .dwattr $C$DW$78, DW_AT_name("InitEPwm4Example")
    1182                      .dwattr $C$DW$78, DW_AT_low_pc(_InitEPwm4Example)
    1183                      .dwattr $C$DW$78, DW_AT_high_pc(0x00)
    1184                      .dwattr $C$DW$78, DW_AT_TI_symbol_name("_InitEPwm4Example")
    1185                      .dwattr $C$DW$78, DW_AT_external
    1186                      .dwattr $C$DW$78, DW_AT_TI_begin_file("../source/Solar Microinverter_main.c")
    1187                      .dwattr $C$DW$78, DW_AT_TI_begin_line(0x20a)
    1188                      .dwattr $C$DW$78, DW_AT_TI_begin_column(0x06)
    1189                      .dwattr $C$DW$78, DW_AT_TI_max_frame_size(-2)
    1190                      .dwpsn  file "../source/Solar Microinverter_main.c",line 523,column 1,is_stmt,address _InitEPwm4Examp
    1191              
    1192                      .dwfde $C$DW$CIE, _InitEPwm4Example
    1193              
    1194              ;***************************************************************
    1195              ;* FNAME: _InitEPwm4Example             FR SIZE:   0           *
    1196              ;*                                                             *
    1197              ;* FUNCTION ENVIRONMENT                                        *
    1198              ;*                                                             *
    1199              ;* FUNCTION PROPERTIES                                         *
    1200              ;*                            0 Parameter,  0 Auto,  0 SOE     *
    1201              ;***************************************************************
    1202              
    1203 00000174       _InitEPwm4Example:
    1204              ;* AR4   assigned to $O$C1
    1205                      .dwcfi  cfa_offset, -2
    1206                      .dwcfi  save_reg_to_mem, 26, 0
    1207 00000174 7622   EALLOW
    1208 00000175 761F!         MOVW      DP,#_EPwm4Regs+5      ; [CPU_U] 
         00000176 0000 
    1209                      .dwpsn  file "../source/Solar Microinverter_main.c",line 528,column 4,is_stmt,isa 0
    1210 00000177 8F00!         MOVL      XAR4,#_EPwm4Regs      ; [CPU_U] |528| 
         00000178 0000 
    1211                      .dwpsn  file "../source/Solar Microinverter_main.c",line 525,column 4,is_stmt,isa 0
    1212 00000179 2805!         MOV       @_EPwm4Regs+5,#6000   ; [CPU_] |525| 
         0000017a 1770 
    1213                      .dwpsn  file "../source/Solar Microinverter_main.c",line 535,column 4,is_stmt,isa 0
    1214 0000017b D019          MOVB      XAR0,#25              ; [CPU_] |535| 
    1215                      .dwpsn  file "../source/Solar Microinverter_main.c",line 526,column 4,is_stmt,isa 0
    1216 0000017c 2B03!         MOV       @_EPwm4Regs+3,#0      ; [CPU_] |526| 
    1217                      .dwpsn  file "../source/Solar Microinverter_main.c",line 527,column 4,is_stmt,isa 0
    1218 0000017d 2B04!         MOV       @_EPwm4Regs+4,#0      ; [CPU_] |527| 
    1219                      .dwpsn  file "../source/Solar Microinverter_main.c",line 528,column 4,is_stmt,isa 0
    1220 0000017e 18C4          AND       *+XAR4[0],#0xfffb     ; [CPU_] |528| 
         0000017f FFFB 
    1221                      .dwpsn  file "../source/Solar Microinverter_main.c",line 531,column 4,is_stmt,isa 0
    1222 00000180 18C4          AND       *+XAR4[0],#0xfffc     ; [CPU_] |531| 
         00000181 FFFC 
    1223                      .dwpsn  file "../source/Solar Microinverter_main.c",line 532,column 4,is_stmt,isa 0
    1224 00000182 18C4          AND       *+XAR4[0],#0xfc7f     ; [CPU_] |532| 
         00000183 FC7F 
    1225                      .dwpsn  file "../source/Solar Microinverter_main.c",line 533,column 4,is_stmt,isa 0
    1226 00000184 18C4          AND       *+XAR4[0],#0xe3ff     ; [CPU_] |533| 
TMS320C2000 Assembler PC v16.9.6 Tue Mar 06 18:34:46 2018

Tools Copyright (c) 1996-2017 Texas Instruments Incorporated
C:\Users\Admin\AppData\Local\Temp\{ED9AE313-281A-4435-8F2A-5411619B06A2} PAGE   26

         00000185 E3FF 
    1227                      .dwpsn  file "../source/Solar Microinverter_main.c",line 535,column 4,is_stmt,isa 0
    1228 00000186 CC94          AND       AL,*+XAR4[AR0],#0xfff8 ; [CPU_] |535| 
         00000187 FFF8 
    1229 00000188 5001          ORB       AL,#0x01              ; [CPU_] |535| 
    1230                      .dwpsn  file "../source/Solar Microinverter_main.c",line 537,column 4,is_stmt,isa 0
    1231 00000189 D01A          MOVB      XAR0,#26              ; [CPU_] |537| 
    1232                      .dwpsn  file "../source/Solar Microinverter_main.c",line 535,column 4,is_stmt,isa 0
    1233 0000018a 9619!         MOV       @_EPwm4Regs+25,AL     ; [CPU_] |535| 
    1234                      .dwpsn  file "../source/Solar Microinverter_main.c",line 536,column 4,is_stmt,isa 0
    1235 0000018b 1A19!         OR        @_EPwm4Regs+25,#0x0008 ; [CPU_] |536| 
         0000018c 0008 
    1236                      .dwpsn  file "../source/Solar Microinverter_main.c",line 537,column 4,is_stmt,isa 0
    1237 0000018d CC94          AND       AL,*+XAR4[AR0],#0xfffc ; [CPU_] |537| 
         0000018e FFFC 
    1238 0000018f 5001          ORB       AL,#0x01              ; [CPU_] |537| 
    1239 00000190 961A!         MOV       @_EPwm4Regs+26,AL     ; [CPU_] |537| 
    1240 00000191 761A   EDIS
    1241 00000192 FF69          SPM       #0                    ; [CPU_] 
    1242              $C$DW$79        .dwtag  DW_TAG_TI_branch
    1243                      .dwattr $C$DW$79, DW_AT_low_pc(0x00)
    1244                      .dwattr $C$DW$79, DW_AT_TI_return
    1245              
    1246 00000193 0006          LRETR     ; [CPU_] 
    1247                      ; return occurs ; [] 
    1248                      .dwattr $C$DW$78, DW_AT_TI_end_file("../source/Solar Microinverter_main.c")
    1249                      .dwattr $C$DW$78, DW_AT_TI_end_line(0x21b)
    1250                      .dwattr $C$DW$78, DW_AT_TI_end_column(0x01)
    1251                      .dwendentry
    1252                      .dwendtag $C$DW$78
    1253              
    1254 00000194               .sect   ".text"
    1255                      .clink
    1256                      .global _Adc_Config
    1257              
    1258              $C$DW$80        .dwtag  DW_TAG_subprogram
    1259                      .dwattr $C$DW$80, DW_AT_name("Adc_Config")
    1260                      .dwattr $C$DW$80, DW_AT_low_pc(_Adc_Config)
    1261                      .dwattr $C$DW$80, DW_AT_high_pc(0x00)
    1262                      .dwattr $C$DW$80, DW_AT_TI_symbol_name("_Adc_Config")
    1263                      .dwattr $C$DW$80, DW_AT_external
    1264                      .dwattr $C$DW$80, DW_AT_TI_begin_file("../source/Solar Microinverter_main.c")
    1265                      .dwattr $C$DW$80, DW_AT_TI_begin_line(0x21e)
    1266                      .dwattr $C$DW$80, DW_AT_TI_begin_column(0x06)
    1267                      .dwattr $C$DW$80, DW_AT_TI_max_frame_size(-2)
    1268                      .dwpsn  file "../source/Solar Microinverter_main.c",line 543,column 1,is_stmt,address _Adc_Config,isa
    1269              
    1270                      .dwfde $C$DW$CIE, _Adc_Config
    1271              
    1272              ;***************************************************************
    1273              ;* FNAME: _Adc_Config                   FR SIZE:   0           *
    1274              ;*                                                             *
    1275              ;* FUNCTION ENVIRONMENT                                        *
    1276              ;*                                                             *
    1277              ;* FUNCTION PROPERTIES                                         *
TMS320C2000 Assembler PC v16.9.6 Tue Mar 06 18:34:46 2018

Tools Copyright (c) 1996-2017 Texas Instruments Incorporated
C:\Users\Admin\AppData\Local\Temp\{ED9AE313-281A-4435-8F2A-5411619B06A2} PAGE   27

    1278              ;*                            0 Parameter,  0 Auto,  0 SOE     *
    1279              ;***************************************************************
    1280              
    1281 00000194       _Adc_Config:
    1282              ;* AR4   assigned to $O$C1
    1283                      .dwcfi  cfa_offset, -2
    1284                      .dwcfi  save_reg_to_mem, 26, 0
    1285 00000194 7622   EALLOW
    1286                      .dwpsn  file "../source/Solar Microinverter_main.c",line 546,column 2,is_stmt,isa 0
    1287 00000195 8F00!         MOVL      XAR4,#_AdcRegs        ; [CPU_U] |546| 
         00000196 0000 
    1288                      .dwpsn  file "../source/Solar Microinverter_main.c",line 547,column 2,is_stmt,isa 0
    1289 00000197 83A4          MOVL      XAR5,XAR4             ; [CPU_] |547| 
    1290 00000198 761F!         MOVW      DP,#_AdcRegs+8        ; [CPU_U] 
         00000199 0000 
    1291                      .dwpsn  file "../source/Solar Microinverter_main.c",line 550,column 2,is_stmt,isa 0
    1292 0000019a D020          MOVB      XAR0,#32              ; [CPU_] |550| 
    1293                      .dwpsn  file "../source/Solar Microinverter_main.c",line 546,column 2,is_stmt,isa 0
    1294 0000019b 1AC4          OR        *+XAR4[0],#0x0004     ; [CPU_] |546| 
         0000019c 0004 
    1295                      .dwpsn  file "../source/Solar Microinverter_main.c",line 547,column 2,is_stmt,isa 0
    1296 0000019d DD08          ADDB      XAR5,#8               ; [CPU_] |547| 
    1297 0000019e 1AC5          OR        *+XAR5[0],#0x0020     ; [CPU_] |547| 
         0000019f 0020 
    1298                      .dwpsn  file "../source/Solar Microinverter_main.c",line 548,column 2,is_stmt,isa 0
    1299 000001a0 1808!         AND       @_AdcRegs+8,#0xffbf   ; [CPU_] |548| 
         000001a1 FFBF 
    1300                      .dwpsn  file "../source/Solar Microinverter_main.c",line 549,column 2,is_stmt,isa 0
    1301 000001a2 CC08!         AND       AL,@_AdcRegs+8,#0xffe0 ; [CPU_] |549| 
         000001a3 FFE0 
    1302 000001a4 5008          ORB       AL,#0x08              ; [CPU_] |549| 
    1303 000001a5 9608!         MOV       @_AdcRegs+8,AL        ; [CPU_] |549| 
    1304                      .dwpsn  file "../source/Solar Microinverter_main.c",line 550,column 2,is_stmt,isa 0
    1305 000001a6 CC94          AND       AL,*+XAR4[AR0],#0xfc7f ; [CPU_] |550| 
         000001a7 FC7F 
    1306 000001a8 5040          ORB       AL,#0x40              ; [CPU_] |550| 
    1307                      .dwpsn  file "../source/Solar Microinverter_main.c",line 553,column 2,is_stmt,isa 0
    1308 000001a9 D021          MOVB      XAR0,#33              ; [CPU_] |553| 
    1309                      .dwpsn  file "../source/Solar Microinverter_main.c",line 550,column 2,is_stmt,isa 0
    1310 000001aa 9620!         MOV       @_AdcRegs+32,AL       ; [CPU_] |550| 
    1311                      .dwpsn  file "../source/Solar Microinverter_main.c",line 551,column 2,is_stmt,isa 0
    1312 000001ab CC20!         AND       AL,@_AdcRegs+32,#0x07ff ; [CPU_] |551| 
         000001ac 07FF 
    1313 000001ad 1AA9          OR        AL,#0x2800            ; [CPU_] |551| 
         000001ae 2800 
    1314 000001af 9620!         MOV       @_AdcRegs+32,AL       ; [CPU_] |551| 
    1315                      .dwpsn  file "../source/Solar Microinverter_main.c",line 552,column 2,is_stmt,isa 0
    1316 000001b0 CC20!         AND       AL,@_AdcRegs+32,#0xffc0 ; [CPU_] |552| 
         000001b1 FFC0 
    1317 000001b2 5006          ORB       AL,#0x06              ; [CPU_] |552| 
    1318 000001b3 9620!         MOV       @_AdcRegs+32,AL       ; [CPU_] |552| 
    1319                      .dwpsn  file "../source/Solar Microinverter_main.c",line 553,column 2,is_stmt,isa 0
    1320 000001b4 CC94          AND       AL,*+XAR4[AR0],#0xfdff ; [CPU_] |553| 
         000001b5 FDFF 
    1321 000001b6 1AA9          OR        AL,#0x01c0            ; [CPU_] |553| 
TMS320C2000 Assembler PC v16.9.6 Tue Mar 06 18:34:46 2018

Tools Copyright (c) 1996-2017 Texas Instruments Incorporated
C:\Users\Admin\AppData\Local\Temp\{ED9AE313-281A-4435-8F2A-5411619B06A2} PAGE   28

         000001b7 01C0 
    1322                      .dwpsn  file "../source/Solar Microinverter_main.c",line 556,column 2,is_stmt,isa 0
    1323 000001b8 D022          MOVB      XAR0,#34              ; [CPU_] |556| 
    1324                      .dwpsn  file "../source/Solar Microinverter_main.c",line 553,column 2,is_stmt,isa 0
    1325 000001b9 9621!         MOV       @_AdcRegs+33,AL       ; [CPU_] |553| 
    1326                      .dwpsn  file "../source/Solar Microinverter_main.c",line 554,column 2,is_stmt,isa 0
    1327 000001ba CC21!         AND       AL,@_AdcRegs+33,#0x07ff ; [CPU_] |554| 
         000001bb 07FF 
    1328 000001bc 1AA9          OR        AL,#0x2800            ; [CPU_] |554| 
         000001bd 2800 
    1329 000001be 9621!         MOV       @_AdcRegs+33,AL       ; [CPU_] |554| 
    1330                      .dwpsn  file "../source/Solar Microinverter_main.c",line 555,column 2,is_stmt,isa 0
    1331 000001bf CC21!         AND       AL,@_AdcRegs+33,#0xffc0 ; [CPU_] |555| 
         000001c0 FFC0 
    1332 000001c1 5006          ORB       AL,#0x06              ; [CPU_] |555| 
    1333 000001c2 9621!         MOV       @_AdcRegs+33,AL       ; [CPU_] |555| 
    1334                      .dwpsn  file "../source/Solar Microinverter_main.c",line 556,column 2,is_stmt,isa 0
    1335 000001c3 CC94          AND       AL,*+XAR4[AR0],#0xfe3f ; [CPU_] |556| 
         000001c4 FE3F 
    1336 000001c5 1AA9          OR        AL,#0x0200            ; [CPU_] |556| 
         000001c6 0200 
    1337                      .dwpsn  file "../source/Solar Microinverter_main.c",line 559,column 2,is_stmt,isa 0
    1338 000001c7 D023          MOVB      XAR0,#35              ; [CPU_] |559| 
    1339                      .dwpsn  file "../source/Solar Microinverter_main.c",line 556,column 2,is_stmt,isa 0
    1340 000001c8 9622!         MOV       @_AdcRegs+34,AL       ; [CPU_] |556| 
    1341                      .dwpsn  file "../source/Solar Microinverter_main.c",line 557,column 2,is_stmt,isa 0
    1342 000001c9 CC22!         AND       AL,@_AdcRegs+34,#0x07ff ; [CPU_] |557| 
         000001ca 07FF 
    1343 000001cb 1AA9          OR        AL,#0x2800            ; [CPU_] |557| 
         000001cc 2800 
    1344 000001cd 9622!         MOV       @_AdcRegs+34,AL       ; [CPU_] |557| 
    1345                      .dwpsn  file "../source/Solar Microinverter_main.c",line 558,column 2,is_stmt,isa 0
    1346 000001ce CC22!         AND       AL,@_AdcRegs+34,#0xffc0 ; [CPU_] |558| 
         000001cf FFC0 
    1347 000001d0 5006          ORB       AL,#0x06              ; [CPU_] |558| 
    1348 000001d1 9622!         MOV       @_AdcRegs+34,AL       ; [CPU_] |558| 
    1349                      .dwpsn  file "../source/Solar Microinverter_main.c",line 559,column 2,is_stmt,isa 0
    1350 000001d2 CC94          AND       AL,*+XAR4[AR0],#0xfe7f ; [CPU_] |559| 
         000001d3 FE7F 
    1351 000001d4 1AA9          OR        AL,#0x0240            ; [CPU_] |559| 
         000001d5 0240 
    1352                      .dwpsn  file "../source/Solar Microinverter_main.c",line 562,column 2,is_stmt,isa 0
    1353 000001d6 D024          MOVB      XAR0,#36              ; [CPU_] |562| 
    1354                      .dwpsn  file "../source/Solar Microinverter_main.c",line 559,column 2,is_stmt,isa 0
    1355 000001d7 9623!         MOV       @_AdcRegs+35,AL       ; [CPU_] |559| 
    1356                      .dwpsn  file "../source/Solar Microinverter_main.c",line 560,column 2,is_stmt,isa 0
    1357 000001d8 CC23!         AND       AL,@_AdcRegs+35,#0x07ff ; [CPU_] |560| 
         000001d9 07FF 
    1358 000001da 1AA9          OR        AL,#0x2800            ; [CPU_] |560| 
         000001db 2800 
    1359 000001dc 9623!         MOV       @_AdcRegs+35,AL       ; [CPU_] |560| 
    1360                      .dwpsn  file "../source/Solar Microinverter_main.c",line 561,column 2,is_stmt,isa 0
    1361 000001dd CC23!         AND       AL,@_AdcRegs+35,#0xffc0 ; [CPU_] |561| 
         000001de FFC0 
    1362 000001df 5006          ORB       AL,#0x06              ; [CPU_] |561| 
TMS320C2000 Assembler PC v16.9.6 Tue Mar 06 18:34:46 2018

Tools Copyright (c) 1996-2017 Texas Instruments Incorporated
C:\Users\Admin\AppData\Local\Temp\{ED9AE313-281A-4435-8F2A-5411619B06A2} PAGE   29

    1363 000001e0 9623!         MOV       @_AdcRegs+35,AL       ; [CPU_] |561| 
    1364                      .dwpsn  file "../source/Solar Microinverter_main.c",line 562,column 2,is_stmt,isa 0
    1365 000001e1 CC94          AND       AL,*+XAR4[AR0],#0xfe3f ; [CPU_] |562| 
         000001e2 FE3F 
    1366 000001e3 1AA9          OR        AL,#0x0280            ; [CPU_] |562| 
         000001e4 0280 
    1367                      .dwpsn  file "../source/Solar Microinverter_main.c",line 565,column 2,is_stmt,isa 0
    1368 000001e5 D025          MOVB      XAR0,#37              ; [CPU_] |565| 
    1369                      .dwpsn  file "../source/Solar Microinverter_main.c",line 562,column 2,is_stmt,isa 0
    1370 000001e6 9624!         MOV       @_AdcRegs+36,AL       ; [CPU_] |562| 
    1371                      .dwpsn  file "../source/Solar Microinverter_main.c",line 563,column 2,is_stmt,isa 0
    1372 000001e7 CC24!         AND       AL,@_AdcRegs+36,#0x07ff ; [CPU_] |563| 
         000001e8 07FF 
    1373 000001e9 1AA9          OR        AL,#0x2800            ; [CPU_] |563| 
         000001ea 2800 
    1374 000001eb 9624!         MOV       @_AdcRegs+36,AL       ; [CPU_] |563| 
    1375                      .dwpsn  file "../source/Solar Microinverter_main.c",line 564,column 2,is_stmt,isa 0
    1376 000001ec CC24!         AND       AL,@_AdcRegs+36,#0xffc0 ; [CPU_] |564| 
         000001ed FFC0 
    1377 000001ee 5006          ORB       AL,#0x06              ; [CPU_] |564| 
    1378 000001ef 9624!         MOV       @_AdcRegs+36,AL       ; [CPU_] |564| 
    1379                      .dwpsn  file "../source/Solar Microinverter_main.c",line 565,column 2,is_stmt,isa 0
    1380 000001f0 CC94          AND       AL,*+XAR4[AR0],#0xfeff ; [CPU_] |565| 
         000001f1 FEFF 
    1381 000001f2 1AA9          OR        AL,#0x02c0            ; [CPU_] |565| 
         000001f3 02C0 
    1382                      .dwpsn  file "../source/Solar Microinverter_main.c",line 568,column 2,is_stmt,isa 0
    1383 000001f4 D026          MOVB      XAR0,#38              ; [CPU_] |568| 
    1384                      .dwpsn  file "../source/Solar Microinverter_main.c",line 565,column 2,is_stmt,isa 0
    1385 000001f5 9625!         MOV       @_AdcRegs+37,AL       ; [CPU_] |565| 
    1386                      .dwpsn  file "../source/Solar Microinverter_main.c",line 566,column 2,is_stmt,isa 0
    1387 000001f6 CC25!         AND       AL,@_AdcRegs+37,#0x07ff ; [CPU_] |566| 
         000001f7 07FF 
    1388 000001f8 1AA9          OR        AL,#0x2800            ; [CPU_] |566| 
         000001f9 2800 
    1389 000001fa 9625!         MOV       @_AdcRegs+37,AL       ; [CPU_] |566| 
    1390                      .dwpsn  file "../source/Solar Microinverter_main.c",line 567,column 2,is_stmt,isa 0
    1391 000001fb CC25!         AND       AL,@_AdcRegs+37,#0xffc0 ; [CPU_] |567| 
         000001fc FFC0 
    1392 000001fd 5006          ORB       AL,#0x06              ; [CPU_] |567| 
    1393 000001fe 9625!         MOV       @_AdcRegs+37,AL       ; [CPU_] |567| 
    1394                      .dwpsn  file "../source/Solar Microinverter_main.c",line 568,column 2,is_stmt,isa 0
    1395 000001ff CC94          AND       AL,*+XAR4[AR0],#0xff3f ; [CPU_] |568| 
         00000200 FF3F 
    1396 00000201 1AA9          OR        AL,#0x0300            ; [CPU_] |568| 
         00000202 0300 
    1397                      .dwpsn  file "../source/Solar Microinverter_main.c",line 571,column 2,is_stmt,isa 0
    1398 00000203 D027          MOVB      XAR0,#39              ; [CPU_] |571| 
    1399                      .dwpsn  file "../source/Solar Microinverter_main.c",line 568,column 2,is_stmt,isa 0
    1400 00000204 9626!         MOV       @_AdcRegs+38,AL       ; [CPU_] |568| 
    1401                      .dwpsn  file "../source/Solar Microinverter_main.c",line 569,column 2,is_stmt,isa 0
    1402 00000205 CC26!         AND       AL,@_AdcRegs+38,#0x07ff ; [CPU_] |569| 
         00000206 07FF 
    1403 00000207 1AA9          OR        AL,#0x2800            ; [CPU_] |569| 
         00000208 2800 
TMS320C2000 Assembler PC v16.9.6 Tue Mar 06 18:34:46 2018

Tools Copyright (c) 1996-2017 Texas Instruments Incorporated
C:\Users\Admin\AppData\Local\Temp\{ED9AE313-281A-4435-8F2A-5411619B06A2} PAGE   30

    1404 00000209 9626!         MOV       @_AdcRegs+38,AL       ; [CPU_] |569| 
    1405                      .dwpsn  file "../source/Solar Microinverter_main.c",line 570,column 2,is_stmt,isa 0
    1406 0000020a CC26!         AND       AL,@_AdcRegs+38,#0xffc0 ; [CPU_] |570| 
         0000020b FFC0 
    1407 0000020c 5006          ORB       AL,#0x06              ; [CPU_] |570| 
    1408 0000020d 9626!         MOV       @_AdcRegs+38,AL       ; [CPU_] |570| 
    1409                      .dwpsn  file "../source/Solar Microinverter_main.c",line 571,column 2,is_stmt,isa 0
    1410 0000020e CC94          AND       AL,*+XAR4[AR0],#0xffbf ; [CPU_] |571| 
         0000020f FFBF 
    1411 00000210 1AA9          OR        AL,#0x0380            ; [CPU_] |571| 
         00000211 0380 
    1412                      .dwpsn  file "../source/Solar Microinverter_main.c",line 574,column 2,is_stmt,isa 0
    1413 00000212 DC28          ADDB      XAR4,#40              ; [CPU_] |574| 
    1414                      .dwpsn  file "../source/Solar Microinverter_main.c",line 571,column 2,is_stmt,isa 0
    1415 00000213 9627!         MOV       @_AdcRegs+39,AL       ; [CPU_] |571| 
    1416                      .dwpsn  file "../source/Solar Microinverter_main.c",line 572,column 2,is_stmt,isa 0
    1417 00000214 CC27!         AND       AL,@_AdcRegs+39,#0x07ff ; [CPU_] |572| 
         00000215 07FF 
    1418 00000216 1AA9          OR        AL,#0x2800            ; [CPU_] |572| 
         00000217 2800 
    1419 00000218 9627!         MOV       @_AdcRegs+39,AL       ; [CPU_] |572| 
    1420                      .dwpsn  file "../source/Solar Microinverter_main.c",line 573,column 2,is_stmt,isa 0
    1421 00000219 CC27!         AND       AL,@_AdcRegs+39,#0xffc0 ; [CPU_] |573| 
         0000021a FFC0 
    1422 0000021b 5006          ORB       AL,#0x06              ; [CPU_] |573| 
    1423 0000021c 9627!         MOV       @_AdcRegs+39,AL       ; [CPU_] |573| 
    1424                      .dwpsn  file "../source/Solar Microinverter_main.c",line 574,column 2,is_stmt,isa 0
    1425 0000021d 1AC4          OR        *+XAR4[0],#0x03c0     ; [CPU_] |574| 
         0000021e 03C0 
    1426                      .dwpsn  file "../source/Solar Microinverter_main.c",line 575,column 2,is_stmt,isa 0
    1427 0000021f CC28!         AND       AL,@_AdcRegs+40,#0x07ff ; [CPU_] |575| 
         00000220 07FF 
    1428 00000221 1AA9          OR        AL,#0x2800            ; [CPU_] |575| 
         00000222 2800 
    1429 00000223 9628!         MOV       @_AdcRegs+40,AL       ; [CPU_] |575| 
    1430                      .dwpsn  file "../source/Solar Microinverter_main.c",line 576,column 2,is_stmt,isa 0
    1431 00000224 CC28!         AND       AL,@_AdcRegs+40,#0xffc0 ; [CPU_] |576| 
         00000225 FFC0 
    1432 00000226 5006          ORB       AL,#0x06              ; [CPU_] |576| 
    1433 00000227 9628!         MOV       @_AdcRegs+40,AL       ; [CPU_] |576| 
    1434 00000228 761A   EDIS
    1435 00000229 FF69          SPM       #0                    ; [CPU_] 
    1436              $C$DW$81        .dwtag  DW_TAG_TI_branch
    1437                      .dwattr $C$DW$81, DW_AT_low_pc(0x00)
    1438                      .dwattr $C$DW$81, DW_AT_TI_return
    1439              
    1440 0000022a 0006          LRETR     ; [CPU_] 
    1441                      ; return occurs ; [] 
    1442                      .dwattr $C$DW$80, DW_AT_TI_end_file("../source/Solar Microinverter_main.c")
    1443                      .dwattr $C$DW$80, DW_AT_TI_end_line(0x242)
    1444                      .dwattr $C$DW$80, DW_AT_TI_end_column(0x01)
    1445                      .dwendentry
    1446                      .dwendtag $C$DW$80
    1447              
    1448 0000022b               .sect   ".text"
TMS320C2000 Assembler PC v16.9.6 Tue Mar 06 18:34:46 2018

Tools Copyright (c) 1996-2017 Texas Instruments Incorporated
C:\Users\Admin\AppData\Local\Temp\{ED9AE313-281A-4435-8F2A-5411619B06A2} PAGE   31

    1449                      .clink
    1450                      .global _InitComparator
    1451              
    1452              $C$DW$82        .dwtag  DW_TAG_subprogram
    1453                      .dwattr $C$DW$82, DW_AT_name("InitComparator")
    1454                      .dwattr $C$DW$82, DW_AT_low_pc(_InitComparator)
    1455                      .dwattr $C$DW$82, DW_AT_high_pc(0x00)
    1456                      .dwattr $C$DW$82, DW_AT_TI_symbol_name("_InitComparator")
    1457                      .dwattr $C$DW$82, DW_AT_external
    1458                      .dwattr $C$DW$82, DW_AT_TI_begin_file("../source/Solar Microinverter_main.c")
    1459                      .dwattr $C$DW$82, DW_AT_TI_begin_line(0x244)
    1460                      .dwattr $C$DW$82, DW_AT_TI_begin_column(0x06)
    1461                      .dwattr $C$DW$82, DW_AT_TI_max_frame_size(-2)
    1462                      .dwpsn  file "../source/Solar Microinverter_main.c",line 581,column 1,is_stmt,address _InitComparator
    1463              
    1464                      .dwfde $C$DW$CIE, _InitComparator
    1465              
    1466              ;***************************************************************
    1467              ;* FNAME: _InitComparator               FR SIZE:   0           *
    1468              ;*                                                             *
    1469              ;* FUNCTION ENVIRONMENT                                        *
    1470              ;*                                                             *
    1471              ;* FUNCTION PROPERTIES                                         *
    1472              ;*                            0 Parameter,  0 Auto,  0 SOE     *
    1473              ;***************************************************************
    1474              
    1475 0000022b       _InitComparator:
    1476              ;* AR4   assigned to $O$C1
    1477              ;* AR4   assigned to $O$C2
    1478              ;* AR4   assigned to $O$C3
    1479                      .dwcfi  cfa_offset, -2
    1480                      .dwcfi  save_reg_to_mem, 26, 0
    1481 0000022b 7622   EALLOW
    1482                      .dwpsn  file "../source/Solar Microinverter_main.c",line 583,column 2,is_stmt,isa 0
    1483 0000022c 8F00!         MOVL      XAR4,#_Comp1Regs      ; [CPU_U] |583| 
         0000022d 0000 
    1484 0000022e 18C4          AND       *+XAR4[0],#0xfeff     ; [CPU_] |583| 
         0000022f FEFF 
    1485 00000230 761F!         MOVW      DP,#_Comp1Regs+6      ; [CPU_U] 
         00000231 0000 
    1486                      .dwpsn  file "../source/Solar Microinverter_main.c",line 584,column 2,is_stmt,isa 0
    1487 00000232 18C4          AND       *+XAR4[0],#0xfffb     ; [CPU_] |584| 
         00000233 FFFB 
    1488                      .dwpsn  file "../source/Solar Microinverter_main.c",line 585,column 2,is_stmt,isa 0
    1489 00000234 18C4          AND       *+XAR4[0],#0xfffd     ; [CPU_] |585| 
         00000235 FFFD 
    1490                      .dwpsn  file "../source/Solar Microinverter_main.c",line 586,column 2,is_stmt,isa 0
    1491 00000236 1AC4          OR        *+XAR4[0],#0x0001     ; [CPU_] |586| 
         00000237 0001 
    1492                      .dwpsn  file "../source/Solar Microinverter_main.c",line 588,column 2,is_stmt,isa 0
    1493 00000238 CCF4          AND       AL,*+XAR4[6],#0xfe00  ; [CPU_] |588| 
         00000239 FE00 
    1494 0000023a 1AA9          OR        AL,#0x02a8            ; [CPU_] |588| 
         0000023b 02A8 
    1495                      .dwpsn  file "../source/Solar Microinverter_main.c",line 589,column 2,is_stmt,isa 0
TMS320C2000 Assembler PC v16.9.6 Tue Mar 06 18:34:46 2018

Tools Copyright (c) 1996-2017 Texas Instruments Incorporated
C:\Users\Admin\AppData\Local\Temp\{ED9AE313-281A-4435-8F2A-5411619B06A2} PAGE   32

    1496 0000023c 8F00!         MOVL      XAR4,#_Comp2Regs      ; [CPU_U] |589| 
         0000023d 0000 
    1497                      .dwpsn  file "../source/Solar Microinverter_main.c",line 588,column 2,is_stmt,isa 0
    1498 0000023e 9606!         MOV       @_Comp1Regs+6,AL      ; [CPU_] |588| 
    1499 0000023f 761F!         MOVW      DP,#_Comp2Regs+6      ; [CPU_U] 
         00000240 0000 
    1500                      .dwpsn  file "../source/Solar Microinverter_main.c",line 589,column 2,is_stmt,isa 0
    1501 00000241 18C4          AND       *+XAR4[0],#0xfeff     ; [CPU_] |589| 
         00000242 FEFF 
    1502                      .dwpsn  file "../source/Solar Microinverter_main.c",line 590,column 2,is_stmt,isa 0
    1503 00000243 18C4          AND       *+XAR4[0],#0xfffb     ; [CPU_] |590| 
         00000244 FFFB 
    1504                      .dwpsn  file "../source/Solar Microinverter_main.c",line 591,column 2,is_stmt,isa 0
    1505 00000245 18C4          AND       *+XAR4[0],#0xfffd     ; [CPU_] |591| 
         00000246 FFFD 
    1506                      .dwpsn  file "../source/Solar Microinverter_main.c",line 592,column 2,is_stmt,isa 0
    1507 00000247 1AC4          OR        *+XAR4[0],#0x0001     ; [CPU_] |592| 
         00000248 0001 
    1508                      .dwpsn  file "../source/Solar Microinverter_main.c",line 594,column 2,is_stmt,isa 0
    1509 00000249 CCF4          AND       AL,*+XAR4[6],#0xfc00  ; [CPU_] |594| 
         0000024a FC00 
    1510 0000024b 1AA9          OR        AL,#0x01f4            ; [CPU_] |594| 
         0000024c 01F4 
    1511                      .dwpsn  file "../source/Solar Microinverter_main.c",line 595,column 2,is_stmt,isa 0
    1512 0000024d 8F00!         MOVL      XAR4,#_Comp3Regs      ; [CPU_U] |595| 
         0000024e 0000 
    1513                      .dwpsn  file "../source/Solar Microinverter_main.c",line 594,column 2,is_stmt,isa 0
    1514 0000024f 9606!         MOV       @_Comp2Regs+6,AL      ; [CPU_] |594| 
    1515 00000250 761F!         MOVW      DP,#_Comp3Regs+6      ; [CPU_U] 
         00000251 0000 
    1516                      .dwpsn  file "../source/Solar Microinverter_main.c",line 595,column 2,is_stmt,isa 0
    1517 00000252 18C4          AND       *+XAR4[0],#0xfeff     ; [CPU_] |595| 
         00000253 FEFF 
    1518                      .dwpsn  file "../source/Solar Microinverter_main.c",line 596,column 2,is_stmt,isa 0
    1519 00000254 18C4          AND       *+XAR4[0],#0xfffb     ; [CPU_] |596| 
         00000255 FFFB 
    1520                      .dwpsn  file "../source/Solar Microinverter_main.c",line 597,column 2,is_stmt,isa 0
    1521 00000256 18C4          AND       *+XAR4[0],#0xfffd     ; [CPU_] |597| 
         00000257 FFFD 
    1522                      .dwpsn  file "../source/Solar Microinverter_main.c",line 598,column 2,is_stmt,isa 0
    1523 00000258 1AC4          OR        *+XAR4[0],#0x0001     ; [CPU_] |598| 
         00000259 0001 
    1524                      .dwpsn  file "../source/Solar Microinverter_main.c",line 600,column 2,is_stmt,isa 0
    1525 0000025a CCF4          AND       AL,*+XAR4[6],#0xfc00  ; [CPU_] |600| 
         0000025b FC00 
    1526 0000025c 1AA9          OR        AL,#0x01f4            ; [CPU_] |600| 
         0000025d 01F4 
    1527 0000025e 9606!         MOV       @_Comp3Regs+6,AL      ; [CPU_] |600| 
    1528 0000025f 761A   EDIS
    1529 00000260 FF69          SPM       #0                    ; [CPU_] 
    1530              $C$DW$83        .dwtag  DW_TAG_TI_branch
    1531                      .dwattr $C$DW$83, DW_AT_low_pc(0x00)
    1532                      .dwattr $C$DW$83, DW_AT_TI_return
    1533              
    1534 00000261 0006          LRETR     ; [CPU_] 
TMS320C2000 Assembler PC v16.9.6 Tue Mar 06 18:34:46 2018

Tools Copyright (c) 1996-2017 Texas Instruments Incorporated
C:\Users\Admin\AppData\Local\Temp\{ED9AE313-281A-4435-8F2A-5411619B06A2} PAGE   33

    1535                      ; return occurs ; [] 
    1536                      .dwattr $C$DW$82, DW_AT_TI_end_file("../source/Solar Microinverter_main.c")
    1537                      .dwattr $C$DW$82, DW_AT_TI_end_line(0x25a)
    1538                      .dwattr $C$DW$82, DW_AT_TI_end_column(0x01)
    1539                      .dwendentry
    1540                      .dwendtag $C$DW$82
    1541              
    1542 00000262               .sect   ".text"
    1543                      .clink
    1544                      .global _InitECapture
    1545              
    1546              $C$DW$84        .dwtag  DW_TAG_subprogram
    1547                      .dwattr $C$DW$84, DW_AT_name("InitECapture")
    1548                      .dwattr $C$DW$84, DW_AT_low_pc(_InitECapture)
    1549                      .dwattr $C$DW$84, DW_AT_high_pc(0x00)
    1550                      .dwattr $C$DW$84, DW_AT_TI_symbol_name("_InitECapture")
    1551                      .dwattr $C$DW$84, DW_AT_external
    1552                      .dwattr $C$DW$84, DW_AT_TI_begin_file("../source/Solar Microinverter_main.c")
    1553                      .dwattr $C$DW$84, DW_AT_TI_begin_line(0x29a)
    1554                      .dwattr $C$DW$84, DW_AT_TI_begin_column(0x06)
    1555                      .dwattr $C$DW$84, DW_AT_TI_max_frame_size(-2)
    1556                      .dwpsn  file "../source/Solar Microinverter_main.c",line 667,column 1,is_stmt,address _InitECapture,i
    1557              
    1558                      .dwfde $C$DW$CIE, _InitECapture
    1559              
    1560              ;***************************************************************
    1561              ;* FNAME: _InitECapture                 FR SIZE:   0           *
    1562              ;*                                                             *
    1563              ;* FUNCTION ENVIRONMENT                                        *
    1564              ;*                                                             *
    1565              ;* FUNCTION PROPERTIES                                         *
    1566              ;*                            0 Parameter,  0 Auto,  0 SOE     *
    1567              ;***************************************************************
    1568              
    1569 00000262       _InitECapture:
    1570              ;* AR4   assigned to $O$C1
    1571                      .dwcfi  cfa_offset, -2
    1572                      .dwcfi  save_reg_to_mem, 26, 0
    1573 00000262 7622   EALLOW
    1574                      .dwpsn  file "../source/Solar Microinverter_main.c",line 671,column 5,is_stmt,isa 0
    1575 00000263 8F00!         MOVL      XAR4,#_ECap1Regs      ; [CPU_U] |671| 
         00000264 0000 
    1576 00000265 83A4          MOVL      XAR5,XAR4             ; [CPU_] |671| 
    1577 00000266 761F!         MOVW      DP,#_ECap1Regs+22     ; [CPU_U] 
         00000267 0000 
    1578                      .dwpsn  file "../source/Solar Microinverter_main.c",line 669,column 5,is_stmt,isa 0
    1579 00000268 2B16!         MOV       @_ECap1Regs+22,#0     ; [CPU_] |669| 
    1580                      .dwpsn  file "../source/Solar Microinverter_main.c",line 670,column 5,is_stmt,isa 0
    1581 00000269 2818!         MOV       @_ECap1Regs+24,#65535 ; [CPU_] |670| 
         0000026a FFFF 
    1582                      .dwpsn  file "../source/Solar Microinverter_main.c",line 671,column 5,is_stmt,isa 0
    1583 0000026b DD14          ADDB      XAR5,#20              ; [CPU_] |671| 
    1584 0000026c 18C5          AND       *+XAR5[0],#0xfeff     ; [CPU_] |671| 
         0000026d FEFF 
    1585                      .dwpsn  file "../source/Solar Microinverter_main.c",line 672,column 5,is_stmt,isa 0
TMS320C2000 Assembler PC v16.9.6 Tue Mar 06 18:34:46 2018

Tools Copyright (c) 1996-2017 Texas Instruments Incorporated
C:\Users\Admin\AppData\Local\Temp\{ED9AE313-281A-4435-8F2A-5411619B06A2} PAGE   34

    1586 0000026e 83A4          MOVL      XAR5,XAR4             ; [CPU_] |672| 
    1587 0000026f DD15          ADDB      XAR5,#21              ; [CPU_] |672| 
    1588 00000270 18C5          AND       *+XAR5[0],#0xffef     ; [CPU_] |672| 
         00000271 FFEF 
    1589                      .dwpsn  file "../source/Solar Microinverter_main.c",line 693,column 5,is_stmt,isa 0
    1590 00000272 DC16          ADDB      XAR4,#22              ; [CPU_] |693| 
    1591                      .dwpsn  file "../source/Solar Microinverter_main.c",line 675,column 5,is_stmt,isa 0
    1592 00000273 1815!         AND       @_ECap1Regs+21,#0xfffe ; [CPU_] |675| 
         00000274 FFFE 
    1593                      .dwpsn  file "../source/Solar Microinverter_main.c",line 676,column 5,is_stmt,isa 0
    1594 00000275 CC15!         AND       AL,@_ECap1Regs+21,#0xfffb ; [CPU_] |676| 
         00000276 FFFB 
    1595 00000277 5002          ORB       AL,#0x02              ; [CPU_] |676| 
    1596 00000278 9615!         MOV       @_ECap1Regs+21,AL     ; [CPU_] |676| 
    1597                      .dwpsn  file "../source/Solar Microinverter_main.c",line 677,column 5,is_stmt,isa 0
    1598 00000279 1814!         AND       @_ECap1Regs+20,#0xfffe ; [CPU_] |677| 
         0000027a FFFE 
    1599                      .dwpsn  file "../source/Solar Microinverter_main.c",line 678,column 5,is_stmt,isa 0
    1600 0000027b 1814!         AND       @_ECap1Regs+20,#0xfffb ; [CPU_] |678| 
         0000027c FFFB 
    1601                      .dwpsn  file "../source/Solar Microinverter_main.c",line 679,column 5,is_stmt,isa 0
    1602 0000027d 1814!         AND       @_ECap1Regs+20,#0xffef ; [CPU_] |679| 
         0000027e FFEF 
    1603                      .dwpsn  file "../source/Solar Microinverter_main.c",line 680,column 5,is_stmt,isa 0
    1604 0000027f 1814!         AND       @_ECap1Regs+20,#0xffbf ; [CPU_] |680| 
         00000280 FFBF 
    1605                      .dwpsn  file "../source/Solar Microinverter_main.c",line 681,column 5,is_stmt,isa 0
    1606 00000281 1A14!         OR        @_ECap1Regs+20,#0x0002 ; [CPU_] |681| 
         00000282 0002 
    1607                      .dwpsn  file "../source/Solar Microinverter_main.c",line 682,column 5,is_stmt,isa 0
    1608 00000283 1A14!         OR        @_ECap1Regs+20,#0x0008 ; [CPU_] |682| 
         00000284 0008 
    1609                      .dwpsn  file "../source/Solar Microinverter_main.c",line 683,column 5,is_stmt,isa 0
    1610 00000285 1A14!         OR        @_ECap1Regs+20,#0x0020 ; [CPU_] |683| 
         00000286 0020 
    1611                      .dwpsn  file "../source/Solar Microinverter_main.c",line 684,column 5,is_stmt,isa 0
    1612 00000287 1A14!         OR        @_ECap1Regs+20,#0x0080 ; [CPU_] |684| 
         00000288 0080 
    1613                      .dwpsn  file "../source/Solar Microinverter_main.c",line 685,column 5,is_stmt,isa 0
    1614 00000289 1815!         AND       @_ECap1Regs+21,#0xfdff ; [CPU_] |685| 
         0000028a FDFF 
    1615                      .dwpsn  file "../source/Solar Microinverter_main.c",line 686,column 5,is_stmt,isa 0
    1616 0000028b 1815!         AND       @_ECap1Regs+21,#0xffdf ; [CPU_] |686| 
         0000028c FFDF 
    1617                      .dwpsn  file "../source/Solar Microinverter_main.c",line 687,column 5,is_stmt,isa 0
    1618 0000028d CC15!         AND       AL,@_ECap1Regs+21,#0xffbf ; [CPU_] |687| 
         0000028e FFBF 
    1619 0000028f 5080          ORB       AL,#0x80              ; [CPU_] |687| 
    1620 00000290 9615!         MOV       @_ECap1Regs+21,AL     ; [CPU_] |687| 
    1621                      .dwpsn  file "../source/Solar Microinverter_main.c",line 688,column 5,is_stmt,isa 0
    1622 00000291 1A14!         OR        @_ECap1Regs+20,#0x0100 ; [CPU_] |688| 
         00000292 0100 
    1623                      .dwpsn  file "../source/Solar Microinverter_main.c",line 690,column 5,is_stmt,isa 0
    1624 00000293 1A15!         OR        @_ECap1Regs+21,#0x0010 ; [CPU_] |690| 
         00000294 0010 
TMS320C2000 Assembler PC v16.9.6 Tue Mar 06 18:34:46 2018

Tools Copyright (c) 1996-2017 Texas Instruments Incorporated
C:\Users\Admin\AppData\Local\Temp\{ED9AE313-281A-4435-8F2A-5411619B06A2} PAGE   35

    1625                      .dwpsn  file "../source/Solar Microinverter_main.c",line 691,column 5,is_stmt,isa 0
    1626 00000295 1815!         AND       @_ECap1Regs+21,#0xfff7 ; [CPU_] |691| 
         00000296 FFF7 
    1627                      .dwpsn  file "../source/Solar Microinverter_main.c",line 692,column 5,is_stmt,isa 0
    1628 00000297 1A14!         OR        @_ECap1Regs+20,#0x0100 ; [CPU_] |692| 
         00000298 0100 
    1629                      .dwpsn  file "../source/Solar Microinverter_main.c",line 693,column 5,is_stmt,isa 0
    1630 00000299 1AC4          OR        *+XAR4[0],#0x0004     ; [CPU_] |693| 
         0000029a 0004 
    1631 0000029b 761A   EDIS
    1632 0000029c FF69          SPM       #0                    ; [CPU_] 
    1633              $C$DW$85        .dwtag  DW_TAG_TI_branch
    1634                      .dwattr $C$DW$85, DW_AT_low_pc(0x00)
    1635                      .dwattr $C$DW$85, DW_AT_TI_return
    1636              
    1637 0000029d 0006          LRETR     ; [CPU_] 
    1638                      ; return occurs ; [] 
    1639                      .dwattr $C$DW$84, DW_AT_TI_end_file("../source/Solar Microinverter_main.c")
    1640                      .dwattr $C$DW$84, DW_AT_TI_end_line(0x2b7)
    1641                      .dwattr $C$DW$84, DW_AT_TI_end_column(0x01)
    1642                      .dwendentry
    1643                      .dwendtag $C$DW$84
    1644              
    1645 0000029e               .sect   ".text"
    1646                      .clink
    1647                      .global _LED_Indication
    1648              
    1649              $C$DW$86        .dwtag  DW_TAG_subprogram
    1650                      .dwattr $C$DW$86, DW_AT_name("LED_Indication")
    1651                      .dwattr $C$DW$86, DW_AT_low_pc(_LED_Indication)
    1652                      .dwattr $C$DW$86, DW_AT_high_pc(0x00)
    1653                      .dwattr $C$DW$86, DW_AT_TI_symbol_name("_LED_Indication")
    1654                      .dwattr $C$DW$86, DW_AT_external
    1655                      .dwattr $C$DW$86, DW_AT_TI_begin_file("../source/Solar Microinverter_main.c")
    1656                      .dwattr $C$DW$86, DW_AT_TI_begin_line(0x2c3)
    1657                      .dwattr $C$DW$86, DW_AT_TI_begin_column(0x06)
    1658                      .dwattr $C$DW$86, DW_AT_TI_max_frame_size(-2)
    1659                      .dwpsn  file "../source/Solar Microinverter_main.c",line 708,column 1,is_stmt,address _LED_Indication
    1660              
    1661                      .dwfde $C$DW$CIE, _LED_Indication
    1662              
    1663              ;***************************************************************
    1664              ;* FNAME: _LED_Indication               FR SIZE:   0           *
    1665              ;*                                                             *
    1666              ;* FUNCTION ENVIRONMENT                                        *
    1667              ;*                                                             *
    1668              ;* FUNCTION PROPERTIES                                         *
    1669              ;*                            0 Parameter,  0 Auto,  0 SOE     *
    1670              ;***************************************************************
    1671              
    1672 0000029e       _LED_Indication:
    1673                      .dwcfi  cfa_offset, -2
    1674                      .dwcfi  save_reg_to_mem, 26, 0
    1675 0000029e 761F!         MOVW      DP,#_systemState      ; [CPU_U] 
         0000029f 0000 
TMS320C2000 Assembler PC v16.9.6 Tue Mar 06 18:34:46 2018

Tools Copyright (c) 1996-2017 Texas Instruments Incorporated
C:\Users\Admin\AppData\Local\Temp\{ED9AE313-281A-4435-8F2A-5411619B06A2} PAGE   36

    1676                      .dwpsn  file "../source/Solar Microinverter_main.c",line 709,column 2,is_stmt,isa 0
    1677 000002a0 9200!         MOV       AL,@_systemState      ; [CPU_] |709| 
    1678 000002a1 5201          CMPB      AL,#1                 ; [CPU_] |709| 
    1679 000002a2 610F          B         $C$L2,EQ              ; [CPU_] |709| 
    1680                      ; branchcc occurs ; [] |709| 
    1681                      .dwpsn  file "../source/Solar Microinverter_main.c",line 715,column 7,is_stmt,isa 0
    1682 000002a3 5203          CMPB      AL,#3                 ; [CPU_] |715| 
    1683 000002a4 6108          B         $C$L1,EQ              ; [CPU_] |715| 
    1684                      ; branchcc occurs ; [] |715| 
    1685                      .dwpsn  file "../source/Solar Microinverter_main.c",line 721,column 7,is_stmt,isa 0
    1686 000002a5 5202          CMPB      AL,#2                 ; [CPU_] |721| 
    1687 000002a6 6011          B         $C$L4,NEQ             ; [CPU_] |721| 
    1688                      ; branchcc occurs ; [] |721| 
    1689                      .dwcfi  remember_state
    1690 000002a7 761F!         MOVW      DP,#_GpioDataRegs+1   ; [CPU_U] 
         000002a8 0000 
    1691                      .dwpsn  file "../source/Solar Microinverter_main.c",line 724,column 5,is_stmt,isa 0
    1692 000002a9 1801!         AND       @_GpioDataRegs+1,#0xbfff ; [CPU_] |724| 
         000002aa BFFF 
    1693              $C$DW$87        .dwtag  DW_TAG_TI_branch
    1694                      .dwattr $C$DW$87, DW_AT_low_pc(0x00)
    1695                      .dwattr $C$DW$87, DW_AT_TI_return
    1696              
    1697 000002ab 0006          LRETR     ; [CPU_] 
    1698                      ; return occurs ; [] 
    1699                      .dwcfi  restore_state
    1700 000002ac       $C$L1:    
    1701 000002ac 761F!         MOVW      DP,#_GpioDataRegs+1   ; [CPU_U] 
         000002ad 0000 
    1702                      .dwpsn  file "../source/Solar Microinverter_main.c",line 717,column 5,is_stmt,isa 0
    1703 000002ae 1801!         AND       @_GpioDataRegs+1,#0x7fff ; [CPU_] |717| 
         000002af 7FFF 
    1704                      .dwpsn  file "../source/Solar Microinverter_main.c",line 719,column 2,is_stmt,isa 0
    1705 000002b0 6F05          B         $C$L3,UNC             ; [CPU_] |719| 
    1706                      ; branch occurs ; [] |719| 
    1707 000002b1       $C$L2:    
    1708 000002b1 761F!         MOVW      DP,#_GpioDataRegs+1   ; [CPU_U] 
         000002b2 0000 
    1709                      .dwpsn  file "../source/Solar Microinverter_main.c",line 711,column 5,is_stmt,isa 0
    1710 000002b3 1A01!         OR        @_GpioDataRegs+1,#0x8000 ; [CPU_] |711| 
         000002b4 8000 
    1711 000002b5       $C$L3:    
    1712                      .dwpsn  file "../source/Solar Microinverter_main.c",line 712,column 5,is_stmt,isa 0
    1713 000002b5 1A01!         OR        @_GpioDataRegs+1,#0x4000 ; [CPU_] |712| 
         000002b6 4000 
    1714              $C$L4:    
    1715              $C$DW$88        .dwtag  DW_TAG_TI_branch
    1716                      .dwattr $C$DW$88, DW_AT_low_pc(0x00)
    1717                      .dwattr $C$DW$88, DW_AT_TI_return
    1718              
    1719 000002b7 0006          LRETR     ; [CPU_] 
    1720                      ; return occurs ; [] 
    1721                      .dwattr $C$DW$86, DW_AT_TI_end_file("../source/Solar Microinverter_main.c")
    1722                      .dwattr $C$DW$86, DW_AT_TI_end_line(0x2d9)
    1723                      .dwattr $C$DW$86, DW_AT_TI_end_column(0x01)
TMS320C2000 Assembler PC v16.9.6 Tue Mar 06 18:34:46 2018

Tools Copyright (c) 1996-2017 Texas Instruments Incorporated
C:\Users\Admin\AppData\Local\Temp\{ED9AE313-281A-4435-8F2A-5411619B06A2} PAGE   37

    1724                      .dwendentry
    1725                      .dwendtag $C$DW$86
    1726              
    1727 00000000               .sect   "ramfuncs"
    1728                      .clink
    1729                      .global _ModeChangeover
    1730              
    1731              $C$DW$89        .dwtag  DW_TAG_subprogram
    1732                      .dwattr $C$DW$89, DW_AT_name("ModeChangeover")
    1733                      .dwattr $C$DW$89, DW_AT_low_pc(_ModeChangeover)
    1734                      .dwattr $C$DW$89, DW_AT_high_pc(0x00)
    1735                      .dwattr $C$DW$89, DW_AT_TI_symbol_name("_ModeChangeover")
    1736                      .dwattr $C$DW$89, DW_AT_external
    1737                      .dwattr $C$DW$89, DW_AT_TI_begin_file("../source/Solar Microinverter_main.c")
    1738                      .dwattr $C$DW$89, DW_AT_TI_begin_line(0x2dd)
    1739                      .dwattr $C$DW$89, DW_AT_TI_begin_column(0x06)
    1740                      .dwattr $C$DW$89, DW_AT_TI_max_frame_size(-2)
    1741                      .dwpsn  file "../source/Solar Microinverter_main.c",line 734,column 1,is_stmt,address _ModeChangeover
    1742              
    1743                      .dwfde $C$DW$CIE, _ModeChangeover
    1744              
    1745              ;***************************************************************
    1746              ;* FNAME: _ModeChangeover               FR SIZE:   0           *
    1747              ;*                                                             *
    1748              ;* FUNCTION ENVIRONMENT                                        *
    1749              ;*                                                             *
    1750              ;* FUNCTION PROPERTIES                                         *
    1751              ;*                            0 Parameter,  0 Auto,  0 SOE     *
    1752              ;***************************************************************
    1753              
    1754 00000000       _ModeChangeover:
    1755                      .dwcfi  cfa_offset, -2
    1756                      .dwcfi  save_reg_to_mem, 26, 0
    1757 00000000 761F!         MOVW      DP,#_gridFlag         ; [CPU_U] 
         00000001 0000 
    1758                      .dwpsn  file "../source/Solar Microinverter_main.c",line 735,column 5,is_stmt,isa 0
    1759 00000002 9200!         MOV       AL,@_gridFlag         ; [CPU_] |735| 
    1760 00000003 610B          B         $C$L5,EQ              ; [CPU_] |735| 
    1761                      ; branchcc occurs ; [] |735| 
    1762                      .dwpsn  file "../source/Solar Microinverter_main.c",line 740,column 10,is_stmt,isa 0
    1763 00000004 9200!         MOV       AL,@_gridFlag         ; [CPU_] |740| 
    1764 00000005 5201          CMPB      AL,#1                 ; [CPU_] |740| 
    1765 00000006 600A          B         $C$L6,NEQ             ; [CPU_] |740| 
    1766                      ; branchcc occurs ; [] |740| 
    1767 00000007 7622   EALLOW
    1768 00000008 761F!         MOVW      DP,#_GpioCtrlRegs+6   ; [CPU_U] 
         00000009 0000 
    1769                      .dwpsn  file "../source/Solar Microinverter_main.c",line 743,column 9,is_stmt,isa 0
    1770 0000000a 1806!         AND       @_GpioCtrlRegs+6,#0xcfff ; [CPU_] |743| 
         0000000b CFFF 
    1771 0000000c 761A   EDIS
    1772                      .dwpsn  file "../source/Solar Microinverter_main.c",line 744,column 9,is_stmt,isa 0
    1773 0000000d 6F03          B         $C$L6,UNC             ; [CPU_] |744| 
    1774                      ; branch occurs ; [] |744| 
    1775 0000000e       $C$L5:    
TMS320C2000 Assembler PC v16.9.6 Tue Mar 06 18:34:46 2018

Tools Copyright (c) 1996-2017 Texas Instruments Incorporated
C:\Users\Admin\AppData\Local\Temp\{ED9AE313-281A-4435-8F2A-5411619B06A2} PAGE   38

    1776                      .dwpsn  file "../source/Solar Microinverter_main.c",line 737,column 9,is_stmt,isa 0
    1777              $C$DW$90        .dwtag  DW_TAG_TI_branch
    1778                      .dwattr $C$DW$90, DW_AT_low_pc(0x00)
    1779                      .dwattr $C$DW$90, DW_AT_name("_InitEPwmSyncGpio")
    1780                      .dwattr $C$DW$90, DW_AT_TI_call
    1781              
    1782 0000000e 7640!         LCR       #_InitEPwmSyncGpio    ; [CPU_] |737| 
         0000000f 0000 
    1783                      ; call occurs [#_InitEPwmSyncGpio] ; [] |737| 
    1784 00000010       $C$L6:    
    1785 00000010 FF69          SPM       #0                    ; [CPU_] 
    1786              $C$DW$91        .dwtag  DW_TAG_TI_branch
    1787                      .dwattr $C$DW$91, DW_AT_low_pc(0x00)
    1788                      .dwattr $C$DW$91, DW_AT_TI_return
    1789              
    1790 00000011 0006          LRETR     ; [CPU_] 
    1791                      ; return occurs ; [] 
    1792                      .dwattr $C$DW$89, DW_AT_TI_end_file("../source/Solar Microinverter_main.c")
    1793                      .dwattr $C$DW$89, DW_AT_TI_end_line(0x2eb)
    1794                      .dwattr $C$DW$89, DW_AT_TI_end_column(0x01)
    1795                      .dwendentry
    1796                      .dwendtag $C$DW$89
    1797              
    1798 000002b8               .sect   ".text"
    1799                      .clink
    1800                      .global _main
    1801              
    1802              $C$DW$92        .dwtag  DW_TAG_subprogram
    1803                      .dwattr $C$DW$92, DW_AT_name("main")
    1804                      .dwattr $C$DW$92, DW_AT_low_pc(_main)
    1805                      .dwattr $C$DW$92, DW_AT_high_pc(0x00)
    1806                      .dwattr $C$DW$92, DW_AT_TI_symbol_name("_main")
    1807                      .dwattr $C$DW$92, DW_AT_external
    1808                      .dwattr $C$DW$92, DW_AT_TI_begin_file("../source/Solar Microinverter_main.c")
    1809                      .dwattr $C$DW$92, DW_AT_TI_begin_line(0x47)
    1810                      .dwattr $C$DW$92, DW_AT_TI_begin_column(0x06)
    1811                      .dwattr $C$DW$92, DW_AT_TI_max_frame_size(-4)
    1812                      .dwpsn  file "../source/Solar Microinverter_main.c",line 72,column 1,is_stmt,address _main,isa 0
    1813              
    1814                      .dwfde $C$DW$CIE, _main
    1815              
    1816              ;***************************************************************
    1817              ;* FNAME: _main                         FR SIZE:   2           *
    1818              ;*                                                             *
    1819              ;* FUNCTION ENVIRONMENT                                        *
    1820              ;*                                                             *
    1821              ;* FUNCTION PROPERTIES                                         *
    1822              ;*                            2 Parameter,  0 Auto,  0 SOE     *
    1823              ;***************************************************************
    1824              
    1825 000002b8       _main:
    1826              ;* AR4   assigned to $O$C1
    1827              ;* AR6   assigned to $O$C2
    1828              ;* AR4   assigned to $O$C3
    1829                      .dwcfi  cfa_offset, -2
TMS320C2000 Assembler PC v16.9.6 Tue Mar 06 18:34:46 2018

Tools Copyright (c) 1996-2017 Texas Instruments Incorporated
C:\Users\Admin\AppData\Local\Temp\{ED9AE313-281A-4435-8F2A-5411619B06A2} PAGE   39

    1830                      .dwcfi  save_reg_to_mem, 26, 0
    1831 000002b8 FE02          ADDB      SP,#2                 ; [CPU_U] 
    1832                      .dwcfi  cfa_offset, -4
    1833                      .dwpsn  file "../source/Solar Microinverter_main.c",line 76,column 4,is_stmt,isa 0
    1834              $C$DW$93        .dwtag  DW_TAG_TI_branch
    1835                      .dwattr $C$DW$93, DW_AT_low_pc(0x00)
    1836                      .dwattr $C$DW$93, DW_AT_name("_InitSysCtrl")
    1837                      .dwattr $C$DW$93, DW_AT_TI_call
    1838              
    1839 000002b9 7640!         LCR       #_InitSysCtrl         ; [CPU_] |76| 
         000002ba 0000 
    1840                      ; call occurs [#_InitSysCtrl] ; [] |76| 
    1841                      .dwpsn  file "../source/Solar Microinverter_main.c",line 84,column 4,is_stmt,isa 0
    1842              $C$DW$94        .dwtag  DW_TAG_TI_branch
    1843                      .dwattr $C$DW$94, DW_AT_low_pc(0x00)
    1844                      .dwattr $C$DW$94, DW_AT_name("_InitEPwm1Gpio")
    1845                      .dwattr $C$DW$94, DW_AT_TI_call
    1846              
    1847 000002bb 7640!         LCR       #_InitEPwm1Gpio       ; [CPU_] |84| 
         000002bc 0000 
    1848                      ; call occurs [#_InitEPwm1Gpio] ; [] |84| 
    1849                      .dwpsn  file "../source/Solar Microinverter_main.c",line 85,column 4,is_stmt,isa 0
    1850              $C$DW$95        .dwtag  DW_TAG_TI_branch
    1851                      .dwattr $C$DW$95, DW_AT_low_pc(0x00)
    1852                      .dwattr $C$DW$95, DW_AT_name("_InitEPwm2Gpio")
    1853                      .dwattr $C$DW$95, DW_AT_TI_call
    1854              
    1855 000002bd 7640!         LCR       #_InitEPwm2Gpio       ; [CPU_] |85| 
         000002be 0000 
    1856                      ; call occurs [#_InitEPwm2Gpio] ; [] |85| 
    1857                      .dwpsn  file "../source/Solar Microinverter_main.c",line 86,column 4,is_stmt,isa 0
    1858              $C$DW$96        .dwtag  DW_TAG_TI_branch
    1859                      .dwattr $C$DW$96, DW_AT_low_pc(0x00)
    1860                      .dwattr $C$DW$96, DW_AT_name("_InitEPwm3Gpio")
    1861                      .dwattr $C$DW$96, DW_AT_TI_call
    1862              
    1863 000002bf 7640!         LCR       #_InitEPwm3Gpio       ; [CPU_] |86| 
         000002c0 0000 
    1864                      ; call occurs [#_InitEPwm3Gpio] ; [] |86| 
    1865                      .dwpsn  file "../source/Solar Microinverter_main.c",line 87,column 4,is_stmt,isa 0
    1866              $C$DW$97        .dwtag  DW_TAG_TI_branch
    1867                      .dwattr $C$DW$97, DW_AT_low_pc(0x00)
    1868                      .dwattr $C$DW$97, DW_AT_name("_InitTzGpio")
    1869                      .dwattr $C$DW$97, DW_AT_TI_call
    1870              
    1871 000002c1 7640!         LCR       #_InitTzGpio          ; [CPU_] |87| 
         000002c2 0000 
    1872                      ; call occurs [#_InitTzGpio] ; [] |87| 
    1873                      .dwpsn  file "../source/Solar Microinverter_main.c",line 88,column 4,is_stmt,isa 0
    1874              $C$DW$98        .dwtag  DW_TAG_TI_branch
    1875                      .dwattr $C$DW$98, DW_AT_low_pc(0x00)
    1876                      .dwattr $C$DW$98, DW_AT_name("_InitECap1Gpio")
    1877                      .dwattr $C$DW$98, DW_AT_TI_call
    1878              
    1879 000002c3 7640!         LCR       #_InitECap1Gpio       ; [CPU_] |88| 
TMS320C2000 Assembler PC v16.9.6 Tue Mar 06 18:34:46 2018

Tools Copyright (c) 1996-2017 Texas Instruments Incorporated
C:\Users\Admin\AppData\Local\Temp\{ED9AE313-281A-4435-8F2A-5411619B06A2} PAGE   40

         000002c4 0000 
    1880                      ; call occurs [#_InitECap1Gpio] ; [] |88| 
    1881                      .dwpsn  file "../source/Solar Microinverter_main.c",line 89,column 4,is_stmt,isa 0
    1882              $C$DW$99        .dwtag  DW_TAG_TI_branch
    1883                      .dwattr $C$DW$99, DW_AT_low_pc(0x00)
    1884                      .dwattr $C$DW$99, DW_AT_name("_InitEPwmSyncGpio")
    1885                      .dwattr $C$DW$99, DW_AT_TI_call
    1886              
    1887 000002c5 7640!         LCR       #_InitEPwmSyncGpio    ; [CPU_] |89| 
         000002c6 0000 
    1888                      ; call occurs [#_InitEPwmSyncGpio] ; [] |89| 
    1889 000002c7 3B10   setc INTM
    1890 000002c8 FF69          SPM       #0                    ; [CPU_] 
    1891                      .dwpsn  file "../source/Solar Microinverter_main.c",line 100,column 4,is_stmt,isa 0
    1892              $C$DW$100       .dwtag  DW_TAG_TI_branch
    1893                      .dwattr $C$DW$100, DW_AT_low_pc(0x00)
    1894                      .dwattr $C$DW$100, DW_AT_name("_InitPieCtrl")
    1895                      .dwattr $C$DW$100, DW_AT_TI_call
    1896              
    1897 000002c9 7640!         LCR       #_InitPieCtrl         ; [CPU_] |100| 
         000002ca 0000 
    1898                      ; call occurs [#_InitPieCtrl] ; [] |100| 
    1899                      .dwpsn  file "../source/Solar Microinverter_main.c",line 101,column 4,is_stmt,isa 0
    1900 000002cb 8F00!         MOVL      XAR4,#_RamfuncsRunStart ; [CPU_U] |101| 
         000002cc 0000 
    1901 000002cd 8F40!         MOVL      XAR5,#_RamfuncsLoadEnd ; [CPU_U] |101| 
         000002ce 0000 
    1902 000002cf A842          MOVL      *-SP[2],XAR4          ; [CPU_] |101| 
    1903 000002d0 8F00!         MOVL      XAR4,#_RamfuncsLoadStart ; [CPU_U] |101| 
         000002d1 0000 
    1904              $C$DW$101       .dwtag  DW_TAG_TI_branch
    1905                      .dwattr $C$DW$101, DW_AT_low_pc(0x00)
    1906                      .dwattr $C$DW$101, DW_AT_name("_MemCopy")
    1907                      .dwattr $C$DW$101, DW_AT_TI_call
    1908              
    1909 000002d2 7640!         LCR       #_MemCopy             ; [CPU_] |101| 
         000002d3 0000 
    1910                      ; call occurs [#_MemCopy] ; [] |101| 
    1911                      .dwpsn  file "../source/Solar Microinverter_main.c",line 102,column 4,is_stmt,isa 0
    1912 000002d4 8F00!         MOVL      XAR4,#_RamconstsRunStart ; [CPU_U] |102| 
         000002d5 0000 
    1913 000002d6 8F40!         MOVL      XAR5,#_RamconstsLoadEnd ; [CPU_U] |102| 
         000002d7 0000 
    1914 000002d8 A842          MOVL      *-SP[2],XAR4          ; [CPU_] |102| 
    1915 000002d9 8F00!         MOVL      XAR4,#_RamconstsLoadStart ; [CPU_U] |102| 
         000002da 0000 
    1916              $C$DW$102       .dwtag  DW_TAG_TI_branch
    1917                      .dwattr $C$DW$102, DW_AT_low_pc(0x00)
    1918                      .dwattr $C$DW$102, DW_AT_name("_MemCopy")
    1919                      .dwattr $C$DW$102, DW_AT_TI_call
    1920              
    1921 000002db 7640!         LCR       #_MemCopy             ; [CPU_] |102| 
         000002dc 0000 
    1922                      ; call occurs [#_MemCopy] ; [] |102| 
    1923                      .dwpsn  file "../source/Solar Microinverter_main.c",line 103,column 4,is_stmt,isa 0
TMS320C2000 Assembler PC v16.9.6 Tue Mar 06 18:34:46 2018

Tools Copyright (c) 1996-2017 Texas Instruments Incorporated
C:\Users\Admin\AppData\Local\Temp\{ED9AE313-281A-4435-8F2A-5411619B06A2} PAGE   41

    1924              $C$DW$103       .dwtag  DW_TAG_TI_branch
    1925                      .dwattr $C$DW$103, DW_AT_low_pc(0x00)
    1926                      .dwattr $C$DW$103, DW_AT_name("_InitFlash")
    1927                      .dwattr $C$DW$103, DW_AT_TI_call
    1928              
    1929 000002dd 7640!         LCR       #_InitFlash           ; [CPU_] |103| 
         000002de 0000 
    1930                      ; call occurs [#_InitFlash] ; [] |103| 
    1931                      .dwpsn  file "../source/Solar Microinverter_main.c",line 105,column 4,is_stmt,isa 0
    1932 000002df 7626          AND       IER,#0x0000           ; [CPU_] |105| 
         000002e0 0000 
    1933                      .dwpsn  file "../source/Solar Microinverter_main.c",line 106,column 4,is_stmt,isa 0
    1934 000002e1 762F          AND       IFR,#0x0000           ; [CPU_] |106| 
         000002e2 0000 
    1935                      .dwpsn  file "../source/Solar Microinverter_main.c",line 114,column 4,is_stmt,isa 0
    1936              $C$DW$104       .dwtag  DW_TAG_TI_branch
    1937                      .dwattr $C$DW$104, DW_AT_low_pc(0x00)
    1938                      .dwattr $C$DW$104, DW_AT_name("_InitPieVectTable")
    1939                      .dwattr $C$DW$104, DW_AT_TI_call
    1940              
    1941 000002e3 7640!         LCR       #_InitPieVectTable    ; [CPU_] |114| 
         000002e4 0000 
    1942                      ; call occurs [#_InitPieVectTable] ; [] |114| 
    1943 000002e5 7622   EALLOW
    1944 000002e6 761F!         MOVW      DP,#_PieVectTable+64  ; [CPU_U] 
         000002e7 0001 
    1945                      .dwpsn  file "../source/Solar Microinverter_main.c",line 117,column 4,is_stmt,isa 0
    1946 000002e8 8F00!         MOVL      XAR4,#_adc_isr        ; [CPU_U] |117| 
         000002e9 0000 
    1947 000002ea A800!         MOVL      @_PieVectTable+64,XAR4 ; [CPU_] |117| 
    1948                      .dwpsn  file "../source/Solar Microinverter_main.c",line 119,column 4,is_stmt,isa 0
    1949 000002eb 8F00+         MOVL      XAR4,#_epwm4_isr      ; [CPU_U] |119| 
         000002ec 0000 
    1950 000002ed A826!         MOVL      @_PieVectTable+102,XAR4 ; [CPU_] |119| 
    1951                      .dwpsn  file "../source/Solar Microinverter_main.c",line 121,column 4,is_stmt,isa 0
    1952 000002ee 8F00+         MOVL      XAR4,#_ecap1_isr      ; [CPU_U] |121| 
         000002ef 0052 
    1953 000002f0 A830!         MOVL      @_PieVectTable+112,XAR4 ; [CPU_] |121| 
    1954 000002f1 761F!         MOVW      DP,#_PieVectTable+192 ; [CPU_U] 
         000002f2 0003 
    1955                      .dwpsn  file "../source/Solar Microinverter_main.c",line 123,column 4,is_stmt,isa 0
    1956 000002f3 8F00!         MOVL      XAR4,#_sciRxFifoIsr   ; [CPU_U] |123| 
         000002f4 0000 
    1957 000002f5 A800!         MOVL      @_PieVectTable+192,XAR4 ; [CPU_] |123| 
    1958                      .dwpsn  file "../source/Solar Microinverter_main.c",line 124,column 4,is_stmt,isa 0
    1959 000002f6 8F00!         MOVL      XAR4,#_sciTxFifoIsr   ; [CPU_U] |124| 
         000002f7 0000 
    1960 000002f8 A802!         MOVL      @_PieVectTable+194,XAR4 ; [CPU_] |124| 
    1961 000002f9 761A   EDIS
    1962 000002fa 7622   EALLOW
    1963                      .dwpsn  file "../source/Solar Microinverter_main.c",line 131,column 4,is_stmt,isa 0
    1964 000002fb 8F00!         MOVL      XAR4,#_GpioCtrlRegs   ; [CPU_U] |131| 
         000002fc 0000 
    1965 000002fd 83A4          MOVL      XAR5,XAR4             ; [CPU_] |131| 
    1966 000002fe DD08          ADDB      XAR5,#8               ; [CPU_] |131| 
TMS320C2000 Assembler PC v16.9.6 Tue Mar 06 18:34:46 2018

Tools Copyright (c) 1996-2017 Texas Instruments Incorporated
C:\Users\Admin\AppData\Local\Temp\{ED9AE313-281A-4435-8F2A-5411619B06A2} PAGE   42

    1967 000002ff 18C5          AND       *+XAR5[0],#0xf3ff     ; [CPU_] |131| 
         00000300 F3FF 
    1968                      .dwpsn  file "../source/Solar Microinverter_main.c",line 132,column 4,is_stmt,isa 0
    1969 00000301 83A4          MOVL      XAR5,XAR4             ; [CPU_] |132| 
    1970 00000302 DD0B          ADDB      XAR5,#11              ; [CPU_] |132| 
    1971 00000303 1AC5          OR        *+XAR5[0],#0x0020     ; [CPU_] |132| 
         00000304 0020 
    1972                      .dwpsn  file "../source/Solar Microinverter_main.c",line 134,column 4,is_stmt,isa 0
    1973 00000305 83A4          MOVL      XAR5,XAR4             ; [CPU_] |134| 
    1974 00000306 DD1A          ADDB      XAR5,#26              ; [CPU_] |134| 
    1975 00000307 1AC5          OR        *+XAR5[0],#0x0002     ; [CPU_] |134| 
         00000308 0002 
    1976                      .dwpsn  file "../source/Solar Microinverter_main.c",line 135,column 4,is_stmt,isa 0
    1977 00000309 83A4          MOVL      XAR5,XAR4             ; [CPU_] |135| 
    1978 0000030a DD16          ADDB      XAR5,#22              ; [CPU_] |135| 
    1979 0000030b 18C5          AND       *+XAR5[0],#0xfff3     ; [CPU_] |135| 
         0000030c FFF3 
    1980                      .dwpsn  file "../source/Solar Microinverter_main.c",line 139,column 4,is_stmt,isa 0
    1981 0000030d 83A4          MOVL      XAR5,XAR4             ; [CPU_] |139| 
    1982 0000030e 761F!         MOVW      DP,#_GpioCtrlRegs+11  ; [CPU_U] 
         0000030f 0000 
    1983                      .dwpsn  file "../source/Solar Microinverter_main.c",line 146,column 4,is_stmt,isa 0
    1984 00000310 7680!         MOVL      XAR6,#_GpioDataRegs   ; [CPU_U] |146| 
         00000311 0000 
    1985                      .dwpsn  file "../source/Solar Microinverter_main.c",line 138,column 4,is_stmt,isa 0
    1986 00000312 1A0B!         OR        @_GpioCtrlRegs+11,#0x4000 ; [CPU_] |138| 
         00000313 4000 
    1987                      .dwpsn  file "../source/Solar Microinverter_main.c",line 139,column 4,is_stmt,isa 0
    1988 00000314 DD09          ADDB      XAR5,#9               ; [CPU_] |139| 
    1989 00000315 18C5          AND       *+XAR5[0],#0xcfff     ; [CPU_] |139| 
         00000316 CFFF 
    1990                      .dwpsn  file "../source/Solar Microinverter_main.c",line 146,column 4,is_stmt,isa 0
    1991 00000317 83A6          MOVL      XAR5,XAR6             ; [CPU_] |146| 
    1992                      .dwpsn  file "../source/Solar Microinverter_main.c",line 141,column 4,is_stmt,isa 0
    1993 00000318 1A0B!         OR        @_GpioCtrlRegs+11,#0x8000 ; [CPU_] |141| 
         00000319 8000 
    1994                      .dwpsn  file "../source/Solar Microinverter_main.c",line 146,column 4,is_stmt,isa 0
    1995 0000031a DD0C          ADDB      XAR5,#12              ; [CPU_] |146| 
    1996                      .dwpsn  file "../source/Solar Microinverter_main.c",line 142,column 4,is_stmt,isa 0
    1997 0000031b 1809!         AND       @_GpioCtrlRegs+9,#0x3fff ; [CPU_] |142| 
         0000031c 3FFF 
    1998                      .dwpsn  file "../source/Solar Microinverter_main.c",line 144,column 4,is_stmt,isa 0
    1999 0000031d 1A1A!         OR        @_GpioCtrlRegs+26,#0x0001 ; [CPU_] |144| 
         0000031e 0001 
    2000                      .dwpsn  file "../source/Solar Microinverter_main.c",line 145,column 4,is_stmt,isa 0
    2001 0000031f 1816!         AND       @_GpioCtrlRegs+22,#0xfffc ; [CPU_] |145| 
         00000320 FFFC 
    2002                      .dwpsn  file "../source/Solar Microinverter_main.c",line 146,column 4,is_stmt,isa 0
    2003 00000321 1AC5          OR        *+XAR5[0],#0x0001     ; [CPU_] |146| 
         00000322 0001 
    2004                      .dwpsn  file "../source/Solar Microinverter_main.c",line 150,column 4,is_stmt,isa 0
    2005 00000323 83A4          MOVL      XAR5,XAR4             ; [CPU_] |150| 
    2006 00000324 DD0D          ADDB      XAR5,#13              ; [CPU_] |150| 
    2007 00000325 1AC5          OR        *+XAR5[0],#0x1000     ; [CPU_] |150| 
         00000326 1000 
TMS320C2000 Assembler PC v16.9.6 Tue Mar 06 18:34:46 2018

Tools Copyright (c) 1996-2017 Texas Instruments Incorporated
C:\Users\Admin\AppData\Local\Temp\{ED9AE313-281A-4435-8F2A-5411619B06A2} PAGE   43

    2008                      .dwpsn  file "../source/Solar Microinverter_main.c",line 151,column 4,is_stmt,isa 0
    2009 00000327 1809!         AND       @_GpioCtrlRegs+9,#0xfcff ; [CPU_] |151| 
         00000328 FCFF 
    2010                      .dwpsn  file "../source/Solar Microinverter_main.c",line 152,column 4,is_stmt,isa 0
    2011 00000329 1A0B!         OR        @_GpioCtrlRegs+11,#0x1000 ; [CPU_] |152| 
         0000032a 1000 
    2012                      .dwpsn  file "../source/Solar Microinverter_main.c",line 153,column 4,is_stmt,isa 0
    2013 0000032b 1ADE          OR        *+XAR6[3],#0x1000     ; [CPU_] |153| 
         0000032c 1000 
    2014                      .dwpsn  file "../source/Solar Microinverter_main.c",line 155,column 4,is_stmt,isa 0
    2015 0000032d 1808!         AND       @_GpioCtrlRegs+8,#0x3fff ; [CPU_] |155| 
         0000032e 3FFF 
    2016                      .dwpsn  file "../source/Solar Microinverter_main.c",line 156,column 4,is_stmt,isa 0
    2017 0000032f 1A0B!         OR        @_GpioCtrlRegs+11,#0x0080 ; [CPU_] |156| 
         00000330 0080 
    2018                      .dwpsn  file "../source/Solar Microinverter_main.c",line 157,column 4,is_stmt,isa 0
    2019 00000331 1AEE          OR        *+XAR6[5],#0x0080     ; [CPU_] |157| 
         00000332 0080 
    2020                      .dwpsn  file "../source/Solar Microinverter_main.c",line 161,column 4,is_stmt,isa 0
    2021 00000333 18FC          AND       *+XAR4[7],#0xfff3     ; [CPU_] |161| 
         00000334 FFF3 
    2022                      .dwpsn  file "../source/Solar Microinverter_main.c",line 162,column 4,is_stmt,isa 0
    2023 00000335 DC0A          ADDB      XAR4,#10              ; [CPU_] |162| 
    2024 00000336 18C4          AND       *+XAR4[0],#0xfdff     ; [CPU_] |162| 
         00000337 FDFF 
    2025                      .dwpsn  file "../source/Solar Microinverter_main.c",line 164,column 4,is_stmt,isa 0
    2026 00000338 180B!         AND       @_GpioCtrlRegs+11,#0xffef ; [CPU_] |164| 
         00000339 FFEF 
    2027                      .dwpsn  file "../source/Solar Microinverter_main.c",line 165,column 4,is_stmt,isa 0
    2028 0000033a 1808!         AND       @_GpioCtrlRegs+8,#0xfcff ; [CPU_] |165| 
         0000033b FCFF 
    2029                      .dwpsn  file "../source/Solar Microinverter_main.c",line 169,column 5,is_stmt,isa 0
    2030 0000033c 1A0B!         OR        @_GpioCtrlRegs+11,#0x0002 ; [CPU_] |169| 
         0000033d 0002 
    2031                      .dwpsn  file "../source/Solar Microinverter_main.c",line 174,column 4,is_stmt,isa 0
    2032 0000033e 1A0A!         OR        @_GpioCtrlRegs+10,#0x0800 ; [CPU_] |174| 
         0000033f 0800 
    2033                      .dwpsn  file "../source/Solar Microinverter_main.c",line 176,column 4,is_stmt,isa 0
    2034 00000340 1A1A!         OR        @_GpioCtrlRegs+26,#0x0004 ; [CPU_] |176| 
         00000341 0004 
    2035                      .dwpsn  file "../source/Solar Microinverter_main.c",line 179,column 5,is_stmt,isa 0
    2036 00000342 1807!         AND       @_GpioCtrlRegs+7,#0xffcf ; [CPU_] |179| 
         00000343 FFCF 
    2037                      .dwpsn  file "../source/Solar Microinverter_main.c",line 180,column 5,is_stmt,isa 0
    2038 00000344 180A!         AND       @_GpioCtrlRegs+10,#0xfbff ; [CPU_] |180| 
         00000345 FBFF 
    2039                      .dwpsn  file "../source/Solar Microinverter_main.c",line 181,column 5,is_stmt,isa 0
    2040 00000346 18D6          AND       *+XAR6[2],#0xfbff     ; [CPU_] |181| 
         00000347 FBFF 
    2041                      .dwpsn  file "../source/Solar Microinverter_main.c",line 187,column 4,is_stmt,isa 0
    2042 00000348 1807!         AND       @_GpioCtrlRegs+7,#0xfffc ; [CPU_] |187| 
         00000349 FFFC 
    2043                      .dwpsn  file "../source/Solar Microinverter_main.c",line 188,column 4,is_stmt,isa 0
    2044 0000034a 1A0A!         OR        @_GpioCtrlRegs+10,#0x0100 ; [CPU_] |188| 
         0000034b 0100 
TMS320C2000 Assembler PC v16.9.6 Tue Mar 06 18:34:46 2018

Tools Copyright (c) 1996-2017 Texas Instruments Incorporated
C:\Users\Admin\AppData\Local\Temp\{ED9AE313-281A-4435-8F2A-5411619B06A2} PAGE   44

    2045                      .dwpsn  file "../source/Solar Microinverter_main.c",line 190,column 4,is_stmt,isa 0
    2046 0000034c 1A0B!         OR        @_GpioCtrlRegs+11,#0x0040 ; [CPU_] |190| 
         0000034d 0040 
    2047                      .dwpsn  file "../source/Solar Microinverter_main.c",line 191,column 4,is_stmt,isa 0
    2048 0000034e 1808!         AND       @_GpioCtrlRegs+8,#0xcfff ; [CPU_] |191| 
         0000034f CFFF 
    2049                      .dwpsn  file "../source/Solar Microinverter_main.c",line 193,column 4,is_stmt,isa 0
    2050 00000350 1A0B!         OR        @_GpioCtrlRegs+11,#0x0001 ; [CPU_] |193| 
         00000351 0001 
    2051                      .dwpsn  file "../source/Solar Microinverter_main.c",line 194,column 4,is_stmt,isa 0
    2052 00000352 1808!         AND       @_GpioCtrlRegs+8,#0xfffc ; [CPU_] |194| 
         00000353 FFFC 
    2053 00000354 761F!         MOVW      DP,#_GpioDataRegs+3   ; [CPU_U] 
         00000355 0000 
    2054                      .dwpsn  file "../source/Solar Microinverter_main.c",line 195,column 4,is_stmt,isa 0
    2055 00000356 1A03!         OR        @_GpioDataRegs+3,#0x0001 ; [CPU_] |195| 
         00000357 0001 
    2056 00000358 761F!         MOVW      DP,#_GpioCtrlRegs+11  ; [CPU_U] 
         00000359 0000 
    2057                      .dwpsn  file "../source/Solar Microinverter_main.c",line 198,column 3,is_stmt,isa 0
    2058 0000035a 1A0B!         OR        @_GpioCtrlRegs+11,#0x2000 ; [CPU_] |198| 
         0000035b 2000 
    2059                      .dwpsn  file "../source/Solar Microinverter_main.c",line 199,column 3,is_stmt,isa 0
    2060 0000035c 1809!         AND       @_GpioCtrlRegs+9,#0xf3ff ; [CPU_] |199| 
         0000035d F3FF 
    2061                      .dwpsn  file "../source/Solar Microinverter_main.c",line 201,column 3,is_stmt,isa 0
    2062 0000035e 1A0B!         OR        @_GpioCtrlRegs+11,#0x0008 ; [CPU_] |201| 
         0000035f 0008 
    2063                      .dwpsn  file "../source/Solar Microinverter_main.c",line 202,column 3,is_stmt,isa 0
    2064 00000360 1808!         AND       @_GpioCtrlRegs+8,#0xff3f ; [CPU_] |202| 
         00000361 FF3F 
    2065 00000362 761A   EDIS
    2066 00000363 FF69          SPM       #0                    ; [CPU_] 
    2067                      .dwpsn  file "../source/Solar Microinverter_main.c",line 208,column 4,is_stmt,isa 0
    2068              $C$DW$105       .dwtag  DW_TAG_TI_branch
    2069                      .dwattr $C$DW$105, DW_AT_low_pc(0x00)
    2070                      .dwattr $C$DW$105, DW_AT_name("_InitAdc")
    2071                      .dwattr $C$DW$105, DW_AT_TI_call
    2072              
    2073 00000364 7640!         LCR       #_InitAdc             ; [CPU_] |208| 
         00000365 0000 
    2074                      ; call occurs [#_InitAdc] ; [] |208| 
    2075 00000366 7622   EALLOW
    2076 00000367 761F!         MOVW      DP,#_SysCtrlRegs+12   ; [CPU_U] 
         00000368 0000 
    2077                      .dwpsn  file "../source/Solar Microinverter_main.c",line 211,column 4,is_stmt,isa 0
    2078 00000369 180C!         AND       @_SysCtrlRegs+12,#0xfffb ; [CPU_] |211| 
         0000036a FFFB 
    2079 0000036b 761A   EDIS
    2080 0000036c FF69          SPM       #0                    ; [CPU_] 
    2081                      .dwpsn  file "../source/Solar Microinverter_main.c",line 214,column 3,is_stmt,isa 0
    2082              $C$DW$106       .dwtag  DW_TAG_TI_branch
    2083                      .dwattr $C$DW$106, DW_AT_low_pc(0x00)
    2084                      .dwattr $C$DW$106, DW_AT_name("_InitEPwm1Example")
    2085                      .dwattr $C$DW$106, DW_AT_TI_call
TMS320C2000 Assembler PC v16.9.6 Tue Mar 06 18:34:46 2018

Tools Copyright (c) 1996-2017 Texas Instruments Incorporated
C:\Users\Admin\AppData\Local\Temp\{ED9AE313-281A-4435-8F2A-5411619B06A2} PAGE   45

    2086              
    2087 0000036d 7640'         LCR       #_InitEPwm1Example    ; [CPU_] |214| 
         0000036e 0000 
    2088                      ; call occurs [#_InitEPwm1Example] ; [] |214| 
    2089                      .dwpsn  file "../source/Solar Microinverter_main.c",line 215,column 3,is_stmt,isa 0
    2090              $C$DW$107       .dwtag  DW_TAG_TI_branch
    2091                      .dwattr $C$DW$107, DW_AT_low_pc(0x00)
    2092                      .dwattr $C$DW$107, DW_AT_name("_InitEPwm2Example")
    2093                      .dwattr $C$DW$107, DW_AT_TI_call
    2094              
    2095 0000036f 7640'         LCR       #_InitEPwm2Example    ; [CPU_] |215| 
         00000370 008D 
    2096                      ; call occurs [#_InitEPwm2Example] ; [] |215| 
    2097                      .dwpsn  file "../source/Solar Microinverter_main.c",line 219,column 4,is_stmt,isa 0
    2098              $C$DW$108       .dwtag  DW_TAG_TI_branch
    2099                      .dwattr $C$DW$108, DW_AT_low_pc(0x00)
    2100                      .dwattr $C$DW$108, DW_AT_name("_InitEPwm3Example")
    2101                      .dwattr $C$DW$108, DW_AT_TI_call
    2102              
    2103 00000371 7640'         LCR       #_InitEPwm3Example    ; [CPU_] |219| 
         00000372 0102 
    2104                      ; call occurs [#_InitEPwm3Example] ; [] |219| 
    2105                      .dwpsn  file "../source/Solar Microinverter_main.c",line 220,column 4,is_stmt,isa 0
    2106              $C$DW$109       .dwtag  DW_TAG_TI_branch
    2107                      .dwattr $C$DW$109, DW_AT_low_pc(0x00)
    2108                      .dwattr $C$DW$109, DW_AT_name("_InitEPwm4Example")
    2109                      .dwattr $C$DW$109, DW_AT_TI_call
    2110              
    2111 00000373 7640'         LCR       #_InitEPwm4Example    ; [CPU_] |220| 
         00000374 0174 
    2112                      ; call occurs [#_InitEPwm4Example] ; [] |220| 
    2113                      .dwpsn  file "../source/Solar Microinverter_main.c",line 221,column 4,is_stmt,isa 0
    2114              $C$DW$110       .dwtag  DW_TAG_TI_branch
    2115                      .dwattr $C$DW$110, DW_AT_low_pc(0x00)
    2116                      .dwattr $C$DW$110, DW_AT_name("_Adc_Config")
    2117                      .dwattr $C$DW$110, DW_AT_TI_call
    2118              
    2119 00000375 7640'         LCR       #_Adc_Config          ; [CPU_] |221| 
         00000376 0194 
    2120                      ; call occurs [#_Adc_Config] ; [] |221| 
    2121                      .dwpsn  file "../source/Solar Microinverter_main.c",line 223,column 4,is_stmt,isa 0
    2122              $C$DW$111       .dwtag  DW_TAG_TI_branch
    2123                      .dwattr $C$DW$111, DW_AT_low_pc(0x00)
    2124                      .dwattr $C$DW$111, DW_AT_name("_InitComparator")
    2125                      .dwattr $C$DW$111, DW_AT_TI_call
    2126              
    2127 00000377 7640'         LCR       #_InitComparator      ; [CPU_] |223| 
         00000378 022B 
    2128                      ; call occurs [#_InitComparator] ; [] |223| 
    2129                      .dwpsn  file "../source/Solar Microinverter_main.c",line 226,column 4,is_stmt,isa 0
    2130              $C$DW$112       .dwtag  DW_TAG_TI_branch
    2131                      .dwattr $C$DW$112, DW_AT_low_pc(0x00)
    2132                      .dwattr $C$DW$112, DW_AT_name("_InitSciaGpio")
    2133                      .dwattr $C$DW$112, DW_AT_TI_call
    2134              
TMS320C2000 Assembler PC v16.9.6 Tue Mar 06 18:34:46 2018

Tools Copyright (c) 1996-2017 Texas Instruments Incorporated
C:\Users\Admin\AppData\Local\Temp\{ED9AE313-281A-4435-8F2A-5411619B06A2} PAGE   46

    2135 00000379 7640!         LCR       #_InitSciaGpio        ; [CPU_] |226| 
         0000037a 0000 
    2136                      ; call occurs [#_InitSciaGpio] ; [] |226| 
    2137                      .dwpsn  file "../source/Solar Microinverter_main.c",line 227,column 4,is_stmt,isa 0
    2138              $C$DW$113       .dwtag  DW_TAG_TI_branch
    2139                      .dwattr $C$DW$113, DW_AT_low_pc(0x00)
    2140                      .dwattr $C$DW$113, DW_AT_name("_scia_fifo_init")
    2141                      .dwattr $C$DW$113, DW_AT_TI_call
    2142              
    2143 0000037b 7640!         LCR       #_scia_fifo_init      ; [CPU_] |227| 
         0000037c 0000 
    2144                      ; call occurs [#_scia_fifo_init] ; [] |227| 
    2145                      .dwpsn  file "../source/Solar Microinverter_main.c",line 229,column 5,is_stmt,isa 0
    2146              $C$DW$114       .dwtag  DW_TAG_TI_branch
    2147                      .dwattr $C$DW$114, DW_AT_low_pc(0x00)
    2148                      .dwattr $C$DW$114, DW_AT_name("_InitECapture")
    2149                      .dwattr $C$DW$114, DW_AT_TI_call
    2150              
    2151 0000037d 7640'         LCR       #_InitECapture        ; [CPU_] |229| 
         0000037e 0262 
    2152                      ; call occurs [#_InitECapture] ; [] |229| 
    2153 0000037f 7622   EALLOW
    2154 00000380 761F!         MOVW      DP,#_SysCtrlRegs+18   ; [CPU_U] 
         00000381 0000 
    2155                      .dwpsn  file "../source/Solar Microinverter_main.c",line 237,column 4,is_stmt,isa 0
    2156 00000382 56BF!         MOVB      @_SysCtrlRegs+18,#4,UNC ; [CPU_] |237| 
         00000383 0412 
    2157 00000384 761A   EDIS
    2158 00000385 7622   EALLOW
    2159                      .dwpsn  file "../source/Solar Microinverter_main.c",line 244,column 4,is_stmt,isa 0
    2160 00000386 1A0C!         OR        @_SysCtrlRegs+12,#0x0004 ; [CPU_] |244| 
         00000387 0004 
    2161 00000388 761A   EDIS
    2162 00000389 7622   EALLOW
    2163                      .dwpsn  file "../source/Solar Microinverter_main.c",line 251,column 4,is_stmt,isa 0
    2164 0000038a 8F00!         MOVL      XAR4,#_PieCtrlRegs    ; [CPU_U] |251| 
         0000038b 0000 
    2165 0000038c 83A4          MOVL      XAR5,XAR4             ; [CPU_] |251| 
    2166 0000038d DD02          ADDB      XAR5,#2               ; [CPU_] |251| 
    2167 0000038e 1AC5          OR        *+XAR5[0],#0x0001     ; [CPU_] |251| 
         0000038f 0001 
    2168                      .dwpsn  file "../source/Solar Microinverter_main.c",line 255,column 4,is_stmt,isa 0
    2169 00000390 83A4          MOVL      XAR5,XAR4             ; [CPU_] |255| 
    2170 00000391 761F!         MOVW      DP,#_PieCtrlRegs+18   ; [CPU_U] 
         00000392 0000 
    2171                      .dwpsn  file "../source/Solar Microinverter_main.c",line 252,column 4,is_stmt,isa 0
    2172 00000393 1AF4          OR        *+XAR4[6],#0x0008     ; [CPU_] |252| 
         00000394 0008 
    2173                      .dwpsn  file "../source/Solar Microinverter_main.c",line 258,column 4,is_stmt,isa 0
    2174 00000395 DC12          ADDB      XAR4,#18              ; [CPU_] |258| 
    2175                      .dwpsn  file "../source/Solar Microinverter_main.c",line 255,column 4,is_stmt,isa 0
    2176 00000396 DD08          ADDB      XAR5,#8               ; [CPU_] |255| 
    2177 00000397 1AC5          OR        *+XAR5[0],#0x0001     ; [CPU_] |255| 
         00000398 0001 
    2178                      .dwpsn  file "../source/Solar Microinverter_main.c",line 258,column 4,is_stmt,isa 0
TMS320C2000 Assembler PC v16.9.6 Tue Mar 06 18:34:46 2018

Tools Copyright (c) 1996-2017 Texas Instruments Incorporated
C:\Users\Admin\AppData\Local\Temp\{ED9AE313-281A-4435-8F2A-5411619B06A2} PAGE   47

    2179 00000399 1AC4          OR        *+XAR4[0],#0x0001     ; [CPU_] |258| 
         0000039a 0001 
    2180                      .dwpsn  file "../source/Solar Microinverter_main.c",line 259,column 4,is_stmt,isa 0
    2181 0000039b 1A12!         OR        @_PieCtrlRegs+18,#0x0002 ; [CPU_] |259| 
         0000039c 0002 
    2182                      .dwpsn  file "../source/Solar Microinverter_main.c",line 261,column 4,is_stmt,isa 0
    2183 0000039d 1A00!         OR        @_PieCtrlRegs,#0x0001 ; [CPU_] |261| 
         0000039e 0001 
    2184                      .dwpsn  file "../source/Solar Microinverter_main.c",line 262,column 4,is_stmt,isa 0
    2185 0000039f 1A02!         OR        @_PieCtrlRegs+2,#0x0080 ; [CPU_] |262| 
         000003a0 0080 
    2186 000003a1 761A   EDIS
    2187                      .dwpsn  file "../source/Solar Microinverter_main.c",line 269,column 4,is_stmt,isa 0
    2188 000003a2 7623          OR        IER,#0x0001           ; [CPU_] |269| 
         000003a3 0001 
    2189                      .dwpsn  file "../source/Solar Microinverter_main.c",line 270,column 4,is_stmt,isa 0
    2190 000003a4 7623          OR        IER,#0x0004           ; [CPU_] |270| 
         000003a5 0004 
    2191                      .dwpsn  file "../source/Solar Microinverter_main.c",line 271,column 4,is_stmt,isa 0
    2192 000003a6 7623          OR        IER,#0x0008           ; [CPU_] |271| 
         000003a7 0008 
    2193                      .dwpsn  file "../source/Solar Microinverter_main.c",line 272,column 4,is_stmt,isa 0
    2194 000003a8 7623          OR        IER,#0x0100           ; [CPU_] |272| 
         000003a9 0100 
    2195 000003aa 7700   NOP
    2196 000003ab 2910   clrc INTM
    2197 000003ac 2920   clrc DBGM
    2198 000003ad FF69          SPM       #0                    ; [CPU_] 
    2199                      .dwpsn  file "../source/Solar Microinverter_main.c",line 279,column 2,is_stmt,isa 0
    2200              $C$DW$115       .dwtag  DW_TAG_TI_branch
    2201                      .dwattr $C$DW$115, DW_AT_low_pc(0x00)
    2202                      .dwattr $C$DW$115, DW_AT_name("_ServiceDog")
    2203                      .dwattr $C$DW$115, DW_AT_TI_call
    2204              
    2205 000003ae 7640!         LCR       #_ServiceDog          ; [CPU_] |279| 
         000003af 0000 
    2206                      ; call occurs [#_ServiceDog] ; [] |279| 
    2207 000003b0 7622   EALLOW
    2208 000003b1 761F!         MOVW      DP,#_SysCtrlRegs+25   ; [CPU_U] 
         000003b2 0000 
    2209                      .dwpsn  file "../source/Solar Microinverter_main.c",line 282,column 2,is_stmt,isa 0
    2210 000003b3 56BF!         MOVB      @_SysCtrlRegs+25,#45,UNC ; [CPU_] |282| 
         000003b4 2D19 
    2211 000003b5 761A   EDIS
    2212 000003b6       $C$L7:    
    2213 000003b6 FF69          SPM       #0                    ; [CPU_] 
    2214                      .dwpsn  file "../source/Solar Microinverter_main.c",line 289,column 5,is_stmt,isa 0
    2215              $C$DW$116       .dwtag  DW_TAG_TI_branch
    2216                      .dwattr $C$DW$116, DW_AT_low_pc(0x00)
    2217                      .dwattr $C$DW$116, DW_AT_name("_LED_Indication")
    2218                      .dwattr $C$DW$116, DW_AT_TI_call
    2219              
    2220 000003b7 7640'         LCR       #_LED_Indication      ; [CPU_] |289| 
         000003b8 029E 
    2221                      ; call occurs [#_LED_Indication] ; [] |289| 
TMS320C2000 Assembler PC v16.9.6 Tue Mar 06 18:34:46 2018

Tools Copyright (c) 1996-2017 Texas Instruments Incorporated
C:\Users\Admin\AppData\Local\Temp\{ED9AE313-281A-4435-8F2A-5411619B06A2} PAGE   48

    2222                      .dwpsn  file "../source/Solar Microinverter_main.c",line 290,column 8,is_stmt,isa 0
    2223              $C$DW$117       .dwtag  DW_TAG_TI_branch
    2224                      .dwattr $C$DW$117, DW_AT_low_pc(0x00)
    2225                      .dwattr $C$DW$117, DW_AT_name("_oi_uart")
    2226                      .dwattr $C$DW$117, DW_AT_TI_call
    2227              
    2228 000003b9 7640!         LCR       #_oi_uart             ; [CPU_] |290| 
         000003ba 0000 
    2229                      ; call occurs [#_oi_uart] ; [] |290| 
    2230                      .dwpsn  file "../source/Solar Microinverter_main.c",line 291,column 8,is_stmt,isa 0
    2231              $C$DW$118       .dwtag  DW_TAG_TI_branch
    2232                      .dwattr $C$DW$118, DW_AT_low_pc(0x00)
    2233                      .dwattr $C$DW$118, DW_AT_name("_tx_gsm")
    2234                      .dwattr $C$DW$118, DW_AT_TI_call
    2235              
    2236 000003bb 7640!         LCR       #_tx_gsm              ; [CPU_] |291| 
         000003bc 0000 
    2237                      ; call occurs [#_tx_gsm] ; [] |291| 
    2238 000003bd 761F!         MOVW      DP,#_acoffset_cal2    ; [CPU_U] 
         000003be 0000 
    2239                      .dwpsn  file "../source/Solar Microinverter_main.c",line 295,column 9,is_stmt,isa 0
    2240 000003bf 9200!         MOV       AL,@_acoffset_cal2    ; [CPU_] |295| 
    2241 000003c0 5201          CMPB      AL,#1                 ; [CPU_] |295| 
    2242 000003c1 6003          B         $C$L8,NEQ             ; [CPU_] |295| 
    2243                      ; branchcc occurs ; [] |295| 
    2244                      .dwpsn  file "../source/Solar Microinverter_main.c",line 297,column 13,is_stmt,isa 0
    2245              $C$DW$119       .dwtag  DW_TAG_TI_branch
    2246                      .dwattr $C$DW$119, DW_AT_low_pc(0x00)
    2247                      .dwattr $C$DW$119, DW_AT_name("_ModeChangeover")
    2248                      .dwattr $C$DW$119, DW_AT_TI_call
    2249              
    2250 000003c2 7640+         LCR       #_ModeChangeover      ; [CPU_] |297| 
         000003c3 0000 
    2251                      ; call occurs [#_ModeChangeover] ; [] |297| 
    2252 000003c4       $C$L8:    
    2253 000003c4 761F!         MOVW      DP,#_VariablePIFlag   ; [CPU_U] 
         000003c5 0000 
    2254                      .dwpsn  file "../source/Solar Microinverter_main.c",line 300,column 9,is_stmt,isa 0
    2255 000003c6 9200!         MOV       AL,@_VariablePIFlag   ; [CPU_] |300| 
    2256 000003c7 5201          CMPB      AL,#1                 ; [CPU_] |300| 
    2257 000003c8 6003          B         $C$L9,NEQ             ; [CPU_] |300| 
    2258                      ; branchcc occurs ; [] |300| 
    2259                      .dwpsn  file "../source/Solar Microinverter_main.c",line 302,column 13,is_stmt,isa 0
    2260              $C$DW$120       .dwtag  DW_TAG_TI_branch
    2261                      .dwattr $C$DW$120, DW_AT_low_pc(0x00)
    2262                      .dwattr $C$DW$120, DW_AT_name("_variablePI")
    2263                      .dwattr $C$DW$120, DW_AT_TI_call
    2264              
    2265 000003c9 7640!         LCR       #_variablePI          ; [CPU_] |302| 
         000003ca 0000 
    2266                      ; call occurs [#_variablePI] ; [] |302| 
    2267 000003cb       $C$L9:    
    2268 000003cb 761F-         MOVW      DP,#_statemachineflag ; [CPU_U] 
         000003cc 0000 
    2269                      .dwpsn  file "../source/Solar Microinverter_main.c",line 308,column 9,is_stmt,isa 0
TMS320C2000 Assembler PC v16.9.6 Tue Mar 06 18:34:46 2018

Tools Copyright (c) 1996-2017 Texas Instruments Incorporated
C:\Users\Admin\AppData\Local\Temp\{ED9AE313-281A-4435-8F2A-5411619B06A2} PAGE   49

    2270 000003cd 9205-         MOV       AL,@_statemachineflag ; [CPU_] |308| 
    2271 000003ce 5201          CMPB      AL,#1                 ; [CPU_] |308| 
    2272 000003cf 60E7          B         $C$L7,NEQ             ; [CPU_] |308| 
    2273                      ; branchcc occurs ; [] |308| 
    2274                      .dwpsn  file "../source/Solar Microinverter_main.c",line 313,column 13,is_stmt,isa 0
    2275 000003d0 2B05-         MOV       @_statemachineflag,#0 ; [CPU_] |313| 
    2276 000003d1 6FE5          B         $C$L7,UNC             ; [CPU_] |313| 
    2277                      ; branch occurs ; [] |313| 
    2278                      .dwattr $C$DW$92, DW_AT_TI_end_file("../source/Solar Microinverter_main.c")
    2279                      .dwattr $C$DW$92, DW_AT_TI_end_line(0x140)
    2280                      .dwattr $C$DW$92, DW_AT_TI_end_column(0x01)
    2281                      .dwendentry
    2282                      .dwendtag $C$DW$92
    2283              
    2284 00000000               .sect   ".text:retain"
    2285                      .retain
    2286                      .retainrefs
    2287                      .global _epwm4_isr
    2288              
    2289              $C$DW$121       .dwtag  DW_TAG_subprogram
    2290                      .dwattr $C$DW$121, DW_AT_name("epwm4_isr")
    2291                      .dwattr $C$DW$121, DW_AT_low_pc(_epwm4_isr)
    2292                      .dwattr $C$DW$121, DW_AT_high_pc(0x00)
    2293                      .dwattr $C$DW$121, DW_AT_TI_symbol_name("_epwm4_isr")
    2294                      .dwattr $C$DW$121, DW_AT_external
    2295                      .dwattr $C$DW$121, DW_AT_TI_begin_file("../source/Solar Microinverter_main.c")
    2296                      .dwattr $C$DW$121, DW_AT_TI_begin_line(0x25d)
    2297                      .dwattr $C$DW$121, DW_AT_TI_begin_column(0x10)
    2298                      .dwattr $C$DW$121, DW_AT_TI_interrupt
    2299                      .dwattr $C$DW$121, DW_AT_TI_max_frame_size(-14)
    2300                      .dwpsn  file "../source/Solar Microinverter_main.c",line 606,column 1,is_stmt,address _epwm4_isr,isa 
    2301              
    2302                      .dwfde $C$DW$CIE, _epwm4_isr
    2303              
    2304              ;***************************************************************
    2305              ;* FNAME: _epwm4_isr                    FR SIZE:  12           *
    2306              ;*                                                             *
    2307              ;* FUNCTION ENVIRONMENT                                        *
    2308              ;*                                                             *
    2309              ;* FUNCTION PROPERTIES                                         *
    2310              ;*                            0 Parameter,  0 Auto, 12 SOE     *
    2311              ;***************************************************************
    2312              
    2313 00000000       _epwm4_isr:
    2314                      .dwcfi  cfa_offset, -2
    2315                      .dwcfi  save_reg_to_mem, 26, 0
    2316 00000000 761B          ASP       ; [CPU_] 
    2317 00000001 0005          PUSH      AR1H:AR0H             ; [CPU_] 
    2318                      .dwcfi  save_reg_to_mem, 5, 2
    2319                      .dwcfi  save_reg_to_mem, 7, 3
    2320                      .dwcfi  cfa_offset, -4
    2321 00000002 FF69          SPM       0                     ; [CPU_] 
    2322 00000003 ABBD          MOVL      *SP++,XT              ; [CPU_] 
    2323                      .dwcfi  save_reg_to_mem, 21, 4
    2324                      .dwcfi  save_reg_to_mem, 22, 5
TMS320C2000 Assembler PC v16.9.6 Tue Mar 06 18:34:46 2018

Tools Copyright (c) 1996-2017 Texas Instruments Incorporated
C:\Users\Admin\AppData\Local\Temp\{ED9AE313-281A-4435-8F2A-5411619B06A2} PAGE   50

    2325                      .dwcfi  cfa_offset, -6
    2326 00000004 A8BD          MOVL      *SP++,XAR4            ; [CPU_] 
    2327                      .dwcfi  save_reg_to_mem, 12, 6
    2328                      .dwcfi  save_reg_to_mem, 13, 7
    2329                      .dwcfi  cfa_offset, -8
    2330 00000005 A0BD          MOVL      *SP++,XAR5            ; [CPU_] 
    2331                      .dwcfi  save_reg_to_mem, 14, 8
    2332                      .dwcfi  save_reg_to_mem, 15, 9
    2333                      .dwcfi  cfa_offset, -10
    2334 00000006 C2BD          MOVL      *SP++,XAR6            ; [CPU_] 
    2335                      .dwcfi  save_reg_to_mem, 16, 10
    2336                      .dwcfi  save_reg_to_mem, 17, 11
    2337                      .dwcfi  cfa_offset, -12
    2338 00000007 C3BD          MOVL      *SP++,XAR7            ; [CPU_] 
    2339                      .dwcfi  save_reg_to_mem, 18, 12
    2340                      .dwcfi  save_reg_to_mem, 19, 13
    2341                      .dwcfi  cfa_offset, -14
    2342 00000008 2942          CLRC      PAGE0,OVM             ; [CPU_] 
    2343 00000009 5616          CLRC      AMODE                 ; [CPU_] 
    2344 0000000a 7622   EALLOW
    2345                      .dwpsn  file "../source/Solar Microinverter_main.c",line 609,column 5,is_stmt,isa 0
    2346 0000000b 7623          OR        IER,#0x0001           ; [CPU_] |609| 
         0000000c 0001 
    2347                      .dwpsn  file "../source/Solar Microinverter_main.c",line 610,column 5,is_stmt,isa 0
    2348 0000000d 7626          AND       IER,#0x0001           ; [CPU_] |610| 
         0000000e 0001 
    2349 0000000f 7700         NOP
    2350 00000010 2910   clrc INTM
    2351 00000011 761F-         MOVW      DP,#_statemachineflag ; [CPU_U] 
         00000012 0000 
    2352 00000013 FF69          SPM       #0                    ; [CPU_] 
    2353                      .dwpsn  file "../source/Solar Microinverter_main.c",line 613,column 5,is_stmt,isa 0
    2354 00000014 56BF-         MOVB      @_statemachineflag,#1,UNC ; [CPU_] |613| 
         00000015 0105 
    2355                      .dwpsn  file "../source/Solar Microinverter_main.c",line 614,column 5,is_stmt,isa 0
    2356              $C$DW$122       .dwtag  DW_TAG_TI_branch
    2357                      .dwattr $C$DW$122, DW_AT_low_pc(0x00)
    2358                      .dwattr $C$DW$122, DW_AT_name("_statemachine")
    2359                      .dwattr $C$DW$122, DW_AT_TI_call
    2360              
    2361 00000016 7640!         LCR       #_statemachine        ; [CPU_] |614| 
         00000017 0000 
    2362                      ; call occurs [#_statemachine] ; [] |614| 
    2363 00000018 761F!         MOVW      DP,#_Tx_timeout       ; [CPU_U] 
         00000019 0000 
    2364                      .dwpsn  file "../source/Solar Microinverter_main.c",line 616,column 5,is_stmt,isa 0
    2365 0000001a 0A00!         INC       @_Tx_timeout          ; [CPU_] |616| 
    2366 0000001b 761F!         MOVW      DP,#_Rx_timeout       ; [CPU_U] 
         0000001c 0000 
    2367                      .dwpsn  file "../source/Solar Microinverter_main.c",line 617,column 5,is_stmt,isa 0
    2368 0000001d 0A00!         INC       @_Rx_timeout          ; [CPU_] |617| 
    2369 0000001e 761F!         MOVW      DP,#_Rx_time_count    ; [CPU_U] 
         0000001f 0000 
    2370                      .dwpsn  file "../source/Solar Microinverter_main.c",line 618,column 5,is_stmt,isa 0
    2371 00000020 0A00!         INC       @_Rx_time_count       ; [CPU_] |618| 
TMS320C2000 Assembler PC v16.9.6 Tue Mar 06 18:34:46 2018

Tools Copyright (c) 1996-2017 Texas Instruments Incorporated
C:\Users\Admin\AppData\Local\Temp\{ED9AE313-281A-4435-8F2A-5411619B06A2} PAGE   51

    2372 00000021 761F!         MOVW      DP,#_GSM_Restart_Count ; [CPU_U] 
         00000022 0000 
    2373                      .dwpsn  file "../source/Solar Microinverter_main.c",line 619,column 5,is_stmt,isa 0
    2374 00000023 0A00!         INC       @_GSM_Restart_Count   ; [CPU_] |619| 
    2375 00000024 761F!         MOVW      DP,#_RS485_TXEnable_Count ; [CPU_U] 
         00000025 0000 
    2376                      .dwpsn  file "../source/Solar Microinverter_main.c",line 621,column 5,is_stmt,isa 0
    2377 00000026 0A00!         INC       @_RS485_TXEnable_Count ; [CPU_] |621| 
    2378 00000027 761F!         MOVW      DP,#_gsm_count        ; [CPU_U] 
         00000028 0000 
    2379                      .dwpsn  file "../source/Solar Microinverter_main.c",line 622,column 5,is_stmt,isa 0
    2380 00000029 0A00!         INC       @_gsm_count           ; [CPU_] |622| 
    2381 0000002a 1B00!         CMP       @_gsm_count,#40000    ; [CPU_] |622| 
         0000002b 9C40 
    2382 0000002c 6903          B         $C$L10,LOS            ; [CPU_] |622| 
    2383                      ; branchcc occurs ; [] |622| 
    2384                      .dwpsn  file "../source/Solar Microinverter_main.c",line 623,column 27,is_stmt,isa 0
    2385 0000002d 2800!         MOV       @_gsm_count,#40000    ; [CPU_] |623| 
         0000002e 9C40 
    2386 0000002f       $C$L10:    
    2387                      .dwpsn  file "../source/Solar Microinverter_main.c",line 624,column 5,is_stmt,isa 0
    2388 0000002f 0201          MOVB      ACC,#1                ; [CPU_] |624| 
    2389 00000030 761F!         MOVW      DP,#_GSM_Repeat_Count ; [CPU_U] 
         00000031 0000 
    2390 00000032 5601!         ADDL      @_GSM_Repeat_Count,ACC ; [CPU_] |624| 
         00000033 0000 
    2391 00000034 761F!         MOVW      DP,#_GSM_DelayCount   ; [CPU_U] 
         00000035 0000 
    2392                      .dwpsn  file "../source/Solar Microinverter_main.c",line 625,column 5,is_stmt,isa 0
    2393 00000036 0A00!         INC       @_GSM_DelayCount      ; [CPU_] |625| 
    2394 00000037 1B00!         CMP       @_GSM_DelayCount,#40000 ; [CPU_] |625| 
         00000038 9C40 
    2395 00000039 6903          B         $C$L11,LOS            ; [CPU_] |625| 
    2396                      ; branchcc occurs ; [] |625| 
    2397                      .dwpsn  file "../source/Solar Microinverter_main.c",line 626,column 33,is_stmt,isa 0
    2398 0000003a 2800!         MOV       @_GSM_DelayCount,#40000 ; [CPU_] |626| 
         0000003b 9C40 
    2399 0000003c       $C$L11:    
    2400 0000003c 761F!         MOVW      DP,#_EPwm4Regs+28     ; [CPU_U] 
         0000003d 0000 
    2401                      .dwpsn  file "../source/Solar Microinverter_main.c",line 629,column 5,is_stmt,isa 0
    2402 0000003e 1A1C!         OR        @_EPwm4Regs+28,#0x0001 ; [CPU_] |629| 
         0000003f 0001 
    2403 00000040 761F!         MOVW      DP,#_PieCtrlRegs+1    ; [CPU_U] 
         00000041 0000 
    2404                      .dwpsn  file "../source/Solar Microinverter_main.c",line 631,column 5,is_stmt,isa 0
    2405 00000042 1A01!         OR        @_PieCtrlRegs+1,#0x0004 ; [CPU_] |631| 
         00000043 0004 
    2406 00000044 3B10   setc INTM
    2407 00000045 761A   EDIS
    2408 00000046 761F!         MOVW      DP,#_GpioDataRegs+5   ; [CPU_U] 
         00000047 0000 
    2409                      .dwpsn  file "../source/Solar Microinverter_main.c",line 634,column 5,is_stmt,isa 0
    2410 00000048 1A05!         OR        @_GpioDataRegs+5,#0x0008 ; [CPU_] |634| 
         00000049 0008 
TMS320C2000 Assembler PC v16.9.6 Tue Mar 06 18:34:46 2018

Tools Copyright (c) 1996-2017 Texas Instruments Incorporated
C:\Users\Admin\AppData\Local\Temp\{ED9AE313-281A-4435-8F2A-5411619B06A2} PAGE   52

    2411 0000004a C5BE          MOVL      XAR7,*--SP            ; [CPU_] 
    2412                      .dwcfi  cfa_offset, -12
    2413                      .dwcfi  restore_reg, 18
    2414 0000004b C4BE          MOVL      XAR6,*--SP            ; [CPU_] 
    2415                      .dwcfi  cfa_offset, -10
    2416                      .dwcfi  restore_reg, 16
    2417 0000004c 83BE          MOVL      XAR5,*--SP            ; [CPU_] 
    2418                      .dwcfi  cfa_offset, -8
    2419                      .dwcfi  restore_reg, 14
    2420 0000004d 8ABE          MOVL      XAR4,*--SP            ; [CPU_] 
    2421                      .dwcfi  cfa_offset, -6
    2422                      .dwcfi  restore_reg, 12
    2423 0000004e 87BE          MOVL      XT,*--SP              ; [CPU_] 
    2424                      .dwcfi  cfa_offset, -4
    2425                      .dwcfi  restore_reg, 22
    2426                      .dwcfi  restore_reg, 21
    2427 0000004f 0003          POP       AR1H:AR0H             ; [CPU_] 
    2428                      .dwcfi  cfa_offset, -2
    2429                      .dwcfi  restore_reg, 5
    2430                      .dwcfi  restore_reg, 7
    2431 00000050 7617          NASP      ; [CPU_] 
    2432              $C$DW$123       .dwtag  DW_TAG_TI_branch
    2433                      .dwattr $C$DW$123, DW_AT_low_pc(0x00)
    2434                      .dwattr $C$DW$123, DW_AT_TI_return
    2435              
    2436 00000051 7602          IRET      ; [CPU_] 
    2437                      ; return occurs ; [] 
    2438                      .dwattr $C$DW$121, DW_AT_TI_end_file("../source/Solar Microinverter_main.c")
    2439                      .dwattr $C$DW$121, DW_AT_TI_end_line(0x27c)
    2440                      .dwattr $C$DW$121, DW_AT_TI_end_column(0x01)
    2441                      .dwendentry
    2442                      .dwendtag $C$DW$121
    2443              
    2444 00000052               .sect   ".text:retain"
    2445                      .retain
    2446                      .retainrefs
    2447                      .global _ecap1_isr
    2448              
    2449              $C$DW$124       .dwtag  DW_TAG_subprogram
    2450                      .dwattr $C$DW$124, DW_AT_name("ecap1_isr")
    2451                      .dwattr $C$DW$124, DW_AT_low_pc(_ecap1_isr)
    2452                      .dwattr $C$DW$124, DW_AT_high_pc(0x00)
    2453                      .dwattr $C$DW$124, DW_AT_TI_symbol_name("_ecap1_isr")
    2454                      .dwattr $C$DW$124, DW_AT_external
    2455                      .dwattr $C$DW$124, DW_AT_TI_begin_file("../source/Solar Microinverter_main.c")
    2456                      .dwattr $C$DW$124, DW_AT_TI_begin_line(0x27f)
    2457                      .dwattr $C$DW$124, DW_AT_TI_begin_column(0x10)
    2458                      .dwattr $C$DW$124, DW_AT_TI_interrupt
    2459                      .dwattr $C$DW$124, DW_AT_TI_max_frame_size(-2)
    2460                      .dwpsn  file "../source/Solar Microinverter_main.c",line 640,column 1,is_stmt,address _ecap1_isr,isa 
    2461              
    2462                      .dwfde $C$DW$CIE, _ecap1_isr
    2463              
    2464              ;***************************************************************
    2465              ;* FNAME: _ecap1_isr                    FR SIZE:   0           *
TMS320C2000 Assembler PC v16.9.6 Tue Mar 06 18:34:46 2018

Tools Copyright (c) 1996-2017 Texas Instruments Incorporated
C:\Users\Admin\AppData\Local\Temp\{ED9AE313-281A-4435-8F2A-5411619B06A2} PAGE   53

    2466              ;*                                                             *
    2467              ;* FUNCTION ENVIRONMENT                                        *
    2468              ;*                                                             *
    2469              ;* FUNCTION PROPERTIES                                         *
    2470              ;*                            0 Parameter,  0 Auto,  0 SOE     *
    2471              ;***************************************************************
    2472              
    2473 00000052       _ecap1_isr:
    2474                      .dwcfi  cfa_offset, -2
    2475                      .dwcfi  save_reg_to_mem, 26, 0
    2476 00000052 761B          ASP       ; [CPU_] 
    2477 00000053 2942          CLRC      PAGE0,OVM             ; [CPU_] 
    2478 00000054 5616          CLRC      AMODE                 ; [CPU_] 
    2479 00000055 7622   EALLOW
    2480 00000056 761F!         MOVW      DP,#_ECap1Regs+4      ; [CPU_U] 
         00000057 0000 
    2481                      .dwpsn  file "../source/Solar Microinverter_main.c",line 644,column 6,is_stmt,isa 0
    2482 00000058 0604!         MOVL      ACC,@_ECap1Regs+4     ; [CPU_] |644| 
    2483 00000059 761F-         MOVW      DP,#_ECAP1            ; [CPU_U] 
         0000005a 0000 
    2484 0000005b 1E0C-         MOVL      @_ECAP1,ACC           ; [CPU_] |644| 
    2485 0000005c 761F!         MOVW      DP,#_ECap1Regs+6      ; [CPU_U] 
         0000005d 0000 
    2486                      .dwpsn  file "../source/Solar Microinverter_main.c",line 645,column 6,is_stmt,isa 0
    2487 0000005e 0606!         MOVL      ACC,@_ECap1Regs+6     ; [CPU_] |645| 
    2488 0000005f 761F-         MOVW      DP,#_ECAP2            ; [CPU_U] 
         00000060 0000 
    2489 00000061 1E12-         MOVL      @_ECAP2,ACC           ; [CPU_] |645| 
    2490                      .dwpsn  file "../source/Solar Microinverter_main.c",line 647,column 6,is_stmt,isa 0
    2491 00000062 7623          OR        IER,#0x0001           ; [CPU_] |647| 
         00000063 0001 
    2492                      .dwpsn  file "../source/Solar Microinverter_main.c",line 648,column 6,is_stmt,isa 0
    2493 00000064 7626          AND       IER,#0x0001           ; [CPU_] |648| 
         00000065 0001 
    2494 00000066 7700         NOP
    2495 00000067 2910   clrc INTM
    2496 00000068 761F!         MOVW      DP,#_ECap1Regs+24     ; [CPU_U] 
         00000069 0000 
    2497                      .dwpsn  file "../source/Solar Microinverter_main.c",line 651,column 6,is_stmt,isa 0
    2498 0000006a 1A18!         OR        @_ECap1Regs+24,#0x0004 ; [CPU_] |651| 
         0000006b 0004 
    2499                      .dwpsn  file "../source/Solar Microinverter_main.c",line 652,column 6,is_stmt,isa 0
    2500 0000006c 1A18!         OR        @_ECap1Regs+24,#0x0001 ; [CPU_] |652| 
         0000006d 0001 
    2501 0000006e 761F!         MOVW      DP,#_PieCtrlRegs+1    ; [CPU_U] 
         0000006f 0000 
    2502                      .dwpsn  file "../source/Solar Microinverter_main.c",line 654,column 5,is_stmt,isa 0
    2503 00000070 56BF!         MOVB      @_PieCtrlRegs+1,#8,UNC ; [CPU_] |654| 
         00000071 0801 
    2504 00000072 3B10   setc INTM
    2505 00000073 761A   EDIS
    2506 00000074 7617          NASP      ; [CPU_] 
    2507              $C$DW$125       .dwtag  DW_TAG_TI_branch
    2508                      .dwattr $C$DW$125, DW_AT_low_pc(0x00)
    2509                      .dwattr $C$DW$125, DW_AT_TI_return
TMS320C2000 Assembler PC v16.9.6 Tue Mar 06 18:34:46 2018

Tools Copyright (c) 1996-2017 Texas Instruments Incorporated
C:\Users\Admin\AppData\Local\Temp\{ED9AE313-281A-4435-8F2A-5411619B06A2} PAGE   54

    2510              
    2511 00000075 7602          IRET      ; [CPU_] 
    2512                      ; return occurs ; [] 
    2513                      .dwattr $C$DW$124, DW_AT_TI_end_file("../source/Solar Microinverter_main.c")
    2514                      .dwattr $C$DW$124, DW_AT_TI_end_line(0x294)
    2515                      .dwattr $C$DW$124, DW_AT_TI_end_column(0x01)
    2516                      .dwendentry
    2517                      .dwendtag $C$DW$124
    2518              
    2519              ;**************************************************************
    2520              ;* UNDEFINED EXTERNAL REFERENCES                              *
    2521              ;**************************************************************
    2522                      .global _variablePI
    2523                      .global _statemachine
    2524                      .global _tx_gsm
    2525                      .global _InitEPwmSyncGpio
    2526                      .global _adc_isr
    2527                      .global _InitPieCtrl
    2528                      .global _InitEPwm3Gpio
    2529                      .global _InitSciaGpio
    2530                      .global _InitPieVectTable
    2531                      .global _InitECap1Gpio
    2532                      .global _InitAdc
    2533                      .global _InitEPwm2Gpio
    2534                      .global _InitEPwm1Gpio
    2535                      .global _oi_uart
    2536                      .global _MemCopy
    2537                      .global _sciRxFifoIsr
    2538                      .global _sciTxFifoIsr
    2539                      .global _InitTzGpio
    2540                      .global _InitSysCtrl
    2541                      .global _InitFlash
    2542                      .global _ServiceDog
    2543                      .global _scia_fifo_init
    2544                      .global _RamconstsLoadEnd
    2545                      .global _RamconstsLoadStart
    2546                      .global _systemState
    2547                      .global _RamconstsRunStart
    2548                      .global _RamfuncsRunStart
    2549                      .global _RamfuncsLoadEnd
    2550                      .global _Rx_timeout
    2551                      .global _Tx_timeout
    2552                      .global _gridFlag
    2553                      .global _acoffset_cal2
    2554                      .global _GSM_Restart_Count
    2555                      .global _GSM_DelayCount
    2556                      .global _RS485_TXEnable_Count
    2557                      .global _VariablePIFlag
    2558                      .global _Rx_time_count
    2559                      .global _gsm_count
    2560                      .global _RamfuncsLoadStart
    2561                      .global _GSM_Repeat_Count
    2562                      .global _Comp2Regs
    2563                      .global _Comp3Regs
    2564                      .global _Comp1Regs
TMS320C2000 Assembler PC v16.9.6 Tue Mar 06 18:34:46 2018

Tools Copyright (c) 1996-2017 Texas Instruments Incorporated
C:\Users\Admin\AppData\Local\Temp\{ED9AE313-281A-4435-8F2A-5411619B06A2} PAGE   55

    2565                      .global _PieCtrlRegs
    2566                      .global _GpioDataRegs
    2567                      .global _ECap1Regs
    2568                      .global _SysCtrlRegs
    2569                      .global _EPwm2Regs
    2570                      .global _EPwm1Regs
    2571                      .global _EPwm3Regs
    2572                      .global _EPwm4Regs
    2573                      .global _GpioCtrlRegs
    2574                      .global _AdcRegs
    2575                      .global _PieVectTable
    2576              
    2577              ;***************************************************************
    2578              ;* TYPE INFORMATION                                            *
    2579              ;***************************************************************
    2580              
    2581              $C$DW$T$20      .dwtag  DW_TAG_structure_type
    2582                      .dwattr $C$DW$T$20, DW_AT_name("ADCCTL1_BITS")
    2583                      .dwattr $C$DW$T$20, DW_AT_byte_size(0x01)
    2584              $C$DW$126       .dwtag  DW_TAG_member
    2585                      .dwattr $C$DW$126, DW_AT_type(*$C$DW$T$19)
    2586                      .dwattr $C$DW$126, DW_AT_name("TEMPCONV")
    2587                      .dwattr $C$DW$126, DW_AT_TI_symbol_name("_TEMPCONV")
    2588                      .dwattr $C$DW$126, DW_AT_bit_offset(0x0f)
    2589                      .dwattr $C$DW$126, DW_AT_bit_size(0x01)
    2590                      .dwattr $C$DW$126, DW_AT_data_member_location[DW_OP_plus_uconst 0x0]
    2591                      .dwattr $C$DW$126, DW_AT_accessibility(DW_ACCESS_public)
    2592              
    2593              $C$DW$127       .dwtag  DW_TAG_member
    2594                      .dwattr $C$DW$127, DW_AT_type(*$C$DW$T$19)
    2595                      .dwattr $C$DW$127, DW_AT_name("VREFLOCONV")
    2596                      .dwattr $C$DW$127, DW_AT_TI_symbol_name("_VREFLOCONV")
    2597                      .dwattr $C$DW$127, DW_AT_bit_offset(0x0e)
    2598                      .dwattr $C$DW$127, DW_AT_bit_size(0x01)
    2599                      .dwattr $C$DW$127, DW_AT_data_member_location[DW_OP_plus_uconst 0x0]
    2600                      .dwattr $C$DW$127, DW_AT_accessibility(DW_ACCESS_public)
    2601              
    2602              $C$DW$128       .dwtag  DW_TAG_member
    2603                      .dwattr $C$DW$128, DW_AT_type(*$C$DW$T$19)
    2604                      .dwattr $C$DW$128, DW_AT_name("INTPULSEPOS")
    2605                      .dwattr $C$DW$128, DW_AT_TI_symbol_name("_INTPULSEPOS")
    2606                      .dwattr $C$DW$128, DW_AT_bit_offset(0x0d)
    2607                      .dwattr $C$DW$128, DW_AT_bit_size(0x01)
    2608                      .dwattr $C$DW$128, DW_AT_data_member_location[DW_OP_plus_uconst 0x0]
    2609                      .dwattr $C$DW$128, DW_AT_accessibility(DW_ACCESS_public)
    2610              
    2611              $C$DW$129       .dwtag  DW_TAG_member
    2612                      .dwattr $C$DW$129, DW_AT_type(*$C$DW$T$19)
    2613                      .dwattr $C$DW$129, DW_AT_name("ADCREFSEL")
    2614                      .dwattr $C$DW$129, DW_AT_TI_symbol_name("_ADCREFSEL")
    2615                      .dwattr $C$DW$129, DW_AT_bit_offset(0x0c)
    2616                      .dwattr $C$DW$129, DW_AT_bit_size(0x01)
    2617                      .dwattr $C$DW$129, DW_AT_data_member_location[DW_OP_plus_uconst 0x0]
    2618                      .dwattr $C$DW$129, DW_AT_accessibility(DW_ACCESS_public)
    2619              
TMS320C2000 Assembler PC v16.9.6 Tue Mar 06 18:34:46 2018

Tools Copyright (c) 1996-2017 Texas Instruments Incorporated
C:\Users\Admin\AppData\Local\Temp\{ED9AE313-281A-4435-8F2A-5411619B06A2} PAGE   56

    2620              $C$DW$130       .dwtag  DW_TAG_member
    2621                      .dwattr $C$DW$130, DW_AT_type(*$C$DW$T$19)
    2622                      .dwattr $C$DW$130, DW_AT_name("rsvd1")
    2623                      .dwattr $C$DW$130, DW_AT_TI_symbol_name("_rsvd1")
    2624                      .dwattr $C$DW$130, DW_AT_bit_offset(0x0b)
    2625                      .dwattr $C$DW$130, DW_AT_bit_size(0x01)
    2626                      .dwattr $C$DW$130, DW_AT_data_member_location[DW_OP_plus_uconst 0x0]
    2627                      .dwattr $C$DW$130, DW_AT_accessibility(DW_ACCESS_public)
    2628              
    2629              $C$DW$131       .dwtag  DW_TAG_member
    2630                      .dwattr $C$DW$131, DW_AT_type(*$C$DW$T$19)
    2631                      .dwattr $C$DW$131, DW_AT_name("ADCREFPWD")
    2632                      .dwattr $C$DW$131, DW_AT_TI_symbol_name("_ADCREFPWD")
    2633                      .dwattr $C$DW$131, DW_AT_bit_offset(0x0a)
    2634                      .dwattr $C$DW$131, DW_AT_bit_size(0x01)
    2635                      .dwattr $C$DW$131, DW_AT_data_member_location[DW_OP_plus_uconst 0x0]
    2636                      .dwattr $C$DW$131, DW_AT_accessibility(DW_ACCESS_public)
    2637              
    2638              $C$DW$132       .dwtag  DW_TAG_member
    2639                      .dwattr $C$DW$132, DW_AT_type(*$C$DW$T$19)
    2640                      .dwattr $C$DW$132, DW_AT_name("ADCBGPWD")
    2641                      .dwattr $C$DW$132, DW_AT_TI_symbol_name("_ADCBGPWD")
    2642                      .dwattr $C$DW$132, DW_AT_bit_offset(0x09)
    2643                      .dwattr $C$DW$132, DW_AT_bit_size(0x01)
    2644                      .dwattr $C$DW$132, DW_AT_data_member_location[DW_OP_plus_uconst 0x0]
    2645                      .dwattr $C$DW$132, DW_AT_accessibility(DW_ACCESS_public)
    2646              
    2647              $C$DW$133       .dwtag  DW_TAG_member
    2648                      .dwattr $C$DW$133, DW_AT_type(*$C$DW$T$19)
    2649                      .dwattr $C$DW$133, DW_AT_name("ADCPWDN")
    2650                      .dwattr $C$DW$133, DW_AT_TI_symbol_name("_ADCPWDN")
    2651                      .dwattr $C$DW$133, DW_AT_bit_offset(0x08)
    2652                      .dwattr $C$DW$133, DW_AT_bit_size(0x01)
    2653                      .dwattr $C$DW$133, DW_AT_data_member_location[DW_OP_plus_uconst 0x0]
    2654                      .dwattr $C$DW$133, DW_AT_accessibility(DW_ACCESS_public)
    2655              
    2656              $C$DW$134       .dwtag  DW_TAG_member
    2657                      .dwattr $C$DW$134, DW_AT_type(*$C$DW$T$19)
    2658                      .dwattr $C$DW$134, DW_AT_name("ADCBSYCHN")
    2659                      .dwattr $C$DW$134, DW_AT_TI_symbol_name("_ADCBSYCHN")
    2660                      .dwattr $C$DW$134, DW_AT_bit_offset(0x03)
    2661                      .dwattr $C$DW$134, DW_AT_bit_size(0x05)
    2662                      .dwattr $C$DW$134, DW_AT_data_member_location[DW_OP_plus_uconst 0x0]
    2663                      .dwattr $C$DW$134, DW_AT_accessibility(DW_ACCESS_public)
    2664              
    2665              $C$DW$135       .dwtag  DW_TAG_member
    2666                      .dwattr $C$DW$135, DW_AT_type(*$C$DW$T$19)
    2667                      .dwattr $C$DW$135, DW_AT_name("ADCBSY")
    2668                      .dwattr $C$DW$135, DW_AT_TI_symbol_name("_ADCBSY")
    2669                      .dwattr $C$DW$135, DW_AT_bit_offset(0x02)
    2670                      .dwattr $C$DW$135, DW_AT_bit_size(0x01)
    2671                      .dwattr $C$DW$135, DW_AT_data_member_location[DW_OP_plus_uconst 0x0]
    2672                      .dwattr $C$DW$135, DW_AT_accessibility(DW_ACCESS_public)
    2673              
    2674              $C$DW$136       .dwtag  DW_TAG_member
TMS320C2000 Assembler PC v16.9.6 Tue Mar 06 18:34:46 2018

Tools Copyright (c) 1996-2017 Texas Instruments Incorporated
C:\Users\Admin\AppData\Local\Temp\{ED9AE313-281A-4435-8F2A-5411619B06A2} PAGE   57

    2675                      .dwattr $C$DW$136, DW_AT_type(*$C$DW$T$19)
    2676                      .dwattr $C$DW$136, DW_AT_name("ADCENABLE")
    2677                      .dwattr $C$DW$136, DW_AT_TI_symbol_name("_ADCENABLE")
    2678                      .dwattr $C$DW$136, DW_AT_bit_offset(0x01)
    2679                      .dwattr $C$DW$136, DW_AT_bit_size(0x01)
    2680                      .dwattr $C$DW$136, DW_AT_data_member_location[DW_OP_plus_uconst 0x0]
    2681                      .dwattr $C$DW$136, DW_AT_accessibility(DW_ACCESS_public)
    2682              
    2683              $C$DW$137       .dwtag  DW_TAG_member
    2684                      .dwattr $C$DW$137, DW_AT_type(*$C$DW$T$19)
    2685                      .dwattr $C$DW$137, DW_AT_name("RESET")
    2686                      .dwattr $C$DW$137, DW_AT_TI_symbol_name("_RESET")
    2687                      .dwattr $C$DW$137, DW_AT_bit_offset(0x00)
    2688                      .dwattr $C$DW$137, DW_AT_bit_size(0x01)
    2689                      .dwattr $C$DW$137, DW_AT_data_member_location[DW_OP_plus_uconst 0x0]
    2690                      .dwattr $C$DW$137, DW_AT_accessibility(DW_ACCESS_public)
    2691              
    2692                      .dwendtag $C$DW$T$20
    2693              
    2694              
    2695              $C$DW$T$21      .dwtag  DW_TAG_union_type
    2696                      .dwattr $C$DW$T$21, DW_AT_name("ADCCTL1_REG")
    2697                      .dwattr $C$DW$T$21, DW_AT_byte_size(0x01)
    2698              $C$DW$138       .dwtag  DW_TAG_member
    2699                      .dwattr $C$DW$138, DW_AT_type(*$C$DW$T$19)
    2700                      .dwattr $C$DW$138, DW_AT_name("all")
    2701                      .dwattr $C$DW$138, DW_AT_TI_symbol_name("_all")
    2702                      .dwattr $C$DW$138, DW_AT_data_member_location[DW_OP_plus_uconst 0x0]
    2703                      .dwattr $C$DW$138, DW_AT_accessibility(DW_ACCESS_public)
    2704              
    2705              $C$DW$139       .dwtag  DW_TAG_member
    2706                      .dwattr $C$DW$139, DW_AT_type(*$C$DW$T$20)
    2707                      .dwattr $C$DW$139, DW_AT_name("bit")
    2708                      .dwattr $C$DW$139, DW_AT_TI_symbol_name("_bit")
    2709                      .dwattr $C$DW$139, DW_AT_data_member_location[DW_OP_plus_uconst 0x0]
    2710                      .dwattr $C$DW$139, DW_AT_accessibility(DW_ACCESS_public)
    2711              
    2712                      .dwendtag $C$DW$T$21
    2713              
    2714              
    2715              $C$DW$T$22      .dwtag  DW_TAG_structure_type
    2716                      .dwattr $C$DW$T$22, DW_AT_name("ADCCTL2_BITS")
    2717                      .dwattr $C$DW$T$22, DW_AT_byte_size(0x01)
    2718              $C$DW$140       .dwtag  DW_TAG_member
    2719                      .dwattr $C$DW$140, DW_AT_type(*$C$DW$T$19)
    2720                      .dwattr $C$DW$140, DW_AT_name("CLKDIV2EN")
    2721                      .dwattr $C$DW$140, DW_AT_TI_symbol_name("_CLKDIV2EN")
    2722                      .dwattr $C$DW$140, DW_AT_bit_offset(0x0f)
    2723                      .dwattr $C$DW$140, DW_AT_bit_size(0x01)
    2724                      .dwattr $C$DW$140, DW_AT_data_member_location[DW_OP_plus_uconst 0x0]
    2725                      .dwattr $C$DW$140, DW_AT_accessibility(DW_ACCESS_public)
    2726              
    2727              $C$DW$141       .dwtag  DW_TAG_member
    2728                      .dwattr $C$DW$141, DW_AT_type(*$C$DW$T$19)
    2729                      .dwattr $C$DW$141, DW_AT_name("ADCNONOVERLAP")
TMS320C2000 Assembler PC v16.9.6 Tue Mar 06 18:34:46 2018

Tools Copyright (c) 1996-2017 Texas Instruments Incorporated
C:\Users\Admin\AppData\Local\Temp\{ED9AE313-281A-4435-8F2A-5411619B06A2} PAGE   58

    2730                      .dwattr $C$DW$141, DW_AT_TI_symbol_name("_ADCNONOVERLAP")
    2731                      .dwattr $C$DW$141, DW_AT_bit_offset(0x0e)
    2732                      .dwattr $C$DW$141, DW_AT_bit_size(0x01)
    2733                      .dwattr $C$DW$141, DW_AT_data_member_location[DW_OP_plus_uconst 0x0]
    2734                      .dwattr $C$DW$141, DW_AT_accessibility(DW_ACCESS_public)
    2735              
    2736              $C$DW$142       .dwtag  DW_TAG_member
    2737                      .dwattr $C$DW$142, DW_AT_type(*$C$DW$T$19)
    2738                      .dwattr $C$DW$142, DW_AT_name("rsvd1")
    2739                      .dwattr $C$DW$142, DW_AT_TI_symbol_name("_rsvd1")
    2740                      .dwattr $C$DW$142, DW_AT_bit_offset(0x00)
    2741                      .dwattr $C$DW$142, DW_AT_bit_size(0x0e)
    2742                      .dwattr $C$DW$142, DW_AT_data_member_location[DW_OP_plus_uconst 0x0]
    2743                      .dwattr $C$DW$142, DW_AT_accessibility(DW_ACCESS_public)
    2744              
    2745                      .dwendtag $C$DW$T$22
    2746              
    2747              
    2748              $C$DW$T$23      .dwtag  DW_TAG_union_type
    2749                      .dwattr $C$DW$T$23, DW_AT_name("ADCCTL2_REG")
    2750                      .dwattr $C$DW$T$23, DW_AT_byte_size(0x01)
    2751              $C$DW$143       .dwtag  DW_TAG_member
    2752                      .dwattr $C$DW$143, DW_AT_type(*$C$DW$T$19)
    2753                      .dwattr $C$DW$143, DW_AT_name("all")
    2754                      .dwattr $C$DW$143, DW_AT_TI_symbol_name("_all")
    2755                      .dwattr $C$DW$143, DW_AT_data_member_location[DW_OP_plus_uconst 0x0]
    2756                      .dwattr $C$DW$143, DW_AT_accessibility(DW_ACCESS_public)
    2757              
    2758              $C$DW$144       .dwtag  DW_TAG_member
    2759                      .dwattr $C$DW$144, DW_AT_type(*$C$DW$T$22)
    2760                      .dwattr $C$DW$144, DW_AT_name("bit")
    2761                      .dwattr $C$DW$144, DW_AT_TI_symbol_name("_bit")
    2762                      .dwattr $C$DW$144, DW_AT_data_member_location[DW_OP_plus_uconst 0x0]
    2763                      .dwattr $C$DW$144, DW_AT_accessibility(DW_ACCESS_public)
    2764              
    2765                      .dwendtag $C$DW$T$23
    2766              
    2767              
    2768              $C$DW$T$24      .dwtag  DW_TAG_structure_type
    2769                      .dwattr $C$DW$T$24, DW_AT_name("ADCINTSOCSEL1_BITS")
    2770                      .dwattr $C$DW$T$24, DW_AT_byte_size(0x01)
    2771              $C$DW$145       .dwtag  DW_TAG_member
    2772                      .dwattr $C$DW$145, DW_AT_type(*$C$DW$T$19)
    2773                      .dwattr $C$DW$145, DW_AT_name("SOC0")
    2774                      .dwattr $C$DW$145, DW_AT_TI_symbol_name("_SOC0")
    2775                      .dwattr $C$DW$145, DW_AT_bit_offset(0x0e)
    2776                      .dwattr $C$DW$145, DW_AT_bit_size(0x02)
    2777                      .dwattr $C$DW$145, DW_AT_data_member_location[DW_OP_plus_uconst 0x0]
    2778                      .dwattr $C$DW$145, DW_AT_accessibility(DW_ACCESS_public)
    2779              
    2780              $C$DW$146       .dwtag  DW_TAG_member
    2781                      .dwattr $C$DW$146, DW_AT_type(*$C$DW$T$19)
    2782                      .dwattr $C$DW$146, DW_AT_name("SOC1")
    2783                      .dwattr $C$DW$146, DW_AT_TI_symbol_name("_SOC1")
    2784                      .dwattr $C$DW$146, DW_AT_bit_offset(0x0c)
TMS320C2000 Assembler PC v16.9.6 Tue Mar 06 18:34:46 2018

Tools Copyright (c) 1996-2017 Texas Instruments Incorporated
C:\Users\Admin\AppData\Local\Temp\{ED9AE313-281A-4435-8F2A-5411619B06A2} PAGE   59

    2785                      .dwattr $C$DW$146, DW_AT_bit_size(0x02)
    2786                      .dwattr $C$DW$146, DW_AT_data_member_location[DW_OP_plus_uconst 0x0]
    2787                      .dwattr $C$DW$146, DW_AT_accessibility(DW_ACCESS_public)
    2788              
    2789              $C$DW$147       .dwtag  DW_TAG_member
    2790                      .dwattr $C$DW$147, DW_AT_type(*$C$DW$T$19)
    2791                      .dwattr $C$DW$147, DW_AT_name("SOC2")
    2792                      .dwattr $C$DW$147, DW_AT_TI_symbol_name("_SOC2")
    2793                      .dwattr $C$DW$147, DW_AT_bit_offset(0x0a)
    2794                      .dwattr $C$DW$147, DW_AT_bit_size(0x02)
    2795                      .dwattr $C$DW$147, DW_AT_data_member_location[DW_OP_plus_uconst 0x0]
    2796                      .dwattr $C$DW$147, DW_AT_accessibility(DW_ACCESS_public)
    2797              
    2798              $C$DW$148       .dwtag  DW_TAG_member
    2799                      .dwattr $C$DW$148, DW_AT_type(*$C$DW$T$19)
    2800                      .dwattr $C$DW$148, DW_AT_name("SOC3")
    2801                      .dwattr $C$DW$148, DW_AT_TI_symbol_name("_SOC3")
    2802                      .dwattr $C$DW$148, DW_AT_bit_offset(0x08)
    2803                      .dwattr $C$DW$148, DW_AT_bit_size(0x02)
    2804                      .dwattr $C$DW$148, DW_AT_data_member_location[DW_OP_plus_uconst 0x0]
    2805                      .dwattr $C$DW$148, DW_AT_accessibility(DW_ACCESS_public)
    2806              
    2807              $C$DW$149       .dwtag  DW_TAG_member
    2808                      .dwattr $C$DW$149, DW_AT_type(*$C$DW$T$19)
    2809                      .dwattr $C$DW$149, DW_AT_name("SOC4")
    2810                      .dwattr $C$DW$149, DW_AT_TI_symbol_name("_SOC4")
    2811                      .dwattr $C$DW$149, DW_AT_bit_offset(0x06)
    2812                      .dwattr $C$DW$149, DW_AT_bit_size(0x02)
    2813                      .dwattr $C$DW$149, DW_AT_data_member_location[DW_OP_plus_uconst 0x0]
    2814                      .dwattr $C$DW$149, DW_AT_accessibility(DW_ACCESS_public)
    2815              
    2816              $C$DW$150       .dwtag  DW_TAG_member
    2817                      .dwattr $C$DW$150, DW_AT_type(*$C$DW$T$19)
    2818                      .dwattr $C$DW$150, DW_AT_name("SOC5")
    2819                      .dwattr $C$DW$150, DW_AT_TI_symbol_name("_SOC5")
    2820                      .dwattr $C$DW$150, DW_AT_bit_offset(0x04)
    2821                      .dwattr $C$DW$150, DW_AT_bit_size(0x02)
    2822                      .dwattr $C$DW$150, DW_AT_data_member_location[DW_OP_plus_uconst 0x0]
    2823                      .dwattr $C$DW$150, DW_AT_accessibility(DW_ACCESS_public)
    2824              
    2825              $C$DW$151       .dwtag  DW_TAG_member
    2826                      .dwattr $C$DW$151, DW_AT_type(*$C$DW$T$19)
    2827                      .dwattr $C$DW$151, DW_AT_name("SOC6")
    2828                      .dwattr $C$DW$151, DW_AT_TI_symbol_name("_SOC6")
    2829                      .dwattr $C$DW$151, DW_AT_bit_offset(0x02)
    2830                      .dwattr $C$DW$151, DW_AT_bit_size(0x02)
    2831                      .dwattr $C$DW$151, DW_AT_data_member_location[DW_OP_plus_uconst 0x0]
    2832                      .dwattr $C$DW$151, DW_AT_accessibility(DW_ACCESS_public)
    2833              
    2834              $C$DW$152       .dwtag  DW_TAG_member
    2835                      .dwattr $C$DW$152, DW_AT_type(*$C$DW$T$19)
    2836                      .dwattr $C$DW$152, DW_AT_name("SOC7")
    2837                      .dwattr $C$DW$152, DW_AT_TI_symbol_name("_SOC7")
    2838                      .dwattr $C$DW$152, DW_AT_bit_offset(0x00)
    2839                      .dwattr $C$DW$152, DW_AT_bit_size(0x02)
TMS320C2000 Assembler PC v16.9.6 Tue Mar 06 18:34:46 2018

Tools Copyright (c) 1996-2017 Texas Instruments Incorporated
C:\Users\Admin\AppData\Local\Temp\{ED9AE313-281A-4435-8F2A-5411619B06A2} PAGE   60

    2840                      .dwattr $C$DW$152, DW_AT_data_member_location[DW_OP_plus_uconst 0x0]
    2841                      .dwattr $C$DW$152, DW_AT_accessibility(DW_ACCESS_public)
    2842              
    2843                      .dwendtag $C$DW$T$24
    2844              
    2845              
    2846              $C$DW$T$25      .dwtag  DW_TAG_union_type
    2847                      .dwattr $C$DW$T$25, DW_AT_name("ADCINTSOCSEL1_REG")
    2848                      .dwattr $C$DW$T$25, DW_AT_byte_size(0x01)
    2849              $C$DW$153       .dwtag  DW_TAG_member
    2850                      .dwattr $C$DW$153, DW_AT_type(*$C$DW$T$19)
    2851                      .dwattr $C$DW$153, DW_AT_name("all")
    2852                      .dwattr $C$DW$153, DW_AT_TI_symbol_name("_all")
    2853                      .dwattr $C$DW$153, DW_AT_data_member_location[DW_OP_plus_uconst 0x0]
    2854                      .dwattr $C$DW$153, DW_AT_accessibility(DW_ACCESS_public)
    2855              
    2856              $C$DW$154       .dwtag  DW_TAG_member
    2857                      .dwattr $C$DW$154, DW_AT_type(*$C$DW$T$24)
    2858                      .dwattr $C$DW$154, DW_AT_name("bit")
    2859                      .dwattr $C$DW$154, DW_AT_TI_symbol_name("_bit")
    2860                      .dwattr $C$DW$154, DW_AT_data_member_location[DW_OP_plus_uconst 0x0]
    2861                      .dwattr $C$DW$154, DW_AT_accessibility(DW_ACCESS_public)
    2862              
    2863                      .dwendtag $C$DW$T$25
    2864              
    2865              
    2866              $C$DW$T$26      .dwtag  DW_TAG_structure_type
    2867                      .dwattr $C$DW$T$26, DW_AT_name("ADCINTSOCSEL2_BITS")
    2868                      .dwattr $C$DW$T$26, DW_AT_byte_size(0x01)
    2869              $C$DW$155       .dwtag  DW_TAG_member
    2870                      .dwattr $C$DW$155, DW_AT_type(*$C$DW$T$19)
    2871                      .dwattr $C$DW$155, DW_AT_name("SOC8")
    2872                      .dwattr $C$DW$155, DW_AT_TI_symbol_name("_SOC8")
    2873                      .dwattr $C$DW$155, DW_AT_bit_offset(0x0e)
    2874                      .dwattr $C$DW$155, DW_AT_bit_size(0x02)
    2875                      .dwattr $C$DW$155, DW_AT_data_member_location[DW_OP_plus_uconst 0x0]
    2876                      .dwattr $C$DW$155, DW_AT_accessibility(DW_ACCESS_public)
    2877              
    2878              $C$DW$156       .dwtag  DW_TAG_member
    2879                      .dwattr $C$DW$156, DW_AT_type(*$C$DW$T$19)
    2880                      .dwattr $C$DW$156, DW_AT_name("SOC9")
    2881                      .dwattr $C$DW$156, DW_AT_TI_symbol_name("_SOC9")
    2882                      .dwattr $C$DW$156, DW_AT_bit_offset(0x0c)
    2883                      .dwattr $C$DW$156, DW_AT_bit_size(0x02)
    2884                      .dwattr $C$DW$156, DW_AT_data_member_location[DW_OP_plus_uconst 0x0]
    2885                      .dwattr $C$DW$156, DW_AT_accessibility(DW_ACCESS_public)
    2886              
    2887              $C$DW$157       .dwtag  DW_TAG_member
    2888                      .dwattr $C$DW$157, DW_AT_type(*$C$DW$T$19)
    2889                      .dwattr $C$DW$157, DW_AT_name("SOC10")
    2890                      .dwattr $C$DW$157, DW_AT_TI_symbol_name("_SOC10")
    2891                      .dwattr $C$DW$157, DW_AT_bit_offset(0x0a)
    2892                      .dwattr $C$DW$157, DW_AT_bit_size(0x02)
    2893                      .dwattr $C$DW$157, DW_AT_data_member_location[DW_OP_plus_uconst 0x0]
    2894                      .dwattr $C$DW$157, DW_AT_accessibility(DW_ACCESS_public)
TMS320C2000 Assembler PC v16.9.6 Tue Mar 06 18:34:46 2018

Tools Copyright (c) 1996-2017 Texas Instruments Incorporated
C:\Users\Admin\AppData\Local\Temp\{ED9AE313-281A-4435-8F2A-5411619B06A2} PAGE   61

    2895              
    2896              $C$DW$158       .dwtag  DW_TAG_member
    2897                      .dwattr $C$DW$158, DW_AT_type(*$C$DW$T$19)
    2898                      .dwattr $C$DW$158, DW_AT_name("SOC11")
    2899                      .dwattr $C$DW$158, DW_AT_TI_symbol_name("_SOC11")
    2900                      .dwattr $C$DW$158, DW_AT_bit_offset(0x08)
    2901                      .dwattr $C$DW$158, DW_AT_bit_size(0x02)
    2902                      .dwattr $C$DW$158, DW_AT_data_member_location[DW_OP_plus_uconst 0x0]
    2903                      .dwattr $C$DW$158, DW_AT_accessibility(DW_ACCESS_public)
    2904              
    2905              $C$DW$159       .dwtag  DW_TAG_member
    2906                      .dwattr $C$DW$159, DW_AT_type(*$C$DW$T$19)
    2907                      .dwattr $C$DW$159, DW_AT_name("SOC12")
    2908                      .dwattr $C$DW$159, DW_AT_TI_symbol_name("_SOC12")
    2909                      .dwattr $C$DW$159, DW_AT_bit_offset(0x06)
    2910                      .dwattr $C$DW$159, DW_AT_bit_size(0x02)
    2911                      .dwattr $C$DW$159, DW_AT_data_member_location[DW_OP_plus_uconst 0x0]
    2912                      .dwattr $C$DW$159, DW_AT_accessibility(DW_ACCESS_public)
    2913              
    2914              $C$DW$160       .dwtag  DW_TAG_member
    2915                      .dwattr $C$DW$160, DW_AT_type(*$C$DW$T$19)
    2916                      .dwattr $C$DW$160, DW_AT_name("SOC13")
    2917                      .dwattr $C$DW$160, DW_AT_TI_symbol_name("_SOC13")
    2918                      .dwattr $C$DW$160, DW_AT_bit_offset(0x04)
    2919                      .dwattr $C$DW$160, DW_AT_bit_size(0x02)
    2920                      .dwattr $C$DW$160, DW_AT_data_member_location[DW_OP_plus_uconst 0x0]
    2921                      .dwattr $C$DW$160, DW_AT_accessibility(DW_ACCESS_public)
    2922              
    2923              $C$DW$161       .dwtag  DW_TAG_member
    2924                      .dwattr $C$DW$161, DW_AT_type(*$C$DW$T$19)
    2925                      .dwattr $C$DW$161, DW_AT_name("SOC14")
    2926                      .dwattr $C$DW$161, DW_AT_TI_symbol_name("_SOC14")
    2927                      .dwattr $C$DW$161, DW_AT_bit_offset(0x02)
    2928                      .dwattr $C$DW$161, DW_AT_bit_size(0x02)
    2929                      .dwattr $C$DW$161, DW_AT_data_member_location[DW_OP_plus_uconst 0x0]
    2930                      .dwattr $C$DW$161, DW_AT_accessibility(DW_ACCESS_public)
    2931              
    2932              $C$DW$162       .dwtag  DW_TAG_member
    2933                      .dwattr $C$DW$162, DW_AT_type(*$C$DW$T$19)
    2934                      .dwattr $C$DW$162, DW_AT_name("SOC15")
    2935                      .dwattr $C$DW$162, DW_AT_TI_symbol_name("_SOC15")
    2936                      .dwattr $C$DW$162, DW_AT_bit_offset(0x00)
    2937                      .dwattr $C$DW$162, DW_AT_bit_size(0x02)
    2938                      .dwattr $C$DW$162, DW_AT_data_member_location[DW_OP_plus_uconst 0x0]
    2939                      .dwattr $C$DW$162, DW_AT_accessibility(DW_ACCESS_public)
    2940              
    2941                      .dwendtag $C$DW$T$26
    2942              
    2943              
    2944              $C$DW$T$27      .dwtag  DW_TAG_union_type
    2945                      .dwattr $C$DW$T$27, DW_AT_name("ADCINTSOCSEL2_REG")
    2946                      .dwattr $C$DW$T$27, DW_AT_byte_size(0x01)
    2947              $C$DW$163       .dwtag  DW_TAG_member
    2948                      .dwattr $C$DW$163, DW_AT_type(*$C$DW$T$19)
    2949                      .dwattr $C$DW$163, DW_AT_name("all")
TMS320C2000 Assembler PC v16.9.6 Tue Mar 06 18:34:46 2018

Tools Copyright (c) 1996-2017 Texas Instruments Incorporated
C:\Users\Admin\AppData\Local\Temp\{ED9AE313-281A-4435-8F2A-5411619B06A2} PAGE   62

    2950                      .dwattr $C$DW$163, DW_AT_TI_symbol_name("_all")
    2951                      .dwattr $C$DW$163, DW_AT_data_member_location[DW_OP_plus_uconst 0x0]
    2952                      .dwattr $C$DW$163, DW_AT_accessibility(DW_ACCESS_public)
    2953              
    2954              $C$DW$164       .dwtag  DW_TAG_member
    2955                      .dwattr $C$DW$164, DW_AT_type(*$C$DW$T$26)
    2956                      .dwattr $C$DW$164, DW_AT_name("bit")
    2957                      .dwattr $C$DW$164, DW_AT_TI_symbol_name("_bit")
    2958                      .dwattr $C$DW$164, DW_AT_data_member_location[DW_OP_plus_uconst 0x0]
    2959                      .dwattr $C$DW$164, DW_AT_accessibility(DW_ACCESS_public)
    2960              
    2961                      .dwendtag $C$DW$T$27
    2962              
    2963              
    2964              $C$DW$T$28      .dwtag  DW_TAG_structure_type
    2965                      .dwattr $C$DW$T$28, DW_AT_name("ADCINT_BITS")
    2966                      .dwattr $C$DW$T$28, DW_AT_byte_size(0x01)
    2967              $C$DW$165       .dwtag  DW_TAG_member
    2968                      .dwattr $C$DW$165, DW_AT_type(*$C$DW$T$19)
    2969                      .dwattr $C$DW$165, DW_AT_name("ADCINT1")
    2970                      .dwattr $C$DW$165, DW_AT_TI_symbol_name("_ADCINT1")
    2971                      .dwattr $C$DW$165, DW_AT_bit_offset(0x0f)
    2972                      .dwattr $C$DW$165, DW_AT_bit_size(0x01)
    2973                      .dwattr $C$DW$165, DW_AT_data_member_location[DW_OP_plus_uconst 0x0]
    2974                      .dwattr $C$DW$165, DW_AT_accessibility(DW_ACCESS_public)
    2975              
    2976              $C$DW$166       .dwtag  DW_TAG_member
    2977                      .dwattr $C$DW$166, DW_AT_type(*$C$DW$T$19)
    2978                      .dwattr $C$DW$166, DW_AT_name("ADCINT2")
    2979                      .dwattr $C$DW$166, DW_AT_TI_symbol_name("_ADCINT2")
    2980                      .dwattr $C$DW$166, DW_AT_bit_offset(0x0e)
    2981                      .dwattr $C$DW$166, DW_AT_bit_size(0x01)
    2982                      .dwattr $C$DW$166, DW_AT_data_member_location[DW_OP_plus_uconst 0x0]
    2983                      .dwattr $C$DW$166, DW_AT_accessibility(DW_ACCESS_public)
    2984              
    2985              $C$DW$167       .dwtag  DW_TAG_member
    2986                      .dwattr $C$DW$167, DW_AT_type(*$C$DW$T$19)
    2987                      .dwattr $C$DW$167, DW_AT_name("ADCINT3")
    2988                      .dwattr $C$DW$167, DW_AT_TI_symbol_name("_ADCINT3")
    2989                      .dwattr $C$DW$167, DW_AT_bit_offset(0x0d)
    2990                      .dwattr $C$DW$167, DW_AT_bit_size(0x01)
    2991                      .dwattr $C$DW$167, DW_AT_data_member_location[DW_OP_plus_uconst 0x0]
    2992                      .dwattr $C$DW$167, DW_AT_accessibility(DW_ACCESS_public)
    2993              
    2994              $C$DW$168       .dwtag  DW_TAG_member
    2995                      .dwattr $C$DW$168, DW_AT_type(*$C$DW$T$19)
    2996                      .dwattr $C$DW$168, DW_AT_name("ADCINT4")
    2997                      .dwattr $C$DW$168, DW_AT_TI_symbol_name("_ADCINT4")
    2998                      .dwattr $C$DW$168, DW_AT_bit_offset(0x0c)
    2999                      .dwattr $C$DW$168, DW_AT_bit_size(0x01)
    3000                      .dwattr $C$DW$168, DW_AT_data_member_location[DW_OP_plus_uconst 0x0]
    3001                      .dwattr $C$DW$168, DW_AT_accessibility(DW_ACCESS_public)
    3002              
    3003              $C$DW$169       .dwtag  DW_TAG_member
    3004                      .dwattr $C$DW$169, DW_AT_type(*$C$DW$T$19)
TMS320C2000 Assembler PC v16.9.6 Tue Mar 06 18:34:46 2018

Tools Copyright (c) 1996-2017 Texas Instruments Incorporated
C:\Users\Admin\AppData\Local\Temp\{ED9AE313-281A-4435-8F2A-5411619B06A2} PAGE   63

    3005                      .dwattr $C$DW$169, DW_AT_name("ADCINT5")
    3006                      .dwattr $C$DW$169, DW_AT_TI_symbol_name("_ADCINT5")
    3007                      .dwattr $C$DW$169, DW_AT_bit_offset(0x0b)
    3008                      .dwattr $C$DW$169, DW_AT_bit_size(0x01)
    3009                      .dwattr $C$DW$169, DW_AT_data_member_location[DW_OP_plus_uconst 0x0]
    3010                      .dwattr $C$DW$169, DW_AT_accessibility(DW_ACCESS_public)
    3011              
    3012              $C$DW$170       .dwtag  DW_TAG_member
    3013                      .dwattr $C$DW$170, DW_AT_type(*$C$DW$T$19)
    3014                      .dwattr $C$DW$170, DW_AT_name("ADCINT6")
    3015                      .dwattr $C$DW$170, DW_AT_TI_symbol_name("_ADCINT6")
    3016                      .dwattr $C$DW$170, DW_AT_bit_offset(0x0a)
    3017                      .dwattr $C$DW$170, DW_AT_bit_size(0x01)
    3018                      .dwattr $C$DW$170, DW_AT_data_member_location[DW_OP_plus_uconst 0x0]
    3019                      .dwattr $C$DW$170, DW_AT_accessibility(DW_ACCESS_public)
    3020              
    3021              $C$DW$171       .dwtag  DW_TAG_member
    3022                      .dwattr $C$DW$171, DW_AT_type(*$C$DW$T$19)
    3023                      .dwattr $C$DW$171, DW_AT_name("ADCINT7")
    3024                      .dwattr $C$DW$171, DW_AT_TI_symbol_name("_ADCINT7")
    3025                      .dwattr $C$DW$171, DW_AT_bit_offset(0x09)
    3026                      .dwattr $C$DW$171, DW_AT_bit_size(0x01)
    3027                      .dwattr $C$DW$171, DW_AT_data_member_location[DW_OP_plus_uconst 0x0]
    3028                      .dwattr $C$DW$171, DW_AT_accessibility(DW_ACCESS_public)
    3029              
    3030              $C$DW$172       .dwtag  DW_TAG_member
    3031                      .dwattr $C$DW$172, DW_AT_type(*$C$DW$T$19)
    3032                      .dwattr $C$DW$172, DW_AT_name("ADCINT8")
    3033                      .dwattr $C$DW$172, DW_AT_TI_symbol_name("_ADCINT8")
    3034                      .dwattr $C$DW$172, DW_AT_bit_offset(0x08)
    3035                      .dwattr $C$DW$172, DW_AT_bit_size(0x01)
    3036                      .dwattr $C$DW$172, DW_AT_data_member_location[DW_OP_plus_uconst 0x0]
    3037                      .dwattr $C$DW$172, DW_AT_accessibility(DW_ACCESS_public)
    3038              
    3039              $C$DW$173       .dwtag  DW_TAG_member
    3040                      .dwattr $C$DW$173, DW_AT_type(*$C$DW$T$19)
    3041                      .dwattr $C$DW$173, DW_AT_name("ADCINT9")
    3042                      .dwattr $C$DW$173, DW_AT_TI_symbol_name("_ADCINT9")
    3043                      .dwattr $C$DW$173, DW_AT_bit_offset(0x07)
    3044                      .dwattr $C$DW$173, DW_AT_bit_size(0x01)
    3045                      .dwattr $C$DW$173, DW_AT_data_member_location[DW_OP_plus_uconst 0x0]
    3046                      .dwattr $C$DW$173, DW_AT_accessibility(DW_ACCESS_public)
    3047              
    3048              $C$DW$174       .dwtag  DW_TAG_member
    3049                      .dwattr $C$DW$174, DW_AT_type(*$C$DW$T$19)
    3050                      .dwattr $C$DW$174, DW_AT_name("rsvd1")
    3051                      .dwattr $C$DW$174, DW_AT_TI_symbol_name("_rsvd1")
    3052                      .dwattr $C$DW$174, DW_AT_bit_offset(0x00)
    3053                      .dwattr $C$DW$174, DW_AT_bit_size(0x07)
    3054                      .dwattr $C$DW$174, DW_AT_data_member_location[DW_OP_plus_uconst 0x0]
    3055                      .dwattr $C$DW$174, DW_AT_accessibility(DW_ACCESS_public)
    3056              
    3057                      .dwendtag $C$DW$T$28
    3058              
    3059              
TMS320C2000 Assembler PC v16.9.6 Tue Mar 06 18:34:46 2018

Tools Copyright (c) 1996-2017 Texas Instruments Incorporated
C:\Users\Admin\AppData\Local\Temp\{ED9AE313-281A-4435-8F2A-5411619B06A2} PAGE   64

    3060              $C$DW$T$29      .dwtag  DW_TAG_union_type
    3061                      .dwattr $C$DW$T$29, DW_AT_name("ADCINT_REG")
    3062                      .dwattr $C$DW$T$29, DW_AT_byte_size(0x01)
    3063              $C$DW$175       .dwtag  DW_TAG_member
    3064                      .dwattr $C$DW$175, DW_AT_type(*$C$DW$T$19)
    3065                      .dwattr $C$DW$175, DW_AT_name("all")
    3066                      .dwattr $C$DW$175, DW_AT_TI_symbol_name("_all")
    3067                      .dwattr $C$DW$175, DW_AT_data_member_location[DW_OP_plus_uconst 0x0]
    3068                      .dwattr $C$DW$175, DW_AT_accessibility(DW_ACCESS_public)
    3069              
    3070              $C$DW$176       .dwtag  DW_TAG_member
    3071                      .dwattr $C$DW$176, DW_AT_type(*$C$DW$T$28)
    3072                      .dwattr $C$DW$176, DW_AT_name("bit")
    3073                      .dwattr $C$DW$176, DW_AT_TI_symbol_name("_bit")
    3074                      .dwattr $C$DW$176, DW_AT_data_member_location[DW_OP_plus_uconst 0x0]
    3075                      .dwattr $C$DW$176, DW_AT_accessibility(DW_ACCESS_public)
    3076              
    3077                      .dwendtag $C$DW$T$29
    3078              
    3079              
    3080              $C$DW$T$31      .dwtag  DW_TAG_structure_type
    3081                      .dwattr $C$DW$T$31, DW_AT_name("ADCOFFTRIM_BITS")
    3082                      .dwattr $C$DW$T$31, DW_AT_byte_size(0x01)
    3083              $C$DW$177       .dwtag  DW_TAG_member
    3084                      .dwattr $C$DW$177, DW_AT_type(*$C$DW$T$30)
    3085                      .dwattr $C$DW$177, DW_AT_name("OFFTRIM")
    3086                      .dwattr $C$DW$177, DW_AT_TI_symbol_name("_OFFTRIM")
    3087                      .dwattr $C$DW$177, DW_AT_bit_offset(0x07)
    3088                      .dwattr $C$DW$177, DW_AT_bit_size(0x09)
    3089                      .dwattr $C$DW$177, DW_AT_data_member_location[DW_OP_plus_uconst 0x0]
    3090                      .dwattr $C$DW$177, DW_AT_accessibility(DW_ACCESS_public)
    3091              
    3092              $C$DW$178       .dwtag  DW_TAG_member
    3093                      .dwattr $C$DW$178, DW_AT_type(*$C$DW$T$19)
    3094                      .dwattr $C$DW$178, DW_AT_name("rsvd1")
    3095                      .dwattr $C$DW$178, DW_AT_TI_symbol_name("_rsvd1")
    3096                      .dwattr $C$DW$178, DW_AT_bit_offset(0x00)
    3097                      .dwattr $C$DW$178, DW_AT_bit_size(0x07)
    3098                      .dwattr $C$DW$178, DW_AT_data_member_location[DW_OP_plus_uconst 0x0]
    3099                      .dwattr $C$DW$178, DW_AT_accessibility(DW_ACCESS_public)
    3100              
    3101                      .dwendtag $C$DW$T$31
    3102              
    3103              
    3104              $C$DW$T$32      .dwtag  DW_TAG_union_type
    3105                      .dwattr $C$DW$T$32, DW_AT_name("ADCOFFTRIM_REG")
    3106                      .dwattr $C$DW$T$32, DW_AT_byte_size(0x01)
    3107              $C$DW$179       .dwtag  DW_TAG_member
    3108                      .dwattr $C$DW$179, DW_AT_type(*$C$DW$T$19)
    3109                      .dwattr $C$DW$179, DW_AT_name("all")
    3110                      .dwattr $C$DW$179, DW_AT_TI_symbol_name("_all")
    3111                      .dwattr $C$DW$179, DW_AT_data_member_location[DW_OP_plus_uconst 0x0]
